seat/ 
button: 8888 2000 8000 
small blind: 3333 2000 8000 
big blind: 5555 2000 8000 
7777 2000 8000 
4444 2000 8000 
1111 2000 8000 
6666 2000 8000 
2222 2000 8000 
/seat 

---------------
blind/ 
3333: 50 
5555: 100 
/blind 

---------------

---------------
seat/ 
button: 8888 2000 8000 
small blind: 3333 2000 8000 
big blind: 5555 2000 8000 
7777 2000 8000 
4444 2000 8000 
1111 2000 8000 
6666 2000 8000 
2222 2000 8000 
/seat 

---------------
blind/ 
3333: 50 
5555: 100 
/blind 

---------------

---------------
hold/ 
DIAMONDS seat/ 
button: 8888 2000 8000 
small blind: 3333 2000 80seat/ 
button: 8888 2000 8000 
small blind: 3333 2000 8000 
big blind: 5555 2000 8000 
7777 2000 8000 
4444 2000 8000 
1111 2000 8000 
6666 2000 8000 
2222 2000 8000 
/seat 

---------------
blind/ 
3333: 50 
5555: 100 
/blind 

---------------

---------------
hold/ 
DIAMONDS 8 
DIAMONDS 3 
/hold 

---------------

---------------
inquire/ 
3333 1900 8000 100 call 
8888 1900 8000 100 call 
2222 1900 8000 100 call 
6666 1900 8000 100 call 
1seat/ 
button: 8888 2000 8000 
small blind: 3333 2000 8000 
big blind: 5555 2000 8000 
7777 2000 8000 
4444 2000 8000 
1111 2000 8000 
6666 2000 8000 
2222 2000 8000 
/seat 

---------------
blind/ 
3333: 50 
5555: 100 
/blind 

---------------

---------------
hold/ 
SPADES Q 
CLUBS 9 
/hold 

---------------

---------------
inquire/ 
5555 1900 8000 100 blind 
3333 1950 8000 50 blind 
total pot: 150 
/inquire 

---------------

---------------
flop/ 
HEARTS Q 
SPADES 7 
CLUBS 8 
/flop 

---------------

---------------
seat/ 
button: 8888 2000 8000 
small blind: 3333 2000 80seat/ 
button: 8888 2000 8000 
small blind: 3333 2000seat/ 
button: 8888 2000 8000 
small blind: 333seat/ 
button: 8888 2000 8000 
small blind: 3333 2000 8000 
big blind: 5555 2000 8000 
7777 2000 8000 
seat/ 
button: 8888 2000 8000 
small blind: 3333 2000 8000 
big blind: 5555 2000 8000 
7777 2000 8000 
4444 2000 8000 
1111 2000 8000 
6666 2000 8000 
2222 2000 8000 
/seat 

---------------
blind/ 
3333: 50 
5555: 100 
/blind 

---------------

---------------
hold/ 
DIAMONDS 10 
CLUBS Q 
/hold 

---------------

---------------
inquire/ 
2222 1900 8000 100 call 
6666 1900 8000 100 call 
1111 1900 8000 100 call 
4444 1900 8000 100 call 
7777 1900 8000 100 call 
5555 1900 8000 100 blind 
3333 1950 8000 50 blind 
total pot: 650 
/inquiseat/ 
button: 8888 2000 8000 
small blind: 3333 2000 8000 
big blind: 5555 2000 800seat/ 
button: 8888 2000 8000 
small blind: 3333 2000 8000 
big blind: 5555 2000 8000 
7777 2000 8000 
4444 2000 8000 
1111 2000 8000 
6666 2000 8000 
2seat/ 
button: 8888 2000 8000 
small blind: 3333 2000 8000 
big blind: 5555 2000 8000 
7777 2000 8000 
4444 2000 8000 
1111 2000 8000 
6666 2000 8000 
2222 2000 8000 
/seat 

---------------
blind/ 
3333: 50 
5555: 100 
/blind 

---------------

---------------
hold/ 
SPADES K 
HEARTS 10 
/hold 

---------------

---------------
inquire/ 
1111 1900 8000 100 call 
4444 1900 8000 100 call 
7777 1900 8000 100 call 
5555 1900 8000 100 blind 
3333 1950 8000 50 blind 
total pot: 450 
/inquire 

---------------

---------------
flop/ 
HEARTS Q 
SPADES 7 
CLUBS 8 
/flop 

---------------

---------------
inquire/ 
1111 19seat/ 
button: 8888 2000 8000 
small blind: 3333 2000 8000 
big blind: 5555 2000 8000 
7777 2000 8000 
4444 2000seat/ 
button: 8888 2000 8000 
small blind: 3333 2000 8000 
big blind: 5555 2000 8000 
7777 2000 8000 
4444seat/ 
button: 8888 2000 8000 
small blind: 3333 2000 8000 
big blind: 5555 2000 8000 
7777 2000 seat/ 
button: 8888 2000 8000 
small blind: 3333 2000 8000 
big blind: 5555 2000 8000 
7777 2000 8000 
4444 2000 8000 
1111 2000 8000 
6666 2000 8000 
2222 2000 8000 
/seat 

---------------
blind/ 
3333: 50 
seat/ 
button: 8888 2000 8000 
small blind: 3333 2000 8000 
big blind: 5555 2000 8000 
7777 2000 8000 
4444 2000 8000 
1111 2000 8000 
6666 2000 8000 
2222 2000 8000 
/seat 

---------------
blind/ 
3333: 50 
5555: 100 
/blind 

---------------

---------------
hold/ 
DIAMONDS 10 
CLUBS Q 
/hold 

---------------

---------------
inquire/ 
2222 1900 8000 100 call 
6666 1900 8000 100 call 
1111 1900 8000 100 call 
4444 1900 8000 100 call 
7777 1900 8000 100 call 
5555 1900 8000 100 blind 
3333 1950 8000 50 blind 
total pot: 650 
/inquire 

---------------

---------------
flop/ 
HEARTS Q 
SPADES 7 
CLUBSseat/ 
button: 8888 2000 8000 
small blind: 3333 2000 8000 
big blind: 5555 2000 8000 
7777 2000 8000 
4444 2000 8000 
1111 2000 8000 
6666 2000 8000 
2222 2000 8000 
/seat 

---------------
blind/ 
3333: 50 
5555: 100 
/blind 

---------------

---------------
hold/ 
SPADEseat/ 
button: 8888 2000 8000 
small blind: 3333 2000 8000 
big blind: 5555 2000 8000 
7777 2000 8000 
4444 2000 8000 
111seat/ 
button: 8888 2000 8000 
small blind: 3333 2000 8000 
big blind: 5555 2000 8000 
7777 2000 8000 
4444 2000 8000 
1111 2000 8000 
6666 2000 8000 
2222 2000 8000 
/seat 

---------------
blind/ 
3333: 50 
5555: 100 
/blind 

---------------

---------------
seat/ 
button: 8888 2000 8000 
small blind: 3333 2000 8000 
big blind: 5555 2000 8000 
7777 2000 8000 
4444 2000 8000 
1111 2000 8000 
6666 2000 8000 
2222 2000 8000 
/seat 

---------------
blind/ 
3333: 50 
5555: 100 
/blind 

---------------

---------------
hold/ 
DIAMONDS 10 
CLUBS Q 
/hold 

---------------

---------------
inquire/ 
2222 1900 8000 100 call 
6666 1900 8000 100 call 
1111 1900 8000 100 call 
4444 1900 8000 100 call 
7777 1900 8000 100 call 
5555 1900 8000 100 blind 
3333 1950 8000 50 blind 
total pot: 650 
/iseat/ 
button: 8888 2000 8000 
small blind: 3333 2000 8000 
big blind: 5555 2000 8000 
7777 2000 8000 
4444 2000 8000 
1111 2000 8000 
6666 2000 8000 
2222 2000 8000 
/seat/ 
button: 8888 2000 8000 
small blind: 3333 2000 8000 
big blind: 5555 2000 8000 
7777 2000 8000 
4444 2000 8000 
1111 2000 8000 
6666 2000 8000 
2222 2000 seat/ 
button: 8888 2000 8000 
small blind: 3333 2000 8000 
big blind: 5555 2000 8000 
7777 2000 8000 
4444 2000 8000 
1111 2000 8000 
6666 2000 80seat/ 
button: 8888 2000 8000 
small blind: 3333 2000 8000 
big blind: 5555 2000 8000 
7777 2000 8000 
4444 2000 8000 
1111 2000 8000 
6666 2000 8000 
2222 2000 8000 
/seat 

---------------
blind/ 
3333: 50 
5555: 100 
/blind 

---------------

---------------
hold/ 
SPADES K 
HEARTS 10 
/hold 

---------------

seat/ 
button: 8888 2000 8000 
small blind: 3333 2000 8000 
big blind: 5555 2000 8000 
7777 2000 8000 
4444 2000 8000 
1111 2000 8000 
6666 2000 8000 
2222 2000 8000 
/seat 

---------------
blind/ 
3333: 50 
5555: 100 
/blind 

---------------

---------------
hold/ 
DIAMONDS 10 
CLUBS Q 
/hold 

---------------

---------------
inquire/ 
2222 1900 8000 100 call 
6666 1900 8000 100 call 
1111 1900 8000 100 call 
4444 1900 8000 100 call 
7777 1900 8000 100 call 
5555 1900 8000 100 blind 
3333 1950 8000 50 blind 
total pot: 650 
/inquire 

---------------

---------------
flop/ 
HEARTS Q 
SPADES 7 
CLUBS 8 
/flop 

---------------

---------------
inquire/ 
2222 1900 8000 1seat/ 
button: 8888 2000 8000 
small blind: 3333 2000 8000 
big blind: 5555 2000 8000 
7777 2000 8000 
4444 2000 8000 
1111 2000 8000 
6666 2000 8000 
2222 2000 8000 
/seat 

---------------
blind/ 
3333: 50 
5555: 100 
/blind 

---------------

---------------
hold/ 
SPADES Q 
CLUBS 9 
/hold 

---------------

---------------
inquire/ 
5555 1900 8000 100 blind 
3333 1950 8000 50 blind 
total pot: 150 
/inquire 

---------------

---------------
flop/ 
HEARTS Q 
SPADES 7 
CLUBS 8 
/flop 

---------------

---------------
inquire/ 
5555 1900 8000 100 check 
3333 1900 8000 100 check 
8888 1900 8000 100 call 
2222 1900 8000 100 call 
6666 1900 8000 100 call 
1111 1900 8000 100 call 
4444 1900 8000 100 call 
7777 1900 8000 100 call 
total pot: 800 
/inquire 

---------------

---------------
turn/ 
SPADES 8 
/turn 

---------------

---------------
inquire/ 
5555 1900 8000 100 check 
3333 1900 8000 100 check 
8888 1900 8000 100 check 
2222 1900 8000 100 check 
6666 1900 8000 100 check 
1111 1900 8000 100 check 
4444 1900 8000 100 check 
7777 1900 8000 100 check 
total pot: 800 
/inquire 

---------------

---------------
river/ 
CLUBS K 
/river 

---------------

---------------
inquire/ 
5555 1900 8000 100 check 
3333 1900 8000 100 check 
8888 1900 8000 100 check 
2222 1900 8000 100 check 
6666 1900 8000 100 check 
1111 1900 8000 100 check 
4444 1900 8000 100 check 
7777 1900 8000 100 check 
total pot: 800 
/inquire 

---------------

---------------
showdown/ 
common/ 
HEARTS Q 
SPADES 7 
CLUBS 8 
SPADES 8 
CLUBS K 
/common 
6: 3333 DIAMONDS 6 HEARTS 6 TWO_PAIR 
1: 5555 DIAMONDS 8 DIAMONDS 3 THREE_OF_A_KIND 
3: 7777 SPADES Q CLUBS 9 TWO_PAIR 
5: 4444 CLUBS 7 DIAMONDS A TWO_PAIR 
7: 1111 SPADES 6 DIAMONDS 2 ONE_PAIR 
2: 6666 SPADES K HEARTS 10 TWO_PAIR 
4: 2222 CLUBS J SPADES J TWO_PAIR 
3: 8888 DIAMONDS 10 CLUBS Q TWO_PAIR 
/showdown 

---------------

---------------
seat/ 
button: 8888 2000 8000 
small blind: 3333 2000 8000 
big blind: 5555 2000 8000 
7777 2000 8000 
4444 2000 8000 
1111 2000 8000 
6666 2000 8000 
2222 2000 8000 
/seat 

---------------
blind/ 
3333: 50 
5555: 100 
/blind 

---------------

---------------
hold/ 
SPADES Q 
CLUBS 9 
/hold 

---------------

---------------
inquire/ 
5555 1900 8000 100 blind 
3333 1950 8000 50 blind 
total pot: 150 
/inquire 

---------------

---------------
flop/ 
HEARTS Q 
SPADES 7 
CLUBS 8 
/flop 

---------------

---------------
inquire/ 
5555 1900 8000 100 check 
3333 1900 8000 100 check 
8888 1900 8000 100 call 
2222 1900 8000 100 call 
6666 1900 8000 100 call 
1111 1900 8000 100 call 
4444 1900 8000 100 call 
7777 1900 8000 100 call 
total pot: 800 
/inquire 

---------------

---------------
turn/ 
SPADES 8 
/turn 

---------------

---------------
inquire/ 
5555 1900 8000 100 check 
3333 1900 8000 100 check 
8888 1900 8000 100 check 
2222 1900 8000 100 check 
6666 1900 8000 100 check 
1111 1900 8000 100 check 
4444 1900 8000 100 check 
7777 190seat/ 
button: 8888 2000 8000 
small blind: 3333 2000 8000 
b
---------------
river/ 
CLUBS K 
/river 

---------------

---------------
inquire/ 
5555 1900 8000 100 check 
3333 1900 8000 100 check 
8888 1900 8000 100 check 
2222 1900 8000 100 check 
6666 1900 8000 100 check 
1111 1900 8000 100 che---------------

---------------
inquire/ 
2222 1900 8000 100 call 
6666 1900 8000 100 call 
1111 1900 8000 100 callshowdown/ 
common/ 
HEARTS Q 
SPADES 7 
CLUBS 8 
SPADES 8 
CLUBS K 
/common 
6: 3333 DIAMONDS 6 HEARTS 6 TWO_PAIR 
1: 5555 DIAMOND---------------

---------------
flop/ 
HEARTS Q 
SPADES 7 
CLUBS 8 
/flop 

---------------

---------------
inquire/ 
2222 1900 8000 100 check 
6666 1900 8000 100 check 
1111 1900 8000 100 check 
4444 1900 8000 100 check 
7777 1900 8000 100 check 
5555 1900 8000 100 check 
3333 1900 8000 100 check 
8888 1900 8000 100 call 
total pot: 800 
/inquire 

--------seat/ 
button: 8888 2000 8000 
small blind: 3333 2000 8000 
big blind: 5555 2000 8000 
7777 2000 8000 
4444 2000 8000 
1111 2000 8000 
6666 2000 8000 
2222 2000 8000 
/seat 

---------------
blind/ 
3333: 50 
5555: 100 
/blind 

---------------

---------------
hold/ 
SPADES Q 
CLUBS 9 
/hold 

---------------

---------------
inquire/ 
5555 1900 8000 100 blind 
3333 1950 8000 50 blind 
total pot: 150 
/inquire 

---------------

---------------
flop/ 
HEARTS Q 
SPADES 7 
CLUBS 8 
/flop 

seat/ 
button: 8888 2000 8000 
small blind: 3333 2000 8000 
big blind: 5555 2000 8000 
7777 2000 8000 
4444 2000 8000 
1111 2000 8000 
6666 2000 8000 
2222 2000 8000 
/seat 

---------------
blind/ 
3333: 50 
5555: 100 
/bseat/ 
button: 8888 2000 8000 
small blind: 3333 2000 8000 
big blind: 5555 2000 8000 
7777 2000 8000 
4444 2000 8000 
1111 2000 8000 
6666 2000 8000 
2222 2000 8000 
/seat 

---------------
blind/ 
3333: 50 
5555: 100 
/blind 

---------------

---------------
hold/ 
SPADES K 
HEARTS 10 
/hold 

---------------

---------------
inquire/ 
1111 1900 8000 100 call 
4444 1900 8000 100 call 
7777 1900 8000 100 call 
5555 1900 8000 100 blind 
3333 1950 8000 50 blind 
total pseat/ 
button: 8888 2000 8000 
small blind: 3333 2000 8000 
big blind: 5555 2000 8000 
7777 2000 8000 
4444 2000 8000 
1111 2000 8000 
6666 2000 8000 
2222 2000 8000 
/seat 

---------------
blind/ 
3333: 50 
5555: 100 
/blind 

---------------

---------------
hold/ 
DIAMONDS 10 
CLUBS Q 
/hold 

---------------

---------------
inquire/ 
2222 1900 8000 100 call 
6666 1900 8000 100 call 
1111 1900 8000 100 call 
4444 1900 8000 100 call 
7777 1900 8000 100 call 
5555 1900 8000 100 blind 
3333 1950 8000 50 blind 
total pot: 650 
/inquire 

---------------

---------------
flop/ 
HEARTS Q 
SPADES 7 
CLUBS 8 
/flop 

---------------

---------------
inquire/ 
2222 1900 8000 100 check 
6666 1900 8000 100 check 
1111 1900 8000 100 check 
4444 1900 8000 100 check 
7777 1900 8000 100 check 
5555 1900 8000 100 check 
3333 1900 8000 100 check 
8888 1900 8000 100 call 
total pot: 800 
/inquire 

---------------

---------------
turn/ 
SPADES 8 
/turn 

---------------

--------seat/ 
button: 8888 2000 8000 
small blind: 3333 2000 8000 
big blind: 5555 2000 8000 
7777 2000 8000 
4444 2000 8000 
1111 2000 8000 
6666 2000 8000 
2222 2000 8000 
/seat 

---------------
blind/ 
3333: 50 
5555: 100 
/blind 

---------------

---------------
hold/ 
SPADES Q 
CLUBS 9 
/hold 

---------------

---------------
inquire/ 
5555 1900 8000 100 blind 
3333 1950 8000 50 blind 
total pot: 150 
/inquire 

---------------

---------------
flop/ 
HEARTS Q 
SPADES 7 
CLUBS 8 
/flop 

---------------

---------------
inquire/ 
5555 1900 80seat/ 
button: 8888 2000 8000 
small blind: 3333 2000 8000 
big blind: 5555 2000 8000 
7777 2000 8000 
4444 2000 8000 
1111 2000 8000 
6666 2000 8000 
2222 2000 8000 
/seat 

---------------
blind/ 
3333: 50 
5555: 100 
/blind 

---------------

-seat/ 
button: 8888 2000 8000 
small blind: 3333 2000 8000 
big blind: 5555 2000 8000 
7777 2000 8000 
4444 2000 8000 
1111 2000 8000 
6666 2000 8000 
2222 2000 8000 
/seat 

---------------
blind/ 
3333: 50 
5555: 100 
/blind 

---------------

---------------
hold/ 
SPADES K 
HEARTS 10 
/hold 

---------------

---------------
inquire/ 
1111 1900 8000 100 call 
4444 1900 8000 100 call 
7777 1900 8000 100 call 
5555 1900 8000 100 blind 
3333 1950 8000 50 blind 
total pot: 450 
/inquire 

---------------

---------------
seat/ 
button: 8888 2000 8000 
small blind: 3333 2000 8000 
big blind: 5555 2000 8000 
7777 2000 8000 
4444 2000 8000 
1111 2000 8000 
6666 2000 8000 
2222 2000 8000 
/seat 

---------------
blind/ 
3333: 50 
5555: 100 
/blind 

---------------

---------------
hold/ 
DIAMONDS 10 
CLUBS Q 
/hold 

---------------

---------------
inquire/ 
2222 1900 8000 100 call 
6666 1900 8000 100 call 
1111 1900 8000 100 call 
4444 1900 8000 100 call 
7777 1900 8000 100 call 
5555 1900 8000 100 blind 
3333 1950 8000 50 blind 
total pot: 650 
/inquire 

---------------

---------------
flop/ 
HEARTS Q 
SPADES 7 
CLUBS 8 
/flop 

---------------

---------------
inquire/ 
2222 1900 8000 100 check 
6666 1900 8000 100 check 
1111 1900 8000 100 check 
4444 1900 8000 100 check 
7777 1900 8000 100 check 
5555 1900 8000 100 check 
3333 1900 8000 100 check 
8888 1900 8000 100 call 
total pot: 800 
/inquire 

---------------

----seat/ 
button: 8888 2000 8000 
small blind: 3333 2000 8000 
big blind: 5555 2000 8000 
7777 2000 8000 
4444 2000 8000 
1111 2000 8000 
6666 2000 8000 
2222 2000 8000 
/seat 

---------------
blind/ 
3333: 50 
5555: 100 
/blind 

---------------

---------------
hold/ 
SPADES Q 
CLUBS 9 
/hold 

------------seat/ 
button: 8888 2000 8000 
small blind: 3333 2000 8000 
big blind: 5555 2000 8000 
7777 2000 8000 
4444 2000 8000 
1111 2000 8000 
6666 2000 8000 
2222 2000 8000 
/seat 

---------------
blind/ 
3333: 50 
5555: 100 
/blind 

---------------

---------------
hold/ 
CLUBS 7 
DIAMONDS A 
/hold seat/ 
button: 8888 2000 8000 
small blind: 3333 2000 8000 
big blind: 5555 2000 8000 
7777 2000 8000 
4444 2000 8000 
1111 2000 8000 
6666 2000 8000 
2222 2000 8000 
/seat 

---------------
blind/ 
3333: 50 
5555: 100 
/blind 

---------------

---------------
hold/ 
SPADES 6 
DIAMONDS 2 
/hold 

---------------

---------------
inquire/ 
4444 1900 8000 100 call 
7777 1900 8000 100 call 
5555 1900 8000 100 blind 
3333 1950 8000 50 blind 
total pot: 350 
/inquire 

---------------

---------------
flop/ 
HEARTS Q 
SPADES 7 
CLUBS 8 
/flop 

---------------

---------------
inquire/ 
4444 1900 8000 100 check 
7777 1900 8000 100 check 
5555 1900 8000 100 check 
3333 1900 8000 100 check 
8888 1900 8000 100 call 
2222 1900 8000 100 call 
6666 1900 8000 100 call 
1111 1900 8000 100 call 
total pot: 800 
/inquire 

---------------

--------------seat/ 
button: 8888 2000 8000 
small blind: 3333 2000 8000 
big blind: 5555 2000 8000 
7777 2000 8000 
4444 2000 8000 
1111 2000 8000 
6666 2000 8000 
2222 2000 8000 
seat/ 
button: 8888 2000 8000 
small blind: 3333 2000 8000 
big blind: 5555 2000 8000 
7777 2000 8000 
4444 2000 8000 
1111 2000 8000 
6666 2000 8000 
2222 2000 8000 
/seat 

---------------

---------------
blind/ 
3333: 50 
5555: 100 
/blind 

---------------
hold/ 
DIAMONDS 6 
HEARTS 6 
/hold 

---------------

---------------
inquire/ 
8888 1900 8000 100 call 
2222 1900 8000 100 call 
6666 1900 8000 100 call 
1111 1900 8000 100 call 
4444 1900 8000 100 call 
7777 1900 8000 100 call 
5555 1900 8000 100 blind 
3333 1950 8000 50 blind 
total pot: 750 
/inquire 

---------------

---------------
flop/ 
HEARTS Q 
SPADES 7 
CLUBS 8 
/flop 

---------------

---------------
inquire/ 
88seat/ 
button: 8888 2000 8000 
small blind: 3333 2000 8000 
big blind: 5555 2000 8000 
7777 2000 8000 
4444 2000 8000 
1111 2000 8000 
6666 2000 8000 
2222 2000 8000 
/seat 

---------------
blind/ 
3333: 50 
5555: 100 
/blind 

---------------

---------------
hold/ 
SPADES Q 
CLUBS 9 
/hold 

---------------

---------------
inquire/ 
5555 1900 8000 100 blind 
3333 1950 8000 50 blind 
total pot: 150 
/inquire 

---------------

---------------
flop/ 
HEARTS Q 
SPADES 7 
CLUBS 8 
/flop 

---------------

---------------
inquire/ 
5555 1900 8000 100 check 
3333 1900 8000 100 check 
8888 1900 8000 100 call 
2222 1900 8000 100 call 
6666 1900 8000 100 call 
1111 1900 8000 100 call 
4444 1900 8000 100 call 
7777 1900 8000 100 call 
total pot: 800 
/inquire 

---------------

---------------
turn/ 
SPADES 8 
/turn 

---------------

---------------
inquire/ 
5555 1900 8000 100 check 
3333 1900 8000 100 check 
8888 1900 8000 100 check 
2222 1900 8000 100 check 
6666 1900 8000 100 check 
1111 1900 8000 100 check 
4444 1900 8000 100 check 
7777 1900 8000 100 check 
total pot: 800 
/inquire 

---------------

---------------
river/ 
CLUBS K 
/river 

---------------

---------------
inquire/ 
5555 1900 8000 100 check 
3333 1900 8000 100 check 
8888 1900 8000 100 check 
2222 1900 8000 100 check 
6666 1900 8000 100 check 
1111 1900 8000 100 check 
4444 1900 8000 100 check 
7777 1900 8000 100 check 
total pot: 800 
/inquire 

---------------

---------------
showdown/ 
common/ 
HEARTS Q 
SPADES 7 
CLUBS 8 
SPADES 8 
CLUBS K 
/common 
6: 3333 DIAMONDS 6 HEARTS 6 TWO_PAIR 
1: 5555 DIAMONDS 8 DIAMONDS 3 THREE_OF_A_KIND 
3: 7777 SPADES Q CLUBS 9 TWO_PAIR 
5: 4444 CLUBS 7 DIAMONDS A TWO_PAIR 
7: 1111 SPADES 6 DIAMONDS 2 ONE_PAIR 
2: 6666 SPADES K HEARTS 10 TWO_PAIR 
4: 2222 CLUBS J SPADES J TWO_PAIR 
3: 8888 DIAMONDS 10 CLUBS Q TWO_PAIR 
/showdown 

---------------

---------------
pot-win/ 
5555: 800 
/pot-win 

---------------

---------------
seat/ 
button: 3333 1900 8000 
small blind: 5555 2700 8000 
big blind: 7777 1900 8000 
4444 1900 8000 
1111 1900 8000 
6666 1900 8000 
2222 1900 8000 
8888 1900 8000 
/seat 

---------------

---------------
blind/ 
5555: 50 
7777: 100 
/blind 

---------------

---------------
hold/ 
DIAMONDS 8 
DIAMONDS 3 
/hold 

---------------

---------------
inquire/ 
5555 2600 8000 100 call 
3333 1800 8000 100 call 
8888 1800 8000 100 call 
2222 1800 8000 100 call 
6666 1800 8000 100 call 
1111 1800 8000 100 call 
4444 1800 8000 100 call 
7777 1800 8000 100 blind 
total pot: 800 
/inquire 

---------------

---------------
seat/ 
button: 8888 2000 8000 
small blind: 3333 2000 8000 
big blind: 5555 2000 8000 
7777 2000 8000 
4444 2000 8000 
1111 2000 8000 
6666 2000 8000 
2222 2000 8000 
/seat 

---------------
blind/ 
3333: 50 
5555: 100 
/blind 

---------------

---------------
hold/ 
SPADES Q 
CLUBS 9 
/hold 

---------------

---------------
inquire/ 
5555 1900 8000 100 blind 
3333 1950 8000 50 blind 
total pot: 150 
/inquire 

---------------

---------------
flop/ 
HEARTS Q 
SPADES 7 
CLUBS 8 
/flop 

---------------

---------------
inquire/ 
5555 1900 8000 100 check 
3333 1900 8000 100 check 
8888 1900 8000 100 call 
2222 1900 8000 100 call 
6666 1900 8000 100 call 
1111 1900 8000 100 call 
4444 1900 8000 100 call 
7777 1900 8000 100 call 
total pot: 800 
/inquire 

---------------

---------------
turn/ 
SPADES 8 
/turn 

---------------

---------------
inquire/ 
5555 1900 8000 100 check 
3333 1900 8000 100 check 
8888 1900 8000 100 check 
2222 1900 8000 100 check 
6666 1900 8000 100 check 
1111 1900 8000 100 check 
4444 1900 8000 100 check 
7777 1900 8000 100 check 
total pot: 800 
/inquire 

---------------

---------------
river/ 
CLUBS K 
/river 

---------------

---------------
inquire/ 
5555 1900 8000 100 check 
3333 1900 8000 100 check 
8888 1900 8000 100 check 
2222 1900 8000 100 check 
6666 1900 8000 100 check 
1111 1900 8000 100 check 
4444 1900 8000 100 check 
7777 1900 8000 100 check 
total pot: 800 
/inquire 

---------------

---------------
showdown/ 
common/ 
HEARTS Q 
SPADES 7 
CLUBS 8 
SPADES 8 
CLUBS K 
/common 
6: 3333 DIAMONDS 6 HEARTS 6 TWO_PAIR 
1: 5555 DIAMONDS 8 DIAMONDS 3 THREE_OF_A_KIND 
3: 7777 SPADES Q CLUBS 9 TWO_PAIR 
5: 4444 CLUBS 7 DIAMONDS A TWO_PAIR 
7: 1111 SPADES 6 DIAMONDS 2 ONE_PAIR 
2: 6666 SPADES K HEARTS 10 TWO_PAIR 
4: 2222 CLUBS J SPADES J TWO_PAIR 
3: 8888 DIAMONDS 10 CLUBS Q TWO_PAIR 
/showdown 

---------------

---------------
pot-win/ 
5555: 800 
/pot-win 

---------------

---------------
seat/ 
button: 3333 1900 8000 
small blind: 5555 2700 8000 
big blind: 7777 1900 8000 
4444 1900 8000 
1111 1900 8000 
6666 1900 8000 
2222 1900 8000 
8888 1900 8000 
/seat 

---------------

---------------
blind/ 
5555: 50 
7777: 100 
/blind 

---------------

---------------
hold/ 
DIAMONDS 8 
DIAMONDS 3 
/hold 

---------------

---------------
inquire/ 
5555 2600 8000 100 call 
3333 1800 8000 100 call 
8888 1800 8000 100 call 
2222 1800 8000 100 call 
6666 1800 8000 100 call 
1111 1800 8000 100 call 
4444 1800 8000 100 call 
7777 1800 8000 100 blind 
total pot: 800 
/inquire 

---------------

---------------
flop/ 
HEARTS Q 
SPADES 7 
CLUBS 8 
/flop 

---------------

---------------
seat/ 
button: 8888 2000 8000 
small blind: 3333 2000 8000 
big blind: 5555 2seat/ 
button: 8888 2000 8000 
small blind: 3333 2000 8000 
big blind: 5555 2000 8000 
7777 2000 8000 
4444 2000 8000 
1111 2000 8000 
6666 2000 8000 
2222 2000 8000 
/seat 

---------------
blind/ 
3333: 50 
5555: 100 
/blind 

---------------

---------------
hold/ 
CLUBS 7 
DIAMONDS A 
/hold 

---------------

---------------
inquire/ 
7777 1900 8000 100 call 
5555 1900 8000 100 blind 
3333 1950 8000 50 blind 
total pot: 250 
seat/ 
button: 8888 2000 8000 
small blind: 3333 2000 8000 
big blind: 5555 2000 8000 
7777 2000 8000 
4444 2000 8000 
1111 2000 8000 
6666 2000 8000 
2222 2000 8000 
/seat 

---------------
blind/ 
3333: 50 
5555: 100 
/blind 

---------------

---------------
hold/ 
SPADES 6 
DIAMONDS 2 
/hold 

---------------

---------------
inquire/ 
4444 1900 8000 100 call 
7777 1900 8000 100 call 
5555 190seat/ 
button: 8888 2000 8000 
small blind: 3333 2000 8000 
big blind: 5555 2000 8000 
7777 2000 8000 
4444 2000 8000 
1111 2000 8000 
6666 2000 8000 
2222 2000 8000 
/seat 

---------------
blind/ 
3333: 50 
5555: 100 
/blind 

---------------

---------------
hold/ 
SPADES K 
HEARTS 10 
/hold 

---------------

---------------
inquire/ 
1111 1900 8000 100 call 
4444 1900 8000 100 call 
7777 1900 8000 100 call 
5555 1900 8000 100 blind 
3333 1950 8000 50 blind 
total pot: 450 
/inquire 

---------------

---------------
flop/ 
HEARTS Q 
SPADES 7 
CLUBS 8 
/flop 

---------------

---------------
inquire/ 
1111 1900 8000 100 check 
4444 1900 8000 100 check 
7777 1900 8000 100 check 
5555 1900 8000 100 check 
3333 1900 8000 100 check 
8888 1900 8000 100 call 
2222 1900 8000 100 call 
6666 1900 8000 100 call 
total pot: seat/ 
button: 8888 2000 8000 
small blind: 3333 2000 8000 
big blind: 5555 2000 8000 
7777 2000 8000 
4444 2000 8000 
1111 2000 8000 
6666 2000 8000 
2222 2000 8000 
/seat 

---------------
blind/ 
3333: 50 
5555: 100 
/blind 

---------------

---------------
hold/ 
DIAMONDS 10 
Cseat/ 
button: 8888 2000 8000 
small blind: 3333 2000 8000 
big blind: 5555 2000 8000 
7777 2000 8000 
4444 2000 8000 
1111 2000 8000 
6666 2000 8000 
2222 2000 8000 
/seat 

---------------

---------------
blind/ 
3333: 50 
5555: 100 
/blind 

---------------
hold/ 
DIAMONDS 6 
HEARTS 6 
/hold 

---------------

---------------
inquire/ 
8888 1900 8000 100 call 
2222 1900 8000 100 call 
6666 1900 8000 100 call 
1111 1900 8000 100 call 
4444 1900 8000 100 call 
7777 1900 8000 100 call 
5555 1900 8000 100 blind 
3333 1950 8000 50 blind 
total pot: 750 
/inquire 

---------------

---------------
flop/ 
HEARTS Q 
SPADES 7 
CLUBS 8 
/flop 

---------------

---------------
inquire/ 
8888 1900 8000 100 call 
2222 1900 8000 100 call 
6666 1900 8000 100 call 
1111 1900 8000 100 call 
4444 1900 8000 100 call 
7777 1900 8000 100 call 
5555 1900 8000 100 cheseat/ 
button: 8888 2000 8000 
small blind: 3333 2seat/ 
button: 8888 2000 8000 
small blind: 3333 2000 8000 
big blind: 5555 2000 8000 
7777 2000 8000 
4444 2000 8000 
1111 2000 8000 
6666 2000 8000 
2222 2000 8000 
/seat 

---------------
blind/ 
3333: 50 
5555: 100 
/blind 

---------------

---------------
hold/ 
SPADES Q 
CLUBS 9 
/hold 

---------------

---------------
inquire/ 
5555 1900 8000 100 blind 
3333 1950 8000 50 blind 
total pot: 150 
/inquire 

---------------

---------------
flop/ 
HEARTS Q 
SPADES 7 
CLUBS 8 
/flop 

---------------

---------------
inquire/ 
5555 1900 8000 100 check 
3333 1900 8000 100 check 
8888 1900 8000 100 call 
2222 1900 8000 100 call 
6666 1900 8000 100 call 
1111 1900 8000 100 call 
4444 1900 8000 100 call 
7777 1900 8000 100 call 
total pot: 800 
/inquire 

---------------

---------------
turn/ 
SPADES 8 
/turn 

---------------

---------------
inquire/ 
5555 1900 8000 100 checseat/ 
button: 8888 2000 8000 
small blind: 3333 2000 8000 
big blind: 5555 2000 8000 
7777 2000 8000 
4444 2000 8000 
1111 2000 8000 
6666 2000 8000 
2222 2000 8000 
/seat 

---------------
blind/ 
3333: 50 
5555: 100 
/blind 

---------------

---------------
hold/ 
SPADES K 
HEARTS 10 
/hold 

---------------

---------------
inquire/ 
1111 1900 8000 100 call 
4444 1900 8000 100 call 
7777 1900 8000 100 call 
5555 1900 8000 100 blind 
3333 1950 8000 50 blind 
total pot: 450 
/inquire 

---------------

---------------
flop/ 
HEARTS Q 
SPADES 7 
CLUBS 8 
/flop 

---------------

---------------
inquire/ 
1111 1900 8000 100 check 
4444 1900 8000 100 check 
7777 1900 8000 100 check 
5555 1900 8000 100 check 
3333 1900 8000 100 check 
8888 1900 8000 100 call 
2222 1900 8000 100 call 
6666 1900 8000 100 call 
total pot: 800 
/inquire 

---------------

---------------
turn/ 
SPADES 8 
/turn 

---------------

----seat/ 
seat/ 
button: 8888 2000 8000 
small blind: 3333 2000 8000 
big blind: 5555 2000 8000 
7777 2000 8000 
4444 2000 8000 
1111 2000 8000 
6666 2000 8000 
2222 2000 8000 
/seat 

---------------
blind/ 
3333: 50 
5555: 100 
/blind 

---------------

---------------
hold/ 
DIAMONDS 10 
CLUBS Q 
/hold 

---------------

---------------
inquire/ 
2222 1900 8000 100 call 
6666 1900 8000 100 call 
1111 1900 8000 100 call 
4444 1900 8000 100 call 
7777 1900 8000 100 call 
5555 1900 8000 100 blind 
3333 1950 8000 50 blind 
total pot: 650 
/inquire 

---------------

---------------
flop/ 
HEARTS Q 
SPADES 7 
CLUBS 8 
/flop 

---------------

---------------
inquire/ 
2222 1900 8000 100 check 
6666 1900 8000 100 check 
1111 1900 8000 100 check 
4444 1900 8000 100 check 
7777 1900 8000 100 check 
5555 1900 8000 100 check 
3333 1900 8000 100 check 
8888 1900 8000 100 call 
total pot: 800 
/inquire 

---------------

---------------
turn/ 
SPADES 8 
/turn 

---------------

---------------
inquseat/ 
button: 8888 2000 8000 
small blind: 3333 2000 8000 
big blind: 5555 2000 8000 
7777 2000 8000 
4444 2000 8000 
1111 2000 8000 
6666 2000 8000 
2222 2000 8000 
/seat 

---------------
blind/ 
3333: 50 
5555: 100 
/blind 

---------------

---------------
hold/ 
CLUBS 7 
DIAMONDS A 
/hold 

---------------

---------------
inquire/ 
7777 1900 8000 100 call 
5555 1900 8000 100 blind 
3333 1950 8000 50 blind 
total pot: 250 
/inquire 

---------------

---------------
flop/ 
HEARTS Q 
SPADES 7 
CLUBS 8 
/flop 

---------------

-----seat/ 
button: 8888 2000 8000 
small blind: 3333 2000 8000 
big blind: 5555 2000 8000 
7777 2000 8000 
4444 2000 8000 
1111 2000 8000 
6666 2000 8000 
2222 2000 8000 
/seat 

---------------
blind/ 
3333: 50 
5555: 100 
/blind 

---------------

---------------
hold/ 
SPADES 6 
DIAMONDS 2 
/hold 

---------------

---------------
inquire/ 
4444 1900 8000 100 call 
7777 1900 8000 100 call 
5555 1900 8000 100 blind 
3333 1950 8000 50 blind 
total pot: 350 
/inquire 

---------------

---------------
fseat/ 
button: 8888 2000 8000 
small blind: 3333 2000 8000 
big blind: 5555 2000 8000 
7777 2000 8000 
4444 2000 8000 
1111 2000 8000 
6666 2000 8000 
2222 2000 8000 
/seat 

---------------
blind/ 
3333: 50 
5555: 100 
/blind 

---------------

---------------
hold/ 
SPADES K 
HEARTS 10 
/hold 

---------------

---------------
inquire/ 
1111 1900 8000 100 call 
4444 1900 8000 100 call 
7777 1900 8000 100 call 
5555 1900 8000 100 blind 
3333 1950 8000 50 blind 
total pot: 450 
/inquire 

---------------

---------------
flop/ 
HEARTS Q 
SPADES 7 
CLUBS 8 
/flop 

---------------

---------------
inquire/ 
1111 1900 8000 100 check 
4444 1900 8000 100 check 
7777 1900 8000 100 check 
5555 1900 8000 100 check 
3333 1900 8000 100 check 
8888 1900 8000 100 call 
2222 1900 8000 100 call 
6666 1900 8000 100 call 
total pot: 800 
/inquire 

---------------

---------------
turn/ 
SPADES 8 
/turn 

---------------

---------------
inquire/ 
1111 1900 8000 100 check 
4444 1900 8000 100seat/ 
button: 8888 2000 8000 
small blind:seat/ 
button: 8888 2000 8000 
small blind: 3333 2000 8000 
big blind: 5555 2000 8000 
7777 2000 8000 
4444 2000 8000 
1111 2000 8000 
6666 2000 8000 
2222 2000 8000 
/seat 

---------------
blind/ 
3333: 50 
5555: 100 
/blind 

---------------

---------------
hold/ 
DIAMONDS 10 
CLUBS Q 
/hold 

---------------

---------------
inquire/ 
2222 1900 8000 100 call 
6666 1900 80seat/ 
button: 8888 2000 8000 
small blind: 3333 2000 8000 
big blind: 5555 2000 8000 
7777 2000 8000 
4444 2000 8000 
1111 2000 8000 
6666 2000 8000 
2222 2000 8000 
/seat 

---------------

---------------
blind/ 
3333: 50 
5555: 100 
/blind 

---------------
hold/ 
DIAMONDS 6 
HEARTS 6 
/hold 

---------------

---------------
inquire/ 
8888 1900 8000 100 call 
2222 1900 8000 100 call 
6666 1900 8000 100 call 
1111 1900 8000 100 call 
4444 1900 8000 100 call 
7777 1900 8000 100 call 
5555 1900 8000 100 blind 
3333 1950 8000 50 blind 
total pot: 750 
/inquire 

---------------

---------------
flop/ 
HEARTS Q 
SPADES 7 
CLUBS 8 
/flop 

---------------

---------------
inquseat/ 
button: 8888 2000 8000 
small blind: 3333 2000 8000 
big blind: 5555 2000 8000 
7777 2000 8000 
4444 2000 8000 
1111 2000 8000 
6666 2000 8000 
2222 2000 8000 
/seat 

---------------
blind/ 
3333: 50 
5555: 100 
/blind 

---------------

---------------
hold/ 
CLUBS 7 
DIAMONDS A 
/hold 

------seat/ 
button: 8888 2000 8000 
small blind: 3333 2000 8000 
big blind: 5555 2000 8000 
7777 2000 8000 
4444 2000 8000 
1111 2000 8000 
6666 2000 8000 
2222 2000 8000 
/seat 

---------------
blind/ 
3333: 50 
5555: 100 
/blind 

---------------

---------------
hold/ 
SPADES Q 
CLUBS 9 
/hold 

---------------

---------------
inquire/ 
5555 1900 8000 100 blind 
3333 1950 8000 50 blind 
total pot: 150 
/inquire 

---------------

---------------
flop/ 
HEARTS Q 
SPADES 7 
CLUBS 8 
/flop 

---------------

---------------
inquire/ 
5555 1900 8000 100 check 
3333 1900 8000 100 check 
8888 1900 8000 100 call 
2222 1900 8000 100 call 
6666 1900 8000 100 call 
1111 1900 8000 100 call 
4444 1900 8000 100 call 
7777 1900 8000 100 call 
total pot: 800 
/inquire 

---------------

---------------
turn/ 
SPADES 8 
/turn 

---------------

---------------
inquire/ 
5555 1900 8000 100 check 
3333 1900 8000 100 check 
8888 1900 8000 100 check 
2222 1900 8000 100 check 
6666 1900 8000 100 check 
1111 1900 8000 100 check 
4444 1900 8000 100 check 
7777 1900 8000 100 check 
total pot: 800 
/inquire 

---------------

---------------
river/ 
CLUBS K 
/river 

---------------

---------------
inquire/ 
5555 1900 8000 100 check 
3333 1900 8000 100 check 
8888 1900 8000 100 check 
2222 1900 8000 100 check 
6666 1900 8000 100 check 
1111 1900 8000 100 check 
4444 1900 8000 100 check 
7777 1900 8000 100 check 
total pot: 800 
/inquire 

---------------

---------------
showdown/ 
common/ 
HEARTS Q 
SPADES 7 
CLUBS 8 
SPADES 8 
CLUBS K 
/common 
6: 3333 DIAMONDS 6 HEARTS 6 TWO_PAIR 
1: 5555 DIAMONDS 8 DIAMONDS 3 THREE_OF_A_KIND 
3: 7777 SPADES Q CLUBS 9 TWO_PAIR 
5: 4444 CLUBS 7 DIAMONDS A TWO_PAIR 
7: 1111 SPADES 6 DIAMONDS 2 ONE_PAIR 
2: 6666 SPADES K HEARTS 10 TWO_PAIR 
4: 2222 CLUBS J SPADES J TWO_PAIR 
3: 8888 DIAMONDS 10 CLUBS Q TWO_PAIR 
/showdown 

---------------

---------------
pot-win/ 
5555: 800 
/pot-win 

---------------

---------------
seat/ 
button: 3333 19seat/ 
button: 8888 2000 8000 
small blind: 3333 2000 8000 
big blind: 5555 2000 8000 
7777 2000 8000 
4444 2000 8000 
1111 2000 8000 
6666 2000 8000 
2222 2000 8000 
/seat 

---------------
blind/ 
3333: 50 
5555: 100 
/blind 

---------------

---------------
hold/ 
DIAMONDS 10 
CLUBS Q 
/hold 

---------------

---------------
inquire/ 
2222 1900 8000 100 call 
6666 1900 8000 100 call 
1111 1900 8000 100 call 
4444 1900 8000 100 call 
7777 1900 8000 100 call 
5555 1900 8000 100 blind 
3333 1950 8000 50 blind 
total pot: 650 
/inquire 

---------------

---------------
flop/ 
HEARTS Q 
SPADES 7 
CLUBS 8 
/flop 

---------------

---------------
inquire/ 
2222 1900 8000 100 check 
6666 1900 8000 100 check 
1111 1900 8000 100 check 
4444 1900 8000 100 check 
7777 1900 8000 100 check 
5555 1900 8000 100 check 
3333 1900 8000 100 check 
8888 1900 8000 100 call 
total pot: 800 
/inquire 

--------------seat/ 
button: 8888 2000 8000 
small blind: 3333 2000 8000 
big blind: 5555 2000 8000 
7777 2000 8000 
4444 2000 8000 
1111 2000 8000 
6666 2000 8000 
2222 2000 8000 
/seat 

---------------
blind/ 
3333: 50 
5555: 100 
/blind 

---------------

---------------
hold/ 
CLUBS 7 
DIAMONDS A 
/hold 

---------------

---------------
inquire/ 
7777 1900 8000 100 call 
5555 1900 8000 100 blind 
3333 1950 8000 50 blind 
total pot: 250 
/inquire 

---------------

---------------
flop/ 
HEARTS Q 
SPADES 7 
CLUBS 8 
/flop 

---------------

---------------
inquire/ 
7777 1900 8000 100 check 
5555 1900 8000 100 check 
3333 1900 8000 100 check 
8888 1900 8seat/ 
button: 8888 2000 8000 
small blind: 3333 2000 8000 
big blind: 5555 2000 8000 
7777 2000 8000 
4444 2000 8000 
1111 2000 8000 
6666 2000 8000 
2222 2000 8000 
/seat 

---------------
blind/ 
3333: 50 
5555: 100 
/blind 

---------------

---------------
hold/ 
SPADES 6 
DIAMONDS 2 
/hold 

---------------

---------------
inquire/ 
4444 1900 8000 100 call 
7777 1900 8000 100 call 
5555 1900 8000 100 blind 
3333 1950 8000 50 blind 
total pot: 350 
/inquire 

---------------

---------------
flop/ 
HEARTS Q 
SPADES 7 
CLUBS 8 
/flop 

---------------

---------------
inquire/ 
4444 1900 8000 100seat/ 
button: 8888 2000 8000 
small blind: 3333 2000 8000 
big blind: 5555 2000 8000 
7777 2000 8000 
4444 2000 8000 
1111 2000 8000 
6666 2000 8000 
2222 2000 8000 
/seat 

---------------
blind/ 
3333: 50 
5555: 100 
/blind 

---------------

---------------
hold/ 
SPADES K 
HEARTS 10 
/hold 

---------------

---------------
inquire/ 
1111 1900 8000 100 call 
4444 1900 8000 100 call 
7777 1900 8000 100 call 
5555 1900 8000 100 blind 
3333 1950 8000 50 blind 
total pot: 450 
/inquire 

---------------

---------------
flop/ 
HEARTS Q 
SPADES 7 
CLUBS 8 
/flop 

---------------

---------------
inquire/ 
1111 1900 8000 100 check 
4444 1900 8000 100 check 
7777 1900 8000 100 check 
5555 1900 8000 100 check 
3333 1900 8000 100 check 
8888 1900 8000 100 call 
2222 1900 8000 100 call 
6666 1900 8000 100 call 
total pot: 800 
/inquire 

---------------

---------------
turn/ 
SPADES 8 
/turn 

---------------

---------------
inquire/ 
1111 1900 8000 100 check 
4444 1900 8000 100 check 
7777 1900 8000 100 check 
5555 1900 8000 100 check 
3333 1900 8000 100 check 
8888 1900 8000 100 check 
2222 1900 8000 100 cseat/ 
button: 8888 2000 8000 
small blind: 3333 2000 8000 
big blind: 5555 2000 8000 
7777 2000 8000 
4444 2000 80seat/ 
button: 8888 2000 8000 
small blind: 3333 2000 8000 
big blind: 5555 2000 8000 
7777 2000 8000 
4444 2000 8000 
1111 2000 8000 
6666 2000 8000 
2222 2000 8000 
/seat 

---------------
blind/ 
3333: 50 
5555: 100 
/blind 

---------------

---------------
hold/ 
DIAMONDS 10 
CLUBS Q 
/hold 

---------------

---------------
inquire/ 
2222 1900 8000 100 call 
6666 1900 8000 100 call 
1111 1900 8000 100 call 
4444 1900 8000 100 call 
7777 1900 8000 100 call 
5555 190seat/ 
button: 8888 2000 8000 
small blind: 3333 2000 8000 
big blind: 5555 2000 8000 
7777 2000 8000 
4444 2000 8000 
1111 2000 8000 
6666 2000 8000 
2222 2000 8000 
/seat 

---------------

---------------
blind/ 
3333: 50 
5555: 100 
/blind 

---------------
hold/ 
DIAMONDS 6 
HEARTS 6 
/hold 

---------------

---------------
inquire/ 
8888 1900 8000 100 call 
2222 1900 8000 100 call 
6666 1900 8000 100 call 
1111 1900 8000 100 call 
4444 1900 8000 100 call 
7777 1900 8000 100 call 
5555 1900 8000 seat/ 
button: 8888 2000 8000 
small blind: 3333 2000 8000 
big blind: 5555 2000 8000 
7777 2000 8000 
4444 2000 8000 
1111 2000 8000 
6666 2000 8000 
2222 2000 8000 
/seat 

---------------
blind/ 
3333: 50 
5555: 100 
/blind 

---------------

---------------
hold/ 
CLUBS 7 
DIAMONDS A 
/hold 

---------------

---------------
inquire/ 
7777 1900 8000 100 call 
5555 1900 8000 100 blind 
3333 1950 8000 50 blind 
total pot: 250 
/inquire 

---------------

---------------
flop/ 
HEARTS Q 
SPADES 7 
CLUBS 8 
/flop 

---------------

---------------
inquire/ 
7777 1900 8000 100 check 
5555 1900 8000 100 check 
3333 1900 8000 100 check 
8888 1900 8000 100 call 
2222 1900 8000 100 call 
6666 1900 8000 1seat/ 
button: 8888 2000 8000 
small blind: 3333 2000 8000 
big blind: 5555 2000 8000 
7777 2000 8000 
4444 2000 8000 
1111 2000 8000 
6666 2000 8000 
2222 2000 8000 
/seat 

---------------
blind/ 
3333: 50 
5555: 100 
/blind 

---------------

---------------
hold/ 
SPADES 6 
DIAMONDS 2 
/hold 

---------------

---------------
inquire/ 
4444 1900 8000 100 call 
7777 1900 8000 100 call 
5555 1900 8000 100 blind 
3333 1950 8000 50 blind 
total pot: 350 
/inquire 

---------------

---------------
flop/ 
HEARTS Q 
SPADES 7 
CLUBS 8 
/flop 

---------------

---------------
inquire/ 
4444 1900 8000 100 check 
7777 1900 8000 100 check 
5555 1900 8000 100seat/ 
button: 8888 2000 8000 
small blind: 3333 2000 8000 
big blind: 5555 2000 8000 
7777 2000 8000 
4444 2000 8000 
1111 2000 8000 
6666 2000 8000 
2222 2000 8000 
/seat 

---------------
blind/ 
3333: 50 
5555: 100 
/blind 

---------------

---------------
hold/ 
SPADES K 
HEARTS 10 
/hold 

---------------

---------------
inquire/ 
1111 1900 8000 100 call 
4444 1900 8000 100 call 
7777 1900 8000 100 call 
5555 1900 8000 100 blind 
3333 1950 8000 50 blind 
total pot: 450 
/inquire 

---------------

---------------
flop/ 
HEARTS Q 
SPADES 7 
CLUBS 8 
/flop 

---------------

---------------
inquire/ 
1111 1900 8000 100 check 
4444 1900 8000 100 check 
7777 1900 8000 100 check 
5555 1900 8000 100 check 
3333 1900 8000 100 check 
8888 1900 8000 100 call 
2222 1900 8000 100 call 
6666 1900 8000 100 call 
total pot: 800 
/inquire 

---------------

---------------
turn/ 
SPADES 8 
/turn 

---------------

---------------
inquire/ 
1111 1900 8000 100 check 
4444 1900 8000 100 check 
7777 1900 8000 100 check 
5555 1900 8000 100 check 
3333 1900 8000 100 check 
8888 1900 8000 100 check 
2222 1900 8000 100 check 
6666 1900 8000 100 check 
total pot: 800 
/inquire 

---------------

---------------
river/ 
CLUBS K 
/river 

---------------

---------------
inquire/ 
1111 1900 8000 100 check 
4444 1900 8000 100 check 
7777 1900 8000 100 check 
5555 1900 8000 100 check 
3333 1900 8000 100 check 
8888 1900 8000 100 check 
2222 1900 8000 100 check 
6666 1900 8000 100 check 
total pot: 800 
/inquire 

---------------

---------------
showdown/ 
common/ 
HEARTS Q 
SPADES 7 
CLUBS 8 
SPADES 8 
CLUBS K 
/common 
6: 3333 DIAMONDS 6 HEARTS 6 TWO_PAIR 
1: 5555 DIAMONDS 8 DIAMONDS 3 THREE_OF_A_KIND 
3: 7777 SPADES Q CLUBS 9 TWO_PAIR 
5: 4444 CLUBS 7 DIAMONDS A TWO_PAIR 
7: 1111 SPADES 6 DIAMONDS 2 ONE_PAIR 
2: 6666 SPADES K HEARTS 10 TWO_PAIR 
4: 2222 CLUBS J SPADES J TWO_PAIR 
3: 8888 DIAMONDS 10 CLUBS Q TWO_PAIR 
/showdown 

---------------

---------------
pot-win/ 
5555: 800 
/pot-win 

---------------

---------------
seat/ 
button: 3333 1900 8000 
small blind: 5555 2700 8000 
big blind: 7777 1900 8000 
4444 1900 8000 
1111 1900 8000 
6666 1900 8000 
2222 1900 8000 
8888 1900 8000 
/seat 

---------------

---------------
blind/ 
5555: 50 
7777: 100 
/blind 

---------------

---------------
hold/ 
SPADES 6 
DIAMONDS 2 
/hold 

---------------

---------------
inquire/ 
1111 1800 8000 100 call 
4444 1800 8000 100 call 
7777 1800 8000 100 blind 
5555 2650 8000 50 blind 
total pot: 350 
/inquire 

---------seat/ 
button: 8888 2000 8000 
small blind: 3333 2000 8000 
big blind: 5555 2000 8000 
7777 2000 8000 
4444 2000 8000 
1111 2000 8000 
6666 2000 8000 
2222 2000 8000 
/seat 

---------------
blind/ 
3333: 50 
5555: 100 
/blind 

---------------

---------------
hold/ 
CLUBS 7 
DIAMONDS A 
/hold 

---------------

---------------
inquire/ 
7777 1900 8000 100 call 
5555 1900 8000 100 blind 
3333 1950 8000 50 blind 
total pot: 250 
/inquire 

---------------

---------------
flop/ 
HEARTS Q 
SPADES 7 
CLUBS 8 
/flop 

---------------

---------------
inquire/ 
7777 1900 8000 100 check 
5555 1900 8000 100 check 
3333 1900 8000 100 check 
8888 1900 8000 100 call 
2222 1900 8000 100 call 
6666 1900 8000 100 call 
1111 1900 8000 100 call 
4444 1900 8000 100 caseat/ 
button: 8888 2000 8000 
small blind: 3333 2000 8000 
big blind: 5555 2000 8000 
7777 2000 8000 
4444 2000 8000 
1111 2000 8000 
6666 2000 8000 
2222 2000 8000 
/seat 

---------------
blind/ 
3333: 50 
5555: 100 
/blind 

---------------

---------------
hold/ 
SPADES 6 
DIAMONDS 2 
/hold 

---------------

---------------
inquire/ 
4444 1900 8000 100 call 
7777 1900 8000 100 call 
5555 1900 8000 100 blind 
3333 1950 8000 50 blind 
total pot: 350 
/inquire 

---------------

---------------
flop/ 
HEARTS Q 
SPADES 7 
CLUBS 8 
/flop 

---------------

---------------
inquire/ 
4444 1900 8000 100 check 
7777 1900 8000 100 check 
5555 1900 8000 100 check 
3333 1900 8000 100 check 
8888 1900 8000 100 call 
2222 1900 8000 100 call 
6666 1900 8000 100 call 
1111 1900 8000 100 call 
total pot: 800 
/inquire 

---------------

---------------
turn/ 
SPADES 8 
/turn 

---------------

---------------
inquire/ 
4444 1900 8000 100 check 
7777 1900 8000 100 check 
5555 1900 8000 100 check 
3333 1900 8000 100 check 
8888 1900 8000 100 check 
2222 1900 8000 100 check 
6666 1900 8000 100 check 
1111 1900 8000 100 check 
total pot: 800 
/inquire 

---------------

---------------
river/ 
CLUBS K 
/river 

---------------

---------------
inquire/ 
4444 1900 8000 100 check 
7777 1900 8000 100 check 
5555 1900 8000 100 check 
3333 1900 8000 100 check 
8888 1900 8000 100 check 
2222 1900 8000 100 check 
6666 1900 8000 100 check 
1111 1900 8000 100 check 
total pot: 800 
/inquire 

---------------

---------------
showdown/ 
common/ 
HEARTS Q 
SPADES 7 
CLUBS 8 
SPADES 8 
CLUBS K 
/common 
6: 3333 DIAMONDS 6 HEARTS 6 TWO_PAIR 
1: 5555 DIAMONDS 8 DIAMONDS 3 THREE_OF_A_KIND 
3: 7777 SPADES Q CLUBS 9 TWO_PAIR 
5: 4444 CLUBS 7 DIAMONDS A TWO_PAIR 
7: 1111 SPADES 6 DIAMONDS 2 ONE_PAIR 
2: 6666 SPADES K HEARTS 10 TWO_PAIR 
4: 2222 CLUBS J SPADES J TWO_PAIR 
3: 8888 DIAMONDS 10 CLUBS Q TWO_PAIR 
/showdown 

---------------

---------------
pot-win/ 
5555: 800 
/pot-win 

---------------

---------------
seat/ 
button: 3333 1900 8000 
small blind: 5555 2700 8000 
big blind: 7777 1900 8000 
4444 1900 8000 
1111 1900 8000 
6666 1900 8000 
seat/ 
button: 8888 2000 8000 
small blind: 3333 2000 8000 
big blind: 5555 2000 8000 
7777 2000 8000 
4444 2000 8000 
1111 2000 8000 
6666 2000 8000 
2222 2000 8000 
/seat 

---------------
blind/ 
3333: 50 
5555: 100 
/blind 

---------------

---------------
hold/ 
DIAMONDS 10 
CLUBS Q 
/hold 

---------------

---------------
inquire/ 
2222 1900 8000 100 call 
6666 1900 8000 100 call 
1111 1900 8000 100 call 
4444 1900 8000 100 call 
7777 1900 8000 100 call 
5555 1900 8000 100 blind 
3333 1950 8000 50 blind 
total pot: 650 
/inquire 

---------------

---------------
flop/ 
HEARTS Q 
SPADES 7 
CLUBS 8 
/flop 

---------------

---------------
inquire/ 
2222 1900 8000 100 check 
6666 1900 8000 100 check 
1111 1900 8000 100 check 
4444 1900 8000 100 check 
7777 1900 8000 100 check 
5555 1900 8000 100 check 
3333 1900 8000 100 check 
8888 1900 8000 100 call 
total pot: 800 
/inquire 

---------------

---------------
turn/ 
SPADES 8 
/turn 

---------------

---------------
inquire/ 
2222 1900 8000 100 check 
6666 1900 8000 100 check 
1111seat/ 
button: 8888 2000 8000 
small blind: 3333 2000 8000 
big blind: 5555 2000 8000 
7777 2000 8000 
4444 2000 8000 
1111 2000 8000 
6666 2000 8000 
2222 2000 8000 
/seat 

---------------
blind/ 
3333: 50 
5555: 100 
/blind 

---------------

---------------
hold/ 
CLUBS 7 
DIAMONDS A 
/hold 

---------------

---------------
inquire/ 
7777 1900 8000 100 call 
5555 1900 8000 100 blind 
3333 1950 8000 50 blind 
total pot: 250 
/inquire 

---------------

---------------
flop/ 
HEARTS Q 
SPADES 7 
CLUBS 8 
/flop 

---------------

---------------
inquire/ 
7777 1900 8000 100 check 
5555 1900 8000 100 check 
3333 1900 8000 100 check 
8888 1900 8000 100 call 
2222 1900 8000 100 call 
6666 1900 8000 100 call 
1111 1900 8000 100 call 
4444 1900 8000 100 call 
total pot: 800 
/inquire 

---------------

-------seat/ 
button: 8888 2000 8000 
small blind: 3333 2000 8000 
big blind: 5555 2000 8000 
7777 2000 8000 
4444 2000 8000 
1111 2000 8000 
6666 2000 8000 
2222 2000 8000 
/seat 

---------------
blind/ 
3333: 50 
5555: 100 
/blind 

---------------

---------------
hold/ 
SPADES 6 
DIAMONDS 2 
/hold 

---------------

---------------
inquire/ 
4444 1900 8000 100 call 
7777 1900 8000 100 call 
5555 1900 8000 100 blind 
3333 1950 8000 50 blind 
total pot: 350 
/inquire 

---------------

---------------
flop/ 
HEARTS Q 
SPADES 7 
CLUBS 8 
/flop 

---------------

---------------
inquire/ 
4444 1900 8000 100 check 
7777 1900 8000 100 check 
5555 1900 8000 100 check 
3333 1900 8000 100 check 
8888 1900 8000 100 call 
2222 1900 8000 100 call 
6666 1900 8000 100 call 
1111 1900 8000 100 call 
total pot: 800 
/inquire 

---------------

---------------
turn/ 
SPADES 8 
/turn 

---------------

---------------
inquire/ 
4444 1900 8000 100 check 
7777 1900 8000 100 check 
5555 1900 8000 100 check 
3333 1900 8000 100 check 
8888 1900 8000 100 check 
2222 1900 8000 100 check 
6666 1900 8000 100 check 
1111 1900 8000 100 check 
total pot: 800 
/inquire 

---------------

---------------
river/ 
CLUBS K 
/river 

---------------

---------------
inquire/ 
4444 1900 8000 100 check 
7777 1900 8000 100 check 
5555 1900 8000 100 check 
3333 1900 8000 100 check 
8888 1900 8000 100 check 
2222 1900 8000 100 check 
6666 1900 8000 100 check 
1111 1900 8000 100 check 
total pot: 800 
/inquire 

---------------

---------------
showdown/ 
common/ 
HEARTS Q 
SPADES 7 
CLUBS 8 
SPADES 8 
CLUBS K 
/common 
6: 3333 DIAMONDS 6 HEARTS 6 TWO_PAIR 
1: 5555 DIAMONDS 8 DIAMONDS 3 THREE_OF_A_KIND 
3: 7777 SPADES Q CLUBS 9 TWO_PAIR 
5: 4444 CLUBS 7 DIAMONDS A TWO_PAIR 
7: 1111 SPADES 6 DIAMONDS 2 ONE_PAIR 
2: 6666 SPADES K HEARTS 10 TWO_PAIR 
4: 2222 CLUBS J SPADES J TWO_PAIR 
3: 8888 DIAMONDS 10 CLUBS Q TWO_PAIR 
/showdown 

---------------

---------------
pot-win/ 
5555: 800 
/pot-win 

---------------

---------------
seat/ 
button: 3333 1900 8000 
small blind: 5555 2700 8000 
big blind: 7777 1900 8000 
4444 1900 8000 
1111 1900 8000 
6666 1900 8000 
2222 1900 8000 
8888 1900 8000 
/seat 

---------------

---------------
blind/ 
5555: 50 
7777: 100 
/blind 

---------------

---------------
hold/ 
CLUseat/ 
button: 8888 2000 8000 
small blind: 3333 2000 8000 
big blind: 5555 2000 8000 
7777 2000 8000 
4444 2000 8000 
1111 2000 8000 
6666 2000 8000 
2222 2000 8000 
/seat 

---------------
blind/ 
3333: 50 
5555: 100 
/blind 

---------------

---------------
hold/ 
DIAMONDS 10 
CLUBS Q 
/hold 

---------------

---------------
inquire/ 
2222 1900 8000 100 call 
6666 1900 8000 100 call 
1111 1900 8000 100 call 
4444 1900 8000 100 call 
7777 1900 8000 100 call 
5555 1900 8000 100 blind 
3333 1950 8000 50 blind 
total pot: 650 
/inquire 

---------------

---------------
flop/ 
HEARTS Q 
SPADES 7 
CLUBS 8 
/flop 

---------------

---------------
inquire/ 
2222 1900 8000 100 check 
6666 1900 8000 100 check 
1111 1900 8000 100 check 
4444 1900 8000 100 check 
7777 1900 8000 100 check 
5555 1900 8000 100 check 
3333 1900 8000 100 check 
8888 1900 8000 100 call 
total pot: 800 
/inquire 

---------------

---seat/ 
button: 8888 2000 8000 
small blind: 3333 2000 8000 
big blind: 5555 2000 8000 
7777 2000 8000 
4444 2000 8000 
1111 2000 8000 
6seat/ 
button: 8888 2000 8000 
small blind: 3333 2000 8000 
big blind: 5555 2000 8000 
7777 2000 8000 
4444 2000 8000 
1111 2000 8000 
6666 2000 8000 
2222 2000 8000 
/seat 

---------------
blind/ 
3333: 50 
5555: 100 
/blind 

---------------

---------------
hold/ 
CLUBS 7 
DIAMONDS A 
/hold 

---------------

---------------
inquire/ 
7777 1900 8000 100 call 
5555 1900 8000 100 blind 
3333 1950 8000 50 blind 
total pot: 250 
/inquire 

---------------

---------------
flop/ 
HEARTS Q 
SPADES 7 
CLUBS 8 
/flop 

---------------

---------------
inquire/ 
7777 1900 8000 100 check 
5555 1900 8000 100 check 
3333 1900 8000 100 check 
8888 1900 8000 100 call 
2222 1900 8000 100 call 
6666 1900 8000 100 call 
1111 1900 8000 100 call 
4444 1900 8000 100 call 
total pot: 800 
/inquire 

---------------

---------------
turn/ 
SPADES 8 
/turn 

---------------

----seat/ 
button: 8888 2000 8000 
small blind: 3333 2000 8000 
big blind: 5555 2000 8000 
7777 2000 8000 
4444 2000 8000 
1111 2000 8000 
6666 2000 8000 
2222 2000 8000 
/seat 

---------------
blind/ 
3333: 50 
5555: 100 
/blind 

---------------

---------------
hold/ 
SPADES 6 
DIAMONDS 2 
/hold 

---------------

---------------
inquire/ 
4444 1900 8000 100 call 
7777 1900 8000 100 call 
5555 1900 8000 100 blind 
3333 1950 8000 50 blind 
total pot: 350 
/inquire 

---------------

---------------
flop/ 
HEARTS Q 
SPADES 7 
CLUBS 8 
/flop 

---------------

---------------
inquire/ 
4444 1900 8000 100 check 
7777 1900 8000 100 check 
5555 1900 8000 100 check 
3333 1900 8000 100 check 
8888 1900 8000 100 call 
2222 1900 8000 100 call 
6666 1900 8000 100 call 
1111 1900 8000 100 call 
total pot: 800 
/inquire 

---------------

---------------
turn/ 
SPADES 8 
/turn 

---------------

---------------
inquire/ 
4444 1900 8000 100 check 
7777 1900 8000 100 check 
5555 1900 8000 100 check 
3333 1900 8000 100 check 
8888 1900 8000 100 check 
2222 1900 8000 100 check 
6666 1900 8000 100 check 
1111 1900 8000 100 check 
total pot: 800 
/inquire 

---------------

---------------
river/ 
CLUBS K 
/river 

---------------

---------------
inquire/ 
4444 1900 8000 100 check 
7777 1900 8000 100 check 
5555 1900 8000 100 check 
3333 1900 8000 100 check 
8888 1900 8000 100 check 
2222 1900 8000 100 check 
6666 1900 8000 100 check 
1111 1900 8000 100 check 
total pot: 800 
/inquire 

---------------

---------------
showdown/ 
common/ 
HEARTS Q 
SPADES 7 
CLUBS 8 
SPADES 8 
CLUBS K 
/common 
6: 3333 DIAMONDS 6 HEARTS 6 TWO_PAIR 
1: 5555 DIAMONDS 8 DIAMONDS 3 THREE_OF_A_KIND 
3: 7777 SPADES Q CLUBS 9 TWO_PAIR 
5: 4444 CLUBS 7 DIAMONDS A TWO_PAIR 
7: 1111 SPADES 6 DIAMONDS 2 ONE_PAIR 
2: 6666 SPADES K HEARTS 10 TWO_PAIR 
4: 2222 CLUBS J SPADES J TWO_PAIR 
3: 8888 DIAMONDS 10 CLUBS Q TWO_PAIR 
/showdown 

---------------

---------------
pot-win/ 
5555: 800 
/pot-win 

---------------

---------------
seat/ 
button: 3333 1900 8000 
small blind: 5555 2700 8000 
big blind: 7777 1900 8000 
4444 1900 8000 
1111 1900 8000 
6666 1900 8000 
2222 1900 8000 
8888 1900 8000 
/seat 

---------------

---------------
blind/ 
5555: 50 
7777: 100 
/blind 

---------------

---------------
hold/ 
CLUBS 7 
DIAMONDS A 
/hold 

---------------

---------------
inquire/ 
4444 1800 8000 100 call 
7777 1800 8000 100 blind 
5555 2650 8000 50 blind 
total potseat/ 
button: 8888 2000 8000 
small blind: 3333 2000 8000 
big blind: 5555 2000 8000 
7777 2000 8000 
4444 2000 8000 
1111 2000 8000 
6666 2000 8000 
2222 2000 8000 
/seat 

---------------
blind/ 
3333: 50 
5555: 100 
/blind 

---------------

---------------
hold/ 
DIAMONDS 10 
CLUBS Q 
/hold 

---------------

---------------
inquire/ 
2222 1900 8000 100 call 
6666 1900 8000 100 call 
1111 1900 8000 100 call 
4444 1900 8000 100 call 
7777 1900 8000 100 call 
5555 1900 8000 100 blind 
3333 1950 8000 50 blind 
total pot: 650 
/inquire 

---------------

---------------
flop/ 
HEARTS Q 
SPADES 7 
CLUBS 8 
/flop 

---------------

---------------
inquire/ 
2222 1900 8000 100 check 
6666 1900 8000 100 check 
1111 1900 8000 100 check 
4444 1900 8000 100 check 
7777 1900 8000 100 check 
5555 1900 8000 100 check 
3333 1900 8000 100 check 
8888 1900 8000 100 call 
total pot: 800 
/inquire 

---------------

---------------
turn/ 
SPADES 8 
/turn 

---------------

---------------
inquire/ 
2222 1900 8000 100 check 
6666 1900 8000 100 check 
1111 1900 8000 100 cheshowdown/ 
common/ 
HEARTS Q 
SPADES 7 
CLUBS 8 
SPADES 8 
CLUBS K 
/common 
6: 5555 DIAMONDS 6 HEARTS 6 TWO_PAIR 
1: 7777 DIAMONDS 8 DIAMONDS 3 THREE_OF_A_KIND 
3: 4444 SPADES Q CLUBS 9 TWO_PAIR 
5: 1111 CLUBS 7 DIAMONDS A TWO_PAIR 
7: 6666 SPADES 6 DIAMONDS 2 ONE_PAIR 
2: 2222 SPADES K HEARTS 10 TWO_PAIR 
4: 8888 CLUBS J SPADES J TWO_PAIR 
3: 3333 DIAMONDS 10 CLUBS Q TWO_PAIR 
/showdown 

---------------

---------------
pot-win/ 
7777: 800 
/pot-win 

---------------

---------------
seat/ 
button: 5555 2600 8000 
small blind: 7777 2600 8000 
big blind: 4444 1800 8000 
1111 1800 8000 
6666 1800 8000 
2222 1800 8000 
8888 1800 8000 
3333 1800 8000 
/seat 

---------------

---------------
blind/ 
7777: 50 
4444: 100 
/blind 

---------------

---------------
seat/ 
button: 8888 2000 8000 
small blind: 3333 2000 8000 
big blind: 5555 2000 8000 
7777 2000 8000 
4444 2000 8000 
1111 2000 8000 
6666 2000 8000 
2222 2000 8000 
/seat 

---------------
blind/ 
3333: 50 
5555: 100 
/blind 

---------------

---------------
hold/ 
SPADES 6 
DIAMONDS 2 
/hold 

---------------

---------------
inquire/ 
4444 1900 8000 100 call 
7777 1900 8000 100 call 
5555 1900 8000 100 blind 
3333 1950 8000 50 blind 
total pot: 350 
/inquire 

---------------

---------------
flop/ 
HEARTS Q 
SPADES 7 
CLUBS 8 
/flop 

---------------

---------------
inquire/ 
4444 1900 8000 100 check 
7777 1900 8000 100 check 
5555 1900 8000 100 check 
3333 1900 8000 100 check 
8888 1900 8000 100 call 
2222 1900 8000 100 call 
6666 1900 8000 100 call 
1111 1900 8000 100 call 
total pot: 800 
/inquire 

---------------

---------------
turn/ 
SPADES seat/ 
button: 8888 2000 8000 
small blind: 3333 2000 8000 
big blind: 5555 2000 8000 
7777 2000 8000 
4444 2000 8000 
1111 2000 8000 
6666 2000 8000 
2222 2000 8000 
/seat 

---------------
blind/ 
3333: 50 
5555: 100 
/blind 

---------------

---------------
hold/ 
SPADES K 
HEARTS 10 
/hold 

---------------

---------------
inquire/ 
1111 1900 8000 100 call 
4444 1900 8000 100 call 
7777 1900 8000 100 call 
5555 1900 8000 100 blind 
3333 1950 8000 50 blind 
total pot: 450 
/inquire 

---------------

---------------
flop/ 
HEARTS Q 
SPADES 7 
CLUBS 8 
/flop 

---------------

---------------
inquire/ 
1111 1900 8000 100 check 
4444 1900 8000 100 check 
7777 1900 8000 100 check 
5555 1900 8000 100 check 
3333 1900 8000 100 check 
8888 1900 8000 100 call 
2222 1900 8000 100 call 
6666 1900 8000 100 call 
total pot: 800 
/inquire 

---------------

---------------
turn/ 
SPADES 8 
/turn 

---------------

---------------
inquire/ 
1111 1900 8000 100 check 
4444 1900 8000 100 check 
7777 1900 8000 100 check 
5555 1900 8000 100 check 
3333 1900 8000 100 check 
8888 1900 8000 100 check 
2222 1900 8000 100 check 
6666 1900 8000 100 check 
total pot: 800 
/inquire 

---------------

---------------
river/ 
CLUBS K 
/river 

---------------

---------------
inquire/ 
1111 1900 8000 100 check 
4444 1900 8000 100 check 
7777 1900 8000 100 check 
5555 1900 8000 100 check 
3333 1900 8000 100 check 
8888 1900 8000 100 check 
2222 1900 800seat/ 
button: 8888 2000 8000 
small blind: 3333 2000 8000 
big blind: 5555 2000 8000 
7777 2000 8000 
4444 2000 8000 
1111 2000 8000 
6666 2000 8000 
2222 2000 8000 
/seat 

---------------

---------------
blind/ 
3333: 50 
5555: 100 
/blind 

---------------

---------------
hold/ 
CLUBS J 
seat/ 
button: 8888 2000 8000 
small blind: 3333 2000 8000 
big blind: 5555 2000 8000 
7777 2000 8000 
4444 2000 8000 
1111 2000 8000 
6666 2000 8000 
2222 2000 8000 
/seat 

---------------
blind/ 
3333: 50 
5555: 100 
/blind 

---------------

---------------
hold/ 
DIAMONDS 10 
CLUBS Q 
/hold 

---------------

---------------
inquire/ 
2222 1900 8000 100 call 
6666 1900 8000 100 call 
1111 1900 8000 100 call 
4444 1900 8000 100 call 
7777 1900 8000 100 call 
5555 1900 8000 100 blind 
3333 1950 8000 50 blind 
total pot: 650 
/inquire 

---------------

---------------
flop/ 
HEARTS Q 
SPADES 7 
CLUBS 8 
/flop 

---------------

---------------
inquire/ 
2222 1900 8000 100 check 
6666 1900 8000 100 checkseat/ 
button: 8888 2000 8000 
small blind: 3333 2000 8000 
big bseat/ 
button: 8888 2000 8000 
small blind: 3333 2000 8000 
big blind: 5555 2000 8000 
7777 2000 8000 
4444 2000 8000 
1111 2000 8000 
6666 2000 8000 
2222 2000 8000 
/seat 

---------------
blind/ 
3333: 50 
5555: 100 
/blind 

---------------

---------------
hold/ 
CLUBS 7 
DIAMONDS A 
/hold 

---------------

---------------
inquire/ 
7777 1900 8000 100 call 
5555 1900 8000 100 blind 
3333 1950 8000 50 blind 
total pot: 250 
/inquire 

---------------

---------------
flop/ 
HEARTS Q 
SPADES 7 
CLUBS 8 
/flop 

---------------

---------------
inquire/ 
7777 1900 8000 100 check 
5555 1900 8000 100 check 
3333 1900 8000 100 check 
8888 1900 8000 100 call 
2222 1900 8000 100 call 
6666 1900 8000 100 call 
1111 1900 8000 100 call 
4444 1900 8000 100 call 
total pot: 800 
/inquire 

---------------

---------------
turn/ 
SPADES 8 
/turn 

---------------

---------------
inquire/ 
7777 1900 8000 100 check 
5555 1900 8000 100 check 
3333 1900 8000 100 check 
8888 1900 8000 100 check 
2222 1900 8000 100 check 
6666 1900 8000 100 check 
1111 1900 8000 100 check 
4444 1900 8000 100 check 
total pot: 800 
/inquire 

---------------

---------------
river/ 
CLUBS K 
/river 

---------------

---------------
inquire/ 
7777 1900 8000 100 check 
5555 1900 8000 100 check 
3333 1900 8000 100 check 
8888 1900 8000 100 check 
2222 1900 8000 100 check 
6666 1900 8000 100 check 
1111 1900 8000 100 check 
4444 1900 8000 100 check 
total pot: 800 
/inquire 

---------------

---------------
showdown/ 
common/ 
HEARTS Q 
SPADES 7 
CLUBS 8 
SPADES 8 
CLUBS K 
/common 
6: 3333 DIAMONDS 6 HEARTS 6 TWO_PAIR 
1: 5555 DIAMONDS 8 DIAMONDS 3 THREE_OF_A_KIND 
3: 7777 SPADES Q CLUBS 9 TWO_PAIR 
5: 4444 CLUBS 7 DIAMONDS A TWO_PAIR 
7: 1111 SPADES 6 DIAMONDS 2 ONE_PAIR 
2: 6666 SPADES K HEARTS 10 TWO_PAIR 
4: 2222 CLUBS J SPADES J TWO_PAIR 
3: 8888 DIAMONDS 10 CLUBS Q TWO_PAIR 
/showdown 

---------------

---------------
pot-win/ 
5555: 800 
/pot-win 

---------------

---------------
seat/ 
button: 3333 1900 8000 
small blind: 5555 2700 8000 
big blind: 7777 1900 8000 
4444 1900 8000 
1111 1900 8000 
6666 1900 8000 
2222 1900 8000 
8888 1900 8000 
/seat 

---------------

---------------
blind/ 
5555: 50 
7777: 100 
/blind 

---------------

---------------
hold/ 
SPADES Q 
CLUBS 9 
/hold 

---------------

---------------
inquire/ 
7777 1800 8000 100 blind 
5555 2650 8000 50 blind 
total pot: 150 
/inquire 

---------------

---------------
flop/ 
HEARTS Q 
SPADES 7 
CLUBS 8 
/flop 

---------------

---------------
inquire/ 
7777 1800 8000 100 check 
5555 2600 8000 100 check 
3333 1800 8000 100 call 
8888 1800 8000 100 call 
2222 1800 8000 100 call 
6666 1800 8000 100 call 
1111 1800 8000 100 call 
4444 1800 8000 100 call 
total pot: 800 
/inquire 

---------------

---------------
turn/ 
SPADES 8 
/turn 

---------------

---------------
inquire/ 
7777 1800 8000 100 check 
5555 2600 8000 100 check 
3333 1800 8000 100 check 
8888 1800 8000 100 check 
2222 1800 8000 100 check 
6666 1800 8000 100 check 
1111 1800 8000 100 check 
4444 1800 8000 100 check 
total pot: 800 
/inquire 

---------------

---------------
river/ 
CLUBS K 
/river 

---------------

---------------
inquire/ 
7777 1800 8000 100 check 
5555 2600 8000 100 check 
3333 1800 8000 100 check 
8888 1800 8000 100 check 
2222 1800 8000 100 check 
6666 1800 8000 100 check 
1111 1800 8000 100 check 
4444 1800 8000 100 check 
total pot: 800 
/inquire 

---------------

---------------
showdown/ 
common/ 
HEARTS Q 
SPADES 7 
CLUBS 8 
SPADES 8 
CLUBS K 
/common 
6: 5555 DIAMONDS 6 HEARTS 6 TWO_PAIR 
1: 7777 DIAMONDS 8 DIAMONDS 3 THREE_OF_A_KIND 
3: 4444 SPADES Q CLUBS 9 TWO_PAIR 
5: 1111 CLUBS 7 DIAMONDS A TWO_PAIR 
7: 6666 SPADES 6 DIAMONDS 2 ONE_PAIR 
2: 2222 SPADES K HEARTS 10 TWO_PAIR 
4: 8888 CLUBS J SPADES J TWO_PAIR 
3: 3333 DIAMONDS 10 CLUBS Q TWO_PAIR 
/showdown 

---------------

---------------
pot-win/ 
7777: 800 
/pot-win 

---------------

---------------
seat/ 
button: 5555 2600 8000 
small blind: 7777 2600 8000 
big blind: 4444 1800 8000 
1111 1800 8000 
6666 1800 8000 
2222 1800 8000 
8888 1800 8000 
3333 1800 8000 
/seat 

---------------

---------------
blind/ 
7777: 50 
4444: 100 
/blind 

---------------

---------------
hold/ 
DIAMONDS 7 
DIAMONDS 6 
/hold 

---------------

---------------
inquire/ 
7777 2500 8000 100 call 
5555 2500 8000 100 call 
3333 1700 8000 100 call 
8888 1700 8000 100 call 
2222 1700 8000 100 call 
6666 1700 8000 100 call 
1111 1700 8000 100 call 
4444 1700 8000 100 blind 
total pot: 800 
/inquire 

---------------

---------------
seat/ 
button: 8888 2000 8000 
small blind: 3333 2000 8000 
big blind: 5555 2000 8000 
7777 2000 8000 
4444 2000 8000 
1111 2000 8000 
6666 2000 8000 
2222 2000 8000 
/seat 

---------------
blind/ 
3333: 50 
5555: 100 
/blind 

---------------

---------------
hold/ 
CLUBS 7 
DIAMONDS A 
/hold 

---------------

---------------
inquire/ 
7777 1900 8000 100 call 
5555 1900 8000 100 blind 
3333 1950 8000 50 blind 
total pot: 250 
/inquire 

---------------

---------------
flop/ 
HEARTS Q 
SPADES 7 
CLUBS 8 
/flop 

---------------

---------------
inquire/ 
7777 1900 8000 100 check 
5555 1900 8000 100 check 
3333 1900 8000 100 check 
8888 1900 8000 100 call 
2222 1900 8000 100 call 
6666 1900 8000 100 call 
1111 1900 8000 100 call 
4444 1900 8000 100 call 
total pot: 800 
/inquire 

---------------

---------------
turn/ 
SPADES 8 
/turn 

---------------

---------------seat/ 
button: 8888 2000 8000 
small blind: 3333 2000 8000 
big blind: 5555 2000 8000 
7777 2000 8000 
4444 2000 8000 
1111 2000 8000 
6666 2000 8000 
2222 2000 8000 
/seat 

---------------
blind/ 
3333: 50 
5555: 100 
/blind 

---------------

---------------
hold/ 
SPADES 6 
DIAMONDS 2 
/hold 

---------------

---------------
inquire/ 
4444 1900 8000 100 call 
7777 1900 8000 100 call 
5555 1900 8000 100 blind 
3333 1950 8000 50 blind 
total pot: 350 
/inquire 

---------------

---------------
flop/ 
HEARTS Q 
SPADES 7 
CLUBS 8 
/flop 

---------------

---------------
inquire/ 
4444 1900 8000 100 check 
7777 1900 8000 100 check 
5555 1900 8000 100 check 
3333 1900 8000 100 check 
8888 1900 8000 100 call 
2222 1900 8000 100 call 
6666 1900 8000 100 call 
1111 1900 8000 100 call 
total pot: 800 
/inquire 

---------------

---------------
turn/ 
SPADES 8 
/turn 

---------------

---------------
inquire/ 
4444 1900 8000 100 check 
7777 1900 8000 100 check 
5555 1900 8000 100 check 
3333 1900 8000 100 check 
8888 1900 8000 100 check 
2222 1900 8000 100 check 
6666 1900 8000 100 check 
1111 1900 8000 100 check 
total pot: 800 
/inquire 

---------------

---------------
river/ 
CLUBS K 
/river 

---------------

---------------
inquire/ 
4444 1900 8000 100 check 
7777 1900 8000 100 check 
5555 1900 8000 100 check 
3333 1900 8000 100 check 
8888 1900 8000 100 check 
2222 1900 8000 100 check 
6666 1900 8000 100 check 
1111 1900 8000 100 check 
total pot: 800 
/inquire 

---------------

---------------
showdown/ 
common/ 
HEARTS Q 
SPADES 7 
CLUBS 8 
SPADES 8 
CLUBS K 
/common 
6: 3333 DIAMONDS 6 HEARTS 6 TWO_PAIR 
1: 5555 DIAMONDS 8 DIAMONDS 3 THREE_OF_A_KIND 
3: 7777 SPADES Q CLUBS 9 TWO_PAIR 
5: 4444 CLUBS 7 DIAMONDS A TWO_PAIR 
7: 1111 SPADES 6 DIAMONDS 2 ONE_PAIR 
2: 6666 SPADES K HEARTS 10 TWO_PAIR 
4: 2222 CLUBS J SPADES J TWO_PAIR 
3: 8888 DIAMONDS 10 CLUBS Q TWO_PAIR 
/showdown 

---------------

---------------
pot-win/ 
5555: 800 
/pot-win 

---------------

---------------
seat/ 
button: 3333 1900 8000 
small blind: 5555 2700 8000 
big blind: 7777 1900 8000 
4444 1900 8000 
1111 1900 8000 
6666 1900 8000 
2222 1900 8000 
8888 1900 8000 
/seat 

---------------

---------------
blind/ 
5555: 50 
7777: 100 
/blind 

---------------

---------------
hold/ 
CLUBS 7 
DIAMONDS A 
/hold 

---------------

---------------
inquire/ 
4444 1800 8000 100 call 
7777 1800 8000 100 blind 
5555 2650 8000 50 blind 
total pot: 250 
/inquire 

---------------

---------------
flop/ 
HEARTS Q 
SPADES 7 
CLUBS 8 
/flop 

---------------

---------------
inquire/ 
4444 18seat/ 
button: 8888 2000 8000 
small blind: 3333 2000 8000 
big blind: 5555 2000 8000 
7777 2000 8000 
4444 2000 8000 
1111 2000 8000 
6666 2000 8000 
2222 2000 8000 
/seat 

---------------

---------------
blind/ 
3333: 50 
5555: 100 
/blind 

---------------

---------------
hold/ 
CLUBS J 
SPADES J 
/hold 

---------------

---------------
inquire/ 
6666 1900 8000 100 call 
1111 19seat/ 
button: 8888 2000 8000 
small blind: 3333 2000 8000 
big blind: 5555 2000 8000 
7777 2000 8000 
4444 2000 8000 
1111 2000 8000 
6666 2000 8000 
2222 2000 8000 
/seat 

---------------
blind/ 
3333: 50 
5555: 100 
/blind 

---------------

---------------
hold/ 
DIAMONDS 10 
CLUBS Q 
/hold 

---------------

---------------
inquire/ 
2222 1900 8000 100 call 
6666 1900 8000 100 call 
1111 1900 8000 100 call 
4444 1900 8000 100 call 
7777 1900 8000 100 call 
5555 1900 8000 100 blind 
3333 1950 8000 50 blind 
total pot: 650 
/inquire 

---------------

---------------
flop/ 
HEARTS Q 
SPADES 7 
CLUBS 8 
/flop 

---------------

---------------
inquire/ 
2222 1900 8000 100 check 
6666 1900 8000 100 check 
1111 1900 8000 100 check 
4444 1900 8000 100 check 
7777 1900 8000 100 check 
seat/ 
button: 8888 2000 8000 
small blind: 3333 2000 8000 
big blind: 5555 2000 8000 
7777 2000 8000 
4444 2000 8000 
1111 2000 8000 
6666 2000 8000 
2222 2000 8000 
/seat 

---------------
blind/ 
3333: 50 
5555: 100 
/blind 

---------------

---------------
hold/ 
CLUBS 7 
DIAMONDS A 
/hold 

---------------

---------------
inquire/ 
7777 1900 8000 100 call 
5555 1900 8000 100 blind 
3333 1950 8000 50 blind 
total pot: 250 
/inquire 

---------------

---------------
flop/ 
HEARTS Q 
SPADES 7 
CLUBS 8 
/flop 

---------------

---------------
inquire/ 
7777 1900 8000 100 check 
5555 1900 8000 100 check 
3333 1900 8000 100 check 
8888 1900 8000 100 call 
2222 1900 8000 100 call 
6666 1900 8000 100 call 
1111 1900 8000 100 call 
4444 1900 8000 100 call 
total pot: 800 
/inqseat/ 
button: 8888 2000 8000 
small blind: 3333 2000 8000 
big blind: 5555 2000 8000 
7777 2000 8000 
4444 2000 8000 
1111 2000 8000 
6666 2000 8000 
2222 2000 8000 
/seat 

---------------
blind/ 
3333: 50 
5555: 100 
/blind 

---------------

---------------
hold/ 
SPADES 6 
DIAMONDS 2 
/hold 

---------------

---------------
inquire/ 
4444 1900 8000 100 call 
7777 1900 8000 100 call 
5555 1900 8000 100 blind 
3333 1950 8000 50 blind 
total pot: 350 
/inquire 

---------------

---------------
flop/ 
HEARTS Q 
SPADES 7 
CLUBS 8 
/flop 

---------------

---------------
inquire/ 
4444 1900 8000 100 check 
7777 1900 8000 100 check 
5555 1900 8000 100 check 
3333 1900 8000 100 check 
8888 1900 8000 100 call 
2222 1900 8000 100 call 
6666 1900 8000 100 call 
1111 1900 8000 100 call 
total pot: 800 
/inquire 

---------------

---------------
turn/ 
SPADES 8 
/turn 

---------------

---------------
inquire/ 
4444 1900 8000 100 check 
7777 1900 8000 100 check 
5555 1900 8000 100 check 
3333 1900 8000 100 check 
8888 1900 8000 100 check 
2222 1900 8000 100 seat/ 
button: 8888 2000 8000 
small blind: 3333 2000 8000 
big blind: 5555 2000 8000 
7777 2000 8000 
4444 2000 8000 
1111 2000 8000 
6666 2000 8000 
2222 2000 8000 
/seat 

---------------
blind/ 
3333: 50 
5555: 100 
/blind 

---------------

---------------
hold/ 
SPADES K 
HEARTS 10 
/hold 

---------------

---------------
inquire/ 
1111 1900 8000 100 call 
4444 1900 8000 100 call 
7777 1900 8000 100 call 
5555 1900 8000 100 blind 
3333 1950 8000 50 blind 
total pot: 450 
/inquire 

---------------

---------------
flop/ 
HEARTS Q 
SPADES 7 
CLUBS 8 
/flop 

---------------

---------------
inquire/ 
1111 1900 8000 100 check 
4444 1900 8000 100 check 
7777 1900 8000 100 check 
5555 1900 8000 100 check 
3333 1900 8000 100 check 
8888 1900 8000 100 call 
2222 1900 8000 100 call 
6666 1900 8000 100 call 
total pot: 800 
/inquire 

---------------

---------------
turn/ 
SPADES 8 
/turn 

---------------

---------------
inquire/ 
1111 1900 8000 100 check 
4444 1900 8000 100 check 
7777 1900 8000 100 check 
5555 1900 8000 100 check 
3333 1900 8000 100 check 
8888 1900 8000 100 check 
2222 1900 8000 100 check 
6666 1900 8000 100 check 
total pot: 800 
/inquire 

---------------

---------------
river/ 
CLUBS K 
/river 

---------------

---------------
inquire/ 
1111 1900 8000 100 check 
4444 1900 8000 100 check 
7777 1900 8000 100 check 
5555 1900 8000 100 check 
3333 1900 8000 100 check 
8888 1900 8000 100 check 
2222 1900 8000 100 check 
6666 1900 8000 100 check 
total pot: 800 
/inquire 

---------------

---------------
showdown/ 
common/ 
HEARTS Q 
SPADES 7 
CLUBS 8 
SPADES 8 
CLUBS K 
/common 
6: 3333 DIAMONDS 6 HEARTS 6 TWO_PAIR 
1: 5555 DIAMONDS 8 DIAMONDS 3 THREE_Oseat/ 
button: 8888 2000 8000 
small blind: 3333 2000 8000 
big blind: 5555 2000 8000 
7777 2000 8000 
4444 2000 8000 
1111 2000 8000 
6666 2000 8000 
2222 2000 8000 
/seat 

---------------

---------------
blind/ 
3333: 50 
5555: 100 
/blind 

---------------

---------------
hold/ 
CLUBS J 
SPADES J 
/hold 

---------------

---------------
inquire/ 
6666 1900 8000 100 call 
1111 1900 8000 100 call 
4444 1900 8000 100 call 
7777 1900 8000 1seat/ 
button: 8888 2000 8000 
small blind: 3333 2000 8000 
big blind: 5555 2000 8000 
7777 2000 8000 
4444 2000 8000 
1111 2000 8000 
6666 2000 8000 
2222 2000 8000 
/seat 

---------------
blind/ 
3333: 50 
5555: 100 
/blind 

---------------

---------------
hold/ 
DIAMONDS 10 
CLUBS Q 
/hold 

---------------

---------------
inquire/ 
2222 1900 8000 100 call 
6666 1900 8000 100 call 
1111 1900 8000 100 call 
4444 1900 8000 100 call 
7777 1900 8000 100 call 
5555 1900 8000 100 blind 
3333 1950 8000 50 blind 
total pot: 650 
/inquire 

---------------

---------------
flop/ 
HEARTS Q 
SPADES 7 
CLUBS 8 
/flop 

---------------

---------------
inquire/ 
2222 1900 8000 100 check 
6666 1900 8000 100 check 
1111 1900 8000 100 check 
4444 1900 8000 100 check 
7777 1900 8000 100 check 
5555 1900 8000 100 check 
3333 1900 8000 100 check 
8888 1900 8000 100 call 
total pot: 800 
/inquire 

----------seat/ 
button: 8888 2000 800seat/ 
button: 8888 2000 8000 
small blind: 3333 2000 8000 
big blind: 5555 2000 8000 
7777 2000 8000 
4444 2000 8000 
1111 2000 8000 
6666 2000 8000 
2222 2000 8000 
/seat 

---------------
blind/ 
3333: 50 
5555: 100 
/blind 

---------------

---------------
hold/ 
CLUBS 7 
DIAMONDS A 
/hold 

---------------

---------------
inquire/ 
7777 1900 8000 100 call 
5555 1900 8000 100 blind 
3333 1950 8000 50 blind 
total pot: 250 
/inquire 

---------------

---------------
flop/ 
HEARTS Q 
SPADES 7 
CLUBS 8 
/flop 

---------------

---------------
inquire/ 
7777 1900 8000 100 check 
5555 1900 8000 100 check 
3333 1900 8000 100 check 
8888 1900 8000 100 call 
2222 1900 8000 100 callseat/ 
button: 8888 2000 8000 
small blind: 3333 2000 8000 
big blind: 5555 2000 8000 
7777 2000 8000 
4444 2000 8000 
1111 2000 8000 
6666 2000 8000 
2222 2000 8000 
/seat 

---------------
blind/ 
3333: 50 
5555: 100 
/blind 

---------------

---------------
hold/ 
SPADES 6 
DIAMONDS 2 
/hold 

---------------

---------------
inquire/ 
4444 1900 8000 100 call 
7777 1900 8000 100 call 
5555 1900 8000 100 blind 
3333 1950 8000 50 blind 
total pot: 350 
/inquire 

---------------

---------------
flop/ 
HEARTS Q 
SPADES 7 
CLUBS 8 
/flop 

---------------

---------------
inquire/ 
4444 1900 8000 100 check 
7777 1900 8000 100 check 
5555 1900 8000 100 check 
3333 1900 8000 100 check 
8888 1900 8000 100 call 
2222 1900 8000 100 call 
6666 1900 8000 100 call 
1111 1900 8000 100 call 
total pot: 800 
/inquire 

---------------

---------------
turn/ 
SPADES 8 
/turn 

---------------

---------------
inquire/ 
4444 1900 8000 100 check 
7777 1900 8000 100 check 
5555 1900 8000 100 check 
3333 1900 8000 100 check 
8888 1900 8000 100 check 
2222 1900 8000 100 check 
6666 1900 8000 100 check 
1111 1900 8000 100 check 
total pot: 800 
/inquire 

---------------

---------------
river/ 
CLUBS K 
/river 

---------------

---------------
inquire/ 
4444 1900 8000 100 check 
7777 1900 8000 100 check 
5555 1900 8000 100 check 
3333 1900 8000 100 check 
8888 1900 8000 100 check 
2222 1900 8000 100 check 
6666 1900 8000 100 check 
1111 1900 8000 100 check 
total pot: 800 
/inquire 

---------------

---------------
showdown/ 
common/ 
HEARTS Q 
SPADES 7 
CLUBS 8 
SPADES 8 
CLUBS K 
/common 
6: 3333 DIAMONDS 6 HEARTS 6 TWO_PAIR 
1: 5555 DIAMONDS 8 DIAMONDS 3 THREE_OF_A_KIND 
3: 7777 SPADES Q CLUBS 9 TWO_PAIR 
5: 4444 CLUBS 7 DIAMONDS A TWO_PAIR 
7: 1111 SPADES 6 DIAMONDS 2 ONE_PAIR 
2: 6666 SPADES K HEARTS 10 TWO_PAIR 
4: 2222 CLUBS J SPADES J TWO_PAIR 
3: 8888 DIAMONDS 10 CLUBS Q TWO_PAIR 
/showdown 

---------------

---------------
pot-win/ 
5555: 800 
/pot-win 

---------------

---------------
seat/ 
button: 3333 1900 8000 
small blind: 5555 2700 8000 
big blind: 7777 1900 8000 
4444 1900 8000 
1111 1900 8000 
6666 1900 8000 
2222 1900 8000 
8888 1900 8000 
/seat 

---------------

---------------
blind/ 
5555: 50 
7777: 100 
/blind 

---------------

---------------
hold/ 
CLUBS 7 
DIAMONDS A 
/hold 

---------------

---------------
inquire/ 
4444 1800 8000 100 call 
7777 1800 8000 100 blind 
5555 2650 8000 50 blind 
total pot: 250 
/inquire 

---------------

---------------
flop/ 
HEARTS Q 
SPADES 7 
CLUBS 8 
/flop 

---------------

---------------
inquire/ 
4444 1800 8000 100 check 
7777 1800 8000 100 check 
5555 2600 8000 100 check 
3333 1800 8000 100 call 
8888 1800 8000 100 call 
2222 1800 8000 100 call 
6666 1800 8000 100 call 
1111 1800 8000 100 call 
total pot: 800 
/inquire 

---------------

---------------
turn/ 
SPADES 8 
/turn 

---------------

---------------
inquire/ 
4444 1800 8000 100 check 
7777 1800 8000 100 check 
5555 2600 8000 100 check 
3333 1800 8000 100 check 
8888 1800 8000 100 check 
2222 1800 8000 100 check 
6666 1800 8000 100 check 
1111 1800 8000 100 check 
total pot: 800 
/inquire 

---------------

---------------
river/ 
CLUBS K 
/river 

---------------

---------------
inquire/ 
4444 1800 8000 100 check 
7777 1800 8000 100 check 
5555 2600 8000 100 check 
3333 1800 8000 100 check 
8888 1800 8000 100 check 
2222 1800 8000 100 check 
6666 1800 8000 100 check 
11seat/ 
button: 8888 2000 8000 
small blind: 3333 2000 8000 
big blind: 5555 2000 8000 
7777 2000 8000 
4444 2000 8000 
1111 2000 8000 
6666 2000 8000 
2222 2000 8000 
/seat 

---------------
blind/ 
3333: 50 
5555: 100 
/blind 

---------------

---------------
hold/ 
DIAMONDS 10 
CLUBS Q 
/hold 

---------------

---------------
inquire/ 
2222 1900 8000 100 call 
6666 1900 8000 100 call 
1111 1900 8000 100 call 
4444 1900 8000 100 call 
7777 1900 8000 100 call 
5555 1900 8000 100 blind 
3333 1950 8000 50 blind 
total pot: 650 
/inquire 

---------------

---------------
flop/ 
HEARTS Q 
SPADES 7 
CLUBS 8 
/flop 

---------------

---------------
inquire/ 
2222 1900 8000 100 check 
6666 1900 8000 100 check 
1111 1900 8000 100 check 
4444 1900 8000 100 check 
7777 1900 8000 100 check 
5555 1900 8000 100 check 
3333 1900 8000 100 check 
8888 1900 8000 10seat/ 
button: 8888 2000 8000 
small blind: 3333 2000 8000 
big blind: 5555 2000 8000 
7777 2000 8000 
4444 2000 8000 
1111 2000 8000 
6666 2000 8000 
2222 2000 8000 
/seat 

---------------
blind/ 
3333: 50 
5555: 100 
/blind 

---------------

---------------
hold/ 
CLUBS 7 
DIAMONDS A 
/hold 

---------------

---------------
inquire/ 
7777 1900 8000 100 call 
5555 1900 8000 100 blind 
3333 1950 8000 50 blind 
total pot: 250 
/inquire 

---------------

---------------
flop/ 
HEARTS Q 
SPADES 7 
CLUBS 8 
/flop 

---------------

---------------
inquire/ 
7777 1900 8000 100 check 
555seat/ 
button: 8888 2000 8000 
small blind: 3333 2000 8000 
big blind: 5555 2000 8000 
7777 2000 8000 
4444 2000 8000 
1111 2000 8000 
6666 2000 8000 
2222 2000 8000 
/seat 

---------------
blind/ 
3333: 50 
5555: 100 
/blind 

---------------

---------------
hold/ 
SPADES 6 
DIAMONDS 2 
/hold 

---------------

---------------
inquire/ 
4444 1900 8000 100 call 
7777 1900 8000 100 call 
5555 1900 8000 100 blind 
3333 1950 8000 50 blind 
total pot: 350 
/inquire 

---------------

---------------
flop/ 
HEARTS Q 
SPADES 7 
CLUBS 8 
/flop 

---------------

---------------
inquire/ 
4444 1900 8000 100 check 
7777 1900 8000 100 check 
5555 1900 8000 100 check 
3333 1900 8000 100 check 
8888 1900 8000 100 call 
2222 1900 8000 100 call 
6666 1900 8000 100 call 
1111 1900 8000 100 call 
total pot: 800 
/inquire 

---------------

---------------
turn/ 
SPADES 8 
/turn 

---------------

---------------
inquire/ 
4444 1900 8000 100 check 
7777 1900 8000 100 check 
5555 1900 8000 100 check 
3333 1900 8000 100 check 
8888 1900 8000 100 check 
2222 1900 8000 100 check 
6666 1900 8000 100 check 
1111 1900 8000 100 check 
total pot: 800 
/inquire 

---------------

---------------
river/ 
CLUBS K 
/river 

---------seat/ 
button: 8888 2000 8000 
small blind: 3333 2000 8000 
big blind: 5555 2000 8000 
7777 2000 8000 
4444 2000 8000 
1111 2000 8000 
6666 2000 8000 
2222 2000 8000 
/seat 

---------------
blind/ 
3333: 50 
5555: 100 
/blind 

---------------

---------------
hold/ 
SPADES K 
HEARTS 10 
/hold 

---------------

---------------
inquire/ 
1111 1900 8000 100 call 
4444 1900 8000 100 call 
7777 1900 8000 100 call 
5555 1900 8000 100 blind 
3333 1950 8000 50 blind 
total pot: 450 
/inquire 

---------------

---------------
flop/ 
HEARTS Q 
SPADES 7 
CLUBS 8 
/flop 

---------------

---------------
inquire/ 
1111 1900 8000 100 check 
4444 1900 8000 100 check 
7777 1900 8000 100 check 
5555 1900 8000 100 check 
3333 1900 8000 100 check 
8888 1900 8000 100 call 
2222 1900 8000 100 call 
6666 1900 8000 100 call 
total pot: 800 
/inquire 

---------------

---------------
turn/ 
SPADES 8 
/turn 

---------------

---------------
inquire/ 
1111 1900 8000 100 check 
4444 1900 8000 100 check 
7777 1900 8000 100 check 
5555 1900 8000 100 check 
3333 1900 8000 100 check 
8888 1900 8000 100 check 
2222 1900 8000 100 check 
6666 1900 8000 100 check 
total pot: 800 
/inquire 

---------------

---------------
river/ 
CLUBS K 
/river 

---------------

---------------
inquire/ 
1111 1900 8000 100 check 
4444 1900 8000 100 check 
7777 1900 8000 100 check 
5555 1900 8000 100 check 
3333 1900 8000 100 check 
8888 1900 8000 100 check 
2222 1900 8000 100 check 
6666 1900 8000 100 check 
total pot: 800 
/inquire 

---------------

---------------
showdown/ 
common/ 
HEARTS Q 
SPADES 7 
CLUBS 8 
SPADES 8 
CLUBS K 
/common 
6: 3333 DIAMONDS 6 HEARTS 6 TWO_PAIR 
1: 5555 DIAMONDS 8 DIAMONDS 3 THREE_OF_A_KIND 
3: 7777 SPADES Q CLUBS 9 TWO_PAIR 
5: 4444 CLUBS 7 DIAMONDS A TWO_PAIR 
7: 1111 SPADES 6 DIAMONDS 2 ONE_PAIR 
2: 6666 SPADES K HEARTS 10 TWO_PAIR 
4: 2222 CLUBS J SPADES J TWO_seat/ 
button: 8888 2000 8000 
small blind: 3333 2000 8000 
big blind: 5555 2000 8000 
7777 2000 8000 
4444 2000 8000 
1111 2000 8000 
6666 2000 8000 
2222 2000 8000 
/seat 

---------------

---------------
blind/ 
3333: 50 
5555: 100 
/blind 

---------------

---------------
hold/ 
CLUBS J 
SPADES J 
/hold 

---------------

---------------
inquire/ 
6666 1900 8000 100 call 
1111 1900 8000 100 call 
4444 1900 8000 100 call 
7777 1900 8000 100 call 
5555 1900 8000 100 blind 
3333 1950 8000 50 blind 
total pot: 550 
/inquire 

---------------

---------------
seat/ 
button: 8888 2000 8000 
small blind: 3333 2000 8000 
big blind: 5555 2000 8000 
7777 2000 8000 
4444 2000 8000 
1111 2000 8000 
6666 2000 8000 
2222 2000 8000 
/seat 

---------------
blind/ 
3333: 50 
5555: 100 
/blind 

---------------

---------------
hold/ 
DIAMONDS 10 
CLUBS Q 
/hold 

---------------

---------------
inquire/ 
2222 1900 8000 100 call 
6666 1900 8000 100 call 
1111 1900 8000 100 call 
4444 1900 8000 100 call 
7777 1900 8000 100 call 
5555 1900 8000 100 blind 
3333 1950 8000 50 blind 
total pot: 650 
/inquire 

---------------

---------------
flop/ 
HEARTS Q 
SPADES 7 
CLUBS 8 
/flop 

---------------

---------------
inquire/ 
2222 1900 8000 100 check 
6666 1900 8000 100 check 
1111 1900 8000 100 check 
4444 1900 8000 100 check 
7777 1900 8000 100 check 
5555 1900 8000 100 check 
3333 1900 8000 100 check 
8888 1900 8000 100 call 
total pot: 800 
/inquire 

---------------

---------------
turn/ 
SPADES 8 
/turn 

---------------

---------------
inquire/ 
2222 1900seat/ 
button: 8888 2000 8000 
small blind: 3333 2000 8000 
big blind: 5555 2000 8000 
7777 2000 8000 
4444 2000 8000 
1111 2000 8000 
6666 2000 8000 
2222 2000 8000 
/seat 

---------------
blind/ 
3333: 50 
5555: 100 
/blind 

---------------

---------------
hold/ 
CLUBS 7 
DIAMONDS A 
/hold 

---------------

---------------
inquire/ 
7777 1900 8000 100 call 
5555 1900 8000 100 blind 
3333 1950 8000 50 blind 
total pot: 250 
/inquire 

---------------

---------------
flop/ 
HEARTS Q 
SPseat/ 
button: 8888 2000 8000 
small blind: 3333 2000 8000 
big blind: 5555 2000 8000 
7777 2000 8000 
4444 2000 8000 
1111 2000 8000 
6666 2000 8000 
2222 2000 8000 
/seat 

---------------
blind/ 
3333: 50 
5555: 100 
/blind 

---------------

---------------
hold/ 
SPADES 6 
DIAMONDS 2 
/hold 

---------------

---------------
inquire/ 
4444 1900 8000 100 call 
7777 1900 8000 100 call 
5555 1900 8000 100 blind 
3333 1950 8000 50 blind 
total pot: 350 
/inquire 

---------------

---------------
flop/ 
HEARTS Q 
SPADES 7 
CLUBS 8 
/flop 

---------------

---------------
inquire/ 
4444 1900 8000 100 check 
7777 1900 8000 100 check 
5555 1900 8000 100 check 
3333 1900 8000 100 check 
8888 1900 8000 100 call 
2222 1900 8000 100 call 
6666 1900 8000 100 call 
1111 1900 8000 100 call 
total pot: 800 
/inquire 

---------------

---------------
turn/ 
SPADES 8 
/turn 

---------------

---------------
inquire/ 
4444 1900 8000 100 check 
7777 1900 8000 100 check 
5555 1900 8000 100 check 
3333 1900 8000 100 check 
8888 1900 8000 100 check 
2222 1900 8000 100 check 
6666 1900 8000 100 check 
1111 1900 8000 100 check 
total pot: 800 
/inquire 

---------------

---------------
river/ 
CLUBS K 
/river 

---------------

---------------
inquire/ 
4444 1900 8000 100 check 
7777 1900 8000 100 check 
5555 1900 8000 100 check 
3333 1900 8000 100 check 
8888 1900 8000 100 check 
2222 1900 8000 100 check 
6666 1900 8000 100 check 
1111 1900 8000 100 check 
total pot: 800 
/inquire 

---------------

---------------
showdown/ 
common/ 
HEARTS Q 
SPADES 7 
CLUBS 8 
SPADES 8 
CLUBS K 
/common 
6: 3333 DIAMONDS 6 HEARTS 6 TWO_PAIR 
1: 5555 DIAMONDS 8 DIAMONDS 3 THREE_OF_A_KIND 
3: 7777 SPADES Q CLUBS 9 TWO_PAIR 
5: 4444 CLUBS 7 DIAMONDS A TWO_PAIR 
7: 1111 SPADES 6 DIAMONDS 2 ONE_PAIR 
2: 6666 SPADES K HEARTS 10 TWO_PAIR 
4: 2222 CLUBS J SPADES J TWO_PAIR 
3: 8888 DIAMONDS 10 CLUBS Q TWO_PAIR 
/showdown 

---------------

---------------
pot-win/ 
5555: 800 
/pot-win 

---------------

---------------
seat/ 
button: 3333 1900 8000 
small blind: 5555 2700 8000 
big blind: 7777 1900 8000 
4444 1900 8000 
1111 1900 8000 
6666 1900 8000 
2222 1900 8000 
8888 1900 8000 
/seat 

---------------

---------------
blind/ 
5555: 50 
7777: 100 
/blind 

---------------

---------------
hold/ 
CLUBS 7 
DIAMONDS A 
/hold 

---------------

---------------
inquire/ 
4444 1800 8000 100 call 
7777 1800 8000 100 blind 
5555 2650 8000 50 blind 
total pot: 250 
/inquire 

---------------

---------------
flop/ 
HEARTS Q 
SPADES 7 
CLUBS 8 
/flop 

---------------

---------------
inquire/ 
4444 1800 8000 100 check 
7777 1800 8000 100 check 
5555 2600 8000 100 check 
3333 1800 8000 100 call 
8888 1800 8000 100 call 
2222 1800 8000 100 call 
6666 1800 8000 100 call 
1111 1800 8000 100 call 
total pot: 800 
/inquire 

---------------

---------------
turn/ 
SPADES 8 
/turn 

---------------

---------------
inquire/ 
4444 1800 8000 100 check 
7777 1800 8000 100 check 
5555 2600 8000 100 check 
3333 1800 8000 100 check 
8888 1800 8000 100 check 
2222 1800 8000 100 check 
6666 1800 8000 100 check 
1111 1800 8000 100 check 
total pot: 800 
/inquire 

---------------

---------------
river/ 
CLUBS K 
/river 

---------------

---------------
inquire/ 
4444 1800 8000 10seat/ 
button: 8888 2000 8000 
small blind: 3333 2000 8000 
big blind: 5555 2000 8000 
7777 2000 8000 
4444 2000 8000 
1111 2000 8000 
6666 2000 8000 
2222 2000 8000 
/seat 

---------------

---------------
blind/ 
3333: 50 
5555: 100 
/blind 

---------------

---------------
hold/ 
CLUBS J 
SPADES J 
/hold 

---------------

---------------
inquire/ 
6666 1900 8000 100 call 
1111 1900 8000 100 call 
4444 1900 8000 100 call 
7777 1900 8000 100 call 
5555 1900 8000 100 blind 
3333 1950 8000 50 blind 
total pot: 550 
/inquire 

---------------

---------------
flop/ 
HEARTS Q 
SPADES 7 
CLUBS 8 
/flop 

---------------
seat/ 
button: 8888 2000 8000 
small blind: 3333 2000 8000 
big blind: 5555 2000 8000 
7777 2000 8000 
4444 2000 8000 
1111 2000 8000 
6666 2000 8000 
2222 2000 8000 
/seat 

---------------
blind/ 
3333: 50 
5555: 100 
/blind 

---------------

---------------
hold/ 
DIAMONDS 10 
CLUBS Q 
/hold 

---------------

---------------
inquire/ 
2222 1900 8000 100 call 
6666 1900 8000 100 call 
1111 1900 8000 100 call 
4444 1900 8000 100 call 
7777 1900 8000 100 call 
5555 1900 8000 100 blind 
3333 1950 8000 50 blind 
total pot: 650 
/inquire 

---------------

---------------
flop/ 
HEARTS Q 
SPADES 7 
CLUBS 8 
/flop 

---------------

---------------
inquire/ 
2222 1900 8000 100 check 
6666 1900 8000 100 check 
1111 1900 8000 100 check 
4444 1900 8000 100 check 
7777 1900 8000 100 check 
5555 1900 8000 100 check 
3333 1900 8000 100 check 
8888 1900 8000 100 call 
total pot: 800 
/inquire 

---------------

---------------
turseat/ 
button: 8888 2000 8000 
small blind: 3333 2000 8000 
big blind: 5555 2000 8000 
7777 2000 8000 
4444 2000 8000 
1111 2000 8000 
6666 2000 8000 
2222 2000 8000 
/seat 

---------------
blind/ 
3333: 50 
5555: 100 
/blind 

---------------

---------------
hold/ 
CLUBS 7 
DIAMONDS A 
/hold 

---------------

---------------
inquire/ 
7777 1900 8000 100 call 
5555 1900 8000 100 blind 
3333 19seat/ 
button: 8888 2000 8000 
small blind: 3333 2000 8000 
big blind: 5555 2000 8000 
7777 2000 8000 
4444 2000 8000 
1111 2000 8000 
6666 2000 8000 
2222 2000 8000 
/seat 

---------------
blind/ 
3333: 50 
5555: 100 
/blind 

---------------

---------------
hold/ 
SPADES 6 
DIAMONDS 2 
/hold 

---------------

---------------
inquire/ 
4444 1900 8000 100 call 
7777 1900 8000 100 call 
5555 1900 8000 100 blind 
3333 1950 8000 50 blind 
total pot: 350 
/inquire 

---------------

---------------
flop/ 
HEARTS Q 
SPADES 7 
CLUBS 8 
/flop 

---------------

---------------
inquire/ 
4444 1900 8000 100 check 
7777 1900 8000 100 check 
5555 1900 8000 100 check 
3333 1900 8000 100 check 
8888 1900 8000 100 call 
2222 1900 8000 100 call 
6666 1900 8000 100 call 
1111 1900 8000 100 call 
total pot: 800 
/inquire 

---------------

---------------
turn/ 
SPADES 8 
/turn 

---------------

---------------
inquire/ 
4444 1900 8000 100 check 
7777 1900 8000 100 check 
5555 1900 8000 100 check 
3333 1900 8000 100 check 
8888 1900 8000 100 check 
2222 1900 8000 100 check 
6666 1900 8000 100 check 
1111 1900 8000 100 check 
total pot: 800 
/inquire 

---------------

---------------
river/ 
CLUBS K 
/river 

---------------

---------------
inquire/ 
4444 1900 8000 100 check 
7777 1900 8000 100 check 
5555 1900 8000 100 check 
3333 1900 8000 100 check 
8888 1900 8000 1seat/ 
button: 8888 2000 8000 
small blind: 3333 2000 8000 
big blind: 5555 2000 8000 
7777 2000 8000 
4444 2000 8000 
1111 2000 8000 
6666 2000 8000 
2222 2000 8000 
/seat 

---------------
blind/ 
3333: 50 
5555: 100 
/blind 

---------------

---------------
hold/ 
SPADES K 
HEARTS 10 
/hold 

---------------

---------------
inquire/ 
1111 1900 8000 100 call 
4444 1900 8000 100 call 
7777 1900 8000 100 call 
5555 1900 8000 100 blind 
3333 1950 8000 50 blind 
total pot: 450 
/inquire 

---------------

---------------
flop/ 
HEARTS Q 
SPADES 7 
CLUBS 8 
/flop 

---------------

---------------
inquire/ 
1111 1900 8000 100 check 
4444 1900 8000 100 check 
7777 1900 8000 100 check 
5555 1900 8000 100 check 
3333 1900 8000 100 check 
8888 1900 8000 100 call 
2222 1900 8000 100 call 
6666 1900 8000 100 call 
total pot: 800 
/inquire 

---------------

---------------
turn/ 
SPADES 8 
/turn 

---------------

---------------
inquire/ 
1111 1900 8000 100 check 
4444 1900 8000 100 check 
7777 1900 8000 100 check 
5555 1900 8000 100 check 
3333 1900 8000 100 check 
8888 1900 8000 100 check 
2222 1900 8000 100 check 
6666 1900 8000 100 check 
total pot: 800 
/inquire 

---------------

---------------
river/ 
CLUBS K 
/river 

---------------

---------------
inquire/ 
1111 1900 8000 100 check 
4444 1900 8000 100 check 
7777 1900 8000 100 check 
5555 1900 8000 100 check 
3333 1900 8000 100 check 
8888 1900 8000 100 check 
2222 1900 8000 100 check 
6666 1900 8000 100 check 
total pot: 800 
/inquire 

---------------

---------------
showdown/ 
common/ 
HEARTS Q 
SPADES 7 
CLUBS 8 
SPADES 8 
CLUBS K 
/common 
6: 3333 DIAMONDS 6 HEARTS 6 TWO_PAIR 
1: 5555 DIAMONDS 8 DIAMONDS 3 THREE_OF_A_KIND 
3: 7777 SPADES Q CLUBS 9 TWO_PAIR 
5: 4444 CLUBS 7 DIAMONDS A TWO_PAIR 
7: 1111 SPADES 6 DIAMONDS 2 ONE_PAIR 
2: 6666 SPADES K HEARTS 10 TWO_PAIR 
4: 2222 CLUBS J SPADES J TWO_PAIR 
3: 8888 DIAMONDS 10 CLUBS Q TWO_PAIR 
/showdown 

---------------

---------------
pot-win/ 
5555: 800 
/pot-win 

---------------

---------------
seat/ 
button: 3333 1900 8000 
sseat/ 
button: 8888 2000 8000 
small blind: 3333 2000 8000 
big blind: 5555 2000 8000 
7777 2000 8000 
4444 2000 8000 
1111 2000 8000 
6666 2000 8000 
2222 2000 8000 
/seat 

---------------

---------------
blind/ 
3333: 50 
5555: 100 
/blind 

---------------

---------------
hold/ 
CLUBS J 
SPADES J 
/hold 

---------------

---------------
inquire/ 
6666 1900 8000 100 call 
1111 1900 8000 100 call 
4444 1900 8000 100 call 
7777 1900 8000 100 call 
5555 1900 8000 100 blind 
3333 1950 8000 50 blind 
total pot: 550 
/inquire 

---------------

---------------
flop/ 
HEARTS Q 
SPADES 7 
CLUBS 8 
/flop 

---------------

---------------
inquire/ 
6666 1900 8000 100 check 
1111 19seat/ 
button: 8888 2000 8000 
small blind: 3333 2000 8000 
big blind: 5555 2000 8000 
7777 2000 8000 
4444 2000 8000 
1111 2000 8000 
6666 2000 8000 
2222 2000 8000 
/seat 

---------------
blind/ 
3333: 50 
5555: 100 
/blind 

---------------

---------------
hold/ 
DIAMONDS 10 
CLUBS Q 
/hold 

---------------

---------------
inquire/ 
2222 1900 8000 100 call 
6666 1900 8000 100 call 
1111 1900 8000 100 call 
4444 1900 8000 100 call 
7777 1900 8000 100 call 
5555 1900 8000 100 blind 
3333 1950 8000 50 blind 
total pot: 650 
/inquire 

---------------

---------------
flop/ 
HEARTS Q 
SPADES 7 
CLUBS 8 
/flop 

---------------

---------------
inquire/ 
2222 1900 8000 100 check 
6666 1900 8000 100 check 
1111 1900 8000 100 check 
4444 1900 8000 100 check 
7777 1900 8000 100 check 
5555 1900 8000 100 check 
3333 1900 8000 100 check 
8888 1900 8000 100 call 
total pot: 800 
/inquire 

---------------

---------------
turn/ 
SPADES 8 
/turn 

---------------

---------------
inquire/ 
2222 1900 8000 100 check 
6666 1900 8000 100 check 
1111 1900 8000 100 check 
44seat/ 
button: 8888 2000 8000 
small blind: 3333 2000 8000 
big blind: 5555 2000 8000 
7777 2000 8000 
4444 2000 8000 
1111 2000 8000 
6666 2000 8000 
2222 2000 8000 
/seat 

---------------
blind/ 
3333: 50 
5555: 100 
/blind 

---------------

---------------
hold/ 
CLUBS 7 
DIAMONDS A 
/hold 

----seat/ 
button: 8888 2000 8000 
small blind: 3333 2000 8000 
big blind: 5555 2000 8000 
7777 2000 8000 
4444 2000 8000 
1111 2000 8000 
6666 2000 8000 
2222 2000 8000 
/seat 

---------------
blind/ 
3333: 50 
5555: 100 
/blind 

---------------

---------------
hold/ 
SPADES 6 
DIAMONDS 2 
/hold 

---------------

---------------
inquire/ 
4444 1900 8000 100 call 
7777 1900 8000 100 call 
5555 1900 8000 100 blind 
3333 1950 8000 50 blind 
total pot: 350 
/inquire 

---------------

---------------
flop/ 
HEARTS Q 
SPADES 7 
CLUBS 8 
/flop 

---------------

---------------
inquire/ 
4444 1900 8000 100 check 
7777 1900 8000 100 check 
5555 1900 8000 100 check 
3333 1900 8000 100 check 
8888 1900 8000 100 call 
2222 1900 8000 100 call 
6666 1900 8000 100 call 
1111 1900 8000 100 call 
total pot: 800 
/inquire 

---------------

---------------
turn/ 
SPADES 8 
/turn 

---------------

---------------
inquire/ 
4444 1900 8000 100 check 
7777 1900 8000 100 check 
5555 1900 8000 100 check 
3333 1900 8000 100 check 
8888 1900 8000 100 check 
2222 1900 8000 100 check 
6666 1900 8000 100 check 
1111 1900 8000 100 check 
total pot: 800 
/inquire 

---------------

---------------
river/ 
CLUBS K 
/river 

---------------

---------------
inquire/ 
4444 1900 8000 100 check 
7777 1900 8000 100 check 
5555 1900 8000 100 check 
3333 1900 8000 100 check 
8888 1900 8000 100 check 
2222 1900 8000 100 check 
6666 1900 8000 100 check 
1111 1900 8000 100 check 
total pot: 800 
/inquire 

---------------

---------------
showdown/ 
common/ 
HEARTS Q 
SPADES 7 
CLUBS 8 
SPADES 8 
CLUBS K 
/common 
6: 3333 DIAMONDS 6 HEARTS 6 TWO_PAIR 
1: 5555 DIAMONDS 8 DIAMONDS 3 THREE_OF_A_KIND 
3: 7777 SPADES Q CLUBS 9 TWO_PAIR 
5: 4444 CLUBS 7 DIAMONDS A TWO_PAIR 
7: 1111 SPADES 6 DIAMONDS 2 ONE_PAIR 
2: 6666 SPADES K HEARTS 10 TWO_PAIR 
4: 2222 CLUBS J SPADES J TWO_PAIR 
3: 8888 DIAMONDS 10 CLUBS Q TWO_PAIR 
/showdown 

---------------

---------------
pot-win/ 
5555: 800 
/pot-win 

---------------

---------------
seat/ 
button: 3333 1900 8000 
small blind: 5555 2700 8000 
big blind: 7777 1900 8000 
4444 1900 8000 
1111 1900 8000 
6666 1900 8000 
2222 1900 8000 
8888 1900 8000 
/seat 

---------------

---------------
blind/ 
5555: 50 
7777: 100 
/blind 

---------------

---------------
hold/ 
CLUBS 7 
DIAMONDS A 
/hold 

---------------

---------------
inquire/ 
4444 1800 8000 100 call 
7777 1800 8000 100 blind 
5555 2650 8000 50 blind 
total pot: 250 
/inquire 

---------------

---------------
flop/ 
HEARTS Q 
SPADES 7 
CLUBS 8 
/flop 

---------------

---------------
inquire/ 
4444 1800 8000 100 check 
7777 1800 8000 100 check 
5555 2600 8000 100 check 
3333 1800 8000 100 call 
8888 1800 8000 100 call 
2222 1800 8000 100 call 
6666 1800 8000 100 call 
1111 1800 8000 100 call 
total pot: 800 
/inquire 

---------------

---------------
turn/ 
SPADES 8 
/turn 

---------------

---------------
inquire/ 
4444 1800 8000 100 check 
7777 1800 8000 100 check 
5555 2600 8000 100 check 
3333 1800 8000 100 check 
8888 1800 8000 100 check 
2222 1800 8000 100 check 
6666 1800 8000 100 check 
1111 1800 8000 100 check 
total pot: 800 
/inquire 

---------------

---------------
river/ 
CLUBS K 
/river 

---------------

---------------
inquire/ 
4444 1800 8000 100 check 
7777 1800 8000 100 check 
5555 2600 8000 100 check 
3333 1800 8000 100 check 
8888 1800 8000 100 check 
2222 1800 8000 100 check 
6666 1800 8000 100 check 
1111 1800 8000 100 check 
total pot: 800 
/inquire 

---------------

---------------
showdown/ 
common/ 
HEARTS Q 
SPADES 7 
CLUBS 8 
SPADES 8 
CLUBS K 
/common 
6: 5555 DIAMseat/ 
button: 8888 2000 8000 
small blind: 3333 2000 8000 
big blind: 5555 2000 8000 
7777 2000 8000 
4444 2000 8000 
1111 2000 8000 
6666 2000 8000 
2222 2000 8000 
/seat 

---------------

---------------
blind/ 
3333: 50 
5555: 100 
/blind 

---------------

---------------
hold/ 
CLUBS J 
SPADES J 
/hold 

---------------

---------------
inquire/ 
6666 1900 8000 100 call 
1111 1900 8000 100 call 
4444 1900 8000 100 call 
7777 1900 8000 100 call 
5555 1900 8000 100 blind 
3333 1950 8000 50 blind 
total pot: 550 
/inquire 

---------------

---------------
flop/ 
HEARTS Q 
SPADES 7 
CLUBS 8 
/flop 

---------------

---------------
inquire/ 
6666 1900 8000 100 check 
1111 1900 8000 100 check 
4444 1900 8000 100 check 
7777 1900 8000 seat/ 
button: 8888 2000 8000 
small blind: 3333 2000 8000 
big blind: 5555 2000 8000 
7777 2000 8000 
4444 2000 8000 
1111 2000 8000 
6666 2000 8000 
2222 2000 8000 
/seat 

---------------
blind/ 
3333: 50 
5555: 100 
/blind 

---------------

---------------
hold/ 
DIAMONDS 10 
CLUBS Q 
/hold 

---------------

---------------
inquire/ 
2222 1900 8000 100 call 
6666 1900 8000 100 call 
1111 1900 8000 100 call 
4444 1900 8000 100 call 
7777 1900 8000 100 call 
5555 1900 8000 100 blind 
3333 1950 8000 50 blind 
total pot: 650 
/inquire 

---------------

---------------
flop/ 
HEARTS Q 
SPADES 7 
CLUBS 8 
/flop 

---------------

---------------
inquire/ 
2222 1900 8000 100 check 
6666 1900 8000 100 check 
1111 1900 8000 100 check 
4444 1900 8000 100 check 
7777 1900 8000 100 check 
5555 1900 8000 100 check 
3333 1900 8000 100 check 
8888 1900 8000 100 call 
total pot: 800 
/inquire 

---------------

---------------
turn/ 
SPADES 8 
/turn 

---------------

---------------
inquire/ 
2222 1900 8000 100 check 
6666 1900 8000 100 check 
1111 1900 8000 100 check 
4444 1900 8000 100 check 
7777 1900 8000 100 check 
5555 1900 8000 100 check 
3333 1900 8000 100 check 
8888 1900 8000 100 check 
total pot: 800 
/inquire 

---------------

---------------
river/ 
CLUBS K 
/river 

---------------

---------------
inquire/ 
2222 1900 8000 100 check 
6666 1900 80seat/ 
button: 8888 2000 8000 
small blind: 3333 2000 8000 
big blind: 5555 2000 8000 
7777 2000 8000 
4444 2000 8000 
1111 2000 8000 
6666 2000 8000 
2222 2000 8000 
/seat 

---------------
blind/ 
3333: seat/ 
button: 8888 2000 8000 
small blind: 3333 2000 8000 
big blind: 5555 2000 8000 
7777 2000 8000 
4444 2000 8000 
1111 2000 8000 
6666 2000 8000 
2222 2000 8000 
/seat 

---------------
blind/ 
3333: 50 
5555: 100 
/blind 

---------------

---------------
hold/ 
SPADES 6 
DIAMONDS 2 
/hold 

---------------

---------------
inquire/ 
4444 1900 8000 100 call 
7777 1900 8000 100 call 
5555 1900 8000 100 blind 
3333 1950 8000 50 blind 
total pot: 350 
/inquire 

---------------

---------------
flop/ 
HEARTS Q 
SPADES 7 
CLUBS 8 
/flop 

---------------

---------------
inquire/ 
4444 1900 8000 100 check 
7777 1900 8000 100 check 
5555 1900 8000 100 check 
3333 1900 8000 100 check 
8888 1900 8000 100 call 
2222 1900 8000 100 call 
6666 1900 8000 100 call 
1111 1900 8000 100 call 
total pot: 800 
/inquire 

---------------

---------------
turn/ 
SPADES 8 
/turn 

---------------

---------------
inquire/ 
4444 1900 8000 100 check 
7777 1900 8000 100 check 
5555 1900 8000 100 check 
3333 1900 8000 100 check 
8888 1900 8000 100 check 
2222 1900 8000 100 check 
6666 1900 8000 100 check 
1111 1900 8000 100 check 
total pot: 800 
/inquire 

---------------

---------------
river/ 
CLUBS K 
/river 

---------------

---------------
inquire/ 
4444 1900 8000 100 check 
7777 1900 8000 100 check 
5555 1900 8000 100 check 
3333 1900 8000 100 check 
8888 1900 8000 100 check 
2222 1900 8000 100 check 
6666 1900 8000 100 check 
1111 1900 8000 100 check 
total pot: 800 
/inquire 

---------------

---------------
showdown/ 
common/ 
HEARTS Q 
SPADES 7 
CLUBS 8 
SPADES 8 
CLUBS K 
/common 
6: 3333 DIAMONDS 6 HEARTS 6 TWO_PAIR 
1: 5555 DIAMONDS 8 DIAMONDS 3 THREE_OF_A_KIND 
3: 7777 SPADES Q CLUBS 9 TWO_PAIR 
5: 4444 CLUBS 7 DIAMONDS A TWO_PAIR 
7: 1111 SPADES 6 DIAMONDS 2 ONE_PAIR 
2: 6666 SPADES K HEARTS 10 TWO_PAIR 
4: 2222 CLUBS J SPADES J TWO_PAIR 
3: 8888 DIAMONDS 10 CLUBS Q TWO_PAIR 
/showdown 

---------------

---------------
pot-win/ 
5555: 800 
/pot-win 

---------------

---------------
seat/ 
button: 3333 1900 8000 
small blind: 5555 2700 8000 
big blind: 7777 1900 8000 
4444 1900 8000 
1111 1900 8000 
6666 1900 8000 
2222 1900 8000 
8888 1900 8000 
/seat 

---------------

---------------
blind/ 
5555: 50 
7777: 100 
/blind 

---------------

---------------
hold/ 
CLUBS 7 
DIAMONDS A 
/hold 

---------------

---------------
inquire/ 
4444 1800 8000 100 call 
7777 1800 8000 100 blind 
5555 2650 8000 50 blind 
total pot: 250 
/inquire 

---------------

---------------
flop/ 
HEARTS Q 
SPADES 7 
CLUBS 8 
/flop 

---------------

---------------
inquire/ 
4444 1800 8000 100 check 
7777 1800 8000 100 check 
5555 2600 8000 100 check 
3333 1800 8000 100 call 
8888 1800 8000 100 call 
2222 1800 8000 100 call 
6666 1800 8000 100 call 
1111 1800 8000 100 call 
total pot: 800 
/inquire 

---------------

---------------
turn/ 
SPADES 8 
/turn 

---------------

---------------
inquire/ 
4444 1800 8000 100 check 
7777 1800 8000 100 check 
5555 2600 8000 100 check 
3333 1800 8000 100 check 
8888 1800 8000 100 check 
2222 1800 8000 100 check 
6666 1800 8000 100 check 
1111 1800 8000 100 check 
total pot: 800 
/inquire 

---------------

---------------
river/ 
CLUBS K 
/river 

---------------

---------------
inquire/ 
4444 1800 8000 100 check 
7777 1800 8000 100 check 
5555 2600 8000 100 check 
3333 1800 8000 100 check 
8888 1800 8000 100 check 
2222 1800 8000 100 check 
6666 1800 8000 100 check 
1111 1800 8000 100 check 
total pot: 800 
/inquire 

---------------

---------------
showdown/ 
common/ 
HEARTS Q 
SPADES 7 
CLUBS 8 
SPADES 8 
CLUBS K 
/common 
6: 5555 DIAMONDS 6 HEARTS 6 TWO_PAIR 
1: 7777 DIAMONDS 8 DIAMONDS 3 THREE_OF_A_KIND 
3: 4444 SPADES Q CLUBS 9 TWO_PAIR 
5: 1111 CLUBS 7 DIAMONDS A TWO_PAIR 
7: 6666 SPADES 6 DIAMONDS 2 ONE_PAIR 
2: 2222 SPADES K HEARTS 10 TWO_PAIR 
4: 8888 CLUBS J SPADES J TWO_PAIR 
3: 3333 DIAMONDS 10 CLUBS Q TWO_PAIR 
/showdown 

---------------

---------------
pot-win/ 
7777: 800 
/pot-win 

---------------

---------------
seat/ 
button: 5555 2600 8000 
small blind: 7777 2600 8000 
big blind: 4444 1800 8000 
1111 1800 8000 
6666 1800 8000 
2222 1800 8000 
8888 1800 8000 
3333 1800 8000 
/seat 

---------------

---------------
blind/ 
7777: 50 
4444: 100 
/blind 

---------------

---------------
hold/ 
DIAMONDS 9 
HEARTS 4 
/hold 

---------------

---------------
inquire/ 
4444 1700 8000 100 blind 
7777 2550 8000 50 blind 
total pot: 150 
/inquire 

---------------

---------------
flop/ 
SPADES 6 
CLUBS 8 
DIAMONDS 5 
/flop 

---------------

---------------
inquire/ 
4444 1700 8000 100 check 
7777 2500 8000 100 check 
5555 2500 8000 100 call 
3333 1700 8000 100 call 
8888 1700 8000 100 call 
2222 1700 8000 100 call 
6666 1700 8000 100 call 
1111 1700 8000 100 call 
total pot: 800 
/inquire 

---------------

---------------
turn/ 
DIAMONDS J 
/turn 

---------------

---------------
inquire/ 
4444 1700 8000 100 check 
7777 2500 8000 100 check 
5555 2500 8000 100 check 
3333 1700 8000 100 check 
8888 1700 8000 100 check 
2222 1700 8000 100 check 
6666 1700 8000 100 check 
1111 1700 8000 100 check 
total pot: 800 
/inquire 

---------------

---------------
river/ 
CLUBS 3 
/river 

---------------

---------------
inquire/ 
4444 1700 8000 100 check 
7777 2500 8000 100 check 
5555 2500 8000 100 check 
3333 1700 8000 100 check 
8888 1700 8000 100 check 
2222 1700 8000 100 check 
6666 1700 8000 100 check 
1111 1700 8000 100 check 
total pot: 800 
/inquire 

---------------

---------------
showdown/ 
common/ 
SPADES 6 
CLUBS 8 
DIAMONDS 5 
DIAMONDS J 
CLUBS 3 
/common 
7: 7777 CLUBS 10 HEARTS Q HIGH_CARD 
1: 4444 DIAMONDS 7 DIAMONDS 6 ONE_PAIR 
8: 1111 DIAMONDS 9 HEARTS 4 HIGH_CARD 
4: 6666 DIAMONDS A CLUBS K HIGH_CARD 
5: 2222 SPADES A DIAMONDS 4 HIGH_CARD 
6: 8888 SPADES Q SPADES K HIGH_CARD 
3: 3333 HEARTS 7 HEARTS 3 ONE_PAIR 
2: 5555 SPADES 7 HEARTS 5 ONE_PAIR 
/sseat/ 
button: 8888 2000 8000 
small blind: 3333 2000 8000 
big blind: 5555 2000 8000 
7777 2000 8000 
4444 seat/ 
button: 8888 2000 8000 
small blind: 3333 2000 8000 
big blind: 5555 2000 8000 
7777 2000 8000 
4444 2000 8000 
1111 2000 8000 
6666 2000 8000 
2222 2000 8000 
/seat 

---------------
blind/ 
3333: 50 
5555: 100 
/blind 

---------------

---------------
hold/ 
SPADES 6 
DIAMONDS 2 
/hold 

---------------

---------------
inquire/ 
4444 1900 8000 100 call 
7777 1900 8000 100 call 
5555 1900 8000 100 blind 
3333 1950 8000 50 blind 
total pot: 350 
/inquire 

---------------

---------------
flop/ 
HEARTS Q 
SPADES 7 
CLUBS 8 
/flop 

---------------

---------------
inquire/ 
4444 1900 8000 100 check 
7777 1900 8000 100 check 
5555 1900 8000 100 check 
3333 1900 8000 100 check 
8888 1900 8000 100 call 
2222 1900 8000 100 call 
6666 1900 8000 100 call 
1111 1900 8000 100 call 
total pot: 800 
/inquire 

---------------

---------------
turn/ 
SPADES 8 
/turn 

---------------

---------------
inquire/ 
4444 1900 8000 100 check 
7777 1900 8000 100 check 
5555 1900 8000 100 check 
3333 1900 8000 100 check 
8888 1900 8000 100 check 
2222 1900 8000 100 check 
6666 1900 8000 100 check 
1111 1900 8000 100 check 
total pot: 800 
/inquire 

---------------

---------------
river/ 
CLUBS K 
/river 

---------------

---------------
inquire/ 
4444 1900 8000 100 check 
7777 1900 8000 100 check 
5555 1900 8000 100 check 
3333 1900 8000 100 check 
8888 1900 8000 100 check 
2222 1900 8000 100 check 
6666 1900 8000 100 check 
1111 1900 8000 100 check 
total pot: 800 
/inquire 

---------------

---------------
showdown/ 
common/ 
HEARTS Q 
SPADES 7 
CLUBS 8 
SPADES 8 
CLUBS K 
/common 
6: 3333 DIAMONDS 6 HEARTS 6 TWO_PAIR 
1: 5555 DIAMONDS 8 DIAMONDS 3 THREE_OF_A_KIND 
3: 7777 SPADES Q CLUBS 9 TWO_PAIR 
5: 4444 CLUBS 7 DIAMONDS A TWO_PAIR 
7: 1111 SPADES 6 DIAMONDS 2 ONE_PAIR 
2: 6666 SPADES K HEARTS 10 TWO_PAIR 
4: 2222 CLUBS J SPADES J TWO_PAIR 
3: 8888 DIAMONDS 10 CLUBS Q TWO_PAIR 
/showdown 

---------------

---------------
pot-win/ 
5555: 800 
/pot-win 

---------------

---------------
seat/ 
button: 3333 1900 8000 
small blind: 5555 2700 8000 
big blind: 7777 1900 8000 
4444 1900 8000 
1111 1900 8000 
6666 1900 8000 
2222 1900 8000 
8888 1900 8seat/ 
button: 8888 2000 8000 
small blind: 3333 2000 8000 
big blind: 5555 2000 8000 
7777 2000 8000 
4444 2000 8000 
1111 2000 8000 
6666 2000 8000 
2222 2000 8000 
/seat 

---------------
blind/ 
3333: 50 
5555: 100 
/blind 

---------------

---------------
hold/ 
SPADES Q 
CLUBS 9 
/hold 

---------------

---------------
inquire/ 
5555 1900 8000 100 blind 
3333 1950 8000 50 blind 
total pot: 150 
/inquire 

---------------

---------------
flop/ 
HEARTS Q 
SPADES 7 
CLUBS 8 
/flop 

---------------

---------------
inquire/ 
5555 1900 8000 100 check 
3333 1900 8000 100 check 
8888 1900 8000 100 call 
2222 1900 8000 100 call 
6666 1900 8000 100 call 
1111 1900 8000 100 call 
4444 1900 8000 100 call 
7777 1900 8000 100 call 
total pot: 800 
/inquire 

---------------

---------------
turn/ 
SPADES 8 
/turn 

---------------

---------------
inquire/ 
5555 1900 8000 100 check 
3333 1900 8000 100 check 
8888 1900 8000 100 check 
2222 1900 8000 100 check 
6666 1900 8000 100 check 
1111 1900 8000 100 check 
4444 1900 8000 100 check 
7777 1900 8000 100 check 
total pot: 800 
/inquire 

---------------

---------------
river/ 
CLUBS K 
/river 

---------------

---------------
inquire/ 
5555 1900 8000 100 check 
3333 1900 8000 100 check 
8888 1900 8000 100 check 
2222 1900 8000 100 check 
6666 1900 8000 100 check 
1111 1900 8000 100 check 
4444 1900 8000 100 check 
7777 1900 8000 100 check 
total pot: 800 
/inquire 

---------------

---------------
showdown/ 
common/ 
HEARTS Q 
SPADES 7 
CLUBS 8 
SPADES 8 
CLUBS K 
/common 
6: 3333 DIAMONDS 6 HEARTS 6 TWO_PAIR 
1: 5555 DIAMONDS 8 DIAMONDS 3 THREE_OF_A_KIND 
3: 7777 SPADES Q CLUBS 9 TWO_PAIR 
5: 4444 CLUBS 7 DIAMONDS A TWO_PAIR 
7: 1111 SPADES 6 DIAMONDS 2 ONE_PAIR 
2: 6666 SPADES K HEARTS 10 TWO_PAIR 
4: 2222 CLUBS J SPADES J TWO_PAIR 
3: 8888 DIAMONDS 10 CLUBS Q TWO_PAIR 
/showdown 

---------------

---------------
pot-win/ 
5555: 800 
/pot-win 

---------------

---------------
seat/ 
button: 3333 1900 8000 
small blind: 5555 2700 8000 
big blind: 7777 1900 8000 
4444 1900 8000 
1111 1900 8000 
6666 1900 8000 
2222 1900 8000 
8888 1900 8000 
/seat 

---------------

---------------
blind/ 
5555: 50 
7777: 100 
/blind 

---------------

---------------
hold/ 
DIAMONDS 8 
DIAMONDS 3 
/hold 

---------------

---------------
inquire/ 
5555 2600 8000 100 call 
3333 1800 8000 100 call 
8888 1800 8000 100 call 
2222 1800 8000 100 call 
6666 1800 8000 100 call 
1111 1800 8000 100 call 
4444 1800 8000 100 call 
7777 1800 8000 100 blind 
total pot: 800 
/inquire 

---------------

---------------
flop/ 
HEARTS Q 
SPADES 7 
CLUBS 8 
/flop 

---------------

---------------
inquire/ 
5555 2600 8000 100 check 
3333 1800 8000 100 call 
8888 1800 8000 100 call 
2222 1800 8000 100 call 
6666 1800 8000 100 call 
1111 1800 8000 100 call 
4444 1800 8000 100 call 
7777 1800 8000 100 check 
total pot: 800 
/inquire 

---------------

---------------
turn/ 
SPADES 8 
/turn 

---------------

---------------
inquire/ 
5555 2600 8000 100 check 
3333 1800 8000 100 check 
8888 1800 8000 100 check 
2222 1800 8000 100 check 
6666 1800 8000 100 check 
1111 1800 8000 100 check 
4444 1800 8000 100 check 
7777 1800 8000 100 check 
total pot: 800 
/inquire 

---------------

---------------
river/ 
CLUBS K 
/river 

---------------

---------------
inquire/ 
5555 2600 8000 100 check 
3333 1800 8000 100 check 
8888 1800 8000 100 check 
2222 1800 8000 100 check 
6666 1800 8000 100 check 
1111 1800 8000 100 check 
4444 1800 8000 100 check 
7777 1800 8000 100 check 
total pot: 800 
/inquire 

---------------

---------------
showdown/ 
common/ 
HEARTS Q 
SPADES 7 
CLUBS 8 
SPADES 8 
CLUBS K 
/common 
6: 5555 DIAMONDS 6 HEARTS 6 TWO_PAIR 
1: 7777 DIAMONDS 8 DIAMONDS 3 THREE_OF_A_KIND 
3: 4444 SPADES Q CLUBS 9 TWO_PAIR 
5: 1111 CLUBS 7 DIAMONDS A TWO_PAIR 
7: 6666 SPADES 6 DIAMONDS 2 ONE_PAIR 
2: 2222 SPADES K HEARTS 10 TWO_PAIR 
4: 8888 CLUBS J SPADES J TWO_PAIR 
3: 3333 DIAMONDS 10 CLUBS Q TWO_PAIR 
/showdown 

---------------

---------------
pot-win/ seat/ 
button: 8888 2000 8000 
small blind: 3333 2000 8000 
big blind: 5555 2000 8000 
7777 2000 8000 
4444 2000 8000 
1111 2000 8000 
6666 2000 8000 
2222 2000 8000 
/seat 

---------------
blind/ 
3333: 50 
5555: 100 
/blind 

---------------

---------------
hold/ 
SPADES 6 
DIAMONDS 2 
/hold 

---------------

---------------
inquire/ 
4444 1900 8000 100 call 
7777 1900 8000 100 call 
5555 1900 8000 100 blind 
3333 1950 8000 50 blind 
total pot: 350 
/inquire 

---------------

---------------
flop/ 
HEARTS Q 
SPADES 7 
CLUBS 8 
/flop 

---------------

---------------
inquire/ 
4444 1900 8000 100 check 
7777 1900 8000 100 check 
5555 1900 8000 100 check 
3333 1900 8000 100 check 
8888 1900 8000 100 call 
2222 1900 8000 100 call 
6666 1900 8000 100 call 
1111 1900 8000 100 call 
total pot: 800 
/inquire 

---------------

---------------
turn/ 
SPADES 8 
/turn 

---------------

---------------
inquire/ 
4444 1900 8000 100 check 
7777 1900 8000 100 check 
5555 1900 8000 100 check 
3333 1900 8000 100 check 
8888 1900 8000 100 check 
2222 1900 8000 100 check 
6666 1900 8000 100 check 
1111 1900 8000 100 check 
total pot: 800 
/inquire 

---------------

---------------
river/ 
CLUBS K 
/river 

---------------

---------------
inquire/ 
4444 1900 8000 100 check 
7777 1900 8000 100 check 
5555 1900 8000 100 check 
3333 1900 8000 100 check 
8888 1900 8000 100 check 
2222 1900 8000 100 check 
6666 1900 8000 100 check 
1111 1900 8000 100 check 
total pot: 800 
/inquire 

---------------

---------------
showdown/ 
common/ 
HEARTS Q 
SPADES 7 
CLUBS 8 
SPADES 8 
CLUBS K 
/common 
6: 3333 DIAMONDS 6 HEARTS 6 TWO_PAIR 
1: 5555 DIAMONDS 8 DIAMONDS 3 THREE_OF_A_KIND 
3: 7777 SPADES Q CLUBS 9 TWO_PAIR 
5: 4444 CLUBS 7 DIAMONDS A TWO_PAIR 
7: 1111 SPADES 6 DIAMONDS 2 ONE_PAIR 
2: 6666 SPADES K HEARTS 10 TWO_PAIR 
4: 2222 CLUBS J SPADES J TWO_PAIR 
3: 8888 DIAMONDS 10 CLUBS Q TWO_PAIR 
/showdown 

---------------

---------------
pot-win/ 
5555: 800 
/pot-win 

---------------

---------------
seat/ 
button: 3333 1900 8000 
small blind: 5555 2700 8000 
big blind: 7777 1900 8000 
4444 1900 8000 
1111 1900 8000 
6666 1900 8000 
2222 1900 8000 
8888 1900 8000 
/seat 

---------------

---------------
blind/ 
5555: 50 
7777: 100 
/blind 

---------------

---------------
hold/ 
CLUBS 7 
DIAMONDS A 
/hold 

---------------

---------------
inquire/ 
4444 1800 8000 100 call 
7777 1800 8000 100 blind 
5555 2650 8000 50 blind 
total pot: 250 
/inquire 

---------------

---------------
flop/ 
HEARTS Q 
SPADES 7 
CLUBS 8 
/flop 

---------------

---------------
inquire/ 
4444 1800 8000 100 check 
7777 1800 8000 100 check 
5555 2600 8000 100 check 
3333 1800 8000 100 call 
8888 1800 8000 100 call 
2222 1800 8000 100 call 
6666 1800 8000 100 call 
1111 1800 8000 100 call 
total pot: 800 
/inquire 

---------------

---------------
turn/ 
SPADES 8 
/turn 

---------------

---------------
inquire/ 
4444 1800 8000 100 check 
7777 1800 8000 100 check 
5555 2600 8000 100 check 
3333 1800 8000 100 check 
8888 1800 8000 100 check 
2222 1800 8000 100 check 
6666 1800 8000 100 check 
1111 1800 8000 100 check 
total pot: 800 
/inquire 

---------------

---------------
river/ 
CLUBS K 
/river 

---------------

---------------
inquire/ 
4444 1800 8000 100 check 
7777 1800 8000 100 check 
5555 2600 8000 100 check 
3333 1800 8000 100 check 
8888 1800 8000 100 check 
2222 1800 8000 100 check 
6666 1800 8000 100 check 
1111 1800 8000 100 check 
total pot: 800 
/inquire 

---------------

---------------
showdown/ 
common/ 
HEARTS Q 
SPADES 7 
CLUBS 8 
SPADES 8 
CLUBS K 
/common 
6: 5555 DIAMONDS 6 HEARTS 6 TWO_PAIR 
1: 7777 DIAMONDS 8 DIAMONDS 3 THREE_OF_A_KIND 
3: 4444 SPADES Q CLUBS 9 TWO_PAIR 
5: 1111 CLUBS 7 DIAMONDS A TWO_PAIR 
7: 6666 SPADES 6 DIAMONDS 2 ONE_PAIR 
2: 2222 SPADES K HEARTS 10 TWO_PAIR 
4: 8888 CLUBS J SPADES J TWO_PAIR 
3: 3333 DIAMONDS 10 CLUBS Q TWO_PAIR 
/showdown 

---------------

---------------
pot-win/ 
7777: 800 
/pot-win 

---------------

---------------
seat/ 
button: 5555 2600 8000 
small blind: 7777 2600 8000 
big blind: 4444 1800 8000 
1111 1800 8000 
6666 1800 8000 
2222 1800 8000 
8888 1800 8000 
3333 1800 8000 
/seat 

---------------

---------------
blind/ 
7777: 50 
4444: 100 
/blind 

---------------

---------------
hold/ 
DIAMONDS 9 
HEARTS 4 
/hold 

---------------

---------------
inquire/ 
4444 1700 8000 100 blind 
7777 2550 8000 50 blind 
total pot: 150 
/inquire 

---------------

---------------
flop/ 
SPADES 6 
CLUBS 8 
DIAMONDS 5 
/flop 

---------------

---------------
inquire/ 
4444 1700 8000 100 check 
7777 2500 8000 100 check 
5555 2500 8000 100 call 
3333 1700 8000 100 call 
8888 1700 8000 100 call 
2222 1700 8000 100 call 
6666 1700 8000 100 call 
1111 1700 8000 100 call 
total pot: 800 
/inquire 

---------------

---------------
turn/ 
DIAMONDS J 
/turn 

---------------

---------------
inquire/ 
4444 1700 8000 100 check 
7777 2500 8000 100 check 
5555 2500 8000 100 check 
3333 1700 8000 100 check 
8888 1700 8000 100 check 
2222 1700 8000 100 check 
6666 1700 8000 100 check 
1111 1700 8000 100 check 
total pot: 800 
/inquire 

---------------

---------------
river/ 
CLUBS 3 
/river 

---------------

---------------
inquire/ 
4444 1700 8000 100 check 
7777 2500 8000 100 check 
5555 2500 8000 100 check 
3333 1700 8000 100 check 
8888 1700 8000 100 check 
2222 1700 8000 100 check 
6666 1700 8000 100 check 
1111 1700 8000 100 check 
total pot: 800 
/inquire 

---------------

---------------
showdown/ 
common/ 
SPADES 6 
CLUBS 8 
DIAMONDS 5 
DIAMONDS J 
CLUBS 3 
/common 
7: 7777 CLUBS 10 HEARTS Q HIGH_CARD 
1: 4444 DIAMONDS 7 DIAMONDS 6 ONE_PAIR 
8: 1111 DIAMONDS 9 HEARTS 4 HIGH_CARD 
4: 6666 DIAMONDS A CLUBS K HIGH_CARD 
5: 2222 SPADES A DIAMONDS 4 HIGH_CARD 
6: 8888 SPADES Q SPADES K HIGH_CARD 
3: 3333 HEARTS 7 HEARTS 3 ONE_PAIR 
2: 5555 SPADES 7 HEARTS 5 ONE_PAIR 
/showdown 

---------------

---------------
pot-win/ 
4444: 800 
/pot-win 

---------------

---------------
seat/ 
button: 7777 2500 8000 
small blind: 4444 2500 8000 
big blind: 1111 1700 8000 
6666 1700 8000 
2222 1700 8000 
8888 1700 8000 
3333 1700 8000 
5555 2500 8000 
/seat 

---------------

---------------
blind/ 
4444: 50 
1111: 100 
/blind 

---------------

---------------
seat/ 
button: 8888 2000 8000 
small blind: 3333 2000 8000 
big blind: 5555 2000 8000 
7777 2000 8000 
4444 2000 8000 
1111 2000 8000 
6666 2000 8000 
2222 2000 8000 
/seat 

---------------
blind/ 
3333: 50 
5555: 100 
/blind 

---------------

---------------
hold/ 
SPADES 6 
DIAMONDS 2 
/hold 

---------------

---------------
inquire/ 
4444 1900 8000 100 call 
7777 1900 8000 100 call 
5555 1900 8000 100 blind 
3333 1950 8000 50 blind 
total pot: 350 
/inquire 

---------------

---------------
flop/ 
HEARTS Q 
SPADES 7 
CLUBS 8 
/flop 

---------------

---------------
inquire/ 
4444 1900 8000 100 check 
7777 1900 8000 100 check 
5555 1900 8000 100 check 
3333 1900 8000 100 check 
8888 1900 8000 100 call 
2222 1900 8000 100 call 
6666 1900 8000 100 call 
1111 1900 8000 100 call 
total pot: 800 
/inquire 

---------------

---------------
turn/ 
SPADES 8 
/turn 

---------------

---------------
inquire/ 
4444 1900 8000 100 check 
7777 1900 8000 100 check 
5555 1900 8000 100 check 
3333 1900 8000 100 check 
8888 1900 8000 100 check 
2222 1900 8000 100 check 
6666 1900 8000 100 check 
1111 1900 8000 100 check 
total pot: 800 
/inquire 

---------------

---------------
river/ 
CLUBS K 
/river 

---------------

---------------
inquire/ 
4444 1900 8000 100 check 
7777 1900 8000 100 check 
5555 1900 8000 100 check 
3333 1900 8000 100 check 
8888 1900 8000 100 check 
2222 1900 8000 100 check 
6666 1900 8000 100 check 
1111 1900 8000 100 check 
total pot: 800 
/inquire 

---------------

---------------
showdown/ 
common/ 
HEARTS Q 
SPADES 7 
CLUBS 8 
SPADES 8 
CLUBS K 
/common 
6: 3333 DIAMONDS 6 HEARTS 6 TWO_PAIR 
1: 5555 DIAMONDS 8 DIAMONDS 3 THREE_OF_A_KIND 
3: 7777 SPADES Q CLUBS 9 TWO_PAIR 
5: 4444 CLUBS 7 DIAMONDS A TWO_PAIR 
7: seat/ 
button: 8888 2000 8000 
small blind: 3333 2000 8000 
big blind: 5555 2000 8000 
7777 2000 8000 
4444 2000 8000 
1111 2000 8000 
6666 2000 8000 
2222 2000 8000 
/seat 

---------------
blind/ 
3333: 50 
5555: 100 
/blind 

---------------

---------------
hold/ 
SPADES K 
HEARTS 10 
/hold 

---------------

---------------
inquire/ 
1111 1900 8000 100 call 
4444 1900 8000 100 call 
7777 1900 8000 100 call 
5555 1900 8000 100 blind 
3333 1950 8000 50 blind 
total pot: 450 
/inquire 

---------------

---------------
flop/ 
HEARTS Q 
SPADES 7 
CLUBS 8 
/flop 

---------------

---------------
inquire/ 
1111 1900 8000 100 check 
4444 1900 8000 100 check 
7777 1900 8000 100 check 
5555 1900 8000 100 check 
3333 1900 8000 100 check 
8888 1900 8000 100 call 
2222 1900 8000 100 call 
6666 1900 8000 100 call 
total pot: 800 
/inquire 

---------seat/ 
button: 8888 2000 8000 
small blind: 3333 2000 8000 
big blind: 5555 2000 8000 
7777 2000 8000 
4444 2000 8000 
1111 2000 8000 
6666 2000 8000 
2222 2000 8000 
/seat 

---------------
blind/ 
3333: 50 
5555: 100 
/blind 

---------------

---------------
hold/ 
SPADES Q 
CLUBS 9 
/hold 

---------------

---------------
inquire/ 
5555 1900 8000 100 blind 
3333 1950 8000 50 blind 
total pot: 150 
/inquire 

---------------

---------------
flop/ 
HEARTS Q 
SPADES 7 
CLUBS 8 
/flop 

---------------

---------------
inquire/ 
5555 1900 8000 100 check 
3333 1900 8000 100 check 
8888 1900 8000 100 call 
2222 1900 8000 100 call 
6666 1900 8000 100 call 
1111 1900 8000 100 call 
4444 1900 8000 100 call 
7777 1900 8000 100 call 
total pot: 800 
/inquire 

---------------

---------------
turn/ 
SPADES 8 
/turn 

---------------

---------------
inquire/ 
5555 1900 8000 100 check 
3333 1900 8000 100 check 
8888 1900 8000 100 check 
2222 1900 8000 100 check 
6666 1900 8000 100 check 
1111 1900 8000 100 check 
4444 1900 8000 100 check 
7777 1900 8000 100 check 
total pot: 800 
/inquire 

---------------

---------------
river/ 
CLUBS K 
/river 

---------------

---------------
inquire/ 
5555 1900 8000 100 check 
3333 1900 8000 100 check 
8888 1900 8000 100 check 
2222 1900 8000 100 check 
6666 1900 8000 100 check 
1111 1900 8000 100 check 
4444 1900 8000 100 check 
7777 1900 8000 100 check 
total pot: 800 
/inquire 

---------------

---------------
showdown/ 
common/ 
HEARTS Q 
SPADES 7 
CLUBS 8 
SPADES 8 
CLUBS K 
/common 
6: 3333 DIAMONDS 6 HEARTS 6 TWO_PAIR 
1: 5555 DIAMONDS 8 DIAMONDS 3 THREE_OF_A_KIND 
3: 7777 SPADES Q CLUBS 9 TWO_PAIR 
5: 4444 CLUBS 7 DIAMONDS A TWO_PAIR 
7: 1111 SPADES 6 DIAMONDS 2 ONE_PAIR 
2: 6666 SPADES K HEARTS 10 TWO_PAIR 
4: 2222 CLUBS J SPADES J TWO_PAIR 
3: 8888 DIAMONDS 10 CLUBS Q TWO_PAIR 
/showdown 

---------------

---------------
pot-win/ 
5555: 800 
/pot-win 

---------------

---------------
seat/ 
button: 3333 1900 8000 
small blind: 5555 2700 8000 
big blind: 7777 1900 8000 
4444 1900 8000 
1111 1900 8000 
6666 1900 8000 
2222 1900 8000 
8888 1900 8000 
/seat 

---------------

---------------
blind/ 
5555: 50 
7777: 100 
/blind 

---------------

---------------
hold/ 
DIAMONDS 8 
DIAMONDS 3 
/hold 

---------------

---------------
inquire/ 
5555 2600 8000 100 call 
3333 1800 8000 100 call 
8888 1800 8000 100 call 
2222 1800 8000 100 call 
6666 1800 8000 100 call 
1111 1800 8000 100 call 
4444 1800 8000 100 call 
7777 1800 8000 100 blind 
total pot: 800 
/inquire 

---------------

---------------
flop/ 
HEARTS Q 
SPADES 7 
CLUBS 8 
/flop 

---------------

---------------
inquire/ 
5555 2600 8000 100 check 
3333 1800 8000 100 call 
8888 1800 8000 100 call 
2222 1800 8000 100 call 
6666 1800 8000 100 call 
1111 1800 8000 100 call 
4444 1800 8000 100 call 
7777 1800 8000 100 check 
total pot: 800 
/inquire 

---------------

---------------
turn/ 
SPADES 8 
/turn 

---------------

---------------
inquire/ 
5555 2600 8000 100 check 
3333 1800 8000 100 check 
8888 1800 8000 100 check 
2222 1800 8000 100 check 
6666 1800 8000 100 check 
1111 1800 8000 100 check 
4444 1800 8000 100 check 
7777 1800 8000 100 check 
total pot: 800 
/inquire 

---------------

---------------
river/ 
CLUBS K 
/river 

---------------

---------------
inquire/ 
5555 2600 8000 100 check 
3333 1800 8000 100 check 
8888 1800 8000 100 check 
2222 1800 8000 100 check 
6666 1800 8000 100 check 
1111 1800 8000 100 check 
4444 1800 8000 100 check 
7777 1800 8000 100 check 
total pot: 800 
/inquire 

---------------

---------------
showdown/ 
common/ 
HEARTS Q 
SPADES 7 
CLUBS 8 
SPADES 8 
CLUBS K 
/common 
6: 5555 DIAMONDS 6 HEARTS 6 TWO_PAIR 
1: 7777 DIAMONDS 8 DIAMONDseat/ 
button: 8888 2000 8000 
small blind: 3333 2000 8000 
big blind: 5555 2000 8000 
7777 2000 8000 
4444 2000 8000 
1111 2000 8000 
6666 2000 8000 
2222 2000 8000 
/seat 

---------------
blind/ 
3333: 50 
5555: 100 
/blind 

---------------

---------------
hold/ 
SPADES 6 
DIAMONDS 2 
/hold 

---------------

---------------
inquire/ 
4444 1900 8000 100 call 
7777 1900 8000 100 call 
5555 1900 8000 100 blind 
3333 1950 8000 50 blind 
total pot: 350 
/inquire 

---------------

---------------
flop/ 
HEARTS Q 
SPADES 7 
CLUBS 8 
/flop 

---------------

---------------
inquire/ 
4444 1900 8000 100 check 
7777 1900 8000 100 check 
5555 1900 8000 100 check 
3333 1900 8000 100 check 
8888 1900 8000 100 call 
2222 1900 8000 100 call 
6666 1900 8000 100 call 
1111 1900 8000 100 call 
total pot: 800 
/inquire 

---------------

---------------
turn/ 
SPADES 8 
/turn 

---------------

---------------
inquire/ 
4444 1900 8000 100 check 
7777 1900 8000 100 check 
5555 1900 8000 100 check 
3333 1900 8000 100 check 
8888 1900 8000 100 check 
2222 1900 8000 100 check 
6666 1900 8000 100 check 
1111 1900 8000 100 check 
total pot: 800 
/inquire 

---------------

---------------
river/ 
CLUBS K 
/river 

---------------

---------------
inquire/ 
4444 1900 8000 100 check 
7777 1900 8000 100 check 
5555 1900 8000 100 check 
3333 1900 8000 100 check 
8888 1900 8000 100 check 
2222 1900 8000 100 check 
6666 1900 8000 100 check 
1111 1900 8000 100 check 
total pot: 800 
/inquire 

---------------

---------------
showdown/ 
common/ 
HEARTS Q 
SPADES 7 
CLUBS 8 
SPADES 8 
CLUBS K 
/common 
6: 3333 DIAMONDS 6 HEARTS 6 TWO_PAIR 
1: 5555 DIAMONDS 8 DIAMONDS 3 THREE_OF_A_KIND 
3: 7777 SPADES Q CLUBS 9 TWO_PAIR 
5: 4444 CLUBS 7 DIAMONDS A TWO_PAIR 
7: 1111 SPADES 6 DIAMONDS 2 ONE_PAIR 
2: 6666 SPADES K HEARTS 10 TWO_PAIR 
4: 2222 CLUBS J SPADES J TWO_PAIR 
3: 8888 DIAMONDS 10 CLUBS Q TWO_PAIR 
/showdown 

---------------

---------------
pot-win/ 
5555: 800 
/pot-win 

---------------

---------------
seat/ 
button: 3333 1900 8000 
small blind: 5555 2700 8000 
big blind: 7777 1900 8000 
4444 1900 8000 
1111 1900 8000 
6666 1900 8000 
2222 1900 8000 
8888 1900 8000 
/seat 

---------------

---------------
blind/ 
5555: 50 
7777: 100 
/blind 

---------------

---------------
hold/ 
CLUBS 7 
DIAMONDS A 
/hold 

---------------

---------------
inquire/ 
4444 1800 8000 100 call 
7777 1800 8000 100 blind 
5555 2650 8000 50 blind 
total pot: 250 
/inquire 

---------------

---------------
flop/ 
HEARTS Q 
SPADES 7 
CLUBS 8 
/flop 

---------------

---------------
inquire/ 
4444 1800 8000 100 check 
7777 1800 8000 100 check 
5555 2600 8000 100 check 
3333 1800 8000 100 call 
8888 1800 8000 100 call 
2222 1800 8000 100 call 
6666 1800 8000 100 call 
1111 1800 8000 100 call 
total pot: 800 
/inquire 

---------------

---------------
turn/ 
SPADES 8 
/turn 

---------------

---------------
inquire/ 
4444 1800 8000 100 check 
7777 1800 8000 100 check 
5555 2600 8000 100 check 
3333 1800 8000 100 check 
8888 1800 8000 100 check 
2222 1800 8000 100 check 
6666 1800 8000 100 check 
1111 1800 8000 100 check 
total pot: 800 
/inquire 

---------------

---------------
river/ 
CLUBS K 
/river 

---------------

---------------
inquire/ 
4444 1800 8000 100 check 
7777 1800 8000 100 check 
5555 2600 8000 100 check 
3333 1800 8000 100 check 
8888 1800 8000 100 check 
2222 1800 8000 100 check 
6666 1800 8000 100 check 
1111 1800 8000 100 check 
total pot: 800 
/inquire 

---------------

---------------
showdown/ 
common/ 
HEARTS Q 
SPADES 7 
CLUBS 8 
SPADES 8 
CLUBS K 
/common 
6: 5555 DIAMONDS 6 HEARTS 6 TWO_PAIR 
1: 7777 DIAMONDS 8 DIAMONDS 3 THREE_OF_A_KIND 
3: 4444 SPADES Q CLUBS 9 TWO_PAIR 
5: 1111 CLUBS 7 DIAMONDS A TWO_PAIR 
7: 6666 SPADES 6 DIAMONDS 2 ONE_PAIR 
2: 2222 SPADES K HEARTS 10 TWO_PAIR 
4: 8888 CLUBS J SPADES J TWO_PAIR 
3: 3333 DIAMONDS 10 CLUBS Q TWO_PAIR 
/showdown 

---------------

---------------
pot-win/ 
7777: 800 
/pot-win 

---------------

---------------
seat/ 
button: 5555 2600 8000 
small blind: 7777 2600 8000 
big blind: 4444 1800 8000 
1111 1800 8000 
6666 1800 8000 
2222 1800 8000 
8888 1800 8000 
3333 1800 8000 
/seat 

---------------

---------------
blind/ 
7777: 50 
4444: 100 
/blind 

---------------

---------------
hold/ 
DIAMONDS 9 
HEARTS 4 
/hold 

---------------

---------------
inquire/ 
4444 1700 8000 100 blind 
7777 2550 8000 50 blind 
total pot: 150 
/inquire 

---------------

---------------
flop/ 
SPADES 6 
CLUBS 8 
DIAMONDS 5 
/flop 

---------------

---------------
inquire/ 
4444 1700 8000 100 check 
7777 2500 8000 100 check 
5555 2500 8000 100 call 
3333 1700 8000 100 call 
8888 1700 8000 100 call 
2222 1700 8000 100 call 
6666 1700 8000 100 call 
1111 1700 8000 100 call 
total pot: 800 
/inquire 

---------------

---------------
turn/ 
DIAMONDS J 
/turn 

---------------

---------------
inquire/ 
4444 1700 8000 100 check 
7777 2500 8000 100 check 
5555 2500 8000 100 check 
3333 1700 8000 100 check 
8888 1700 8000 100 check 
2222 1700 8000 100 check 
6666 1700 8000 100 check 
1111 1700 8000 100 check 
total pot: 800 
/inquire 

---------------

---------------
river/ 
CLUBS 3 
/river 

---------------

---------------
inquire/ 
4444 1700 8000 100 check 
7777 2500 8000 100 check 
5555 2500 8000 100 check 
3333 1700 8000 100 check 
8888 1700 8000 100 check 
2222 1700 8000 100 check 
6666 1700 8000 100 check 
1111 1700 8000 100 check 
total pot: 800 
/inquire 

---------------

---------------
showdown/ 
common/ 
SPADES 6 
CLUBS 8 
DIAMONDS 5 
DIAMONDS J 
CLUBS 3 
/common 
7: 7777 CLUBS 10 HEARTS Q HIGH_CARD 
1: 4444 DIAMONDS 7 DIAMONDS 6 ONE_PAIR 
8: 1111 DIAMONDS 9 HEARTS 4 HIGH_CARD 
4: 6666 DIAMONDS A CLUBS K HIGH_CARD 
5: 2222 SPADES A DIAMONDS 4 HIGH_CARD 
6: 8888 SPADES Q SPADES K HIGH_CARD 
3: 3333 HEARTS 7 HEARTS 3 ONE_PAIR 
2: 5555 SPADES 7 HEARTS 5 ONE_PAIR 
/showdown 

---------------

---------------
pot-win/ 
4444: 800 
/pot-win 

---------------

---------------
seat/ 
button: 7777 2500 8000 
small blind: 4444 2500 8000 
big blind: 1111 1700 8000 
6666 1700 8000 
2222 1700 8000 
8888 1700 8000 
3333 1700 8000 
5555 2500 8000 
/seat 

---------------

---------------
blind/ 
4444: 50 
1111: 100 
/blind 

---------------

---------------
hold/ 
DIAMONDS 7 
DIAMONDS 6 
/hold 

---------------

---------------
inquire/ 
4444 2400 8000 100 call 
7777 2400 8000 100 call 
5555 2400 8000 100 call 
3333 1600 8000 100 call 
8888 1600 8000 100 call 
2222 1600 8000 100 call 
6666 1600 8000 100 call 
1111 1600 8000 100 blind 
total pot: 800 
/inquire 

---------------

---------------
seat/ 
button: 8888 2000 8000 
small blind: 3333 2000 8000 
big blind: 5555 2000 8000 
7777 2000 8000 
4444 2000 8000 
1111 2000 8000 
6666 2000 8000 
2222 2000 8000 
/seat 

---------------
blind/ 
3333: 50 
5555: 100 
/blind 

---------------

---------------
hold/ 
SPADES 6 
DIAMONDS 2 
/hold 

---------------

---------------
inquire/ 
4444 1900 8000 100 call 
7777 1900 8000 100 call 
5555 1900 8000 100 blind 
3333 1950 8000 50 blind 
total pot: 350 
/inquire 

---------------

---------------
flop/ 
HEARTS Q 
SPADES 7 
CLUBS 8 
/flop 

---------------

---------------
inquire/ 
4444 1900 8000 100 check 
7777 1900 8000 100 check 
5555 1900 8000 100 check 
3333 1900 8000 100 check 
8888 1900 8000 100 call 
2222 1900 8000 100 call 
6666 1900 8000 100 call 
1111 1900 8000 100 call 
total pot: 800 
/inquire 

---------------

---------------
turn/ 
SPADES 8 
/turn 

---------------

---------------
inquire/ 
4444 1900 8000 100 check 
7777 1900 8000 100 check 
5555 1900 8000 100 check 
3333 1900 8000 100 check 
8888 1900 8000 100 check 
2222 1900 8000 100 check 
6666 1900 8000 100 check 
1111 1900 8000 100 check 
total pot: 800 
/inquire 

---------------

---------------
river/ 
CLUBS K 
/river 

---------------

---------------
inquire/ 
4444 1900 8000 100 check 
7777 1900 8000 100 check 
5555 1900 8000 100 check 
3333 1900 8000 100 check 
8888 1900 8000 100 check 
2222 1900 8000 100 check 
6666 1900 8000 100 check 
1111 1900 8000 100 check 
total pot: 800 
/inquire 

---------------

---------------
showdown/ 
common/ 
HEARTS Q 
SPADES 7 
CLUBS 8 
SPADES 8 
CLUBS K 
/common 
6: 3333 DIAMONDS 6 HEARTS 6 TWO_PAIR 
1: 5555 DIAMONDS 8 DIAMONDS 3 THREE_OF_A_KIND 
3: 7777 SPADES Q CLUBS 9 TWO_PAIR 
5: 4444 CLUBS 7 DIAMONDS A TWO_PAIR 
7: 1111 SPADES 6 DIAMONDS 2 ONE_PAIR 
2: 6666 SPADES K HEARTS 10 TWO_PAIR 
4: 2222 CLUBS J SPADES J TWO_PAIR 
3: 8888 DIAMONDS 10 CLUBS Q TWO_PAIR 
/showdown 

---------------

---------------
pot-win/ 
5555: 800 
/pot-win 

---------------

---------------
seat/ 
button: 3333 1900 8000 
small blind: 5555 2700 8000 
big blind: 7777 1900 8000 
4444 1900 8000 
1111 1900 8000 
6666 1900 8000 
2222 1900 8000 
8888 1900 8000 
/seat 

---------------

---------------
blind/ 
5555: 50 
7777: 100 
/blind 

---------------

---------------
hold/ 
CLUBS 7 
DIAMONDS A 
/hold 

---------------

---------------
inquire/ 
4444 1800 8000 100 call 
7777 1800 8000 100 blind 
5555 2650 8000 50 blind 
total pot: 250 
/inquire 

---------------

---------------
flop/ 
HEARTS Q 
SPADES 7 
CLUBS 8 
/flop 

---------------

---------------
inquire/ 
4444 1800 8000 100 check 
7777 1800 8000 100 check 
5555 2600 8000 100 check 
3333 1800 8000 100 call 
8888 1800 8000 100 call 
2222 1800 8000 100 call 
6666 1800 8000 100 call 
1111 1800 8000 100 call 
total pot: 800 
/inquire 

---------------

---------------
turn/ 
SPADES 8 
/turn 

---------------

---------------
inquire/ 
4444 1800 8000 100 check 
7777 1800 8000 100 check 
5555 2600 8000 100 check 
3333 1800 8000 seat/ 
button: 8888 2000 8000 
small blind: 3333 2000 8000 
big blind: 5555 2000 8000 
7777 2000 8000 
4444 2000 8000 
1111 2000 8000 
6666 2000 8000 
2222 2000 8000 
/seat 

---------------
blind/ 
3333: 50 
5555: 100 
/blind 

---------------

---------------
hold/ 
SPADES Q 
CLUBS 9 
/hold 

---------------

---------------
inquire/ 
5555 1900 8000 100 blind 
3333 1950 8000 50 blind 
total pot: 150 
/inquire 

---------------

---------------
flop/ 
HEARTS Q 
SPADES 7 
CLUBS 8 
/flop 

---------------

---------------
inquire/ 
5555 1900 8000 100 check 
3333 1900 8000 100 check 
8888 1900 8000 100 call 
2222 1900 8000 100 call 
6666 1900 8000 100 call 
1111 1900 8000 100 call 
4444 1900 8000 100 call 
7777 1900 8000 100 call 
total pot: 800 
/inquire 

---------------

---------------
turn/ 
SPADES 8 
/turn 

---------------

---------------
inquire/ 
5555 1900 8000 100 check 
3333 1900 8000 100 check 
8888 1900 8000 100 check 
2222 1900 8000 100 check 
6666 1900 8000 100 check 
1111 1900 8000 100 check 
4444 1900 8000 100 check 
7777 1900 8000 100 check 
total pot: 800 
/inquire 

---------------

---------------
river/ 
CLUBS K 
/river 

---------------

---------------
inquire/ 
5555 1900 8000 100 check 
3333 1900 8000 100 check 
8888 1900 8000 100 check 
2222 1900 8000 100 check 
6666 1900 8000 100 check 
1111 1900 8000 100 check 
4444 1900 8000 100 check 
7777 1900 8000 100 check 
total pot: 800 
/inquire 

---------------

---------------
showdown/ 
common/ 
HEARTS Q 
SPADES 7 
CLUBS 8 
SPADES 8 
CLUBS K 
/common 
6: 3333 DIAMONDS 6 HEARTS 6 TWO_PAIR 
1: 5555 DIAMONDS 8 DIAMONDS 3 THREE_OF_A_KIND 
3: 7777 SPADES Q CLUBS 9 TWO_PAIR 
5: 4444 CLUBS 7 DIAMONDS A TWO_PAIR 
7: 1111 SPADES 6 DIAMONDS 2 ONE_PAIR 
2: 6666 SPADES K HEARTS 10 TWO_PAIR 
4: 2222 CLUBS J SPADES J TWO_PAIR 
3: 8888 DIAMONDS 10 CLUBS Q TWO_PAIR 
/showdown 

---------------

---------------
pot-win/ 
5555: 800 
/pot-win 

---------------

---------------
seat/ 
button: 3333 1900 8000 
small blind: 5555 2700 8000 
big blind: 7777 1900 8000 
4444 1900 8000 
1111 1900 8000 
6666 1900 8000 
2222 1900 8000 
8888 1900 8000 
/seat 

---------------

---------------
blind/ 
5555: 50 
7777: 100 
/blind 

---------------

---------------
hold/ 
DIAMONDS 8 
DIAMONDS 3 
/hold 

---------------

---------------
inquire/ 
5555 2600 8000 100 call 
3333 1800 8000 100 call 
8888 1800 8000 100 call 
2222 1800 8000 100 call 
6666 1800 8000 100 call 
1111 1800 8000 100 call 
4444 1800 8000 100 call 
7777 1800 8000 100 blind 
total pot: 800 
/inquire 

---------------

---------------
flop/ 
HEARTS Q 
SPADES 7 
CLUBS 8 
/fseat/ 
button: 8888 2000 8000 
small blind: 3333 2000 8000 
big blind: 5555 2000 8000 
7777 2000 8000 
4444 2000 8000 
1111 2000 8000 
6666 2000 8000 
2222 2000 8000 
/seat 

---------------
blind/ 
3333: 50 
5555: 100 
/blind 

---------------

---------------
hold/ 
DIAMONDS 10 
CLUBS Q 
/hold 

---------------

---------------
inquire/ 
2222 1900 8000 100 call 
6666 1900 8000 100 call 
1111 1900 8000 100 call 
4444 1900 8000 100 call 
7777 1900 8000 100 call 
5555 1900 8000 100 blind 
3333 1950 8000 50 blind 
total pot: 650 
/inquire 

---------------

---------------
flop/ 
HEARTS Q 
SPADES 7 
CLUBS 8 
/flop 

---------------

---------------
inquire/ 
2222 1900 8000 100 check 
6666 1900 8000 100 check 
1111 1900 8000 100 check 
4444 1900 8000 100 check 
7777 1900 8000 100 check 
5555 1900 8000 100 check 
3333 1900 8000 100 check 
8888 1900 8000 100 call 
total pot: 800 
/inquire 

---------------

---------------
turn/ 
SPADES 8 
/turn 

---------------

---------------
inquire/ 
2222 1900 8000 100 check 
6666 1900 8000 100 check 
1111 1900 8000 100seat/ 
button: 8888 2000 8000 
small blind: 3333 2000 8000 
big blind: 5555 2000 8000 
7777 2000 8000 
4444 2000 8000 
1111 2000 8000 
6666 2000 8000 
2222 2000 8000 
/seat 

---------------
blind/ 
3333: 50 
5555: 100 
/blind 

---------------

---------------
hold/ 
SPADES 6 
DIAMONDS 2 
/hold 

---------------

---------------
inquire/ 
4444 1900 8000 100 call 
7777 1900 8000 100 call 
5555 1900 8000 100 blind 
3333 1950 8000 50 blind 
total pot: 350 
/inquire 

---------------

---------------
flop/ 
HEARTS Q 
SPADES 7 
CLUBS 8 
/flop 

---------------

---------------
inquire/ 
4444 1900 8000 100 check 
7777 1900 8000 100 check 
5555 1900 8000 100 check 
3333 1900 8000 100 check 
8888 1900 8000 100 call 
2222 1900 8000 100 call 
6666 1900 8000 100 call 
1111 1900 8000 100 call 
total pot: 800 
/inquire 

---------------

---------------
turn/ 
SPADES 8 
/turn 

---------------

---------------
inquire/ 
4444 1900 8000 100 check 
7777 1900 8000 100 check 
5555 1900 8000 100 check 
3333 1900 8000 100 check 
8888 1900 8000 100 check 
2222 1900 8000 100 check 
6666 1900 8000 100 check 
1111 1900 8000 100 check 
total pot: 800 
/inquire 

---------------

---------------
river/ 
CLUBS K 
/river 

---------------

---------------
inquire/ 
4444 1900 8000 100 check 
7777 1900 8000 100 check 
5555 1900 8000 100 check 
3333 1900 8000 100 check 
8888 1900 8000 100 check 
2222 1900 8000 100 check 
6666 1900 8000 100 check 
1111 1900 8000 100 check 
total pot: 800 
/inquire 

---------------

---------------
showdown/ 
common/ 
HEARTS Q 
SPADES 7 
CLUBS 8 
SPADES 8 
CLUBS K 
/common 
6: 3333 DIAMONDS 6 HEARTS 6 TWO_PAIR 
1: 5555 DIAMONDS 8 DIAMONDS 3 THREE_OF_A_KIND 
seat/ 
button: 8888 2000 8000 
small blind: 3333 2000 8000 
big blind: 5555 2000 8000 
7777 2000 8000 
4444 2000 8000 
1111 2000 8000 
6666 2000 8000 
2222 2000 8000 
/seat 

---------------
blind/ 
3333: 50 
5555: 100 
/blind 

---------------

---------------
hold/ 
SPADES K 
HEARTS 10 
/hold 

---------------

---------------
inquire/ 
1111 1900 8000 100 call 
4444 1900 8000 100 call 
7777 1900 8000 100 call 
5555 1900 8000 100 blind 
3333 1950 8000 50 blind 
total pot: 450 
/inquire 

---------------

---------------
flop/ 
HEARTS Q 
SPADES 7 
CLUBS 8 
/flop 

---------------

---------------
inquire/ 
1111 1900 8000 100 check 
4444 1900 8000 100 check 
7777 1900 8000 100 check 
5555 1900 8000 100 check 
3333 1900 8000 100 check 
8888 1900 8000 100 call 
2222 1900 8000 100 call 
6666 1900 8000 100 call 
total pot: 800 
/inquire 

---------------

---------------
turn/ 
SPADES 8 
/turn 

---------------

---------------
inquire/ 
1111 1900 8000 100 check 
4444 1900 8000 100 check 
7777 1900 8000 100 check 
5555 1900 8000 100 check 
3333 1900 8000 100 check 
8888 1900 8000 100 check 
2222 1900 8000 100 check 
6666 1900 8000 100 check 
total pot: 800 
/inquire 

---------------

---------------
river/ 
CLUBS K 
/river 

---------------

---------------
inquire/ 
1111 1900 8000 100 check 
4444 1900 8000 100 check 
7777 1900 8000 100 check 
5555 1900 8000 100 check 
3333 1900 8000 100 check 
8888 1900 8000 100 check 
2222 1900 8000 100 check 
6666 1900 8000 100 check 
total pot: 800 
/inquire 

------seat/ 
button: 8888 2000 8000 
small blind: 3333 2000 8000 
big blind: 5555 2000 8000 
7777 2000 8000 
4444 2000 8000 
1111 2000 8000 
6666 2000 8000 
2222 2000 8000 
/seat 

---------------
blind/ 
3333: 50 
5555: 100 
/blind 

---------------

---------------
hold/ 
SPADES Q 
CLUBS 9 
/hold 

---------------

---------------
inquire/ 
5555 1900 8000 100 blind 
3333 1950 8000 50 blind 
total pot: 150 
/inquire 

---------------

---------------
flop/ 
HEARTS Q 
SPADES 7 
CLUBS 8 
/flop 

---------------

---------------
inquire/ 
5555 1900 8000 100 check 
3333 1900 8000 100 check 
8888 1900 8000 100 call 
2222 1900 8000 100 call 
6666 1900 8000 100 call 
1111 1900 8000 100 call 
4444 1900 8000 100 call 
7777 1900 8000 100 call 
total pot: 800 
/inquire 

---------------

---------------
turn/ 
SPADES 8 
/turn 

---------------

---------------
inquire/ 
5555 1900 8000 100 check 
3333 1900 8000 100 check 
8888 1900 8000 100 check 
2222 1900 8000 100 check 
6666 1900 8000 100 check 
1111 1900 8000 100 check 
4444 1900 8000 100 check 
7777 1900 8000 100 check 
total pot: 800 
/inquire 

---------------

---------------
river/ 
CLUBS K 
/river 

---------------

---------------
inquire/ 
5555 1900 8000 100 check 
3333 1900 8000 100 check 
8888 1900 8000 100 check 
2222 1900 8000 100 check 
6666 1900 8000 100 check 
1111 1900 8000 100 check 
4444 1900 8000 100 check 
7777 1900 8000 100 check 
total pot: 800 
/inquire 

---------------

---------------
showdown/ 
common/ 
HEARTS Q 
SPADES 7 
CLUBS 8 
SPADES 8 
CLUBS K 
/common 
6: 3333 DIAMONDS 6 HEARTS 6 TWO_PAIR 
1: 5555 DIAMONDS 8 DIAMONDS 3 THREE_OF_A_KIND 
3: 7777 SPADES Q CLUBS 9 TWO_PAIR 
5: 4444 CLUBS 7 DIAMONDS A TWO_PAIR 
7: 1111 SPADES 6 DIAMONDS 2 ONE_PAIR 
2: 6666 SPADES K HEARTS 10 TWO_PAIR 
4: 2222 CLUBS J SPADES J TWO_PAIR 
3: 8888 DIAMONDS 10 CLUBS Q TWO_PAIR 
/showdown 

---------------

---------------
pot-win/ 
5555: 800 
/pot-win 

---------------

---------------
seat/ 
button: 3333 1900 8000 
small blind: 5555 2700 8000 
big blind: 7777 1900 8000 
4444 1900 8000 
1111 1900 8000 
6666 1900 8000 
2222 1900 8000 
8888 1900 8000 
/seat 

---------------

---------------
blind/ 
5555: 50 
7777: 100 
/blind 

---------------

---------------
hold/ 
DIAMONDS 8 
DIAMONDS 3 
/hold 

---------------

---------------
inquire/ 
5555 2600 8000 100 call 
3333 1800 8000 100 call 
8888 1800 8000 100 call 
2222 1800 8000 100 call 
6666 1800 8000 100 call 
1111 1800 8000 100 call 
4444 1800 8000 100 call 
7777 1800 8000 100 blind 
total pot: 800 
/inquire 

---------------

---------------
flop/ 
HEARTS Q 
SPADES 7 
CLUBS 8 
/flop 

---------------

---------------
inquire/ 
5555 2600 8000 100 check 
3333 1800 8000 100 call 
8888 1800 8000 100 call 
2222 1800 8000 100 call 
6666 1800 8000 100 call 
1111 1800 8000 100 call 
4444 1800 8000 100 call 
7777 1800 8000 100 check 
total pot: 800 
/inquire 

---------------

---------------
turn/ 
SPADES 8 
/turn 

---------------

---------------
inquire/ 
5555 2600 8000 100 check 
3333 1800 8000 100 check 
8888 1800 8000 100 check 
2222 1800 8000 100 check 
6666 1800 8000 100 check 
1111 1800 8000 100 check 
4444 1800 8000 100 check 
7777 1800 8000 100 check 
total pot: 800 
/inquire 

---------------

---------------
river/ 
CLUBS K 
/river 

---------------

---------------
inquire/ 
5555 2600 8000 100 check 
3333 1800 8000 100 check 
8888 1800 8000 100 check 
2222 1800 8000 100 check 
6666 1800 8000 100 check 
1111 1800 8000 100 check 
4444 1800 8000 100 check 
7777 1800 8000 100 check 
total pot: 800 
/inquire 

---------------

---------------
showdown/ 
common/ 
HEARTS Q 
SPADES 7 
CLUBS 8 
SPADES 8 
CLUBS K 
/common 
6: 5555 DIAMONDS 6 HEARTS 6 TWO_PAIR 
1: 7777 DIAMONDS 8 DIAMONDS 3 THREE_OF_A_KIND 
3: 4444 SPADES Q CLUBS 9 TWO_PAIR 
5: 1111 CLUBS 7 DIAMONDS A TWO_PAIR 
7: 6666 SPADES 6 DIAMONDS 2 ONE_PAIR 
2: 2222 SPADES K HEARTS 10 TWO_PAIR 
4: 8888 CLUBS J SPADES J TWO_PAIR 
3: 3333 DIAMONDS 10 CLUBS Q TWO_PAIR 
/showdown 

---------------

---------------
pot-win/ 
7777: 800 
/pot-win 

---------------

---------------
seat/ 
button: 5555 2600 8000 
small blind: 7777 2600 8000 
big blind: 4444 1800 8000 
1111 1800 8000 
6666 1800 8000 
2222 1800 8000 
8888 1800 8000 
3333 1800 8000 
/seat 

---------------

---------------
blind/ 
7777: 50 
4444: 100 
/blind 

---------------

---------------
hold/ 
CLUBS 10 
HEARTS Q 
/hold 

---------------

---------------
inquire/ 
5555 2500 8000 100 call 
3333 1700 8000 100 call 
8888 1700 8000 100 call 
2222 1700 8000 100 call 
6666 1700 8000 100 call 
1111 1700 8000 100 call 
4444 1700 8000 100 blind 
7777 2550 8000 50 blind 
total pot: 750 
/inquire 

---------------

---------------
flop/ 
SPADES 6 
CLUBS 8 
DIAMONDS 5 
/flop 

---------------

---------------
inquire/ 
5555 2500 8000 100 call 
3333 1700 8000 100 call 
8888 1700 8000 100 call 
2222 1700 8000 100 call 
6666 1700 8000 100 call 
1111 1700 8000 100 call 
4444 1700 8000 100 check 
7777 2500 8000 100 call 
total pot: 800 
/inquire 

---------------

---------------
turn/ 
DIAMONDS J 
/turn 

---------------

---------------
inquire/ 
5555 2500 8000 100 check 
3333 1700 8000 100 check 
8888 1700 8000 100 check 
2222 1700 8000 100 check 
6666 1700 8000 100 check 
1111 1700 8000 100 check 
4444 1700 8000 100 check 
7777 2500 8000 100 check 
total pot: 800 
/inquire 

---------------

---------------
river/ 
CLUBS 3 
/river 

---------------

---------------
inquire/ 
5555 2500 8000 100 check 
3333 1700 8000 100 check 
8888 1700 8000 100 check 
2222 1700 8000 100 check 
6666 1700 8000 100 check 
1111 1700 8000 100 check 
4444 1700 8000 100 check 
7777 2500 8000 100 check 
total pot: 800 
/inquire 

---------------

---------------
showdown/ 
common/ 
SPADES 6 
CLUBS 8 
DIAMONDS 5 
DIAMONDS J 
CLUBS 3 
/common 
7: 7777 CLUBS 10 HEARTS Q HIGH_CARD 
1: 4444 DIAMONDS 7 DIAMONDS 6 ONE_PAIR 
8: 1111 DIAMONDS 9 HEARTS 4 HIGH_CARD 
4: 6666 DIAMONDS A CLUBS K HIGH_CARD 
5: 2222 SPADES A DIAMONDS 4 HIGH_CARD 
6: 8888 SPADES Q SPADES K HIGH_CARD 
3: 3333 HEARTS 7 HEARTS 3 ONE_PAIR 
2: 5555 SPADES 7 HEARTS 5 ONE_PAIR 
/showdown 

---------------

---------------
pot-win/ 
4444: 800 
/pot-win 

---------------

---------------
seat/ 
button: 7777 2500 8000 
small blind: 4444 2500 8000 
big blind: 1111 1700 8000 
6666 1700 8000 
2222 1700 8000 
8888 1700 8000 
3333 1700 8000 
5555 2500 8000 
/seat 

---------------

---------------
blind/ 
4444: 50 
1111: 100 
/blind 

---------------

---------------
hold/ 
SPADES 7 
HEARTS 5 
/hold 

---------------

---------------
inquire/ 
5555 2400 8000 100 call 
3333 1600 8000 100 call 
8888 1600 8000 100 call 
2222 1600 8000 100 call 
6666 1600 8000 100 call 
1111 1600 8000 100 blind 
4444 2450 8000 50 blind 
total pot: 650 
/inquire 

---------------

---------------
flop/ 
SPADES 6 
CLUBS 8 
DIAMONDS 5 
/flop 

---------------

---------------
inquire/ 
5555 2400 8000 100 check 
3333 1600 8000 100 check 
8888 1600 8000 100 check 
2222 1600 8000 100 check 
6666 1600 8000 100 check 
1111 1600 8000 100 check 
4444 2400 8000 100 check 
7777 2400 8000 100 call 
total pot: 800 
/inquire 

---------------

---------------
seat/ 
button: 8888 2000 8000 
small blind: 3333 2000 8000 
big blind: 5555 2000 8000 
7777 2000 8000 
4444 2000 8000 
1111 2000 8000 
6666 2000 8000 
2222 2000 8000 
/seat 

---------------
blind/ 
3333: 50 
5555: 100 
/blind 

---------------

---------------
hold/ 
SPADES Q 
CLUBS 9 
/hold 

---------------

---------------
inquire/ 
5555 1900 8000 100 blind 
3333 1950 8000 50 blind 
total pot: 150 
/inquire 

---------------

---------------
flop/ 
HEARTS Q 
SPADES 7 
CLUBS 8 
/flop 

---------------

---------------
inquire/ 
5555 1900 8000 100 check 
3333 1900 8000 100 check 
8888 1900 8000 100 call 
2222 1900 8000 100 call 
6666 1900 8000 100 call 
1111 1900 8000 100 call 
4444 1900 8000 100 call 
7777 1900 8000 100 call 
total pot: 800 
/inquire 

---------------

---------------
turn/ 
SPADES 8 
/turn 

---------------

---------------
inquire/ 
5555 1900 8000 100 check 
3333 1900 8000 100 check 
8888 1900 8000 100 check 
2222 1900 8000 100 check 
6666 1900 8000 100 check 
1111 1900 8000 100 check 
4444 1900 8000 100 check 
7777 1900 8000 100 check 
total pot: 800 
/inquire 

---------------

---------------
river/ 
CLUBS K 
/river 

---------------

---------------
inquire/ 
5555 1900 8000 100 check 
3333 1900 8000 100 check 
8888 1900 8000 100 check 
2222 1900 8000 100 check 
6666 1900 8000 100 check 
1111 1900 8000 100 check 
4444 1900 8000 100 check 
7777 1900 8000 100 check 
total pot: 800 
/inquire 

---------------

---------------
showdown/ 
common/ 
HEARTS Q 
SPADES 7 
CLUBS 8 
SPADES 8 
CLUBS K 
/common 
6: 3333 DIAMONDS 6 HEARTS 6 TWO_PAIR 
1: 5555 DIAMONDS 8 DIAMONDS 3 THREE_OF_A_KIND 
3: 7777 SPADES Q CLUBS 9 TWO_PAIR 
5: 4444 CLUBS 7 DIAMONDS A TWO_PAIR 
7: 1111 SPADES 6 DIAMONDS 2 ONE_PAIR 
2: 6666 SPADES K HEARTS 10 TWO_PAIR 
4: 2222 CLUBS J SPADES J TWO_PAIR 
3: 8888 DIAMONDS 10 CLUBS Q TWO_PAIR 
/showdown 

---------------

---------------
pot-win/ 
5555: 800 
/pot-win 

---------------

---------------
seat/ 
button: 3333 1900 8000 
small blind: 5555 2700 8000 
big blind: 7777 1900 8000 
4444 1900 8000 
1111 1900 8000 
6666 1900 8000 
2222 1900 8000 
8888 1900 8000 
/seat 

---------------

---------------
blind/ 
5555: 50 
7777: 100 
/blind 

---------------

---------------
hold/ 
DIAMONDS 8 
DIAMONDS 3 
/hold 

---------------

---------------
inquire/ 
5555 2600 8000 100 call 
3333 1800 8000 100 call 
8888 1800 8000 100 call 
2222 1800 8000 100 call 
6666 1800 8000 100 call 
1111 1800 8000 100 call 
4444 1800 8000 100 calseat/ 
button: 8888 2000 8000 
small blind: 3333 2000 8000 
big blind: 5555 2000 8000 
7777 2000 8000 
4444 2000 8000 
1111 2000 8000 
6666 2000 8000 
2222 2000 8000 
/seat 

---------------
blind/ 
3333: 50 
5555: 100 
/blind 

---------------

---------------
hold/ 
DIAMONDS 10 
CLUBS Q 
/hold 

---------------

---------------
inquire/ 
2222 1900 8000 100 call 
6666 1900 8000 100 call 
1111 1900 8000 100 call 
4444 1900 8000 100 call 
7777 1900 8000 100 call 
5555 1900 8000 100 blind 
3333 1950 8000 50 blind 
total pot: 650 
/inquire 

---------------

---------------
flop/ 
HEARTS Q 
SPADES 7 
CLUBS 8 
/flop 

---------------

---------------
inquire/ 
2222 1900 8000 100 check 
6666 1900 8000 100 check 
1111 1900 8000 100 check 
4444 1900 8000 100 check 
7777 1900 8000 100 check 
5555 1900 8000 100 check 
3333 1900 8000 100 check 
8888 1900 8000 100 call 
total pot: 800 
/inquire 

---------------

---------------
turn/ 
SPADES 8 
/turn 

---------------

---------------
inquire/ 
2222 1900 8000 100 check 
6666 1900 8000 100 check 
1111 1900 8000 100 check 
4444 1900 8000 100 check 
7777 1900 8000 100 check 
5555 1900 8000seat/ 
button: 8888 2000 8000 
small blind: 3333 2000 8000 
big blind: 5555 2000 8000 
7777 2000 8000 
4444 2000 8000 
1111 2000 8000 
6666 2000 8000 
2222 2000 8000 
/seat 

---------------
blind/ 
3333: 50 
5555: 100 
/blind 

---------------

---------------
hold/ 
SPADES 6 
DIAMONDS 2 
/hold 

---------------

---------------
inquire/ 
4444 1900 8000 100 call 
7777 1900 8000 100 call 
5555 1900 8000 100 blind 
3333 1950 8000 50 blind 
total pot: 350 
/inquire 

---------------

---------------
flop/ 
HEARTS Q 
SPADES 7 
CLUBS 8 
/flop 

---------------

---------------
inquire/ 
4444 1900 8000 100 check 
7777 1900 8000 100 check 
5555 1900 8000 100 check 
3333 1900 8000 100 check 
8888 1900 8000 100 call 
2222 1900 8000 100 call 
6666 1900 8000 100 call 
1111 1900 8000 100 call 
total pot: 800 
/inquire 

---------------

---------------
turn/ 
SPADES 8 
/turn 

---------------

---------------
inquire/ 
4444 1900 8000 100 check 
7777 1900 8000 100 check 
5555 1900 8000 100 check 
3333 1900 8000 100 check 
8888 1900 8000 100 check 
2222 1900 8000 100 check 
6666 1900 8000 100 check 
1111 1900 8000 100 check 
total pot: 800 
/inquire 

---------------

---------------
river/ 
CLUBS K 
/river 

---------------

---------------
inquire/ 
4444 1900 8000 100 check 
7777 1900 8000 100 check 
5555 1900 8000 100 check 
3333 1900 8000 100 check 
8888 1900 8000 100 check 
2222 1900 8000 100 check 
6666 1900 8000 100 check 
1111 1900 8000 100 check 
total pot: 800 
/inquire 

---------------

---------------
showdown/ 
cseat/ 
button: 8888 2000 8000 
small blind: 3333 2000 8000 
big blind: 5555 2000 8000 
7777 2000 8000 
4444 2000 8000 
1111 2000 8000 
6666 2000 8000 
2222 2000 8000 
/seat 

---------------
blind/ 
3333: 50 
5555: 100 
/blind 

---------------

---------------
hold/ 
SPADES K 
HEARTS 10 
/hold 

---------------

---------------
inquire/ 
1111 1900 8000 100 call 
4444 1900 8000 100 call 
7777 1900 8000 100 call 
5555 1900 8000 100 blind 
3333 1950 8000 50 blind 
total pot: 450 
/inquire 

---------------

---------------
flop/ 
HEARTS Q 
SPADES 7 
CLUBS 8 
/flop 

---------------

---------------
inquire/ 
1111 1900 8000 100 check 
4444 1900 8000 100 check 
7777 1900 8000 100 check 
5555 1900 8000 100 check 
3333 1900 8000 100 check 
8888 1900 8000 100 call 
2222 1900 8000 100 call 
6666 1900 8000 100 call 
total pot: 800 
/inquire 

---------------

---------------
turn/ 
SPADES 8 
/turn 

---------------

---------------
inquire/ 
1111 1900 8000 100 check 
4444 1900 8000 100 check 
7777 1900 8000 100 check 
5555 1900 8000 100 check 
3333 1900 8000 100 check 
8888 1900 8000 100 check 
2222 1900 8000 100 check 
6666 1900 8000 100 check 
total pot: 800 
/inquire 

---------------

---------------
river/ 
CLUBS K 
/river 

---------------

---------------
inquire/ 
1111 1900 8000 100 check 
4444 1900 8000 100 check 
7777 1900 8000 100 check 
5555 1900 8000 100 check 
3333 1900 8000 100 check 
8888 1900 8000 100 check 
2222 1900 8000 100 check 
6666 1900 8000 100 check 
total pot: 800 
/inquire 

---------------

---------------
showdown/ 
common/ 
HEARTS Q 
SPADES 7 
CLUBS 8 
SPADES 8 
CLUBS K 
/common 
6: 3333 DIAMONDS 6 HEARTS 6 TWO_PAIR 
1: 5555 DIAMONDS 8 DIAMONDS 3 THREE_OF_A_KIND 
3: 7777 SPADES Q CLUBS 9 TWO_PAIR 
5: 4444 CLUBS 7 DIAMONDS A TWO_PAIR 
7: 1111 SPADES 6 DIAMONDS 2 ONE_PAIR 
2: 6666 SPADES K HEARTS 10 TWO_PAIR 
4: 2222 CLUBS J SPADES J TWO_PAIR 
3: 8888 DIAMONDS 10 CLUBS Q TWO_PAIR 
/showdown 

---------------

---------------
pot-win/ 
5555: 800 
/pot-win 

---------------

---------------
seat/ 
button: 3333 1seat/ 
button: 8888 2000 8000 
small blind: 3333 2000 8000 
big blind: 5555 2000 8000 
7777 2000 8000 
4444 2000 8000 
1111 2000 8000 
6666 2000 8000 
2222 2000 8000 
/seat 

---------------
blind/ 
3333: 50 
5555: 100 
/blind 

---------------

---------------
hold/ 
SPADES Q 
CLUBS 9 
/hold 

---------------

---------------
inquire/ 
5555 1900 8000 100 blind 
3333 1950 8000 50 blind 
total pot: 150 
/inquire 

---------------

---------------
flop/ 
HEARTS Q 
SPADES 7 
CLUBS 8 
/flop 

---------------

---------------
inquire/ 
5555 1900 8000 100 check 
3333 1900 8000 100 check 
8888 1900 8000 100 call 
2222 1900 8000 100 call 
6666 1900 8000 100 call 
1111 1900 8000 100 call 
4444 1900 8000 100 call 
7777 1900 8000 100 call 
total pot: 800 
/inquire 

---------------

---------------
turn/ 
SPADES 8 
/turn 

---------------

---------------
inquire/ 
5555 1900 8000 100 check 
3333 1900 8000 100 check 
8888 1900 8000 100 check 
2222 1900 8000 100 check 
6666 1900 8000 100 check 
1111 1900 8000 100 check 
4444 1900 8000 100 check 
7777 1900 8000 100 check 
total pot: 800 
/inquire 

---------------

---------------
river/ 
CLUBS K 
/river 

---------------

---------------
inquire/ 
5555 1900 8000 100 check 
3333 1900 8000 100 check 
8888 1900 8000 100 check 
2222 1900 8000 100 check 
6666 1900 8000 100 check 
1111 1900 8000 100 check 
4444 1900 8000 100 check 
7777 1900 8000 100 check 
total pot: 800 
/inquire 

---------------

---------------
showdown/ 
common/ 
HEARTS Q 
SPADES 7 
CLUBS 8 
SPADES 8 
CLUBS K 
/common 
6: 3333 DIAMONDS 6 HEARTS 6 TWO_PAIR 
1: 5555 DIAMONDS 8 DIAMONDS 3 THREE_OF_A_KIND 
3: 7777 SPADES Q CLUBS 9 TWO_PAIR 
5: 4444 CLUBS 7 DIAMONDS A TWO_PAIR 
7: 1111 SPADES 6 DIAMONDS 2 ONE_PAIR 
2: 6666 SPADES K HEARTS 10 TWO_PAIR 
4: 2222 CLUBS J SPADES J TWO_PAIR 
3: 8888 DIAMONDS 10 CLUBS Q TWO_PAIR 
/showdown 

---------------

---------------
pot-win/ 
5555: 800 
/pot-win 

---------------

---------------
seat/ 
button: 3333 1900 8000 
small blind: 5555 2700 8000 
big blind: 7777 1900 8000 
4444 1900 8000 
1111 1900 8000 
6666 1900 8000 
2222 1900 8000 
8888 1900 8000 
/seat 

---------------

---------------
blind/ 
5555: 50 
7777: 100 
/blind 

---------------

---------------
hold/ 
DIAMONDS 8 
DIAMONDS 3 
/hold 

---------------

---------------
inquire/ 
5555 2600 8000 100 call 
3333 1800 8000 100 call 
8888 1800 8000 100 call 
2222 1800 8000 100 call 
6666 1800 8000 100 call 
1111 1800 8000 100 call 
4444 1800 8000 100 call 
7777 1800 8000 100 blind 
total pot: 800 
/inquire 

---------------

---------------
flop/ 
HEARTS Q 
SPADES 7 
CLUBS 8 
/flop 

---------------

---------------
inquire/ 
5555 2600 8000 100 check 
3333 1800 8000 100 call 
8888 1800 8000 100 call 
2222 1800 8000 100 call 
6666 1800 8000 100 call 
1111 1800 8000 100 call 
4444 1800 8000 100 call 
7777 1800 8000 100 check 
total pot: 800 
/inquire 

---------------

---------------
turn/ 
SPADES 8 
/turn 

---------------

---------------
inquire/ 
5555 2600 8000 100 check 
3333 1800 8000 100 check 
8888 1800 8000 100 check 
2222 1800 8000 100 check 
6666 1800 8000 100 check 
1111 1800 8000 100 check 
4444 1800 8000 100 check 
7777 1800 8000 100 check 
total pot: 800 
/inquire 

---------------

---------------
river/ 
CLUBS K 
/river 

---------------

---------------
inquire/ 
5555 2600 8000 100 check 
3333 1800 8000 100 check 
8888 1800 8000 100 check 
2222 1800 8000 100 check 
6666 1800 8000 100 check 
1111 1800 8000 100 check 
4444 1800 8000 100 check 
7777 1800 8000 100 check 
total pot: 800 
/inquire 

---------------

---------------
showdown/ 
common/ 
HEARTS Q 
SPADES 7 
CLUBS 8 
SPADES 8 
CLUBS K 
/common 
6: 5555 DIAMONDS 6 HEARTS 6 TWO_PAIR 
1: 7777 DIAMONDS 8 DIAMONDS 3 THREE_OF_A_KIND 
3: 4444 SPADES Q CLUBS 9 TWO_PAIR 
5: 1111 CLUBS 7 DIAMONDS A TWO_PAIR 
7: 6666 SPADES 6 DIAMONDS 2 ONE_PAIR 
2: 2222 SPADES K HEARTS 10 TWO_PAIR 
4: 8888 CLUBS J SPADES J TWO_PAIR 
3: 3333 DIAMONDS 10 CLUBS Q TWO_PAIR 
/showdown 

---------------

---------------
pot-win/ 
7777: 800 
/pot-win 

---------------

---------------
seat/ 
button: 5555 2600 8000 
small blind: 7777 2600 8000 
big blind: 4444 1800 8000 
1111 1800 8000 
6666 1800 8000 
2222 1800 8000 
8888 1800 8000 
3333 1800 8000 
/seat 

---------------

---------------
blind/ 
7777: 50 
4444: 100 
/blind 

---------------

---------------
hold/ 
CLUBS 10 
HEARTS Q 
/hold 

---------------

---------------
inquire/ 
5555 2500 8000 100 call 
3333 1700 8000 100 call 
8888 1700 8000 100 call 
2222 1700 8000 100 call 
6666 1700 8000 100 call 
1111 1700 8000 100 call 
4444 1700 8000 100 blind 
7777 2550 8000 50 blind 
total pot: 750 
/inquire 

---------------

---------------
flop/ 
SPADES 6 
CLUBS 8 
DIAMONDS 5 
/flop 

---------------

---------------
inquire/ 
5555 2500 8000 100 call 
3333 1700 8000 100 call 
8888 1700 8000 100 call 
2222 1700 8000 100 call 
6666 1700 8000 100 call 
1111 1700 8000 100 call 
4444 1700 8000 100 check 
7777 2500 8000 100 call 
total pot: 800 
/inquire 

---------------

---------------
turn/ 
DIAMONDS J 
/turn 

---------------

---------------
inquire/ 
5555 2500 8000 100 check 
3333 1700 8000 100 check 
8888 1700 8000 100 check 
2222 1700 8000 100 check 
6666 1700 8000 100 check 
1111 1700 8000 100 check 
4444 1700 8000 100 check 
7777 2500 8000 100 check 
total pot: 800 
/inquire 

---------------

---------------
river/ 
CLUBS 3 
/river 

---------------

---------------
inquire/ 
5555 2500 8000 100 check 
3333 1700 8000 100 check 
8888 1700 8000 100 check 
2222 1700 8000 100 check 
6666 1700 8000 100 check 
1111 1700 8000 100 check 
4444 1700 8000 100 check 
7777 2500 8000 100 check 
total pot: 800 
/inquire 

---------------

---------------
showdown/ 
common/ 
SPADES 6 
CLUBS 8 
DIAMONDS 5 
DIAMONDS J 
CLUBS 3 
/common 
7: 7777 CLUBS 10 HEARTS Q HIGH_CARD 
1: 4444 DIAMONDS 7 DIAMONDS 6 ONE_PAIR 
8: 1111 DIAMONDS 9 HEARTS 4 HIGH_CARD 
4: 6666 DIAMONDS A CLUBS K HIGH_CARD 
5: 2222 SPADES A DIAMONDS 4 HIGH_CARD 
6: 8888 SPADES Q SPADES K HIGH_CARD 
3: 3333 HEARTS 7 HEARTS 3 ONE_PAIR 
2: 5555 SPADES 7 HEARTS 5 ONE_PAIR 
/showdown 

---------------

---------------
pot-win/ 
4444: 800 
/pot-win 

---------------

---------------
seat/ 
button: 7777 2500 8000 
small blind: 4444 2500 8000 
big blind: 1111 1700 8000 
6666 1700 8000 
2222 1700 8000 
8888 1700 8000 
3333 1700 8000 
5555 2500 8000 
/seat 

---------------

---------------
blind/ 
4444: 50 
1111: 100 
/blind 

---------------

---------------
hold/ 
SPADES 7 
HEARTS 5 
/hold 

---------------

---------------
inquire/ 
5555 2400 8000 100 call 
3333 1600 8000 100 call 
8888 1600 8000 100 call 
2222 1600 8000 100 call 
6666 1600 8000 100 call 
1111 1600 8000 100 blind 
4444 2450 8000 50 blind 
total pot: 650 
/inquire 

---------------

---------------
flop/ 
SPADES 6 
CLUBS 8 
DIAMONDS 5 
/flop 

---------------

---------------
inquire/ 
5555 2400 8000 100 check 
3333 1600 8000 100 check 
8888 1600 8000 100 check 
2222 1600 8000 100 check 
6666 1600 8000 100 check 
1111 1600 8000 100 check 
4444 2400 8000 100 check 
7777 2400 8000 100 call 
total pot: 800 
/inquire 

---------------

---------------
turn/ 
DIAMONDS J 
/turn 

---------------

---------------
inquire/ 
5555 2400 8000 100 check 
3333 1600 8000 100 check 
8888 1600 8000 100 check 
2222 1600 8000 100 check 
6666 1600 8000 100 check 
1111 1600 8000 100 check 
4444 2400 8000 100 check 
7777 2400 8000 100 check 
total pot: 800 
/inquire 

---------------

---------------
seat/ 
button: 8888 2000 8000 
small blind: 3333 2000 8000 
big blind: 5555 2000 8000 
7777 2000 8000 
4444 2000 8000 
1111 2000 8000 
6666 2000 8000 
2222 2000 8000 
/seat 

---------------
blind/ 
3333: 50 
5555: 100 
/blind 

---------------

---------------
hold/ 
SPADES Q 
CLUBS 9 
/hold 

---------------

---------------
inquire/ 
5555 1900 8000 100 blind 
3333 1950 8000 50 blind 
total pot: 150 
/inquire 

---------------

---------------
flop/ 
HEARTS Q 
SPADES 7 
CLUBS 8 
/flop 

---------------

---------------
inquire/ 
5555 1900 8000 100 check 
3333 1900 8000 100 check 
8888 1900 8000 100 call 
2222 1900 8000 100 call 
6666 1900 8000 100 call 
1111 1900 8000 100 call 
4444 1900 8000 100 call 
7777 1900 8000 100 call 
total pot: 800 
/inquire 

---------------

---------------
turn/ 
SPADES 8 
/turn 

---------------

---------------
inquire/ 
5555 1900 8000 100 seat/ 
button: 8888 2000 8000 
small blind: 3333 2000 8000 
big blind: 5555 2000 8000 
7777 2000 8000 
4444 2000 8000 
1111 2000 8000 
6666 2000 8000 
2222 2000 8000 
/seat 

---------------

---------------
blind/ 
3333: 50 
5555: 100 
/blind 

---------------

---------------
hold/ 
CLUBS J 
SPADES J 
/hold 

---------------

---------------
inquire/ 
6666 1900 8000 100 call 
1111 1900 8000 100 call 
4444 1900 8000 100 call 
7777 1900 8000 100 call 
5555 1900 8000 100 blind 
3333 1950 8000 50 blind 
total pot: 550 
/inquire 

---------------

---------------
flop/ 
HEARTS Q 
SPADES 7 
CLUBS 8 
/flop 

---------------

---------------
inquire/ 
6666 1900 8000 100 check 
1111 1900 8000 100 check 
4444 1900 8000 100 check 
7777 1900 8000 100 check 
5555 1900 8000 100 check 
3333 1900 8000 100 check 
8888 1900 8000 100 call 
2222 1900 8000 100 call 
total pot: 800 
/inquire 

---------------

---------------
turn/ 
SPADES 8 
/turn 

---------------

---------------
inquire/ 
6666 1900 8000 100 check 
1111 1900 8000 100 check 
4444 1900 8000 100 check 
7777 1900 8000 100 check 
5555 1900 8000 100 check 
3333 1900 8000 100 check 
8888 1900 8000 100 check 
2222 1900 8000 100 check 
total pot: 800 
/inquire 

---------------

---------------
river/ 
CLUBS K 
/river 

---------------

---------------
inquire/ 
6666 1900 8000 100 check 
1111 1900 8000 100 check 
4444 1900 8000 100 check 
7777 1900 8000 100 check 
5555 1900 8000 100 check 
3333 1900 8000 100 check 
8888 1900 8000 100 check 
2222 1900 8000 100 check 
total pot: 800 
/inquire 

---------------

---------------
showdown/ 
common/ 
HEARTS Q 
SPADES 7 
CLUBS 8 
SPADES 8 
CLUBS K 
/common 
6: 3333 DIAMONDS 6 HEARTS 6 TWO_PAIR 
1: 5555 DIAMONDS 8 DIAMONDS 3 THREE_OF_A_KIND 
3: 7777 SPADES Q CLUBS 9 TWO_PAIR 
5: 4444 CLUBS 7 DIAMONDS A TWO_PAIR 
7: 1111 SPADES 6 DIAMONDS 2 ONE_PAIR 
2: 6666 SPADES K HEARTS 10 TWO_PAIR 
4: 2222 CLUBS J SPADES J TWO_PAIR 
3: 8888 DIAMONDS 10 CLUBS Q TWO_PAIR 
/showdown 

---------------

---------------
pot-win/ 
5555: 800 
/pot-win 

---------------

---------------
seat/ 
button: 3333 1900 8000 
small blind: 5555 2700 8000 
big blind: 7777 1900 8000 
4444 1900 8000 
1111 1900 8000 
6666 1900 8000 
2222 1900 8000 
8888 1900 8000 
/seat 

---------------

---------------
blind/ 
5555: 50 
7777: 100 
/blind 

---------------

---------------
hold/ 
SPADES K 
HEARTS 10 
/hold 

---------------

---------------
inquire/ 
6666 1800 8000 100 call 
1111 1800 8000 100 call 
4444 1800 8000 100 call 
7777 1800 8000 100 blind 
5555 2650 8000 50 blind 
total pot: 450 
/inquire 

---------------

---------------
flop/ 
HEARTS Q 
SPADES 7 
CLUBS 8 
/flop 

---------------

------------seat/ 
button: 8888 2000 8000 
small blind: 3333 2000 8000 
big blind: 5555 2000 8000 
7777 2000 8000 
4444 2000 8000 
1111 2000 8000 
6666 2000 8000 
2222 2000 8000 
/seat 

---------------
blind/ 
3333: 50 
5555: 100 
/blind 

---------------

---------------
hold/ 
SPADES 6 
DIAMONDS 2 
/hold 

---------------

---------------
inquire/ 
4444 1900 8000 100 call 
7777 1900 8000 100 call 
5555 1900 8000 100 blind 
3333 1950 8000 50 blind 
total pot: 350 
/inquire 

---------------

---------------
flop/ 
HEARTS Q 
SPADES 7 
CLUBS 8 
/flop 

---------------

---------------
inquire/ 
4444 1900 8000 100 check 
7777 1900 8000 100 check 
5555 1900 8000 100 check 
3333 1900 8000 100 check 
8888 1900 8000 100 call 
2222 1900 8000 100 call 
6666 1900 8000 100 call 
1111 1900 8000 100 call 
total pot: 800 
/inquire 

---------------

---------------
turn/ 
SPADES 8 
/turn 

---------------

---------------
inquire/ 
4444 1900 8000 100 check 
7777 1900 8000 100 check 
5555 1900 8000 100 check 
3333 1900 8000 100 check 
8888 1900 8000 100 check 
2222 1900 8000 100 check 
6666 1900 8000 100 check 
1111 1900 8000 100 check 
total pot: 800 
/inquire 

---------------

---------------
river/ 
CLUBS K 
/river 

---------------

---------------
inquire/ 
4444 1900 8000 100 check 
7777 1900 8000 100 check 
5555 1900 8000 100 check 
3333 1900 8000 100 check 
8888 1900 8000 100 check 
seat/ 
button: 8888 2000 8000 
small blind: 3333 2000 8000 
big blind: 5555 2000 8000 
7777 2000 8000 
4444 2000 8000 
1111 2000 8000 
6666 2000 8000 
2222 2000 8000 
/seat 

---------------
blind/ 
3333: 50 
5555: 100 
/blind 

---------------

---------------
hold/ 
SPADES K 
HEARTS 10 
/hold 

---------------

---------------
inquire/ 
1111 1900 8000 100 call 
4444 1900 8000 100 call 
7777 1900 8000 100 call 
5555 1900 8000 100 blind 
3333 1950 8000 50 blind 
total pot: 450 
/inquire 

---------------

---------------
flop/ 
HEARTS Q 
SPADES 7 
CLUBS 8 
/flop 

---------------

---------------
inquire/ 
1111 1900 8000 100 check 
4444 1900 8000 100 check 
7777 1900 8000 100 check 
5555 1900 8000 100 check 
3333 1900 8000 100 check 
8888 1900 8000 100 call 
2222 1900 8000 100 call 
6666 1900 8000 100 call 
total pot: 800 
/inquire 

---------------

---------------
turn/ 
SPADES 8 
/turn 

---------------

---------------
inquire/ 
1111 1900 8000 100 check 
4444 1900 8000 100 check 
7777 1900 8000 100 check 
5555 1900 8000 100 check 
3333 1900 8000 100 check 
8888 1900 8000 100 check 
2222 1900 8000 100 check 
6666 1900 8000 100 check 
total pot: 800 
/inquire 

---------------

---------------
river/ 
CLUBS K 
/river 

---------------

---------------
inquire/ 
1111 1900 8000 100 check 
4444 1900 8000 100 check 
7777 1900 8000 100 check 
5555 1900 8000 100 check 
3333 1900 8000 100 check 
8888 1900 8000 100 check 
2222 1900 8000 100 check 
6666 1900 8000 100 check 
total pot: 800 
/inquire 

---------------

---------------
showdown/ 
common/ 
HEARTS Q 
SPADES 7 
CLUBS 8 
SPADES 8 
CLUBS K 
/common 
6: 3333 DIAMONDS 6 HEARTS 6 TWO_PAIR 
1: 5555 DIAMONDS 8 DIAMONDS 3 THREE_OF_A_KIND 
3: 7777 SPADES Q CLUBS 9 TWO_PAIR 
5: 4444 CLUBS 7 DIAMONDS A TWO_PAIR 
7: 1111 SPADES 6 DIAMONDS 2 ONE_PAIR 
2: 6666 SPADES K HEARTS 10 TWO_PAIR 
4: 2222 CLUBS J SPADES J TWO_PAIR 
3: 8888 DIAMONDS 10 CLUBS Q TWO_PAIR 
/showdown 

---------------

---------------
pot-win/ 
5555: 800 
/pot-win 

---------------

---------------
seat/ 
button: 3333 1900 8000 
small blind: 5555 2700 8000 
big blind: 7777 1900 8000 
4444 1900 8000 
1111 1900 8000 
6666 1900 8000 
2222 1900 8000 
8888 1900 8000 
/seat 

---------------

---------------
blind/ 
5555: 50 
7777: 100 
/blind 

---------------

---------------
hold/ 
SPADES 6 
DIAMONDS 2 
/hold 

---------------

---------------
inquire/ 
1111 1800 8000 100 call 
4444 1800 8000 100 call 
7777 1800 8000 100 blind 
5555 2650 8000 50 blind 
total pot: 350 
/inquire 

---------------

---------------
flop/ 
HEARTS Q 
SPADES 7 
CLUBS 8 
/flopseat/ 
button: 8888 2000 8000 
small blind: 3333 2000 8000 
big blind: 5555 2000 8000 
7777 2000 8000 
4444 2000 8000 
1111 2000 8000 
6666 2000 8000 
2222 2000 8000 
/seat 

---------------
blind/ 
3333: 50 
5555: 100 
/blind 

---------------

---------------
hold/ 
SPADES Q 
CLUBS 9 
/hold 

---------------

---------------
inquire/ 
5555 1900 8000 100 blind 
3333 1950 8000 50 blind 
total pot: 150 
/inquire 

---------------

---------------
flop/ 
HEARTS Q 
SPADES 7 
CLUBS 8 
/flop 

---------------

---------------
inquire/ 
5555 1900 8000 100 check 
3333 1900 8000 100 check 
8888 1900 8000 100 call 
2222 1900 8000 100 call 
6666 1900 8000 100 call 
1111 1900 8000 100 call 
4444 1900 8000 100 call 
7777 1900 8000 100 call 
total pot: 800 
/inquire 

---------------

---------------
turn/ 
SPADES 8 
/turn 

---------------

---------------
inquire/ 
5555 1900 8000 100 check 
3333 1900 8000 100 check 
8888 1900 8000 100 check 
2222 1900 8000 100 check 
6666 1900 8000 100 check 
1111 1900 8000 100 check 
4444 1900 8000 100 check 
7777 1900 8000 100 check 
total pot: 800 
/inquire 

---------------

---------------
river/ 
CLUBS K 
/river 

---------------

---------------
inquire/ 
5555 1900 8000 100 check 
3333 1900 8000 100 check 
8888 1900 8000 100 check 
2222 1900 8000 100 check 
6666 1900 8000 100 check 
1111 1900 8000 100 check 
4444 1900 8000 100 check 
7777 1900 8000 100 check 
total pot: 800 
/inquire 

---------------

---------------
showdown/ 
common/ 
HEARTS Q 
SPADES 7 
CLUBS 8 
SPADES 8 
CLUBS K 
/common 
6: 3333 DIAMONDS 6 HEARTS 6 TWO_PAIR 
1: 5555 DIAMONDS 8 DIAMONDS 3 THREE_OF_A_KIND 
3: 7777 SPADES Q CLUBS 9 TWO_PAIR 
5: 4444 CLUBS 7 DIAMONDS A TWO_PAIR 
7: 1111 SPADES 6 DIAMONDS 2 ONE_PAIR 
2: 6666 SPADES K HEARTS 10 TWO_PAIR 
4: 2222 CLUBS J SPADES J TWO_PAIR 
3: 8888 DIAMONDS 10 CLUBS Q TWO_PAIR 
/showdown 

---------------

---------------
pot-win/ 
5555: 800 
/pot-win 

---------------

---------------
seat/ 
button: 3333 1900 8000 
small blind: 5555 2700 8000 
big blind: 7777 1900 8000 
4444 1900 8000 
1111 1900 8000 
6666 1900 8000 
2222 1900 8000 
8888 1900 8000 
/seat 

---------------

---------------
blind/ 
5555: 50 
7777: 100 
/blind 

---------------

---------------
hold/ 
DIAMONDS 8 
DIAMONDS 3 
/hold 

---------------

---------------
inquire/ 
5555 2600 8000 100 call 
3333 1800 8000 100 call 
8888 1800 8000 100 call 
2222 1800 8000 100 call 
6666 1800 8000 100 call 
1111 1800 8000 100 call 
4444 1800 8000 100 call 
7777 1800 8000 100 blind 
total pot: 800 
/inquire 

---------------

---------------
flop/ 
HEARTS Q 
SPADES 7 
CLUBS 8 
/flop 

---------------

---------------
inquire/ 
5555 2600 8000 100 check 
3333 1800 8000 100 call 
8888 1800 8000 100 call 
2222 1800 8000 100 call 
6666 1800 8000 100 call 
1111 1800 8000 100 call 
4444 1800 8000 100 call 
7777 1800 8000 100 check 
total pot: 800 
/inquire 

---------------

---------------
turn/ 
SPADES 8 
/turn 

---------------

---------------
inquire/ 
5555 2600 8000 100 check 
3333 1800 8000 100 check 
8888 1800 8000 100 check 
2222 1800 8000 100 check 
6666 1800 8000 100 check 
1111 1800 8000 100 check 
4444 1800 8000 100 check 
7777 1800 8000 100 check 
total pot: 800 
/inquire 

---------------

---------------
river/ 
CLUBS K 
/river 

---------------

---------------
inquire/ 
5555 2600 8000 100 check 
3333 1800 8000 100 check 
8888 1800 8000 100 check 
2222 1800 8000 100 check 
6666 1800 8000 100 check 
1111 1800 8000 100 check 
4444 1800 8000 100 check 
7777 1800 8000 100 check 
total pot: 800 
/inquire 

---------------

---------------
showdown/ 
common/ 
HEARTS Q 
SPADES 7 
CLUBS 8 
SPADES 8 
CLUBseat/ 
button: 8888 2000 8000 
small blind: 3333 2000 8000 
big blind: 5555 2000 8000 
7777 2000 8000 
4444 2000 8000 
1111 2000 8000 
6666 2000 8000 
2222 2000 8000 
/seat 

---------------
blind/ 
3333: 50 
5555: 100 
/blind 

---------------

---------------
hold/ 
SPADES 6 
DIAMONDS 2 
/hold 

---------------

---------------
inquire/ 
4444 1900 8000 100 call 
7777 1900 8000 100 call 
5555 1900 8000 100 blind 
3333 1950 8000 50 blind 
total pot: 350 
/inquire 

---------------

---------------
flop/ 
HEARTS Q 
SPADES 7 
CLUBS 8 
/flop 

---------------

---------------
inquire/ 
4444 1900 8000 100 check 
7777 1900 8000 100 check 
5555 1900 8000 100 check 
3333 1900 8000 100 check 
8888 1900 8000 100 call 
2222 1900 8000 100 call 
6666 1900 8000 100 call 
1111 1900 8000 100 call 
total pot: 800 
/inquire 

---------------

---------------
turn/ 
SPADES 8 
/turn 

---------------

---------------
inquire/ 
4444 1900 8000 100 check 
7777 1900 8000 100 check 
5555 1900 8000 100 check 
3333 1900 8000 100 check 
8888 1900 8000 100 check 
2222 1900 8000 100 check 
6666 1900 8000 100 check 
1111 1900 8000 100 check 
total pot: 800 
/inquire 

---------------

---------------
river/ 
CLUBS K 
/river 

---------------

---------------
inquire/ 
4444 1900 8000 100 check 
7777 1900 8000 100 check 
5555 1900 8000 100 check 
3333 1900 8000 100 check 
8888 1900 8000 100 check 
2222 1900 8000 100 check 
6666 1900 8000 100 check 
1111 1900 8000 100 check 
total pot: 800 
/inquire 

---------------

---------------
showdown/ 
common/ 
HEARTS Q 
SPADES 7 
CLUBS 8 
SPADES 8 
CLUBS K 
/common 
6: 3333 DIAMONDS 6 HEARTS 6 TWO_PAIR 
1: 5555 DIAMONDS 8 DIAMONDS 3 THREE_OF_A_KIND 
3: 7777 SPADES Q CLUBS 9 TWO_PAIR 
5: 4444 CLUBS 7 DIAMONDS A TWO_PAIR 
7: 1111 SPADES 6 DIAMONDS 2 ONE_PAIR 
2: 6666 SPADES K HEARTS 10 TWO_PAIR 
4: 2222 CLUBS J SPADES J TWO_PAIR 
3: 8888 DIAMONDS 10 CLUBS Q TWO_PAIR 
/showdown 

---------------

---------------
pot-win/ 
5555: 800 
/pot-win 

---------------

---------------
seat/ 
button: 3333 1900 8000 
small blind: 5555 2700 8000 
big blind: 7777 1900 8000 
4444 1900 8000 
1111 1900 8000 
6666 1900 8000 
2222 1900 8000 
8888 1900 8000 
/seat 

---------------

---------------
blind/ 
5555: 50 
7777: 100 
/blind 

---------------

---------------
hold/ 
CLUBS 7 
DIAMONDS A 
/hold 

---------------

---------------
inquire/ 
4444 1800 8000 100 call 
7777 1800 8000 100 blind 
5555 2650 8000 50 blind 
total pot: 250 
/inquire 

---------------

---------------
flop/ 
HEARTS Q 
SPADES 7 
CLUBS 8 
/flop 

---------------

---------------
inquire/ 
4444 1800 8000 100 check 
7777 1800 8000 100 check 
5555 2600 8000 100 check 
3333 1800 8000 100 call 
8888 1800 8000 100 call 
2222 1800 8000 100 call 
6666 1800 8000 100 call 
1111 1800 8000 100 call 
total pot: 800 
/inquire 

---------------

---------------
turn/ 
SPADES 8 
/turn 

---------------

---------------
inquire/ 
4444 1800 8000 100 check 
7777 1800 8000 100 check 
5555 2600 8000 100 check 
3333 1800 8000 100 check 
8888 1800 8000 100 check 
2222 1800 8000 100 check 
6666 1800 8000 100 check 
1111 1800 8000 100 check 
to
---------------
flop/ 
SPADES 6 
CLUBS 8 ---------------
river/ 
CLUBS K 
/riv
---------------
inqui---------------
inquire/ 
4444 1800 8000 100 check 
7777 1800 8000 100 check 
5555 2600 8000 100 check 
3333 1800 8000 100 check 
8888 1800 8000 100 check 
2222 1800 8000 100 check 
6666 1800 8000 100 check 
1111 1800 8000 100 check 
total pot: 800 
/inqu
---------------
turn/ ---------------
showdown/ 
common/ 
H
---------------
inquire/ 
5555 2400 8000 100 check 
3333 1600 8000 100 check 
8888 1600 8000 100 check 
2222 1600 8000 100 check 
6666 1600 8000 100 check 
1111 1600 8000 100 check 
4444 2400 8000 100 check 
7777 2400 8000 100 check 
total pot: 800 
/inquire 

---------------

---------------
river/ 
CLUBS 3 
/river 

---------------

---------------
inquire/ 
5555 2400 8000 100 check 
3333 1600 8000 100 check 
8888 1600 8000 100 check 
2222 1600 8000 100 check 
6666 1600 8000 100 check 
1111 1600 8000 100 check 
4444 2400 8000 100 check 
7777 2400 8000 100 check 
total pot: 800 
/inquire 

---------------

---------------
seat/ 
button: 8888 2000 8000 
small blind: 3333 2000 8000 
big blind: 5555 2000 8000 
7777 2000 8000 
4444 2000 8000 
1111 2000 8000 
6666 2000 8000 
2222 2000 8000 
/seat 

---------------
blind/ 
3333: 50 
5555: 100 
/blind 

---------------

---------------
hold/ 
SPADES Q 
CLUBS 9 
/hold 

---------------

---------------
inquire/ 
5555 1900 8000 100 blind 
3333 1950 8000 50 blind 
total pot: 150 
/inquire 

---------------

---------------
flop/ 
HEARTS Q 
SPADES 7 
CLUBS 8 
/flop 

---------------

---------------
inquire/ 
5555 1900 8000 100 check 
3333 1900 8000 100 check 
8888 1900 8000 100 call 
2222 1900 8000 100 call 
6666 1900 8000 100 call 
1111 1900 8000 100 call 
4444 1900 8000 100 call 
7777 1900 8000 100 call 
total pot: 800 
/inquire 

---------------

---------------
turn/ 
SPADES 8 
/turn 

---------------

---------------
inquire/ 
5555 1900 8000 100 check 
3333 1900 8000 100 check 
8888 1900 8000 100 check 
2222 1900 8000 100 check 
6666 1900 8000 100 check 
1111 1900 8000 100 check 
4444 1900 8000 100 check 
7777 1900 8000 100 check 
total pot: 800 
/inquire 

---------------

---------------
river/ 
CLUBS K 
/river 

---------------

---------------
inquire/ 
5555 1900 8000 100 check 
3333 1900 8000 100 check 
8888 1900 8000 100 check 
2222 1900 8000 100 check 
6666 1900 8000 100 check 
1111 1900 8000 100 check 
4444 1900 8000 100 check 
7777 1900 8000 100 check 
total pot: 800 
/inquire 

---------------

---------------
showdown/ 
common/ 
HEARTS Q 
SPADES 7 
CLUBS 8 
SPADES 8 
CLUBS K 
/common 
6: 3333 DIAMONDS 6 HEARTS 6 TWO_PAIR 
1: 5555 DIAMONDS 8 DIAMONDS 3 THREE_OF_A_KIND 
3: 7777 SPADES Q CLUBS 9 TWO_PAIR 
5: 4444 CLUBS 7 DIAMONDS A TWO_PAIR 
7: 1111 SPADES 6 DIAMONDS 2 ONE_PAIR 
2: 6666 SPADES K HEARTS 10 TWO_PAIR 
4: 2222 CLUBS J SPADES J TWO_PAIR 
3: 8888 DIAMONDS 10 CLUBS Q TWO_PAIR 
/showdown 

---------------

---------------
pot-win/ 
5555: 800 
/pot-win 

---------------

---------------
seat/ 
button: 3333 1900 8000 
small blind: 5555 2700 8000 
big blind: 7777 1900 8000 
4444 1900 8000 
1111 1900 8000 
6666 1900 8000 
2222 1900 8000 
8888 1900 8000 
/seat 

---------------

---------------
blind/ 
5555: 50 
7777: 100 
/blind 

---------------

---------------
hold/ 
DIAMONDS 8 
DIAMONDS 3 
/hold 

---------------

---------------
inquire/ 
5555 2600 8000 100 call 
3333 1800 8000 100 call 
8888 1800 8000 100 call 
2222 1800 8000 100 call 
6666 1800 8000 100 call 
1111 1800 8000 100 call 
4444 1800 8000 100 call 
7777 1800 8000 100 blind 
total pot: 800 
/inquire 

---------------

---------------
flop/ 
HEARTS Q 
SPADES 7 
CLUBS 8 
/flop 

---------------

---------------
inquire/ 
5555 2600 8000 100 check 
3333 1800 8000 100 call 
8888 1800 8000 100 call 
2222 1800 8000 100 call 
6666 1800 8000 100 call 
1111 1800 8000 100 call 
4444 1800 8000 100 call 
7777 1800 8000 100 check 
total pot: 800 
/inquire 

---------------

---------------
turn/ 
SPADES 8 
/turn 

---------------

---------------
inquire/ 
5555 2600 8000 100 check 
3333 1800 8000 100 check 
8888 1800 8000 100 check 
2222 1800 8000 100 check 
6666 1800 8000 100 check 
1111 1800 8000 100 check 
4444 1800 8000 100 check 
7777 1800 8000 100 check 
total pot: 800 
/inquire 

---------------

---------------
river/ 
CLUBS K 
/river 

---------------

---------------
inquire/ 
5555 2600 8000 100 check 
3333 1800 8000 100 check 
8888 1800 8000 100 check 
2222 1800 8000 100 check 
6666 1800 8000 100 check 
1111 1800 8000 100 check 
4444 1800 8000 100 check 
7777 1800 8000 100 check 
total pot: 800 
/inquire 

---------------

---------------
showdown/ 
common/ 
HEARTS Q 
SPADES 7 
CLUBS 8 
SPADES 8 
CLUBS K 
/common 
6: 5555 DIAMONDS 6 HEARTS 6 TWO_PAIR 
1: 7777 DIAMONDS 8 DIAMONDS 3 THREE_OF_A_KIND 
3: 4444 SPADES Q CLUBS 9 TWO_PAIR 
5: 1111 CLUBS 7 DIAMONDS A TWO_PAIR 
7: 6666 SPADES 6 DIAMONDS 2 ONE_PAIR 
2: 2222 SPADES K HEARTS seat/ 
button: 8888 2000 8000 
small blind: 3333 2000 8000 
big blind: 5555 2000 8000 
7777 2000 8000 
4444 2000 8000 
1111 2000 8000 
6666 2000 8000 
2222 2000 8000 
/seat 

---------------
blind/ 
3333: 50 
5555: 100 
/blind 

---------------

---------------
hold/ 
SPADES 6 
DIAMONDS 2 
/hold 

---------------

---------------
inquire/ 
4444 1900 8000 100 call 
7777 1900 8000 100 call 
5555 1900 8000 100 blind 
3333 1950 8000 50 blind 
total pot: 350 
/inquire 

---------------

---------------
flop/ 
HEARTS Q 
SPADES 7 
CLUBS 8 
/flop 

---------------

---------------
inquire/ 
4444 1900 8000 100 check 
7777 1900 8000 100 check 
5555 1900 8000 100 check 
3333 1900 8000 100 check 
8888 1900 8000 100 call 
2222 1900 8000 100 call 
6666 1900 8000 100 call 
1111 1900 8000 100 call 
total pot: 800 
/inquire 

---------------

---------------
turn/ 
SPADES 8 
/turn 

---------------

---------------
inquire/ 
4444 1900 8000 100 check 
7777 1900 8000 100 check 
5555 1900 8000 100 check 
3333 1900 8000 100 check 
8888 1900 8000 100 check 
2222 1900 8000 100 check 
6666 1900 8000 100 check 
1111 1900 8000 100 check 
total pot: 800 
/inquire 

---------------

---------------
river/ 
CLUBS K 
/river 

---------------

---------------
inquire/ 
4444 1900 8000 100 check 
7777 1900 8000 100 check 
5555 1900 8000 100 check 
3333 1900 8000 100 check 
8888 1900 8000 100 check 
2222 1900 8000 100 check 
6666 1900 8000 100 check 
1111 1900 8000 100 check 
total pot: 800 
/inquire 

---------------

---------------
showdown/ 
common/ 
HEARTS Q 
SPADES 7 
CLUBS 8 
SPADES 8 
CLUBS K 
/common 
6: 3333 DIAMONDS 6 HEARTS 6 TWO_PAIR 
1: 5555 DIAMONDS 8 DIAMONDS 3 THREE_OF_A_KIND 
3: 7777 SPADES Q CLUBS 9 TWO_PAIR 
5: 4444 CLUBS 7 DIAMONDS A TWO_PAIR 
7: 1111 SPADES 6 DIAMONDS 2 ONE_PAIR 
2: 6666 SPADES K HEARTS 10 TWO_PAIR 
4: 2222 CLUBS J SPADES J TWO_PAIR 
3: 8888 DIAMONDS 10 CLUBS Q TWO_PAIR 
/showdown 

---------------

---------------
pot-win/ 
5555: 800 
/pot-win 

---------------

---------------
seat/ 
button: 3333 1900 8000 
small blind: 5555 2700 8000 
big blind: 7777 1900 8000 
4444 1900 8000 
1111 1900 8000 
6666 1900 8000 
2222 1900 8000 
8888 1900 8000 
/seat 

---------------

---------------
blind/ 
5555: 50 
7777: 100 
/blind 

---------------

---------------
hold/ 
CLUBS 7 
DIAMONDS A 
/hold 

---------------

---------------
inquire/ 
4444 1800 8000 100 call 
7777 1800 8000 100 blind 
5555 2650 8000 50 blind 
total pot: 250 
/inquire 

---------------

---------------
flop/ 
HEARTS Q 
SPADES 7 
CLUBS 8 
/flop 

---------------

---------------
inquire/ 
4444 1800 8000 100 check 
7777 1800 8000 100 check 
5555 2600 8000 100 check 
3333 1800 8000 100 call 
8888 1800 8000 100 call 
2222 1800 8000 100 call 
6666 1800 8000 100 call 
1111 1800 8000 100 call 
total pot: 800 
/inquire 

---------------

---------------
turn/ 
SPADES 8 
/turn 

---------------

---------------
inquire/ 
4444 1800 8000 100 check 
7777 1800 8000 100 check 
5555 2600 8000 100 check 
3333 1800 8000 100 check 
8888 1800 8000 100 check 
2222 1800 8000 100 check 
6666 1800 8000 100 check 
1111 1800 8000 100 check 
total pot: 800 
/inquire 

---------------

---------------
river/ 
CLUBS K 
/river 

---------------

---------------
inquire/ 
4444 1800 8000 100 check 
7777 1800 8000 100 check 
5555 2600 8000 100 check 
3333 1800 8000 100 check 
8888 1800 8000 100 check 
2222 1800 8000 100 check 
6666 1800 8000 100 check 
1111 1800 8000 100 check 
total pot: 800 
/inquire 

---------------

---------------
showdown/ 
common/ 
HEARTS Q 
SPADES 7 
CLUBS 8 
SPADES 8 
CLUBS K 
/common 
6: 5555 DIAMONDS 6 HEARTS 6 TWO_PAIR 
1: 7777 DIAMONDS 8 DIAMONDS 3 THREE_OF_A_KIND 
3: 4444 SPADES Q CLUBS 9 TWO_PAIR 
5: 1111 CLUBS 7 DIAMONDS A TWO_PAIR 
7: 6666 SPADES 6 DIAMONDS 2 ONE_PAIR 
2: 2222 SPADES K HEARTS 10 TWO_PAIR 
4: 8888 CLUBS J SPADES J TWO_PAIR 
3: 3333 DIAMONDS 10 CLUBS Q TWO_PAIR 
/showdown 

---------------

---------------
pot-win/ 
7777: 800 
/pot-win 

---------------

---------------
seat/ 
button: 5555 2600 8000 
small blind: 7777 2600 8000 
big blind: 4444 1800 8000 
1111 1800 8000 
6666 1800 8000 
2222 1800 8000 
8888 1800 8000 
3333 1800 8000 
/seat 

---------------

---------------
blind/ 
7777: 50 
4444: 100 
/blind 

---------------

---------------
hold/ 
DIAMONDS 9 
HEARTS 4 
/hold 

---------------

---------------
inquire/ 
4444 1700 8000 100 blind 
7777 2550 8000 50 blind 
total pot: 150 
/inquire 

---------------

---------------
flop/ 
SPADES 6 
CLUBS 8 
DIAMONDS 5 
/flop 

---------------

---------------
inquire/ 
4444 1700 8000 100 check 
7777 2500 8000 100 check 
5555 2500 8000 100 call 
3333 1700 8000 100 call 
8888 1700 8000 100 call 
2222 1700 8000 100 call 
6666 1700 8000 100 call 
1111 1700 8000 100 call 
total pot: 800 
/inquire 

---------------

---------------
turn/ 
DIAMONDS J 
/turn 

---------------

---------------
inquire/ 
4444 1700 8000 100 check 
7777 2500 8000 100 check 
5555 2500 8000 100 check 
3333 1700 8000 100 check 
8888 1700 8000 100 check 
2222 1700 8000 100 check 
6666 1700 8000 100 check 
1111 1700 8000 100 check 
total pot: 800 
/inquire 

---------------

---------------
river/ 
CLUBS 3 
/river 

---------------

---------------
inquire/ 
4444 1700 8000 100 check 
7777 2500 8000 100 check 
5555 2500 8000 100 check 
3333 1700 8000 100 check 
8888 1700 8000 100 check 
2222 1700 8000 100 check 
6666 1700 8000 100 check 
1111 1700 8000 100 check 
total pot: 800 
/inquire 

---------------

---------------
showdown/ 
common/ 
SPADES 6 
CLUBS 8 
DIAMONDS 5 
DIAMONDS J 
CLUBS 3 
/common 
7: 7777 CLUBS 10 HEARTS Q HIGH_CARD 
1: 4444 DIAMONDS 7 DIAMONDS 6 ONE_PAIR 
8: 1111 DIAMONDS 9 HEARTS 4 HIGH_CARD 
4: 6666 DIAMONDS A CLUBS K HIGH_CARD 
5: 2222 SPADES A DIAMONDS 4 HIGH_CARD 
6: 8888 SPADES Q SPADES K HIGH_CARD 
3: 3333 HEARTS 7 HEARTS 3 ONE_PAIR 
2: 5555 SPADES 7 HEARTS 5 ONE_PAIR 
/showdown 

---------------

---------------
pot-win/ 
4444: 800 
/pot-win 

---------------

---------------
seat/ 
button: 7777 2500 8000 
small blind: 4444 2500 8000 
big blind: 1111 1700 8000 
6666 1700 8000 
2222 1700 8000 
8888 1700 8000 
3333 1700 8000 
5555 2500 8000 
/seat 

---------------

---------------
blind/ 
4444: 50 
1111: 100 
/blind 

---------------

---------------
hold/ 
DIAMONDS 7 
DIAMONDS 6 
/hold 

---------------

---------------
inquire/ 
4444 2400 8000 100 call 
7777 2400 8000 100 call 
5555 2400 8000 100 call 
3333 1600 8000 100 call 
8888 1600 8000 100 call 
2222 1600 8000 100 call 
6666 1600 8000 100 call 
1111 1600 8000 100 blind 
total pot: 800 
/inquire 

---------------

---------------
flop/ 
SPADES 6 
CLUBS 8 
DIAMONDS 5 
/flop 

---------------

---------------
inquire/ 
4444 2400 8000 100 check 
7777 2400 8000 100 call 
5555 2400 8000 100 call 
3333 1600 8000 100 call 
8888 1600 8000 100 call 
2222 1600 8000 100 call 
6666 1600 8000 100 call 
1111 1600 8000 100 check 
total pot: 800 
/inquire 

---------------

---------------
turn/ 
DIAMONDS J 
/turn 

---------------

---------------
inquire/ 
4444 2400 8000 100 check 
7777 2400 8000 100 check 
5555 2400 8000 100 check 
3333 1600 8000 100 check 
8888 1600 8000 100 check 
2222 1600 8000 100 check 
6666 1600 8000 100 check 
1111 1600 8000 100 check 
total pot: 800 
/inquire 

---------------

---------------
river/ 
CLUBS 3 
/river 

---------------

---------------
inquire/ 
4444 2400 8000 100 check 
7777 2400 8000 100 check 
5555 2400 8000 100 check 
3333 1600 8000 100 check 
8888 1600 8000 100 check 
2222 1600 8000 100 check 
6666 1600 8000 100 check 
1111 1600 8000 100 check 
total pot: 800 
/inquire 

---------------

---------------
showdown/ 
common/ 
SPADES 6 
CLUBS 8 
DIAMONDS 5 
DIAMONDS J 
CLUBS 3 
/common 
7: 4444 CLUBS 10 HEARTS Q HIGH_CARD 
1: 1111 DIAMONDS 7 DIAMONDS 6 ONE_PAIR 
8: 6666 DIAMONDS 9 HEARTS 4 HIGH_CARD 
4: 2222 DIAMONDS A CLUBS K HIGH_CARD 
5: 8888 SPADES A DIAMONDS 4 HIGH_CARD 
6: 3333 SPADES Q SPADES K HIGH_CARD 
3: 5555 HEARTS 7 HEARTS 3 ONE_PAIR 
2: 7777 SPADES 7 HEARTS 5 ONE_PAIR 
/showdown 

---------------

---------------
pot-win/ 
1111: 800 
/pot-win 

---------------

---------------
seat/ 
button: 8888 2000 8000 
small blind: 3333 2000 8000 
big blind: 5555 2000 8000 
7777 2000 8000 
4444 2000 8000 
1111 2000 8000 
6666 2000 8000 
2222 2000 8000 
/seat 

---------------
blind/ 
3333: 50 
5555: 100 
/blind 

---------------

---------------
hold/ 
SPADES 6 
DIAMONDS 2 
/hold 

---------------

---------------
inquire/ 
4444 1900 8000 100 call 
7777 1900 8000 100 call 
5555 1900 8000 100 blind 
3333 1950 8000 50 blind 
total pot: 350 
/inquire 

---------------

---------------
flop/ 
HEARTS Q 
SPADES 7 
CLUBS 8 
/flop 

---------------

---------------
inquire/ 
4444 1900 8000 100 check 
7777 1900 8000 100 check 
5555 1900 8000 100 check 
3333 1900 8000 100 check 
8888 1900 8000 100 call 
2222 1900 8000 100 call 
6666 1900 8000 100 call 
1111 1900 8000 100 call 
total pot: 800 
/inquire 

---------------

---------------
turn/ 
SPADES 8 
/turn 

---------------

---------------
inquire/ 
4444 1900 8000 100 check 
7777 1900 8000 100 check 
5555 1900 8000 100 check 
3333 1900seat/ 
button: 8888 2000 8000 
small blind: 3333 2000 8000 
big blind: 5555 2000 8000 
7777 2000 8000 
4444 2000 8000 
1111 2000 8000 
6666 2000 8000 
2222 2000 8000 
/seat 

---------------
blind/ 
3333: 50 
5555: 100 
/blind 

---------------

---------------
hold/ 
CLUBS 7 
DIAMONDS A 
/hold 

---------------

---------------
inquire/ 
7777 1900 8000 100 call 
5555 1900 8000 100 blind 
3333 1950 8000 50 blind 
total pot: 250 
/inquire 

---------------

---------------
flop/ 
HEARTS Q 
SPADES 7 
CLUBS 8 
/flop 

---------------

---------------
inquire/ 
7777 1900 8000 100 check 
5555 1900 8000 100 check 
3333 1900 8000 100 check 
8888 1900 8000 100 call 
2222 1900 8000 100 call 
6666 1900 8000 100 call 
1111 1900 8000 100 call 
4444 1900 8000 100 call 
total pot: 800 
/inquire 

---------------

---------------
turn/ 
SPADES 8 
/turn 

---------------

---------------
inquire/ 
7777 1900 8000 100 check 
5555 1900 8000 100 check 
3333 1900 8000 100 check 
8888 1900 8000 100 check 
2222 1900 8000 100 check 
6666 1900 8000 100 check 
1111 1900 8000 100 check 
4444 1900 8000 100 check 
total pot: 800 
/inquire 

---------------

---------------
river/ 
CLUBS K 
/river 

---------------

---------------
inquire/ 
7777 1900 8000 100 check 
5555 1900 8000 100 check 
3333 1900 8000 100 check 
8888 1900 8000 100 check 
2222 1900 8000 100 check 
6666 1900 8000 100 check 
1111 1900 8000 100 check 
4444 1900 8000 100 check 
total pot: 800 
/inquire 

---------------

---------------
showdown/ 
common/ 
HEARTS Q 
SPADES 7 
CLUBS 8 
SPADES 8 
CLUBS K 
/common 
6: 3333 DIAMONDS 6 HEARTS 6 TWO_PAIR 
1: 5555 DIAMONDS 8 DIAMONDS 3 THREE_OF_A_KIND 
3: 7777 SPADES Q CLUBS 9 TWO_PAIR 
5: 4444 CLUBS 7 DIAMONDS A TWO_PAIR 
7: 1111 SPADES 6 DIAMONDS 2 ONE_PAIR 
2: 6666 SPADES K HEARTS 10 TWO_PAIR 
4: 2222 CLUBS J SPADES J TWO_PAIR 
3: 8888 DIAMONDS 10 CLUBS Q TWO_PAIR 
/showdown 

---------------

---------------
pot-win/ 
5555: 800 
/pot-win 

---------------

---------------
seat/ 
button: 3333 1900 8000 
small blind: 5555 2700 8000 
big blind: 7777 1900 8000 
4444 1900 8000 
1111 1900 8000 
6666 1900 8000 
2222 1900 8000 
8888 1900 8000 
/seat 

---------------

---------------
blind/ 
5555: 50 
7777: 100 
/blind 

---------------

---------------
hold/ 
SPADES Q 
CLUBS 9 
/hold 

---------------

---------------
inquire/ 
7777 1800 8000 100 blind 
5555 2650 8000 50 blind 
total pot: 150 
/inquire 

---------------

---------------
flop/ 
HEARTS Q 
SPADES 7 
CLUBS 8 
/flop 

---------------

---------------
inquire/ 
7777 1800 8000 100 check 
5555 2600 8000 100 check 
3333 1800 8000 100 call 
8888 1800 8000 100 call 
2222 1800 8000 100 call 
6666 1800 8000 100 call 
1111 1800 8000 100 call 
4444 1800 8000 100 call 
total pot: 800 
/inquire 

---------------

---------------
turn/ 
SPADES 8 
/turn 

---------------

---------------
inquire/ 
7777 1800 8000 100 check 
5555 2600 8000 100 check 
3333 1800 8000 100 check 
8888 1800 8000 100 check 
2222 1800 8000 100 check 
6666 1800 8000 100 check 
1111 1800 8000 100 check 
4444 1800 8000 100 check 
total pot: 800 
/inquire 

---------------

---------------
river/ 
CLUBS K 
/river 

---------------

---------------
inquire/ 
7777 1800 8000 100 check 
5555 2600 8000 100 check 
3333 1800 8000 100 check 
8888 1800 8000 100 check 
2222 1800 8000 100 check 
6666 1800 8000 100 check 
1111 1800 8000 100 check 
4444 1800 8000 100 check 
total pot: 800 
/inquire 

---------------

---------------
showdown/ 
common/ 
HEARTS Q 
SPADES 7 
CLUBS 8 
SPADES 8 
CLUBS K 
/common 
6: 5555 DIAMseat/ 
button: 8888 2000 8000 
small blind: 3333 2000 8000 
big blind: 5555 2000 8000 
7777 2000 8000 
4444 2000 8000 
1111 2000 8000 
6666 2000 8000 
2222 2000 8000 
/seat 

---------------
blind/ 
3333: 50 
5555: 100 
/blind 

---------------

---------------
hold/ 
SPADES Q 
CLUBS 9 
/hold 

---------------

---------------
inquire/ 
5555 1900 8000 100 blind 
3333 1950 8000 50 blind 
total pot: 150 
/inquire 

---------------

---------------
flop/ 
HEARTS Q 
SPADES 7 
CLUBS 8 
/flop 

---------------

---------------
inquire/ 
5555 1900 8000 100 check 
3333 1900 8000 100 check 
8888 1900 8000 100 call 
2222 1900 8000 100 call 
6666 1900 8000 100 call 
1111 1900 8000 100 call 
4444 1900 8000 100 call 
7777 1900 8000 100 call 
total pot: 800 
/inquire 

---------------

---------------
turn/ 
SPADES 8 
/turn 

---------------

---------------
inquire/ 
5555 1900 8000 100 check 
3333 1900 8000 100 check 
8888 1900 8000 100 check 
2222 1900 8000 100 check 
6666 1900 8000 100 check 
1111 1900 8000 100 check 
4444 1900 8000 100 check 
7777 1900 8000 100 check 
total pot: 800 
/inquire 

---------------

---------------
river/ 
CLUBS K 
/river 

---------------

---------------
inquire/ 
5555 1900 8000 100 check 
3333 1900 8000 100 check 
8888 1900 8000 100 check 
2222 1900 8000 100 check 
6666 1900 8000 100 check 
1111 1900 8000 100 check 
4444 1900 8000 100 check 
7777 1900 8000 100 check 
total pot: 800 
/inquire 

---------------

---------------
showdown/ 
common/ 
HEARTS Q 
SPADES 7 
CLUBS 8 
SPADES 8 
CLUBS K 
/common 
6: 3333 DIAMONDS 6 HEARTS 6 TWO_PAIR 
1: 5555 DIAMONDS 8 DIAMONDS 3 THREE_OF_A_KIND 
3: 7777 SPADES Q CLUBS 9 TWO_PAIR 
5: 4444 CLUBS 7 DIAMONDS A TWO_PAIR 
7: 1111 SPADES 6 DIAMONDS 2 ONE_PAIR 
2: 6666 SPADES K HEARTS 10 TWO_PAIR 
4: 2222 CLUBS J SPADES J TWO_PAIR 
3: 8888 DIAMONDS 10 CLUBS Q TWO_PAIR 
/showdown 

---------------

---------------
pot-win/ 
5555: 800 
/pot-win 

---------------

---------------
seat/ 
button: 3333 1900 8000 
small blind: 5555 2700 8000 
big blind: 7777 1900 8000 
4444 1900 8000 
1111 1900 8000 
6666 1900 8000 
2222 190seat/ 
button: 8888 2000 8000 
small blind: 3333 2000 8000 
big blind: 5555 2000 8000 
7777 2000 8000 
4444 2000 8000 
1111 2000 8000 
6666 2000 8000 
2222 2000 8000 
/seat 

---------------
blind/ 
3333: 50 
5555: 100 
/blind 

---------------

---------------
hold/ 
DIAMONDS 10 
CLUBS Q 
/hold 

---------------

---------------
inquire/ 
2222 1900 8000 100 call 
6666 1900 8000 100 call 
1111 1900 8000 100 call 
4444 1900 8000 100 call 
7777 1900 8000 100 call 
5555 1900 8000 100 blind 
3333 1950 8000 50 blind 
total pot: 650 
/inquire 

---------------

---------------
flop/ 
HEARTS Q 
SPADES 7 
CLUBS 8 
/flop 

---------------

---------------
inquire/ 
2222 1900 8000 100 check 
6666 1900 8000 100 check 
1111 1900 8000 100 check 
4444 1900 8000 100 check 
7777 1900 8000 100 check 
5555 1900 8000 100 check 
3333 1900 8000 100 check 
8888 1900 8000 100 call 
total pot: 800 
/inquire 

---------------

---------------
turn/ 
SPADES 8 
/turn 

---------------

---------------
inquire/ 
2222 1900 8000 100 check 
6666 1900 8000 100 check 
1111 1900 8000 100 check 
4444 1900 8000 100 check 
7777 1900 8000 100 check 
5555 1900 8000 100 check 
3333 1900 8000 100 check 
8888 1900 8000 100 check 
total pot: 800 
/inquire 

---------------

---------------
river/ 
CLUBS K 
/river 

---------------

---------------
inquire/ 
2222 1900 8000 100 check 
6666 1900 8000 100 check 
1111 1900 8000 100 check 
4444 1900 8000 100 check 
7777 1900 8000 100 check 
5555 1900 8000 100 check 
3333 1900 8000 100 check 
8888 1900 8000 100 check 
total pot: 800 
/inquire 

---------------

---------------
showdown/ 
common/ 
HEARTS Q 
SPADES 7 
CLUBS 8 
SPADES 8 
CLUBS K 
/common 
6: 3333 DIAMONDS 6 HEARTS 6 TWO_PAIR 
1: 5555 DIAMONDS 8 DIAMONDS 3 THREE_OF_A_KIND 
3: 7777 SPADES Q CLUBS 9 TWO_PAIR 
5: 4444 CLUBS 7 DIAMONDS A TWO_PAIR 
7: 1111 SPADES 6 DIAMONDS 2 ONE_PAIR 
2: 6666 SPADES K HEARTS 10 TWO_PAIR 
4: 2222 CLUBS J SPADES J TWO_PAIR 
3: 8888 DIAMONDS 10 CLUBS Q TWO_PAIR 
/showdown 

---------------

---------------
pot-win/ 
5555: 800 
/pot-win 

---------------

---------------
seat/ 
button: 3333 1900 8000 
small blind: 5555 2700 8000 
big blind: 7777 1900 8000 
4444 1900 8000 
1111 1900 8000 
6666 1900 8000 
2222 1900 8000 
8888 1900 8000 
/seat 

---------------

---------------
blind/ 
5555: 50 
7777: 100 
/blind 

---------------

---------------
hold/ 
CLUBS J 
SPADES J 
/hold 

---------------

---------------
inquire/ 
2222 1800 8000 100 call 
6666 1800 8000 100 call 
1111 1800 8000 100 call 
4444 1800 8000 100 call 
7777 1800 8000 100 blind 
5555 2650 8000 50 blind 
total pot: 550 
/inquire 

---------------

---------------
flop/ 
HEARTS Q 
SPADES 7 
CLUBS 8 
/flop 

---------------

---------------
inquire/ 
2222 1800 8000 100 check 
6666 1800 8000 100 check 
1111 1800 8000 100 check 
4444 1800 8000 100 check 
7777 1800 8000 100 check 
5555 2600 8000 100 check 
3333 1800 8000 100 call 
8888 1800 8000 100 call 
total pot: 800 
/inquire 

---------------

---------------
turn/ 
SPADES 8 
/turn 

---------------

---------------
inquire/ 
2222 1800 8000 100 check 
6666 1800 8000 100 check 
1111 1800 8000 100 check 
4444 1800 8000 100 check 
7777 1800 8000 100 check 
5555 2600 8000 100 check 
3333 1800 8000 100 check 
8888 1800 8000 100 check 
total pot: 800 
/inquire 

---------------

---------------
river/ 
CLUBS K 
/river 

---------------

---------------
inquire/ 
2222 1800 8000 100 check 
6666 1800 8000 100 check 
1111 1800 8000 100 check 
4444 1800 8000 100 check 
7777 1800 8000 100 check 
5555 2600 8000 100 check 
3333 1800 8000 100 check 
8888 1800 8000 100 check 
total pot: 800 
/inquire 

---------------

---------------
showdown/ 
common/ 
HEARTS Q 
SPADES 7 
CLUBS 8 
SPADES 8 
CLUBS K 
/common 
6: 5555 DIAMONDS 6 HEARTS 6 TWO_PAIR 
1: 7777 DIAMONDS 8 DIAMONDS 3 THREE_OF_A_KIND 
3: 4444 SPADES Q CLUBS 9 TWO_PAIR 
5: 1111 CLUBS 7 DIAMONDS A TWO_PAIR 
7: 6666 SPADES 6 DIAMONDS 2 ONE_PAIR 
2: 2222 SPADES K HEARTS 10 TWO_PAIR 
4: 8888 CLUBS J SPADES J TWO_PAIR 
3: 3333 DIAMONDS 10 CLUBS Q TWO_PAIR 
/showdown 

---------------

---------------
pot-win/ 
7777: 800 
/pot-win 

---------------

---------------
seat/ 
button: 5555 2600 8000 
small blind: 7777 2600 8000 
big blind: 4444 1800 8000 
1111 1800 8000 
6666 1800 8000 
2222 1800 8000 
8888 1800 8000 
3333 1800 8000 
/seat 

---------------

---------------
blind/ 
7777: 50 
4444: 100 
/blind 

---------------

---------------
hold/ 
SPADES Q 
SPADES K 
/hold 

---------------

---------------
inquire/ 
2222 1700 8000 100 call 
6666 1700 8000 100 call 
1111 1700 8000 100 call 
4444 1700 8000 100 blind 
7777 2550 8000 50 blind 
total pot: 450 
/inquire 

---------------

---------------
flop/ 
SPADES 6 
CLUBS 8 
DIAMONDS 5 
/flop 

---------------

---------------
inquire/ 
2222 1700 8000 100 check 
6666 1700 8000 100 check 
1111 1700 8000 100 check 
4444 1700 8000 100 check 
7777 2500 8000 100 check 
5555 2500 8000 100 call 
3333 1700 8000 100 call 
8888 1700 8000 100 call 
total pot: 800 
/inquire 

---------------

---------------
turn/ 
DIAMONDS J 
/turn 

---------------

---------------
inquire/ 
2222 1700 8000 100 check 
6666 1700 8000 100 check 
1111 1700 8000 100 check 
4444 1700 8000 100 check 
7777 2500 8000 100 check 
5555 2500 8000 100 check 
3333 1700 8000 100 check 
8888 1700 8000 100 check 
total pot: 800 
/inquire 

---------------

---------------
river/ 
CLUBS 3 
/river 

---------------

---------------
inquire/ 
2222 1700 8000 100 check 
6666 1700 8000 100 check 
1111 1700 8000 100 check 
4444 1700 8000 100 check 
7777 2500 8000 100 check 
5555 2500 8000 100 check 
3333 1700 8000 100 check 
8888 1700 8000 100 check 
total pot: 800 
/inquire 

---------------

---------------
showdown/ 
common/ 
SPADES 6 
CLUBS 8 
DIAMONDS 5 
DIAMONDS J 
CLUBS 3 
/common 
7: 7777 CLUBS 10 HEARTS Q HIGH_CARD 
1: 4444 DIAMONDS 7 DIAMONDS 6 ONE_PAIR 
8: 1111 DIAMONDS 9 HEARTS 4 HIGH_CARD 
4: 6666 DIAMONDS A CLUBS K HIGH_CARD 
5: 2222 SPADES A DIAMONDS 4 HIGH_CARD 
6: 8888 SPADES Q SPADES K HIGH_CARD 
3: 3333 HEARTS 7 HEARTS 3 ONE_PAIR 
2: 5555 SPADES 7 HEARTS 5 ONE_PAIR 
/showdown 

---------------

---------------
pot-win/ 
4444: 800 
/pot-win 

---------------

---------------
seat/ 
button: 7777 2500 8000 
small blind: 4444 2500 8000 
big blind: 1111 1700 8000 
6666 1700 8000 
2222 1700 8000 
8888 1700 8000 
3333 1700 8000 
5555 2500 8000 
/seat 

---------------

---------------
blind/ 
4444: 50 
1111: 100 
/blind 

---------------

---------------
hold/ 
SPADES A 
DIAMONDS 4 
/hold 

---------------

---------------
inquire/ 
2222 1600 8000 100 call 
6666 1600 8000 100 call 
1111 1600 8000 100 blind 
4444 2450 8000 50 blind 
total pot: 350 
/inquire 

---------------

---------------
flop/ 
SPADES 6 
CLUBS 8 
DIAMONDS 5 
/flop 

---------------

---------------
inquire/ 
2222 1600 8000 100 check 
6666 1600 8000 100 check 
1111 1600 8000 100 check 
4444 2400 8000 100 check 
7777 2400 8000 100 call 
5555 2400 8000 100 call 
3333 1600 8000 100 call 
8888 1600 8000 100 call 
total pot: 800 
/inquire 

---------------

---------------
turn/ 
DIAMONDS J 
/turn 

---------------

---------------
inquire/ 
2222 1600 8000 100 check 
6666 1600 8000 100 check 
1111 1600 8000 100 check 
4444 2400 8000 100 check 
7777 2400 8000 100 check 
5555 2400 8000 100 check 
3333 1600 8000 100 check 
8888 1600 8000 100 check 
total pot: 800 
/inquire 

---------------

---------------
river/ 
CLUBS 3 
/river 

---------------

---------------
inquire/ 
2222 1600 8000 100 check 
6666 1600 8000 100 check 
1111 1600 8000 100 check 
4444 2400 8000 100 check 
7777 2400 8000 100 check 
5555 2400 8000 100 check 
3333 1600 8000 100 check 
8888 1600 8000 100 check 
total pot: 800 
/inquire 

---------------

---------------
showdown/ 
common/ 
SPADES 6 
CLUBS 8 
DIAMONDS 5 
DIAMONDS J 
CLUBS 3 
/common 
7: 4444 CLUBS 10 HEARTS Q HIGH_CARD 
1: 1111 DIAMONDS 7 DIAMONDS 6 ONE_PAIR 
8: 6666 DIAMONDS 9 HEARTS 4 HIGH_CARD 
4: 2222 DIAMONDS A CLUBS K HIGH_CARD 
5: 8888 SPADES A DIAMONDS 4 HIGH_CARD 
6: 3333 SPADES Q SPADES K HIGH_CARD 
3: 5555 HEARTS 7 HEARTS 3 ONE_PAIR 
2: 7777 SPADES 7 HEARTS 5 ONE_PAIR 
/showdown 

---------------

---------------
pot-win/ 
1111: 800 
/pot-win 

---------------

---------------
seat/ 
button: 4444 2400 8000 
small blind: 1111 2400 8000 
big blind: 6666 1600 8000 
2222 1600 8000 
8888 1600 8000 
3333 1600 8000 
5555 2400 8000 
7777 2400 8000 
/seat 

---------------
blind/ 
1111: 50 
6666: 100 
/blind 

---------------

---------------
seat/ 
button: 8888 2000 8000 
small blind: 3333 2000 8000 
big blind: 5555 2000 8000 
7777 2000 8000 
4444 2000 8000 
1111 2000 8000 
6666 2000 8000 
2222 2000 8000 
/seat 

---------------
blind/ 
3333: 50 
5555: 100 
/blind 

---------------

---------------
hold/ 
DIAMONDS 10 
CLUBS Q 
/hold 

---------------

---------------
inquire/ 
2222 1900 8000 100 call 
6666 1900 8000 100 call 
1111 1900 8000 100 call 
4444 1900 8000 100 call 
7777 1900 8000 100 call 
5555 1900 8000 100 blind 
3333 1950 8000 50 blind 
total pot: 650 
/inquire 

---------------

---------------
flop/ 
HEARTS Q 
SPADES 7 
CLUBS 8 
/flop 

---------------

---------------
inquire/ 
2222 1900 8000 100 check 
6666 1900 8000 100 check 
1111 1900 8000 100 check 
4444 1900 8000 100 check 
7777 1900 8000 100 check 
5555 1900 8000 100 check 
3333 1900 8000 100 check 
8888 1900 8000 100 call 
total pot: 800 
/inquire 

---------------

---------------
turn/ 
SPADES 8 
/turn 

---------------

---------------
inquire/ 
2222 1900 8000 100 check 
6666 1900 8000 100 check 
1111 1900 8000 100 check 
4444 1900 8000 100 check 
7777 1900 8000 100 check 
5555 1900 8000 100 check 
3333 1900 8000 100 check 
8888 1900 8000 100 check 
total pot: 800 
/inquire 

---------------

---------------
river/ 
CLUBS K 
/river 

---------------

---------------
inquire/ 
2222 1900 8000 100 check 
6666 1900 8000 100 check 
1111 1900 8000 100 check 
4444 1900 8000 100 check 
7777 1900 8000 100 check 
5555 1900 8000 100 check 
3333 1900 8000 100 check 
8888 1900 8000 100 check 
total pot: 800 
/inquire 

---------------

---------------
showdown/ 
common/ 
HEARTS Q 
SPADES 7 
CLUBS 8 
SPADES 8 
CLUBS K 
/common 
6: 3333 DIAMONDS 6 HEARTS 6 TWO_PAIR 
1: 5555 DIAMONDS 8 DIAMONDS 3 THREE_OF_A_KIND 
3: 7777 SPADES Q CLUBS 9 TWO_PAIR 
5: 4444 CLUBS 7 DIAMONDS A TWO_PAIR 
7: 1111 SPADES 6 DIAMONDS 2 ONE_PAIR 
2: 6666 SPADES K HEARTS 10 TWO_PAIR 
4: 2222 CLUBS J SPADES J TWO_PAIR 
3: 8888 DIAMONDS 10 CLUBS Q TWO_PAIR 
/showdown 

---------------

---------------
pot-win/ 
5555: 800 
/pot-win 

---------------

---------------
seat/ 
button: 3333 1900 8000 
small blind: 5555 2700 8000 
big blind: 7777 1900 8000 
4444 1900 8000 
1111 1900 8000 
6666 1900 8000 
2222 1900 8000 
8888 1900 8000 
/seat 

---------------

---------------
blind/ 
5555: 50 
7777: 100 
/blind 

---------------

---------------
hold/ 
CLUBS J 
SPADES J 
/hold 

---------------

---------------
inquire/ 
2222 1800 8000 100 call 
6666 1800 8000 100 call 
1111 1800 8000 100 call 
4444 1800 8000 100 call 
7777 1800 8000 100 blind 
5555 2650 8000 50 blind 
total pot: 550 
/inquseat/ 
button: 8888 2000 8000 
small blind: 3333 2000 8000 
big blind: 5555 2000 8000 
7777 2000 8000 
4444 2000 8000 
1111 2000 8000 
seat/ 
button: 8888 2000 8000 
small blind: 3333 2000 8000 
big blind: 5555 2000 8000 
7777 2000 8000 
4444 2000 8000 
1111 2000 8000 
6666 2000 8000 
2222 2000 8000 
/seat 

---------------
blind/ 
3333: 50 
5555: 100 
/blind 

---------------

---------------
hold/ 
CLUBS 7 
DIAMONDS A 
/hold 

---------------

---------------
inquire/ 
7777 1900 8000 100 call 
5555 1900 8000 100 blind 
3333 1950 8000 50 blind 
total pot: 250 
/inquire 

---------------

---------------
flop/ 
HEARTS Q 
SPADES 7 
CLUBS 8 
/flop 

---------------

---------------
inquire/ 
7777 1900 8000 100 check 
5555 1900 8000 100 check 
3333 1900 8000 100 check 
8888 1900 8000 100 call 
2222 1900 8000 100 call 
6666 1900 8000 100 call 
1111 1900 8000 100 call 
4444 1900 8000 100 call 
total pot: 800 
/inquire 

---------------

---------------
turn/ 
SPADES 8 
/turn 

---------------

---------------
inquire/ 
7777 1900 8000 100 check 
5555 1900 8000 100 check 
3333 1900 8000 100 check 
8888 1900 8000 100 check 
2222 1900 8000 100 check 
6666 1900 8000 100 check 
1111 1900 8000 100 check 
4444 1900 8000 100 check 
total pot: 800 
/inquire 

---------------

---------------
river/ 
CLUBS K 
/river 

---------------

---------------
inquire/ 
7777 1900 8000 100 check 
5555 1900 8000 100 check 
3333 1900 8000 100 check 
8888 1900 8000 100 check 
2222 1900 8000 100 check 
6666 1900 8000 100 check 
1111 1900 8000 100 check 
4444 1900 8000 100 check 
total pot: 800 
/inquire 

---------------

---------------
showdown/ 
common/ 
HEARTS Q 
SPADES 7 
CLUBS 8 
SPADES 8 
CLUBS K 
/common 
6: 3333 DIAMONDS 6 HEARTS 6 TWO_PAIR 
1: 5555 DIAMONDS 8 DIAMONDS 3 THREE_OF_A_KIND 
3: 7777 SPADES Q CLUBS 9 TWO_PAIR 
5: 4444 CLUBS 7 DIAMONDS A TWO_PAIR 
7: 1111 SPADES 6 DIAMONDS 2 ONE_PAIR 
2: 6666 SPADES K HEARTS 10 TWO_PAIR 
4: 2222 CLUBS J SPADES J TWO_PAIR 
3: 8888 DIAMONDS 10 CLUBS Q TWO_PAIR 
/showdown 

---------------

---------------
pot-win/ 
5555: 800 
/pot-win 

---------------

---------------
seat/ 
button: 3333 1900 8000 
small blind: 5555 2700 8000 
big blind: 7777 1900 8000 
4444 1900 8000 
1111 1900 8000 
6666 1900 8000 
2222 1900 8000 
8888 1900 8000 
/seat 

---------------

---------------
blind/ 
5555: 50 
7777: 100 
/blind 

---------------

---------------
hold/ 
SPADES Q 
CLUBS 9 
/hold 

---------------

---------------
inquire/ 
7777 1800 8000 100 blind 
5555 2650 8000 50 blind 
total pot: 150 
/inquire 

---------------

---------------
flop/ 
HEARTS Q 
SPADES 7 
CLUBS 8 
/flop 

---------------

---------------
inquire/ 
7777 1800 8000 100 check 
5555 2600 8000 100 check 
3333 1800 8000 100 call 
8888 1800 8000 100 call 
2222 1800 8000 100 call 
6666 1800 8000 100 call 
1111 1800 8000 100 call 
4444 1800 8000 100 call 
total pot: 800 
/inquire 

---------------

---------------
turn/ 
SPADES 8 
/turn 

---------------

---------------
inquire/ 
7777 1800 8000 100 check 
5555 2600 8000 100 check 
3333 1800 8000 100 check 
8888 1800 8000 100 check 
2222 1800 8000 100 check 
6666 1800 8000 100 check 
1111 1800 8000 100 check 
4444 1800 8000 100 check 
total pot: 800 
/inquire 

---------------

---------------
river/ 
CLUBS K 
/river 

---------------

---------------
inquire/ 
7777 1800 8000 100 check 
5555 2600 8000 100 check 
3333 1800 8000 100 check 
8888 1800 8000 100 check 
2222 1800 8000 100 check 
6666 1800 8000 100 check 
1111 1800 8000 100 check 
4444 1800 8000 100 check 
total pot: 800 
/inquire 

---------------

---------------
showdown/ 
common/ 
HEARTS Q 
SPADES 7 
CLUBS 8 
SPADES 8 
CLUBS K 
/common 
6: 5555 DIAMONDS 6 HEARTS 6 TWO_PAIR 
1: 7777 DIAMONDS 8 DIAMONDS 3 THREE_OF_A_KIND 
3: 4444 SPADES Q CLUBS 9 TWO_PAIR 
5: 1111 CLUBS 7 DIAMONDS A TWO_PAIR 
7: 6666 SPADES 6 DIAMONDS 2 ONE_PAIR 
2: 2222 SPADES K HEARTS 10 TWO_PAIR 
4: 8888 CLUBS J SPADES J TWO_PAIR 
3: 3333 DIAMONDS 10 CLUBS Q TWO_PAIR 
/showdown 

---------------

---------------
pot-win/ 
7777: 800 
/pot-win 

---------------

---------------
seat/ 
button: 5555 2600 8000 
small blind: 7777 2600 8000 
big blind: 4444 1800 8000 
1111 1800 8000 
6666 1800 8000 
2222 1800 8000 
8888 1800 8000 
3333 1800 8000 
/seat 

---------------

---------------
blind/ 
7777: 50 
4444: 100 
/blind 

---------------

---------------
hold/ 
DIAMONDS 7 
DIAMONDS 6 
/hold 

---------------

---------------
inquire/ 
7777 2500 8000 100 call 
5555 2500 8000 100 call 
3333 1700 8000 100 call 
8888 1700 8000 100 call 
2222 1700 8000 100 call 
6666 1700 8000 100 call 
1111 1700 8000 100 call 
4444 1700 8000 100 blind 
total pot: 800 
/inquire 

---------------

---------------
flop/ 
SPADES 6 
CLUBS 8 
DIAMONDS 5 
/flop 

---------------

---------------
inquire/ 
7777 2500 8000 100 check 
5555 2500 8000 100 call 
3333 1700 8000 100 call 
8888 1700 8000 100 call 
2222 1700 8000 100 call 
6666 1700 8000 100 call 
1111 1700 8000 100 call 
4444 1700 8000 100 check 
total pot: 800 
/inquire 

---------------

---------------
turn/ 
DIAMONDS J 
/turn 

---------------

---------------
inquire/ 
7777 2500 8000 100 check 
5555 2500 8000 100 check 
3333 1700 8000 100 check 
8888 1700 8000 100 check 
2222 1700 8000 100 check 
6666 1700 8000 100 check 
1111 1700 8000 100 check 
4444 1700 8000 100 check 
total pot: 800 
/inquire 

---------------

---------------
river/ 
CLUBS 3 
/river 

---------------

---------------
inquire/ 
7777 2500 8000 100 check 
5555 2500 8000 100 check 
3333 1700 8000 100 check 
8888 1700 8000 100 check 
2222 1700 8000 100 check 
6666 1700 8000 100 check 
1111 1700 8000 100 check 
4444 1700 8000 100 check 
total pot: 800 
/inquire 

---------------

---------------
showdown/ 
common/ 
SPADES 6 
CLUBS 8 
DIAMONDS 5 
DIAMONDS J 
CLUBS 3 
/common 
7: 7777 CLUBS 10 HEARTS Q HIGH_CARD 
1: 4444 DIAMONDS 7 DIAMONDS 6 ONE_PAIR 
8: 1111 DIAMONDS 9 HEARTS 4 HIGH_CARD 
4: 6666 DIAMONDS A CLUBS K HIGH_CARD 
5: seat/ 
button: 8888 2000 8000 
small blind: 3333 2000 8000 
big blind: 5555 2000 8000 
7777 2000 8000 
4444 2000 8000 
1111 2000 8000 
6666 2000 8000 
2222 2000 8000 
/seat 

---------------
blind/ 
3333: 50 
5555: 100 
/blind 

---------------

---------------
hold/ 
DIAMONDS 10 
CLUBS Q 
/hold 

---------------

---------------
inquire/ 
2222 1900 8000 100 call 
6666 1900 8000 100 call 
1111 1900 8000 100 call 
4444 1900 8000 100 call 
7777 1900 8000 100 call 
5555 1900 8000 100 blind 
3333 1950 8000 50 blind 
total pot: 650 
/inquire 

---------------

---------------
flop/ 
HEARTS Q 
SPADES 7 
CLUBS 8 
/flop 

---------------

---------------
inquire/ 
2222 1900 8000 100 check 
6666 1900 8000 100 check 
1111 1900 8000 100 check 
4444 1900 8000 100 check 
7777 1900 8000 100 check 
5555 1900 8000 100 check 
3333 1900 8000 100 check 
8888 1900 8000 100 call 
total pot: 800 
/inquire 

---------------

---------------
turn/ 
SPADES 8 
/turn 

---------------

---------------
inquire/ 
2222 1900 8000 100 check 
6666 1900 8000 100 check 
1111 1900 8000 100 check 
4444 1900 8000 100 check 
7777 1900 8000 100 check 
5555 1900 8000 100 check 
3333 1900 8000 100 check 
8888 1900 8000 100 check 
total pot: 800 
/inquire 

---------------

---------------
river/ 
CLUBS K 
/river 

---------------

---------------
inquire/ 
2222 1900 8000 100 check 
6666 1900 8000 100 check 
1111 1900 8000 100 check 
4444 1900 8000 100 check 
7777 1900 80seat/ 
button: 8888 2000 8000 
small blind: 3333 2000 8000 
big blind: 5555 2000 8000 
7777 2000 8000 
4444 2000 8000 
1111 2000 8000 
6666 2000 8000 
2222 2000 8000 
/seat 

---------------
blind/ 
3333: 50 
5555: 100 
/blind 

---------------

---------------
hold/ 
SPADES 6 
DIAMONDS 2 
/hold 

---------------

---------------
inquire/ 
4444 1900 8000 100 call 
7777 1900 8000 100 call 
5555 1900 8000 100 blind 
3333 1950 8000 50 blind 
total pot: 350 
/inquire 

---------------

---------------
flop/ 
HEARTS Q 
SPADES 7 
CLUBS 8 
/flop 

---------------

---------------
inquire/ 
4444 1900 8000 100 check 
7777 1900 8000 100 check 
5555 1900 8000 100 check 
3333 1900 8000 100 check 
8888 1900 8000 100 call 
2222 1900 8000 100 call 
6666 1900 8000 100 call 
1111 1900 8000 100 call 
total pot: 800 
/inquire 

---------------

---------------
turn/ 
SPADES 8 
/turn 

---------------

---------------
inquire/ 
4444 1900 8000 100 chseat/ 
button: 8888 2000 8000 
small blind: 3333 2000 8000 
big blind: 5555 2000 8000 
7777 2000 8000 
4444 2000 8000 
1111 2000 8000 
6666 2000 8000 
2222 2000 8000 
/seat 

---------------
blind/ 
3333: 50 
5555: 100 
/blind 

---------------

---------------
hold/ 
SPADES K 
HEARTS 10 
/hold 

---------------

---------------
inquire/ 
1111 1900 8000 100 call 
4444 1900 8000 100 call 
7777 1900 8000 100 call 
5555 1900 8000 100 blind 
3333 1950 8000 50 blind 
total pot: 450 
/inquire 

---------------

---------------
flop/ 
HEARTS Q 
SPADES 7 
CLUBS 8 
/flop 

---------------

---------------
inquire/ 
1111 1900 8000 100 check 
4444 1900 8000 100 check 
7777 1900 8000 100 check 
5555 1900 8000 100 check 
3333 1900 8000 100 check 
8888 1900 8000 100 call 
2222 1900 8000 100 call 
6666 1900 8000 100 call 
total pot: 800 
/inquire 

---------------

---------------
turn/ 
SPADES 8 
/turn 

---------------

---------------
inquire/ 
1111 1900 8000 100 check 
4444 1900 8000 100 check 
7777 1900 8000 100 check 
5555 1900 8000 100 check 
3333 1900 8000 100 check 
8888 1900 8000 100 check 
2222 1900 8000 100 check 
6666 1900 8000 100 check 
total pot: 800 
/inquire 

---------------

---------------
river/ 
CLUBS K 
/river 

---------------

---------------
inquire/ 
1111 1900 8000 100 check 
4444 1900 8000 100 check 
7777 1900 8000 100 check 
5555 1900 8000 100 check 
3333 1900 8000 100 check 
8888 1900 8000 100 check 
2222 1900 8000 100 check 
6666 1900 8000 100 check 
total pot: 800 
/inquire 

---------------

---------------
showdown/ 
common/ 
HEARTS Q 
SPADES 7 
CLUBS 8 
SPADES 8 
CLUBS K 
/common 
6: 3333 DIAMONDS 6 HEARTS 6 TWO_PAIR 
1: 5555 DIAMONDS 8 DIAMONDS 3 THREE_OF_A_KIND 
3: 7777 SPADES Q CLUBS 9 TWO_PAIR 
5: 4444 CLUBS 7 DIAMONDS A TWO_PAIR 
7: 1111 SPADES 6 DIAMONDS 2 ONE_PAIR 
2: 6666 SPADES K HEARTS 10 TWO_PAIR 
4: 2222 CLUBS J SPADES J TWO_PAIR 
3: 8888 DIAMONDS 10 CLUBS Q TWO_PAIR 
/showdown 

---------------

---------------
pot-win/ 
5555: 800 
/pot-win 

---------------

---------------
seat/ 
button: 3333 1900 8000 
small blind: 5555 2700 8000 
big blind: 7777 1900 8000 
4444 1900 8000 
1111 1900 8000 
6666 1900 8000 
2222 1900 8000 
8888 1900 8000 
/seat 

---------------

---------------
blind/ 
5555: 50 
7777: 100 
/blind 

---------------

---------------
hold/ 
SPADES 6 
DIAMONDS 2 
/hold 

---------------

---------------
inquire/ 
1111 1800 8000 100 call 
4444 1800 8000 100 call 
7777 1800 8000 100 blind 
5555 2650 8000 50 blind 
total pot: 350 
/inquire 

---------------

---------------
flop/ 
HEARTS Q 
SPADES 7 
CLUBS 8 
/flop 

---------------

---------------
inquire/ 
1111 1800 8000 100 check 
4444 1800 8000 100 check 
7777 1800 8000 100 check 
5555 2600 8000 100 check 
3333 1800 8000 100 call 
8888 1800 8000 100 call 
2222 1800 8000 100 call 
6666 1800 8000 100 call 
total pot: 800 
/inquire 

---------------

---------------
turn/ 
SPADES 8 
/turn 

---------------

---------------
inquire/ 
1111 1800 8000 100 check 
4444 1800 8000 100 check 
7777 1800 8000 100 check 
5555 2600 8000 100 check 
3333 1800 8000 100 check 
8888 1800 8000 100 check 
2222 1800 8000 100 check 
6666 1800 8000 100 check 
total pot: 800 
/inquire 

---------------

---------------
river/ 
CLUBS K 
/river 

---------------

---------------
inquire/ 
1111 1800 8000 100 check 
4444 1800 8000 100 check 
7777 1800 8000 100 check 
5555 2600 8000 100 check 
3333 1800 8000 100 check 
8888 1800 8000 100 check 
2222 1800 8000 100 check 
6666 1800 8000 100 check 
total pot: 800 
/inquire 

---------------

---------------
showdown/ 
common/ 
HEARTS Q 
SPADES 7 
CLUBS 8 
SPADES 8 
CLUBS K 
/common 
6: 5555 DIAMONDS 6 HEARTS 6 TWO_PAIR 
1: 7777 DIAMONDS 8 DIAMONDS 3 THREE_OF_A_KIND 
3: 4444 SPADES Q CLUBS 9 TWO_PAIR 
5: 1111 CLUBS 7 DIAMONDS A TWO_PAIR 
7: 6666 SPADES 6 DIAMONDS 2 ONE_PAIR 
2: 2222 SPADES K HEARTS 10 TWO_PAIR 
4: 8888 CLUBS J SPADES J TWO_PAIR 
3: 3333 DIAMONDS 10 CLUBS Q TWO_PAIR 
/showdown 

---------------

---------------
pot-win/ 
7777: 800 
/pot-win 

---------------

---------------
seat/ 
button: 5555 2600 8000 
small blind: 7777 2600 8000 
big blind: 4444 1800 8000 
1111 1800 8000 
6666 1800 8000 
2222 1800 8000 
8888 1800 8000 
3333 1800 8000 
/seat 

---------------

---------------
blind/ 
7777: 50 
4444: 100 
/blind 

---------------

---------------
hold/ 
DIAMONDS A 
CLUBS K 
/hold 

---------------

---------------
inquire/ 
1111 1700 8000 100 call 
4444 1700 8000 100 blind 
7777 2550 8000 50 blind 
total pot: 250 
/inquire 

---------------

---------------
flop/ 
SPADES 6 
CLUBS 8 
DIAMONDS 5 
/flop 

---------------

---------------
inquire/ 
1111 1700 8000 100 check 
4444 1700 8000 100 check 
7777 2500 8000 100 check 
5555 2500 8000 100 call 
3333 1700 8000 100 call 
8888 1700 8000 100 call 
2222 1700 8000 100 call 
6666 1700 8000 100 call 
total pot: 800 
/inquire 

---------------

---------------
turn/ 
DIAMONDS J 
/turn 

---------------

---------------
inquire/ 
1111 1700 8000 100 check 
4444 1700 8000 100 check 
7777 2500 8000 100 check 
5555 2500 8000 100 check 
3333 1700 8000 100 check 
8888 1700 8000 100 check 
2222 1700 8000 100 check 
6666 1700 8000 100 check 
total pot: 800 
/inquire 

---------------

---------------
river/ 
CLUBS 3 
/river 

---------------

---------------
inquire/ 
1111 1700 8000 100 check 
4444 1700 8000 100 check 
7777 2500 8000 100 check 
5555 2500 8000 100 check 
3333 1700 8000 100 check 
8888 1700 8000 100 check 
2222 1700 8000 100 check 
6666 1700 8000 100 check 
total pot: 800 
/inquire 

---------------

---------------
showdown/ 
common/ 
SPADES 6 
CLUBS 8 
DIAMONDS 5 
DIAMONDS J 
CLUBS 3 
/common 
7: 7777 CLUBS 10 HEARTS Q HIGH_CARD 
1: 4444 DIAMONDS 7 DIAMONDS 6 ONE_PAIR 
8: 1111 DIAMONDS 9 HEARTS 4 HIGH_CARD 
4: 6666 DIAMONDS A CLUBS K HIGH_CARD 
5: 2222 SPADES A DIAMONDS 4 HIGH_CARD 
6: 8888 SPADES Q SPADES K HIGH_CARD 
3: 3333 HEARTS 7 HEARTS 3 ONE_PAIR 
2: 5555 SPADES 7 HEARTS 5 ONE_PAIR 
/showdown 

---------------

---------------
pot-win/ 
4444: 800 
/pot-win 

---------------

---------------
seat/ 
button: 7777 2500 8000 
small blind: 4444 2500 8000 
big blind: 1111 1700 8000 
6666 1700 8000 
2222 1700 8000 
8888 1700 8000 
3333 1700 8000 
5555 2500 8000 
/seat 

---------------

---------------
blind/ 
4444: 50 
1111: 100 
/blind 

---------------

------------seat/ 
button: 8888 2000 8000 
small blind: 3333 2000 8000 
big blind: 5555 2000 8000 
7777 2000 8000 
4444 2000 8000 
1111 2000 8000 
6666 2000 8000 
2222 2000 8000 
/seat 

---------------
blind/ 
3333: 50 
5555: 100 
/blind 

---------------

---------------
hold/ 
DIAMONDS 10 
CLUBS Q 
/hold 

---------------

---------------
inquire/ 
2222 1900 8000 100 call 
6666 1900 8000 100 call 
1111 1900 8000 100 call 
4444 1900 8000 100 call 
7777 1900 8000 100 call 
5555 1900 8000 100 blind 
3333 1950 8000 50 blind 
total pot: 650 
/inquire 

---------------

---------------
flop/ 
HEARTS Q 
SPADES 7 
CLUBS 8 
/flop 

---------------

---------------
inquire/ 
2222 1900 8000 100 check 
6666 1900 8000 100 check 
1111 1900 8000 100 check 
4444 1900 8000 100 check 
7777 1900 8000 100 check 
5555 1900 8000 100 check 
3333 1900 8000 100 check 
8888 1900 8000 100 call 
total pot: 800 
/inquire 

---------------

---------------
turn/ 
SPADES 8 
/turn 

---------------

---------------
inquire/ 
2222 1900 8000 100 check 
6666 1900 8000 100 check 
1111 1900 8000 100 check 
4444 1900 8000 100 check 
7777 1900 8000 100 check 
5555 1900 8000 100 check 
3333 1900 8000 100 check 
8888 1900 8000 100 check 
total pot: 800 
/inquire 

---------------

---------------
river/ 
CLUBS K 
/river 

---------------

---------------
inquire/ 
2222 1900 8000 100 check 
6666 1900 8000 100 check 
1111 1900 8000 100 check 
4444 1900 8000 100 check 
7777 1900 8000 100 check 
5555 1900 8000 100 check 
3333 1900 8000 100 check 
8888 1900 8000 100 check 
total pot: 800 
/inquire 

---------------

---------------
showdown/ 
common/ 
HEARTS Q 
SPADES 7 
CLUBS 8 
SPADES 8 
CLUBS K 
/common 
6: 3333 DIAMONDS 6 HEARTS 6 TWO_PAIR 
1: 5555 DIAMONDS 8 DIAMONDS 3 THREE_OF_A_KIND 
3: 7777 SPADES Q CLUBS 9 TWO_PAIR 
5: 4444 CLUBS 7 DIAMONDS A TWO_PAIR 
7: 1111 SPADES 6 DIAMONDS 2 ONE_PAIR 
2: 6666 SPADES K HEARTS 10 TWO_PAIR 
4: 2222 CLUBS J SPADES J TWO_PAIR 
3: 8888 DIAMONDS 10 CLUBS Q TWO_PAIR 
/showdown 

---------------

---------------
pot-win/ 
5555: 800 
/pot-win 

---------------

---------------
seat/ 
button: 3333 1900 8000 
small blind: 5555 2700 8000 
big blind: 7777 1900 8000 
4444 1900 8000 
1111 1900 8000 
6666 1900 8000 
2222 1900 8000 
8888 1900 8000 
/seat 

---------------

---------------
blind/ 
5555: 50 
7777: 100 
/blind 

---------------

---------------
hold/ 
CLUBS J 
SPADES J 
/hold 

---------------

---------------
inquire/ 
2222 1800 8000 100 call 
6666 1800 8000 100 call 
1111 1800 8000 100 call 
4444 1800 8000 100 call 
7777 1800 8000 100 blind 
5555 2650 8000 50 blind 
total pot: 550 
/inquire 

---------------

---------------
flop/ 
HEARTS Q 
SPADES 7 
CLUBS 8 
/flop 

---------------

---------------
inquire/ 
2222 1800 8000 100 check 
6666 1800 8000 100 check 
1111 1800 800seat/ 
button: 8888 2000 8000 
small blind: 3333 2000 8000 
big blind: 5555 2000 8000 
7777 2000 8000 
4444 2000 8000 
1111 2000 8000 
6666 2000 8000 
2222 2000 8000 
/seat 

---------------
blind/ 
3333: 50 
5555: 100 
/blind 

---------------

---------------
hold/ 
CLUBS 7 
DIAMONDS A 
/hold 

---------------

---------------
inquire/ 
7777 1900 8000 100 call 
5555 1900 8000 100 blind 
3333 1950 8000 50 blind 
total pot: 250 
/inquire 

---------------

---------------
flop/ 
HEARTS Q 
SPADES 7 
CLUBS 8 
/flop 

---------------

---------------
inquire/ 
7777 1900 8000 100 check 
5555 1900 8000 100 check 
3333 1900 8000 100 check 
8888 1900 8000 100 call 
2222 1900 8000 100 call 
6666 1900 8000 100 call 
1111 1900 8000 100 call 
4444 1900 8000 100 call 
total pot: 800 
/inquire 

---------------

---------------
turn/ 
SPADES 8 
/turn 

---------------

---------------
inquire/ 
7777 1900 8000 100 check 
5555 1900 8000 100 check 
3333 1900 8000 100 check 
8888 1900 8000 100 check 
2222 1900 8000 100 check 
6666 1900 8000 100 check 
1111 1900 8000 100 check 
4444 1900 8000 100 check 
total pot: 800 
/inquire 

---------------

---------------
river/ 
CLUBS K 
/river 

---------------

---------------
inquire/ 
7777 1900 8000 100 check 
5555 1900 8000 100 check 
3333 1900 8000 100 check 
8888 1900 8000 100 check 
2222 1900 8000 100 check 
6666 1900 8000 100 check 
1111 1900 8000 100 check 
4444 1900 8000 100 check 
total pot: 800 
/inquire 

---------------

---------------
showdown/ 
common/ 
HEARTS Q 
SPADES 7 
CLUBS 8 
SPADES 8 
CLUBS K 
/common 
6: 3333 DIAMONDS 6 HEARTS 6 TWO_PAIR 
1: 5555 DIAMONDS 8 DIAMONDS 3 THREE_OF_A_KIND 
3: 7777 SPADES Q CLUBS 9 TWO_PAIR 
5: 4444 CLUBS 7 DIAMONDS A TWO_PAIR 
7: 1111 SPADES 6 DIAMONDS 2 ONE_PAIR 
2: 6666 SPADES K HEARTS 10 TWO_PAIR 
4: 2222 CLUBS J SPADES J TWO_PAIR 
3: 8888 DIAMONDS 10 CLUBS Q TWO_PAIR 
/showdown 

---------------

---------------
pot-win/ 
5555: 800 
/pot-win 

---------------

---------------
seat/ 
button: 3333 1900 8000 
small blind: 5555 2700 8000 
big blind: 7777 1900 8000 
4444 1900 8000 
1111 1900 8000 
6666 1900 8000 
2222 1900 8000 
8888 1900 8000 
/seat 

---------------

---------------
blind/ 
5555: 50 
7777: 100 
/blind 

---------------

---------------
hold/ 
SPADES Q 
CLUBS 9 
/hold 

---------------

---------------
inquire/ 
7777 1800 8000 100 blind 
5555 2650 8000 50 blind 
total pot: 150 
/inquire 

---------------

---------------
flop/ 
HEARTS Q 
SPADES 7 
CLUBS 8 
/flop 

---------------

---------------
inquire/ 
7777 1800 8000 100 check 
5555 2600 8000 100 check 
3333 1800 8000 100 call 
8888 1800 8000 100 call 
2222 1800 8000 100 call 
6666 1800 8000 100 call 
1111 1800 8000 100 call 
4444 1800 8000 100 call 
total pot: 800 
/inquire 

---------------

---------------
turn/ 
SPADES 8 
/turn 

---------------

---------------
inquire/ 
7777 1800 8000 100 check 
5555 2600 8000 100 check 
3333 1800 8000 100 check 
8888 1800 8000 100 check 
2222 1800 8000 100 check 
6666 1800 8000 100 check 
1111 1800 8000 100 check 
4444 1800 8000 100 check 
total pot: 800 
/inquire 

---------------

---------------
river/ 
CLUBS K 
/river 

---------------

---------------
inquire/ 
7777 1800 8000 100 check 
5555 2600 8000 100 check 
3333 1800 8000 100 check 
8888 1800 8000 100 check 
2222 1800 8000 100 check 
6666 1800 8000 100 check 
1111 1800 8000 100 check 
4444 1800 8000 100 check 
total pot: 800 
/inquire 

---------------

---------------
showdown/ 
common/ 
HEARTS Q 
SPADES 7 
CLUBS 8 
SPADES 8 
CLUBS K 
/common 
6: 5555 DIAMONDS 6 HEARTS 6 TWO_PAIR 
1: 7777 DIAMONDS 8 DIAMONDS 3 THREE_OF_A_KIND 
3: 4444 SPADES Q CLUBS 9 TWO_PAIR 
5: 1111 CLUBS 7 DIAMONDS A TWO_PAIR 
7: 6666 SPADES 6 DIAMONDS 2 ONE_PAIR 
2: 2222 SPADES K HEARTS 10 TWO_PAIR 
4: 8888 CLUBS J SPADES J TWO_PAIR 
3: 3333 DIAMONDS 10 CLUBS Q TWO_PAIR 
/showdown 

---------------

---------------
pot-win/ 
7777: 800 
/pot-win 

---------------

---------------
seat/ 
button: 5555 2600 8000 
small blind: 7777 2600 8000 
big blind: 4444 1800 8000 
1111 1800 8000 
6666 1800 8000 
2222 1800 8000 
8888 1800 8000 
3333 1800 8000 
/seat 

---------------

---------------
blind/ 
7777: 50 
4444: 100 
/blind 

---------------

---------------
hold/ 
DIAMONDS 7 
DIAMONDS 6 
/hold 

---------------

---------------
inquire/ 
7777 2500 8000 100 call 
5555 2500 8000 100 call 
3333 1700 8000 100 call 
8888 1700 8000 100 call 
2222 1700 8000 100 call 
6666 1700 8000 100 call 
1111 1700 8000 100 call 
4444 1700 8000 100 blind 
total pot: 800 
/inquire 

---------------

---------------
flop/ 
SPADES 6 
CLUBS 8 
DIAMONDS 5 
/flop 

---------------

---------------
inquire/ 
7777 2500 8000 100 check 
5555 2500 8000 100 call 
3333 1700 8000 100 call 
8888 1700 8000 100 call 
2222 1700 8000 100 call 
6666 1700 8000 100 call 
1111 1700 8000 100 call 
4444 1700 8000 100 check 
total pot: 800 
/inquire 

---------------

---------------
turn/ 
DIAMONDS J 
/turn 

---------------

---------------
inquire/ 
7777 2500 8000 100 check 
5555 2500 8000 100 check 
3333 1700 8000 100 check 
8888 1700 8000 100 check 
2222 1700 8000 100 check 
6666 1700 8000 100 check 
1111 1700 8000 100 check 
4444 1700 8000 100 check 
total pot: 800 
/inquire 

---------------

---------------
river/ 
CLUBS 3 
/river 

---------------

---------------
inquire/ 
7777 2500 8000 100 check 
5555 2500 8000 100 check 
3333 1700 8000 100 check 
8888 1700 8000 100 check 
2222 1700 8000 100 check 
6666 1700 8000 100 check 
1111 1700 8000 100 check 
4444 1700 8000 100 check 
total pot: 800 
/inquire 

---------------

---------------
showdown/ 
common/ 
SPADES 6 
CLUBS 8 
DIAMONDS 5 
DIAMONDS J 
CLUBS 3 
/common 
7: 7777 CLUBS 10 HEARTS Q HIGH_CARD 
1: 4444 DIAMONDS 7 DIAMONDS 6 ONE_PAIR 
8: 1111 DIAMONDS 9 HEARTS 4 HIGH_CARD 
4: 6666 DIAMONDS A CLUBS K HIGH_CARD 
5: 2222 SPADES A DIAMONDS 4 HIGH_CARD 
6: 8888 SPADES Q SPADES K HIGH_CARD 
3: 3333 HEARTS 7 HEARTS 3 ONE_PAIR 
2: 5555 SPADES 7 HEARTS 5 ONE_PAIR 
/showdown 

------------seat/ 
button: 8888 2000 8000 
small blind: 3333 2000 8000 
big blind: 5555 2000 8000 
7777 2000 8000 
4444 2000 8000 
1111 2000 8000 
6666 2000 8000 
2222 2000 8000 
/seat 

---------------
blind/ 
3333: 50 
5555: 100 
/blind 

---------------

---------------
hold/ 
DIAMONDS 10 
CLUBS Q 
/hold 

---------------

---------------
inquire/ 
2222 1900 8000 100 call 
6666 1900 8000 100 call 
1111 1900 8000 100 call 
4444 1900 8000 100 call 
7777 1900 8000 100 call 
5555 1900 8000 100 blind 
3333 1950 8000 50 blind 
total pot: 650 
/inquire 

---------------

---------------
flop/ 
HEARTS Q 
SPADES 7 
CLUBS 8 
/flop 

---------------

---------------
inquire/ 
2222 1900 8000 100 check 
6666 1900 8000 100 check 
1111 1900 8000 100 check 
4444 1900 8000 100 check 
7777 1900 8000 100 check 
5555 1900 8000 100 check 
3333 1900 8000 100 check 
8888 1900 8000 100 call 
total pot: 800 
/inquire 

---------------

---------------
turn/ 
SPADES 8 
/turn 

---------------

---------------
inquire/ 
2222 1900 8000 100 check 
6666 1900 8000 100 check 
1111 1900 8000 100 check 
4444 1900 8000 100 check 
7777 1900 8000 100 check 
5555 1900 8000 100 check 
3333 1900 8000 100 check 
8888 1900 8000 100 check 
total pot: 800 
/inquire 

---------------

---------------
river/ 
CLUBS K 
/river 

---------------

---------------
inquire/ 
2222 1900 8000 100 check 
6666 1900 8000 100 check 
1111 1900 8000 100 check 
4444 1900 8000 100 check 
7777 1900 8000 100 check 
5555 1900 8000 100 check 
3333 1900 8000 100 check 
8888 1900 8000 100 check 
total pot: 800 
/inquire 

---------------

---------------
showdown/ 
common/ 
HEARTS Q 
SPADES 7 
CLUBS 8 
SPADES 8 
CLUBS K 
/common 
6: 3333 DIAMONDS 6 HEARTS 6 TWO_PAIR 
1: 5555 DIAMONDS 8 DIAMONDS 3 THREE_OF_A_KIND 
3: 7777 SPADES Q CLUBS 9 TWO_PAIR 
5: 4444 CLUBS 7 DIAMONDS A TWO_PAIR 
7: 1111 SPADES 6 DIAMONDS 2 ONE_PAIR 
2: 6666 SPADES K HEARTS 10 TWO_PAIR 
4: 2222 CLUBS J SPADES J TWO_PAIR 
3: 8888 DIAMONDS 10 CLUBS Q TWO_PAIR 
/showdown 

---------------

---------------
pot-win/ 
5555: 800 
/pot-win 

---------------

---------------
seat/ 
button: 3333 1900 8000 
small blind: 5555 2700 8000 
big blind: 7777 1900 8000 
4444 1900 8000 
1111 1900 8000 
6666 1900 8000 
2222 1900 8000 
8888 1900 8000 
/seat 

---------------

---------------
blind/ 
5555: 50 
7777: 100 
/blind 

---------------

---------------
hold/ 
CLUBS J 
SPADES J 
/hold 

---------------

---------------
inquire/ 
2222 1800 8000 100 call 
6666 1800 8000 100 call 
1111 1800 8000 100 call 
4444 1800 8000 100 call 
7777 1800 8000 100 blind 
5555 2650 8000 50 blind 
total pot: 550 
/inquire 

---------------

---------------
flop/ 
HEARTS Q 
SPADES 7 
CLUBS 8 
/flop 

---------------

---------------
inquire/ 
2222 1800 8000 100 check 
6666 1800 8000 100 check 
1111 1800 8000 100 check 
4444 1800 8000 100 check 
7777 1800 8000 100 check 
5555 2600 800seat/ 
button: 8888 2000 8000 
small blind: 3333 2000 8000 
big blind: 5555 2000 8000 
7777 2000 8000 
4444 2000 8000 
1111 2000 8000 
6666 2000 8000 
2222 2000 8000 
/seat 

---------------
blind/ 
3333: 50 
5555: 100 
/blind 

---------------

---------------
hold/ 
CLUBS 7 
DIAMONDS A 
/hold 

---------------

---------------
inquire/ 
7777 1900 8000 100 call 
5555 1900 8000 100 blind 
3333 1950 8000 50 blind 
total pot: 250 
/inquire 

---------------

---------------
flop/ 
HEARTS Q 
SPADES 7 
CLUBS 8 
/flop 

---------------

---------------
inquire/ 
7777 1900 8000 100 check 
5555 1900 8000 100 check 
3333 1900 8000 100 check 
8888 1900 8000 100 call 
2222 1900 8000 100 call 
6666 1900 8000 100 call 
1111 1900 8000 100 call 
4444 1900 8000 100 call 
total pot: 800 
/inquire 

---------------

---------------
turn/ 
SPADES 8 
/turn 

---------------

---------------
inquire/ 
7777 1900 8000 100 check 
5555 1900 8000 100 check 
3333 1900 8000 100 check 
8888 1900 8000 100 check 
2222 1900 8000 100 check 
6666 1900 8000 100 check 
1111 1900 8000 100 check 
4444 1900 8000 100 check 
total pot: 800 
/inquire 

---------------

---------------
river/ 
CLUBS K 
/river 

---------------

---------------
inquire/ 
7777 1900 8000 100 check 
5555 1900 8000 100 check 
3333 1900 8000 100 check 
8888 1900 8000 100 check 
2222 1900 8000 100 check 
6666 1900 8000 100 check 
1111 1900 8000 100 check 
4444 1900 8000 100 check 
total pot: 800 
/inquire 

---------------

---------------
showdown/ 
common/ 
HEARTS Q 
SPADES 7 
CLUBS 8 
SPADES 8 
CLUBS K 
/common 
6: 3333 DIAMONDS 6 HEARTS 6 TWO_PAIR 
1: 5555 DIAMONDS 8 DIAMONDS 3 THREE_OF_A_KIND 
3: 7777 SPADES Q CLUBS 9 TWO_PAIR 
5: 4444 CLUBS 7 DIAMONDS A TWO_PAIR 
7: 1111 SPADES 6 DIAMONDS 2 ONE_PAIR 
2: 6666 SPADES K HEARTS 10 TWO_PAIR 
4: 2222 CLUBS J SPADES J TWO_PAIR 
3: 8888 DIAMONDS 10 CLUBS Q TWO_PAIR 
/showdown 

---------------

---------------
pot-win/ 
5555: 800 
/pot-win 

---------------

---------------
seat/ 
button: 3333 1900 8000 
small blind: 5555 2700 8000 
big blind: 7777 1900 8000 
4444 1900 8000 
1111 1900 8000 
6666 1900 8000 
2222 1900 8000 
8888 1900 8000 
/seat 

---------------

---------------
blind/ 
5555: 50 
7777: 100 
/blind 

---------------

---------------
hold/ 
SPADES Q 
CLUBS 9 
/hold 

---------------

---------------
inquire/ 
7777 1800 8000 100 blind 
5555 2650 8000 50 blind 
total pot: 150 
/inquire 

---------------

---------------
flop/ 
HEARTS Q 
SPADES 7 
CLUBS 8 
/flop 

---------------

---------------
inquire/ 
7777 1800 8000 100 check 
5555 2600 8000 100 check 
3333 1800 8000 100 call 
8888 1800 8000 100 call 
2222 1800 8000 100 call 
6666 1800 8000 100 call 
1111 1800 8000 100 call 
4444 1800 8000 100 call 
total pot: 800 
/inquire 

---------------

---------------
turn/ 
SPADES 8 
/turn 

---------------

---------------
inquire/ 
7777 1800 8000 100 check 
5555 2600 8000 100 check 
3333 1800 8000 100 check 
8888 1800 8000 100 check 
2222 1800 8000 100 check 
6666 1800 8000 100 check 
1111 1800 8000 100 check 
4444 1800 8000 100 check 
total pot: 800 
/inquire 

---------------

---------------
river/ 
CLUBS K 
/river 

---------------

---------------
inquire/ 
7777 1800 8000 100 check 
5555 2600 8000 100 check 
3333 1800 8000 100 check 
8888 1800 8000 100 check 
2222 1800 8000 100 check 
6666 1800 8000 100 check 
1111 1800 8000 100 check 
4444 1800 8000 100 check 
total pot: 800 
/inquire 

---------------

---------------
showdown/ 
common/ 
HEARTS Q 
SPADES 7 
CLUBS 8 
SPADES 8 
CLUBS K 
/common 
6: 5555 DIAMONDS 6 HEARTS 6 TWO_PAIR 
1: 7777 DIAMONDS 8 DIAMONDS 3 THREE_OF_A_KIND 
3: 4444 SPADES Q CLUBS 9 TWO_PAIR 
5: 1111 CLUBS 7 DIAMONDS A TWO_PAIR 
7: 6666 SPADES 6 DIAMONDS 2 ONE_PAIR 
2: 2222 SPADES K HEARTS 10 TWO_PAIR 
4: 8888 CLUBS J SPADES J TWO_PAIR 
3: 3333 DIAMONDS 10 CLUBS Q TWO_PAIR 
/showdown 

---------------

---------------
pot-win/ 
7777: 800 
/pot-win 

---------------

---------------
seat/ 
button: 5555 2600 8000 
small blind: 7777 2600 8000 
big blind: 4444 1800 8000 
1111 1800 8000 
6666 1800 8000 
2222 1800 8000 
8888 1800 8000 
3333 1800 8000 
/seat 

---------------

---------------
blind/ 
7777: 50 
4444: 100 
/blind 

---------------

---------------
hold/ 
DIAMONDS 7 
DIAMONDS 6 
/hold 

---------------

---------------
inquire/ 
7777 2500 8000 100 call 
5555 2500 8000 100 call 
3333 1700 8000 100 call 
8888 1700 8000 100 call 
2222 1700 8000 100 call 
6666 1700 8000 100 call 
1111 1700 8000 100 call 
4444 1700 8000 100 blind 
total pot: 800 
/inquire 

---------------

---------------
flop/ 
SPADES 6 
CLUBS 8 
DIAMONDS 5 
/flop 

---------------

---------------
inquire/ 
7777 2500 8000 100 check 
5555 2500 8000 100 call 
3333 1700 8000 100 call 
8888 1700 8000 100 call 
2222 1700 8000 100 call 
6666 1700 8000 100 call 
1111 1700 8000 100 call 
4444 1700 8000 100 check 
total pot: 800 
/inquire 

---------------

---------------
turn/ 
DIAMONDS J 
/turn 

---------------

---------------
inquire/ 
7777 2500 8000 100 check 
5555 2500 8000 100 check 
3333 1700 8000 100 check 
8888 1700 8000 100 check 
2222 1700 8000 100 check 
6666 1700 8000 100 check 
1111 1700 8000 100 check 
4444 1700 8000 100 check 
total pot: 800 
/inquire 

---------------

---------------
river/ 
CLUBS 3 
/river 

---------------

---------------
inquire/ 
7777 2500 8000 100 check 
5555 2500 8000 100 check 
3333 1700 8000 100 check 
8888 1700 8000 100 check 
2222 1700 8000 100 check 
6666 1700 8000 100 check 
1111 1700 8000 100 check 
4444 1700 8000 100 check 
total pot: 800 
/inquire 

---------------

---------------
showdown/ 
common/ 
SPADES 6 
CLUBS 8 
DIAMONDS 5 
DIAMONDS J 
CLUBS 3 
/common 
7: 7777 CLUBS 10 HEARTS Q HIGH_CARD 
1: 4444 DIAMONDS 7 DIAMONDS 6 ONE_PAIR 
8: 1111 DIAMONDS 9 HEARTS 4 HIGH_CARD 
4: 6666 DIAMONDS A CLUBS K HIGH_CARD 
5: 2222 SPADES A DIAMONDS 4 HIGH_CARD 
6: 8888 SPADES Q SPADES K HIGH_CARD 
3: 3333 HEARTS 7 HEARTS 3 ONE_PAIR 
2: 5555 SPADES 7 HEARTS 5 ONE_PAIR 
/showdown 

---------------

---------------
pot-win/ 
4444: 800 
/pot-win 

---------------

---------------
seat/ 
button: 7777 2500 8000 
small blind: 4444 2500 8000 
big blind: 1111 1700 8000 
6666 1700 8000 
2222 1seat/ 
button: 8888 2000 8000 
small blind: 3333 2000 8000 
big blind: 5555 2000 8000 
7777 2000 8000 
4444 2000 8000 
1111 2000 8000 
6666 2000 8000 
2222 2000 8000 
/seat 

---------------
blind/ 
3333: 50 
5555: 100 
/blind 

---------------

---------------
hold/ 
DIAMONDS 10 
CLUBS Q 
/hold 

---------------

---------------
inquire/ 
2222 1900 8000 100 call 
6666 1900 8000 100 call 
1111 1900 8000 100 call 
4444 1900 8000 100 call 
7777 1900 8000 100 call 
5555 1900 8000 100 blind 
3333 1950 8000 50 blind 
total pot: 650 
/inquire 

---------------

---------------
flop/ 
HEARTS Q 
SPADES 7 
CLUBS 8 
/flop 

---------------

---------------
inquire/ 
2222 1900 8000 100 check 
6666 1900 8000 100 check 
1111 1900 8000 100 check 
4444 1900 8000 100 check 
7777 1900 8000 100 check 
5555 1900 8000 100 check 
3333 1900 8000 100 check 
8888 1900 8000 100 call 
total pot: 800 
/inquire 

---------------

---------------
turn/ 
SPADES 8 
/turn 

---------------

---------------
inquire/ 
2222 1900 8000 100 check 
6666 1900 8000 100 check 
1111 1900 8000 100 check 
4444 1900 8000 100 check 
7777 1900 8000 100 check 
5555 1900 8000 100 check 
3333 1900 8000 100 check 
8888 1900 8000 100 check 
total pot: 800 
/inquire 

---------------

---------------
river/ 
CLUBS K 
/river 

---------------

---------------
inquire/ 
2222 1900 8000 100 check 
6666 1900 8000 100 check 
1111 1900 8000 100 check 
4444 1900 8000 100 check 
7777 1900 8000 100 check 
5555 1900 8000 100 check 
3333 1900 8000 100 check 
8888 1900 8000 100 check 
total pot: 800 
/inquire 

---------------

---------------
showdown/ 
common/ 
HEARTS Q 
SPADES 7 
CLUBS 8 
SPADES 8 
CLUBS K 
/common 
6: 3333 DIAMONDS 6 HEARTS 6 TWO_PAIR 
1: 5555 DIAMONDS 8 DIAMONDS 3 THREE_OF_A_KIND 
3: 7777 SPADES Q CLUBS 9 TWO_PAIR 
5: 4444 CLUBS 7 DIAMONDS A TWO_PAIR 
7: 1111 SPADES 6 DIAMONDS 2 ONE_PAIR 
2: 6666 SPADES K HEARTS 10 TWO_PAIR 
4: 2222 CLUBS J SPADES J TWO_PAIR 
3: 8888 DIAMONDS 10 CLUBS Q TWO_PAIR 
/showdown 

---------------

---------------
pot-win/ 
5555: 800 
/pot-win 

---------------

---------------
seat/ 
button: 3333 1900 8000 
small blind: 5555 2700 8000 
big blind: 7777 1900 8000 
4444 1900 8000 
1111 1900 8000 
6666 1900 8000 
2222 1900 8000 
8888 1900 8000 
/seat 

---------------

---------------
blind/ 
5555: 50 
7777: 100 
/blind 

---------------

---------------
hold/ 
CLUBS J 
SPADES J 
/hold 

---------------

---------------
inquire/ 
2222 1800 8000 100 call 
6666 1800 8000 100 call 
1111 1800 8000 100 call 
4444 1800 8000 100 call 
7777 1800 8000 100 blind 
5555 2650 8000 50 blind 
total pot: 550 
/inquire 

---------------

---------------
flop/ 
HEARTS Q 
SPADES 7 
CLUBS 8 
/flop 

---------------

---------------
inquire/ 
2222 1800 8000 100 check 
6666 1800 8000 100 check 
1111 1800 8000 100 check 
4444 1800 8000 100 check 
7777 1800 8000 100 check 
5555 2600 8000 100 check 
3333 1800 8000 100 call 
8888 1800 8000 100 call 
total pot: 800 
/inseat/ 
button: 8888 2000 8000 
small blind: 3333 2000 8000 
big blind: 5555 2000 8000 
7777 2000 8000 
4444 2000 8000 
1111 2000 8000 
6666 2000 8000 
2222 2000 8000 
/seat 

---------------
blind/ 
3333: 50 
5555: 100 
/blind 

---------------

---------------
hold/ 
CLUBS 7 
DIAMONDS A 
/hold 

---------------

---------------
inquire/ 
7777 1900 8000 100 call 
5555 1900 8000 100 blind 
3333 1950 8000 50 blind 
total pot: 250 
/inquire 

---------------

---------------
flop/ 
HEARTS Q 
SPADES 7 
CLUBS 8 
/flop 

---------------

---------------
inquire/ 
7777 1900 8000 100 check 
5555 1900 8000 100 check 
3333 1900 8000 100 check 
8888 1900 8000 100 call 
2222 1900 8000 100 call 
6666 1900 8000 100 call 
1111 1900 8000 100 call 
4444 1900 8000 100 call 
total pot: 800 
/inquire 

---------------

---------------
turn/ 
SPADES 8 
/turn 

---------------

---------------
inquire/ 
7777 1900 8000 100 check 
5555 1900 8000 100 check 
3333 1900 8000 100 check 
8888 1900 8000 100 check 
2222 1900 8000 100 check 
6666 1900 8000 100 check 
1111 1900 8000 100 check 
4444 1900 8000 100 check 
total pot: 800 
/inquire 

---------------

---------------
river/ 
CLUBS K 
/river 

---------------

---------------
inquire/ 
7777 1900 8000 100 check 
5555 1900 8000 100 check 
3333 1900 8000 100 check 
8888 1900 8000 100 check 
2222 1900 8000 100 check 
6666 1900 8000 100 check 
1111 1900 8000 100 check 
4444 1900 8000 100 check 
total pot: 800 
/inquire 

---------------

---------------
showdown/ 
common/ 
HEARTS Q 
SPADES 7 
CLUBS 8 
SPADES 8 
CLUBS K 
/common 
6: 3333 DIAMONDS 6 HEARTS 6 TWO_PAIR 
1: 5555 DIAMONDS 8 DIAMONDS 3 THREE_OF_A_KIND 
3: 7777 SPADES Q CLUBS 9 TWO_PAIR 
5: 4444 CLUBS 7 DIAMONDS A TWO_PAIR 
7: 1111 SPADES 6 DIAMONDS 2 ONE_PAIR 
2: 6666 SPADES K HEARTS 10 TWO_PAIR 
4: 2222 CLUBS J SPADES J TWO_PAIR 
3: 8888 DIAMONDS 10 CLUBS Q TWO_PAIR 
/showdown 

---------------

---------------
pot-win/ 
5555: 800 
/pot-win 

---------------

---------------
seat/ 
button: 3333 1900 8000 
small blind: 5555 2700 8000 
big blind: 7777 1900 8000 
4444 1900 8000 
1111 1900 8000 
6666 1900 8000 
2222 1900 8000 
8888 1900 8000 
/seat 

---------------

---------------
blind/ 
5555: 50 
7777: 100 
/blind 

---------------

---------------
hold/ 
SPADES Q 
CLUBS 9 
/hold 

---------------

---------------
inquire/ 
7777 1800 8000 100 blind 
5555 2650 8000 50 blind 
total pot: 150 
/inquire 

---------------

---------------
flop/ 
HEARTS Q 
SPADES 7 
CLUBS 8 
/flop 

---------------

---------------
inquire/ 
7777 1800 8000 100 check 
5555 2600 8000 100 check 
3333 1800 8000 100 call 
8888 1800 8000 100 call 
2222 1800 8000 100 call 
6666 1800 8000 100 call 
1111 1800 8000 100 call 
4444 1800 8000 100 call 
total pot: 800 
/inquire 

---------------

---------------
turn/ 
SPADES 8 
/turn 

---------------

---------------
inquire/ 
7777 1800 8000 100 check 
5555 2600 8000 100 check 
3333 1800 8000 100 check 
8888 1800 8000 100 check 
2222 1800 8000 100 check 
6666 1800 8000 100 check 
1111 1800 8000 100 check 
4444 1800 8000 100 check 
total pot: 800 
/inquire 

---------------

---------------
river/ 
CLUBS K 
/river 

---------------

---------------
inquire/ 
7777 1800 8000 100 check 
5555 2600 8000 100 check 
3333 1800 8000 100 check 
8888 1800 8000 100 check 
2222 1800 8000 100 check 
6666 1800 8000 100 check 
1111 1800 8000 100 check 
4444 1800 8000 100 check 
total pot: 800 
/inquire 

---------------

---------------
showdown/ 
common/ 
HEARTS Q 
SPADES 7 
CLUBS 8 
SPADES 8 
CLUBS K 
/common 
6: 5555 DIAMONDS 6 HEARTS 6 TWO_PAIR 
1: 7777 DIAMONDS 8 DIAMONDS 3 THREE_OF_A_KIND 
3: 4444 SPADES Q CLUBS 9 TWO_PAIR 
5: 1111 CLUBS 7 DIAMONDS A TWO_PAIR 
7: 6666 SPADES 6 DIAMONDS 2 ONE_PAIR 
2: 2222 SPADES K HEARTS 10 TWO_PAIR 
4: 8888 CLUBS J SPADES J TWO_PAIR 
3: 3333 DIAMONDS 10 CLUBS Q TWO_PAIR 
/showdown 

---------------

---------------
pot-win/ 
7777: 800 
/pot-win 

---------------

---------------
seat/ 
button: 5555 2600 8000 
small blind: 7777 2600 8000 
big blind: 4444 1800 8000 
1111 1800 8000 
6666 1800 8000 
2222 1800 8000 
8888seat/ 
button: 8888 2000 8000 
small blind: 3333 2000 8000 
big blind: 5555 2000 8000 
7777 2000 8000 
4444 2000 8000 
1111 2000 8000 
6666 2000 8000 
2222 2000 8000 
/seat 

---------------
blind/ 
3333: 50 
5555: 100 
/blind 

---------------

---------------
hold/ 
SPADES Q 
CLUBS 9 
/hold 

---------------

---------------
inquire/ 
5555 1900 8000 100 blind 
3333 1950 8000 50 blind 
total pot: 150 
/inquire 

---------------

---------------
flop/ 
HEARTS Q 
SPADES 7 
CLUBS 8 
/flop 

---------------

---------------
inquire/ 
5555 1900 8000 100 check 
3333 1900 8000 100 check 
8888 1900 8000 100 call 
2222 1900 8000 100 call 
6666 1900 8000 100 call 
1111 1900 8000 100 call 
4444 1900 8000 100 call 
7777 1900 8000 100 call 
total pot: 800 
/inquire 

---------------

---------------
turn/ 
SPADES 8 
/turn 

---------------

---------------
inquire/ 
5555 1900 8000 100 check 
3333 1900 8000 100 check 
8888 1900 8000 100 check 
2222 1900 8000 100 check 
6666 1900 8000 100 check 
1111 1900 8000 100 check 
4444 1900 8000 100 check 
7777 1900 8000 100 check 
total pot: 800 
/inquire 

---------------

---------------
river/ 
CLUBS K 
/river 

---------------

---------------
inquire/ 
5555 1900 8000 100 check 
3333 1900 8000 100 check 
8888 1900 8000 100 check 
2222 1900 8000 100 check 
6666 1900 8000 100 check 
1111 1900 8000 100 check 
4444 1900 8000 100 check 
7777 1900 8000 100 check 
total pot: 800 
/inquire 

---------------

---------------
showdown/ 
common/ 
HEARTS Q 
SPADES 7 
CLUBS 8 
SPADES 8 
CLUBS K 
/common 
6: 3333 DIAMONDS 6 HEARTS 6 TWO_PAIR 
1: 5555 DIAMONDS 8 DIAMONDS 3 THREE_OF_A_KIND 
3: 7777 SPADES Q CLUBS 9 TWO_PAIR 
5: 4444 CLUBS 7 DIAMONDS A TWO_PAIR 
7: 1111 SPADES 6 DIAMONDS 2 ONE_PAIR 
2: 6666 SPADES K HEARTS 10 TWO_PAIR 
4: 2222 CLUBS J SPADES J TWO_PAIR 
3: 8888 DIAMONDS 10 CLUBS Q TWO_PAIR 
/showdown 

---------------

---------------
pot-win/ 
5555: 800 
/pot-win 

---------------

---------------
seat/ 
button: 3333 1900 8000 
small blind: 5555 2700 8000 
big blind: 7777 1900 8000 
4444 1900 8000 
1111 1900 8000 
6666 1seat/ 
button: 8888 2000 8000 
small blind: 3333 2000 8000 
big blind: 5555 2000 8000 
7777 2000 8000 
4444 2000 8000 
1111 2000 8000 
6666 2000 8000 
2222 2000 8000 
/seat 

---------------
blind/ 
3333: 50 
5555: 100 
/blind 

---------------

---------------
hold/ 
DIAMONDS 10 
CLUBS Q 
/hold 

---------------

---------------
inquire/ 
2222 1900 8000 100 call 
6666 1900 8000 100 call 
1111 1900 8000 100 call 
4444 1900 8000 100 call 
7777 1900 8000 100 call 
5555 1900 8000 100 blind 
3333 1950 8000 50 blind 
total pot: 650 
/inquire 

---------------

---------------
flop/ 
HEARTS Q 
SPADES 7 
CLUBS 8 
/flop 

---------------

---------------
inquire/ 
2222 1900 8000 100 check 
6666 1900 8000 100 check 
1111 1900 8000 100 check 
4444 1900 8000 100 check 
7777 1900 8000 100 check 
5555 1900 8000 100 check 
3333 1900 8000 100 check 
8888 1900 8000 100 call 
total pot: 800 
/inquire 

---------------

---------------
turn/ 
SPADES 8 
/turn 

---------------

---------------
inquire/ 
2222 1900 8000 100 check 
6666 1900 8000 100 check 
1111 1900 8000 100 check 
4444 1900 8000 100 check 
7777 1900 8000 100 check 
5555 1900 8000 100 check 
3333 1900 8000 100 check 
8888 1900 8000 100 check 
total pot: 800 
/inquire 

---------------

---------------
river/ 
CLUBS K 
/river 

---------------

---------------
inquire/ 
2222 1900 8000 100 check 
6666 1900 8000 100 check 
1111 1900 8000 100 check 
4444 1900 8000 100 check 
7777 1900 8000 100 check 
5555 1900 8000 100 check 
3333 1900 8000 100 check 
8888 1900 8000 100 check 
total pot: 800 
/inquire 

---------------

---------------
showdown/ 
common/ 
HEARTS Q 
SPADES 7 
CLUBS 8 
SPADES 8 
CLUBS K 
/common 
6: 3333 DIAMONDS 6 HEARTS 6 TWO_PAIR 
1: 5555 DIAMONDS 8 DIAMONDS 3 THREE_OF_A_KIND 
3: 7777 SPADES Q CLUBS 9 TWO_PAIR 
5: 4444 CLUBS 7 DIAMONDS A TWO_PAIR 
7: 1111 SPADES 6 DIAMONDS 2 ONE_PAIR 
2: 6666 SPADES K HEARTS 10 TWO_PAIR 
4: 2222 CLUBS J SPADES J TWO_PAIR 
3: 8888 DIAMONDS 10 CLUBS Q TWO_PAIR 
/showdown 

---------------

---------------
pot-win/ 
5555: 800 
/pot-win 

---------------

---------------
seat/ 
button: 3333 1900 8000 
small blind: 5555 2700 8000 
big blind: 7777 1900 8000 
4444 1900 8000 
1111 1900 8000 
6666 1900 8000 
2222 1900 8000 
8888 1900 8000 
/seat 

---------------

---------------
blind/ 
5555: 50 
7777: 100 
/blind 

---------------

---------------
hold/ 
CLUBS J 
SPADES J 
/hold 

---------------

---------------
inquire/ 
2222 1800 8000 100 call 
6666 1800 8000 100 call 
1111 1800 8000 100 call 
4444 1800 8000 100 call 
7777 1800 8000 100 blind 
5555 2650 8000 50 blind 
total pot: 550 
/inquire 

---------------

---------------
flop/ 
HEARTS Q 
SPADES 7 
CLUBS 8 
/flop 

---------------

---------------
inquire/ 
2222 1800 8000 100 check 
6666 1800 8000 100 check 
1111 1800 8000 100 check 
4444 1800 8000 100 check 
7777 1800 8000 100 check 
5555 2600 8000 100 check 
3333 1800 8000 100 call 
8888 1800 8000 100 call 
total pot: 800 
/inquire 

---------------

---------------
turn/ 
SPADES 8 
/turn 

---------------
seat/ 
button: 8888 2000 8000 
small blind: 3333 2000 8000 
big blind: 5555 2000 8000 
7777 2000 8000 
4444 2000 8000 
1111 2000 8000 
6666 2000 8000 
2222 2000 8000 
/seat 

---------------
blind/ 
3333: 50 
5555: 100 
/blind 

---------------

---------------
hold/ 
CLUBS 7 
DIAMONDS A 
/hold 

---------------

---------------
inquire/ 
7777 1900 8000 100 call 
5555 1900 8000 100 blind 
3333 1950 8000 50 blind 
total pot: 250 
/inquire 

---------------

---------------
flop/ 
HEARTS Q 
SPADES 7 
CLUBS 8 
/flop 

---------------

---------------
inquire/ 
7777 1900 8000 100 check 
5555 1900 8000 100 check 
3333 1900 8000 100 check 
8888 1900 8000 100 call 
2222 1900 8000 100 call 
6666 1900 8000 100 call 
1111 1900 8000 100 call 
4444 1900 8000 100 call 
total pot: 800 
/inquire 

---------------

---------------
turn/ 
SPADES 8 
/turn 

---------------

---------------
inquire/ 
7777 1900 8000 100 check 
5555 1900 8000 100 check 
3333 1900 8000 100 check 
8888 1900 8000 100 check 
2222 1900 8000 100 check 
6666 1900 8000 100 check 
1111 1900 8000 100 check 
4444 1900 8000 100 check 
total pot: 800 
/inquire 

---------------

---------------
river/ 
CLUBS K 
/river 

---------------

---------------
inquire/ 
7777 1900 8000 100 check 
5555 1900 8000 100 check 
3333 1900 8000 100 check 
8888 1900 8000 100 check 
2222 1900 8000 100 check 
6666 1900 8000 100 check 
1111 1900 8000 100 check 
4444 1900 8000 100 check 
total pot: 800 
/inquire 

---------------

---------------
showdown/ 
common/ 
HEARTS Q 
SPADES 7 
CLUBS 8 
SPADES 8 
CLUBS K 
/common 
6: 3333 DIAMONDS 6 HEARTS 6 TWO_PAIR 
1: 5555 DIAMONDS 8 DIAMONDS 3 THREE_OF_A_KIND 
3: 7777 SPADES Q CLUBS 9 TWO_PAIR 
5: 4444 CLUBS 7 DIAMONDS A TWO_PAIR 
7: 1111 SPADES 6 DIAMONDS 2 ONE_PAIR 
2: 6666 SPADES K HEARTS 10 TWO_PAIR 
4: 2222 CLUBS J SPADES J TWO_PAIR 
3: 8888 DIAMONDS 10 CLUBS Q TWO_PAIR 
/showdown 

---------------

---------------
pot-win/ 
5555: 800 
/pot-win 

---------------

---------------
seat/ 
button: 3333 1900 8000 
small blind: 5555 2700 8000 
big blind: 7777 1900 8000 
4444 1900 8000 
1111 1900 8000 
6666 1900 8000 
2222 1900 8000 
8888 1900 8000 
/seat 

---------------

---------------
blind/ 
5555: 50 
7777: 100 
/blind 

---------------

---------------
hold/ 
SPADES Q 
CLUBS 9 
/hold 

---------------

---------------
inquire/ 
7777 1800 8000 100 blind 
5555 2650 8000 50 blind 
total pot: 150 
/inquire 

---------------

---------------
flop/ 
HEARTS Q 
SPADES 7 
CLUBS 8 
/flop 

---------------

---------------
inquire/ 
7777 1800 8000 100 check 
5555 2600 8000 100 check 
3333 1800 8000 100 call 
8888 1800 8000 100 call 
2222 1800 8000 100 call 
6666 1800 8000 100 call 
1111 1800 8000 100 call 
4444 1800 8000 100 call 
total pot: 800 
/inquire 

---------------

---------------
turn/ 
SPADES 8 
/turn 

---------------

---------------
inquire/ 
7777 1800 8000 100 check 
5555 2600 8000 100 check 
3333 1800 8000 100 check 
8888 1800 8000 100 check 
2222 1800 8000 100 check 
6666 1800 8000 100 check 
1111 1800 8000 100 check 
4444 1800 8000 100 check 
total pot: 800 
/inquire 

---------------

---------------
river/ 
CLUBS K 
/river 

---------------

---------------
inquire/ 
7777 1800 8000 100 check 
5555 2600 8000 100 check 
3333 1800 8000 100 check 
8888 1800 8000 100 check 
2222 1800 8000 100 check 
6666 1800 8000 100 check 
1111 1800 8000 100 check 
4444 1800 8000 100 check 
total pot: 800 
/inquire 

---------------

---------------
showdown/ 
common/ 
HEARTS Q 
SPADES 7 
CLUBS 8 
SPADES 8 
CLUBS K 
/common 
6: 5555 DIAMONDS 6 HEARTS 6 TWO_PAIR 
1: 7777 DIAMONDS 8 DIAMONDS 3 THREE_OF_A_KIND 
3: 4444 SPADES Q CLUBS 9 TWO_PAIR 
5: 1111 CLUBS 7 DIAMONDS A TWO_PAIR 
7: 6666 SPADES 6 DIAMONDS 2 ONE_PAIR 
2: 2222 SPADES K HEARTS 10 TWO_PAIR 
4: 8888 CLUBS J SPADES J TWO_PAIR 
3: 3333 DIAMONDS 10 CLUBS Q TWO_PAIR 
/showdown 

---------------

---------------
pot-win/ 
7777: 800 
/pot-win 

---------------

---------------
seat/ 
button: 5555 2600 8000 
small blind: 7777 2600 8000 
big blind: 4444 1800 8000 
1111 1800 8000 
6666 1800 8000 
2222 1800 8000 
8888 1800 8000 
3333 1800 8000 
/seat 

---------------

---------------
blind/ 
7777: 50 
4444: 100 
/blind 

---------------

---------------
hold/ 
DIAMONDS 7 
DIAMONDS 6 
/hold 

---------------

---------------
inquire/ 
7777 2500 8000 100 call 
5555 2500 8000 100 call 
3333 1700 8000 100 call 
8888 1700 8000 100 call 
2222 1700 8000 100 call 
6666 1700 8000 100 call 
1111 1700 8000 100 call 
4444 1700 8000 100 blind 
total pot: 800 
/inquire 

---------------

---------------
flop/ 
SPADES 6 
CLUBS 8 
DIAMONDS 5 
/flop 

---------------

---------------
inquire/ 
7777 2500 8000 100 check 
5555 2500 8000 100 call 
3333 1700 8000 100 call 
8888 1700 8000 100 call 
2222 1700 8000 100 call 
6666 1700 8000 100 call 
1111 1700 8000 100 call 
4444 1700 8000 100 check 
total pot: 800 
/inquire 

---------------

---------------
turn/ 
DIAMONDS J 
/turn 

---------------

---------------
inquire/ 
7777 2500 8000 100 check 
5555 2500 8000 100 check 
3333 1700 8000 100 check 
8888 1700 8000 100 check 
2222 1700 8000 100 check 
6666 1700 8000 100 check 
1111 1700 8000 100 check 
4444 1700 8000 100 check 
total pot: 800 
/inquire 

---------------

---------------
river/ 
CLUBS 3 
/river 

---------------

---------------
inquire/ 
7777 2500 8000 100 check 
5555 2500 8000 100 check 
3333 1700 8000 100 check 
8888 1700 8000 100 check 
2222 1700 8000 100 check 
6666 1700 8000 100 check 
1111 1700 8000 100 check 
4444 1700 8000 100 check 
total pot: 800 
/inquire 

---------------

---------------
showdown/ 
common/ 
SPADES 6 
CLUBS 8 
DIAMONDS 5 
DIAMONDS J 
CLUBS 3 
/common 
7: 7777 CLUBS 10 HEARTS Q HIGH_CARD 
1: 4444 DIAMONDS 7 DIAMONDS 6 ONE_PAIR 
8: 1111 DIAMONDS 9 HEARTS 4 HIGH_CARD 
4: 6666 DIAMONDS A CLUBS K HIGH_CARD 
5: 2222 SPADES A DIAMONDS 4 HIGH_CARD 
6: 8888 SPADES Q SPADES K HIGH_CARD 
3: 3333 HEARTS 7 HEARTS 3 ONE_PAIR 
2: 5555 SPADES 7 HEARTS 5 ONE_PAIR 
/showdown 

---------------

---------------
pot-win/ 
4444: 800 
/pot-win 

---------------

---------------
seat/ 
button: 7777 2500 8000 
small blind: 4444 2500 8000 
big blind: 1111 1700 8000 
6666 1700 8000 
2222 1700 8000 
8888 1700 8000 
3333 1700 8000 
5555 2500 8000 
/seat 

---------------

---------------
blind/ 
4444: 50 
1111: 100 
/blind 

---------------

---------------
hold/ 
CLUBS 10 
HEARTS Q 
/hold 

---------------

---------------
inquire/ 
7777 2400 8000 100 call 
5555 2400 8000 100 call 
3333 1600 8000 100 call 
8888 1600 8000 100 call 
2222 1600 8000 100 call 
6666 1600 8000 100 call 
1111 1600 8000 100 blind 
4444 2450 8000 50 blind 
total pot: 750 
/inquire 

---------------

---------------
flop/ 
SPADES 6 
CLUBS 8 
DIAMONDS 5 
/flop 

---------------

---------------
inquire/ 
7777 2400 8000 100 call 
5555 2400 8000 100 call 
3333 1600 8000 100 call 
8888 1600 8000 100 call 
2222 1600 8000 100 call 
6666 1600 8000 100 call 
1111 1600 8000 100 check 
4444 2400 8000 100 call 
total pot: 800 
/inquire 

---------------

---------------
turn/ 
DIAMONDS J 
/turn 

---------------

---------------
inquire/ 
7777 2400 8000 100 check 
5555 2400 8000 100 check 
3333 1600 8000 100 check 
8888 1600 8000 100 check 
2222 1600 8000 100 check 
6666 1600 8000 100 check 
1111 1600 8000 100 check 
4444 2400 8000 100 check 
total pot: 800 
/inquire 

---------------

---------------
river/ 
CLUBS 3 
/river 

---------------

---------------
inquire/ 
7777 2400 8000 100 check 
5555 2400 8000 100 check 
3333 1600 8000 100 check 
8888 1600 8000 100 check 
2222 1600 8000 100 check 
6666 1600 8000 100 check 
1111 1600 8000 100 check 
4444 2400 8000 100 check 
total pot: 800 
/inquire 

---------------

---------------
showdown/ 
common/ 
SPADES 6 
CLUBS 8 
DIAMONDS 5 
DIAMONDS J 
CLUBS 3 
/common 
7: 4444 CLUBS 10 HEARTS Q HIGH_CARD 
1: 1111 DIAMONDS 7 DIAMONDS 6 ONE_PAIR 
8: 6666 DIAMONDS 9 HEARTS 4 HIGH_CARD 
4: 2222 DIAMONDS A CLUBS K HIGH_CARD 
5: 8888 SPADES A DIAMONDS 4 HIGH_CARD 
6: 3333 SPADES Q SPADES K HIGH_CARD 
3: 5555 HEARTS 7 HEARTS 3 ONE_PAIR 
2: 7777 SPADES 7 HEARTS 5 ONE_PAIR 
/showdown 

---------------

---------------
pot-win/ 
1111: 800 
/pot-win 

---------------

---------------
seat/ 
button: 4444 2400 8000 
small blind: 1111 2400 8000 
big blind: 6666 1600 8000 
2222 1600 8000 
8888 1600 8000 
3333 1600 8000 
5555 2400 8000 
7777 2400 8000 
/seat 

---------------

---------------
blind/ 
1111: 50 
6666: 100 
/blind 

---------------

---------------
hold/ 
SPADES 7 
HEARTS 5 
/hold 

---------------

---------------
inquire/ 
7777 2300 8000 100 call 
5555 2300 8000 100 call 
3333 1500 8000 100 call 
8888 1500 8000 100 call 
2222 1500 8000 100 call 
6666 1500 8000 100 blind 
1111 2350 8000 50 blind 
total pot: 650 
/inquire 

---------------

---------------
flop/ 
SPADES 6 
CLUBS 8 
DIAMONDS 5 
/flop 

---------------

---------------
inquire/ 
7777 2300 8000 100 check 
5555 2300 8000 100 check 
3333 1500 8000 100 check 
8888 1500 8000 100 check 
2222 1500 8000 100 check 
6666 1500 8000 100 check 
1111 2300 8000 100 check 
4444 2300 8000 100 call 
total pot: 800 
/inquire 

---------------

---------------
turn/ 
DIAMONDS J 
/turn 

---------------

---------------
inquire/ 
7777 2300 8000 100 check 
5555 2300 8000 100 check 
3333 1500 8000 100 check 
8888 1500 8000 100 check 
2222 1500 8000 100 check 
6666 1500 8000 100 check 
1111 2300 8000 100 check 
4444 2300 8000 100 check 
total pot: 800 
/inquire 

---------------

---------------
seat/ 
button: 8888 2000 8000 
small blind: 3333 2000 8000 
big blind: 5555 2000 8000 
7777 2000 8000 
4444 2000 8000 
1111 2000 8000 
6666 2000 8000 
2222 2000 8000 
/seat 

---------------
blind/ 
3333: 50 
5555: 100 
/blind 

---------------

---------------
hold/ 
CLUBS 7 
DIAMONDS A 
/hold 

---------------

---------------
inquire/ 
7777 1900 8000 100 call 
5555 1900 8000 100 blind 
3333 1950 8000 50 blind 
total pot: 250 
/inquire 

---------------

---------------
flop/ 
HEARTS Q 
SPADES 7 
CLUBS 8 
/flop 

---------------

---------------
inquire/ 
7777 1900 8000 100 check 
5555 1900 8000 100 check 
3333 1900 8000 100 check 
8888 1900 8000 100 call 
2222 1900 8000 100 call 
6666 1900 8000 100 call 
1111 1900 8000 100 call 
4444 1900 8000 100 call 
total pot: 800 
/inquire 

---------------

---------------
turn/ 
SPADES 8 
/turn 

---------------

---------------
inquire/ 
7777 1900 8000 100 check 
5555 1900 8000 100 check 
3333 1900 8000 100 check 
8888 1900 8000 100 check 
2222 1900 8000 100 check 
6666 1900 8000 100 check 
1111 1900 8000 100 check 
4444 1900 8000 100 check 
total pot: 800 
/inquire 

---------------

---------------
river/ 
CLUBS K 
/river 

---------------

---------------
inquire/ 
7777 1900 8000 100 check 
5555 1900 8000 100 check 
3333 1900 8000 100 check 
8888 1900 8000 100 check 
2222 1900 8000 100 check 
6666 1900 8000 100 check 
1111 1900 8000 100 check 
4444 1900 8000 100 check 
total pot: 800 
/inquire 

---------------

---------------
showdown/ 
common/ 
HEARTS Q 
SPADES 7 
CLUBS 8 
SPADES 8 
CLUBS K 
/common 
6: 3333 DIAMONDS 6 HEARTS 6 TWO_PAIR 
1: 5555 DIAMONDS 8 DIAMONDS 3 THREE_OF_A_KIND 
3: 7777 SPADES Q CLUBS 9 TWO_PAIR 
5: 4444 CLUBS 7 DIAMONDS A TWO_PAIR 
7: 1111 SPADES 6 DIAMONDS 2 ONE_PAIR 
2: 6666 SPADES K HEARTS 10 TWO_PAIR 
4: 2222 CLUBS J SPADES J TWO_PAIR 
3: 8888 DIAMONDS 10 CLUBS Q TWO_PAIR 
/showdown 

---------------

---------------
pot-win/ 
5555: 800 
/pot-win 

---------------

---------------
seat/ 
button: 3333 1900 8000 
small blind: 5555 2700 8000 
big blind: 7777 1900 8000 
4444 1900 8000 
1111 1900 8000 
6666 1900 8000 
2222 1900 8000 
8888 1900 8000 
/seat 

---------------

---------------
blind/ 
5555: 50 
7777: 100 
/blind 

---------------

---------------
hold/ 
SPADES Q 
CLUBS 9 
/hold 

---------------

---------------
inquire/ 
7777 1800 8000 100 blind 
5555 2650 8000 50 blind 
total pot: 150 
/inquire 

---------------

---------------
flop/ 
HEARTS Q 
SPADES 7 
CLUBS 8 
/flop 

---------------

---------------
inquire/ 
7777 1800 8000 100 check 
5555 2600 8000 100 check 
3333 1800 8000 100 call 
8888 1800 8000 100 call 
2222 1800 8000 100 call 
6666 1800 8000 100 call 
1111 1800 8000 100 call 
4444 1800 8000 100 call 
total pot: 800 
/inquire 

---------------

---------------
turn/ 
SPADES 8 
/turn 

---------------

---------------
inquire/ 
7777 1800 8000 100 check 
5555 2600 8000 100 check 
3333 1800 8000 100 check 
8888 1800 8000 100 check 
2222 1800 8000 100 check 
6666 1800 8000 100 check 
1111 1800 8000 100 check 
4444 1800 8000 100 check 
total pot: 800 
/inquire 

---------------

---------------
river/ 
CLUBS K 
/river 

---------------

---------------
inquire/ 
7777 1800 8000 100 check 
5555 2600 8000 100 check 
3333 1800 8000 100 check 
8888 1800 8000 100 check 
2222 1800 8000 100 check 
6666 1800 8000 100 check 
1111 1800 8000 100 check 
4444 1800 8000 100 check 
total pot: 800 
/inquire 

---------------

---------------
showdown/ 
common/ 
HEARTS Q 
SPADES 7 
CLUBS 8 
SPADES 8 
CLUBS K 
/common 
6: 5555 DIAMONDS 6 HEARTS 6 TWO_PAIR 
1: 7777 DIAMONDS 8 DIAMONDS 3 THREE_OF_A_KIND 
3: 4444 SPADES Q CLUBS 9 TWO_PAIR 
5: 1111 CLUBS 7 DIAMONDS A TWO_PAIR 
7: 6666 SPADES 6 DIAMONDS 2 ONE_PAIR 
2: 2222 SPADES K HEARTS 10 TWO_PAIR 
4: 8888 CLUBS J SPADES J TWO_PAIR 
3: 3333 DIAMONDS 10 CLUBS Q TWO_PAIR 
/showdown 

---------------

---------------
pot-win/ 
7777: 800 
/pot-win 

---------------

---------------
seat/ 
button: 5555 2600 8000 
small blind: 7777 2600 8000 
big blind: 4444 1800 8000 
1111 1800 8000 
6666 1800 8000 
2222 1800 8000 
8888 1800 8000 
3333 1800 8000 
/seat 

---------------

---------------
blind/ 
7777: 50 
4444: 100 
/blind 

---------------

---------------
hold/ 
DIAMONDS 7 
DIAMONDS 6 
/hold 

---------------

---------------
inquire/ 
7777 2500 8000 100 call 
5555 2500 8000 100 call 
3333 1700 8000 100 call 
8888 1700 8000 100 call 
2222 1700 8000 100 call 
6666 1700 8000 100 call 
1111 1700 8000 100 call 
4444 1700 8000 100 blind 
total pot: 800 
/inquire 

---------------

---------------
flop/ 
SPADES 6 
CLUBS 8 
DIAMONDS 5 
/flop 

---------------

---------------
inquire/ 
7777 2500 8000 100 check 
5555 2500 8000 100 call 
3333 1700 8000 100 call 
8888 1700 8000 100 call 
2222 1700 8000 100 call 
6666 1700 8000 100 call 
1111 1700 8000 100 call 
4444 1700 8000 100 check 
total pot: 800 
/inquire 

---------------

---------------
turn/ 
DIAMONDS J 
/turn 

---------------

---------------
inquire/ 
7777 2500 8000 100 check 
5555 2500 8000 100 check 
3333 1700 8000 100 check 
8888 1700 8000 100 check 
2222 1700 8000 100 check 
6666 1700 8000 100 check 
1111 1700 8000 100 check 
4444 1700 8000 100 check 
total pot: 800 
/inquire 

---------------

---------------
river/ 
CLUBS 3 
/river 

---------------

---------------
inquire/ 
7777 2500 8000 100 check 
5555 2500 8000 100 check 
3333 1700 8000 100 check 
8888 1700 8000 100 check 
2222 1700 8000 100 check 
6666 1700 8000 100 check 
1111 1700 8000 100 check 
4444 1700 8000 100 check 
total pot: 800 
/inquire 

---------------

---------------
showdown/ 
common/ 
SPADES 6 
CLUBS 8 
DIAMONDS 5 
DIAMONDS J 
CLUBS 3 
/common 
7: 7777 CLUBS 10 HEARTS Q HIGH_CARD 
1: 4444 DIAMONDS 7 DIAMONDS 6 ONE_PAIR 
8: 1111 DIAMONDS 9 HEARTS 4 HIGH_CARD 
4: 6666 DIAMONDS A CLUBS K HIGH_CARD 
5: 2222 SPADES A DIAMONDS 4 HIGH_CARD 
6: 8888 SPADES Q SPADES K HIGH_CARD 
3: 3333 HEARTS 7 HEARTS 3 ONE_PAIR 
2: 5555 SPADES 7 HEARTS 5 ONE_PAIR 
/showdown 

---------------

---------------
pot-win/ 
4444: 800 
/pot-win 

---------------

---------------
seat/ 
button: 7777 2500 8000 
small blind: 4444 2500 8000 
big blind: 1111 1700 8000 
6666 1700 8000 
2222 1700 8000 
8888 1700 8000 
3333 1700 8000 
5555 2500 8000 
/seat 

---------------

---------------
blind/ 
4444: 50 
1111: 100 
/blind 

--------------seat/ 
button: 8888 2000 8000 
small blind: 3333 2000 8000 
big blind: 5555 2000 8000 
7777 2000 8000 
4444 2000 8000 
1111 2000 8000 
6666 2000 8000 
2222 2000 8000 
/seat 

---------------
blind/ 
3333: 50 
5555: 100 
/blind 

---------------

---------------
hold/ 
DIAMONDS 10 
CLUBS Q 
/hold 

---------------

---------------
inquire/ 
2222 1900 8000 100 call 
6666 1900 8000 100 call 
1111 1900 8000 100 call 
4444 1900 8000 100 call 
7777 1900 8000 100 call 
5555 1900 8000 100 blind 
3333 1950 8000 50 blind 
total pot: 650 
/inquire 

---------------

---------------
flop/ 
HEARTS Q 
SPADES 7 
CLUBS 8 
/flop 

---------------

---------------
inquire/ 
2222 1900 8000 100 check 
6666 1900 8000 100 check 
1111 1900 8000 100 check 
4444 1900 8000 100 check 
7777 1900 8000 100 check 
5555 1900 8000 100 check 
3333 1900 8000 100 check 
8888 1900 8000 100 call 
total pot: 800 
/inquire 

---------------

---------------
turn/ 
SPADES 8 
/turn 

---------------

---------------
inquire/ 
2222 1900 8000 100 check 
6666 1900 8000 100 check 
1111 1900 8000 100 check 
4444 1900 8000 100 check 
7777 1900 8000 100 check 
5555 1900 8000 100 check 
3333 1900 8000 100 check 
8888 1900 8000 100 check 
total pot: 800 
/inquire 

---------------

---------------
river/ 
CLUBS K 
/river 

---------------

---------------
inquire/ 
2222 1900 8000 100 check 
6666 1900 8000 100 check 
1111 1900 8000 100 check 
4444 1900 8000 100 check 
7777 1900 8000 100 check 
5555 1900 8000 100 check 
3333 1900 8000 100 check 
8888 1900 8000 100 check 
total pot: 800 
/inquire 

---------------

---------------
showdown/ 
common/ 
HEARTS Q 
SPADES 7 
CLUBS 8 
SPADES 8 
CLUBS K 
/common 
6: 3333 DIAMONDS 6 HEARTS 6 TWO_PAIR 
1: 5555 DIAMONDS 8 DIAMONDS 3 THREE_OF_A_KIND 
3: 7777 SPADES Q CLUBS 9 TWO_PAIR 
5: 4444 CLUBS 7 DIAMONDS A TWO_PAIR 
7: 1111 SPADES 6 DIAMONDS 2 ONE_PAIR 
2: 6666 SPADES K HEARTS 10 TWO_PAIR 
4: 2222 CLUBS J SPADES J TWO_PAIR 
3: 8888 DIAMONDS 10 CLUBS Q TWO_PAIR 
/showdown 

---------------

---------------
pot-win/ 
5555: 800 
/pot-win 

---------------

---------------
seat/ 
button: 3333 1900 8000 
small blind: 5555 2700 8000 
big blind: 7777 1900 8000 
4444 1900 8000 
1111 1900 8000 
6666 1900 8000 
2222 1900 8000 
8888 1900 8000 
/seat 

---------------

---------------
blind/ 
5555: 50 
7777: 100 
/blind 

---------------

---------------
hold/ 
CLUBS J 
SPADES J 
/hold 

---------------

---------------
inquire/ 
2222 1800 8000 100 call 
6666 1800 8000 100 call 
1111 1800 8000 100 call 
4444 1800 8000 100 call 
7777 1800 8000 100 blind 
5555 2650 8000 50 blind 
total pot: 550 
/inquire 

---------------

---------------
flop/ 
HEARTS Q 
SPADES 7 
CLUBS 8 
/flop 

---------------

---------------
inquire/ 
2222 1800 8000 100 check 
6666 1800 8000 100 check 
1111 1800 8000 100 check 
4444 1800 8000 100 check 
7777 1800 8000 100 check 
5555 2600 8000 100 check 
3333 1800 8000 100 call 
8888 1800 8000 100 call 
total pot: 800 
/inquire 

---------------

---------------
turn/ 
SPADES 8 
/turn 

---------------

---------------
inquire/ 
2222 1800 8000 100 check 
6666 1800 8000 100 check 
1111 1800 8000 100 check 
4444 1800 8000 100 check 
7777 1800 8000 100 check 
5555 26seat/ 
button: 8888 2000 8000 
small blind: 3333 2000 8000 
big blind: 5555 2000 8000 
7777 2000 8000 
4444 2000 8000 
1111 2000 8000 
6666 2000 8000 
2222 2000 8000 
/seat 

---------------
blind/ 
3333: 50 
5555: 100 
/blind 

---------------

---------------
hold/ 
CLUBS 7 
DIAMONDS A 
/hold 

---------------

---------------
inquire/ 
7777 1900 8000 100 call 
5555 1900 8000 100 blind 
3333 1950 8000 50 blind 
total pot: 250 
/inquire 

---------------

---------------
flop/ 
HEARTS Q 
SPADES 7 
CLUBS 8 
/flop 

---------------

---------------
inquire/ 
7777 1900 8000 100 check 
5555 1900 8000 100 check 
3333 1900 8000 100 check 
8888 1900 8000 100 call 
2222 1900 8000 100 call 
6666 1900 8000 100 call 
1111 1900 8000 100 call 
4444 1900 8000 100 call 
total pot: 800 
/inquire 

---------------

---------------
turn/ 
SPADES 8 
/turn 

---------------

---------------
inquire/ 
7777 1900 8000 100 check 
5555 1900 8000 100 check 
3333 1900 8000 100 check 
8888 1900 8000 100 check 
2222 1900 8000 100 check 
6666 1900 8000 100 check 
1111 1900 8000 100 check 
4444 1900 8000 100 check 
total pot: 800 
/inquire 

---------------

---------------
river/ 
CLUBS K 
/river 

---------------

---------------
inquire/ 
7777 1900 8000 100 check 
5555 1900 8000 100 check 
3333 1900 8000 100 check 
8888 1900 8000 100 check 
2222 1900 8000 100 check 
6666 1900 8000 100 check 
1111 1900 8000 100 check 
4444 1900 8000 100 check 
total pot: 800 
/inquire 

---------------

---------------
showdown/ 
common/ 
HEARTS Q 
SPADES 7 
CLUBS 8 
SPADES 8 
CLUBS K 
/common 
6: 3333 DIAMONDS 6 HEARTS 6 TWO_PAIR 
1: 5555 DIAMONDS 8 DIAMONDS 3 THREE_OF_A_KIND 
3: 7777 SPADES Q CLUBS 9 TWO_PAIR 
5: 4444 CLUBS 7 DIAMONDS A TWO_PAIR 
7: 1111 SPADES 6 DIAMONDS 2 ONE_PAIR 
2: 6666 SPADES K HEARTS 10 TWO_PAIR 
4: 2222 CLUBS J SPADES J TWO_PAIR 
3: 8888 DIAMONDS 10 CLUBS Q TWO_PAIR 
/showdown 

---------------

---------------
pot-win/ 
5555: 800 
/pot-win 

---------------

---------------
seat/ 
button: 3333 1900 8000 
small blind: 5555 2700 8000 
big blind: 7777 1900 8000 
4444 1900 8000 
1111 1900 8000 
6666 1900 8000 
2222 1900 8000 
8888 1900 8000 
/seat 

---------------

---------------
blind/ 
5555: 50 
7777: 100 
/blind 

---------------

---------------
hold/ 
SPADES Q 
CLUBS 9 
/hold 

---------------

---------------
inquire/ 
7777 1800 8000 100 blind 
5555 2650 8000 50 blind 
total pot: 150 
/inquire 

---------------

---------------
flop/ 
HEARTS Q 
SPADES 7 
CLUBS 8 
/flop 

---------------

---------------
inquire/ 
7777 1800 8000 100 check 
5555 2600 8000 100 check 
3333 1800 8000 100 call 
8888 1800 8000 100 call 
2222 1800 8000 100 call 
6666 1800 8000 100 call 
1111 1800 8000 100 call 
4444 1800 8000 100 call 
total pot: 800 
/inquire 

---------------

---------------
turn/ 
SPADES 8 
/turn 

---------------

---------------
inquire/ 
7777 1800 8000 100 check 
5555 2600 8000 100 check 
3333 1800 8000 100 check 
8888 1800 8000 100 check 
2222 1800 8000 100 check 
6666 1800 8000 100 check 
1111 1800 8000 100 check 
4444 1800 8000 100 check 
total pot: 800 
/inquire 

---------------

---------------
river/ 
CLUBS K 
/river 

---------------

---------------
inquire/ 
7777 1800 8000 100 check 
5555 2600 8000 100 check 
3333 1800 8000 10---------------

---------------
turn/ 
SPADES 8 
/turn 

---------------

---------------
inquire/ 
8888 1800 8000 100 check 
2222 1800 8000 100 check 
6666 1800 8000 100 check 
1111 1800 8000 100 check 
4444 1800 8000 100 check 
7777 1800 8000 100 check 
5555 2600 8000 100 check 
3333 1800 8000 100 check 
total pot: 800 
/inquire 

---------------

---------------
river/ 
CLUBS K 
/river 

---------------

---------------
inquire/ 
8888 1800 8000 100 check 
2222 1800 8000 100 check 
6666 1800 8000 100 check 
1111 1800 8000 100 check 
4444 1800 8000 100 check 
7777 1800 8000 100 check 
5555 2600 8000 100 check 
3333 1800 8000 100 check 
total pot: 800 
/inquire 

---------------

---------------
showdown/ 
common/ 
HEARTS Q 
SPADES 7 
CLUBS 8 
SPADES 8 
CLUBS K 
/common 
6: 5555 DIAMONDS 6 HEARTS 6 TWO_PAIR 
1: 7777 DIAMONDS 8 DIAMONDS 3 THREE_OF_A_KIND 
3: 4444 SPADES Q CLUBS 9 TWO_PAIR 
5: 1111 CLUBS 7 DIAMONDS A TWO_PAIR 
7: 6666 SPADES 6 DIAMONDS 2 ONE_PAIR 
2: 2222 SPADES K HEARTS 10 TWO_PAIR 
4: 8888 CLUBS J SPADES J TWO_PAIR 
3: 3333 DIAMONDS 10 CLUBS Q TWO_PAIR 
/showdown 

---------------

---------------
pot-win/ 
7777: 800 
/pot-win 

---------------

---------------
seat/ 
button: 5555 2600 8000 
small blind: 7777 2600 8000 
big blind: 4444 1800 8000 
1111 1800 8000 
6666 1800 8000 
2222 1800 8000 
8888 1800 8000 
3333 1800 8000 
/seat 

---------------

---------------
blind/ 
7777: 50 
4444: 100 
/blind 

---------------

---------------
hold/ 
HEARTS 7 
HEARTS 3 
/hold 

---------------

---------------
inquire/ 
8888 1700 8000 100 call 
2222 1700 8000 100 call 
6666 1700 8000 100 call 
1111 1700 8000 100 call 
4444 1700 8000 100 blind 
7777 2550 8000 50 blind 
total pot: 550 
/inquire 

---------------

---------------
flop/ 
SPADES 6 
CLUBS 8 
DIAMONDS 5 
/flop 

---------------

---------------
inquire/ 
8888 1700 8000 100 check 
2222 1700 8000 100 check 
6666 1700 8000 100 check 
1111 1700 8000 100 check 
4444 1700 8000 100 check 
7777 2500 8000 100 check 
5555 2500 8000 100 call 
3333 1700 8000 100 call 
total pot: 800 
/inquire 

---------------

---------------
turn/ 
DIAMONDS J 
/turn 

---------------

---------------
inquire/ 
8888 1700 8000 100 check 
2222 1700 8000 100 check 
6666 1700 8000 100 check 
1111 1700 8000 100 check 
4444 1700 8000 100 check 
7777 2500 8000 100 check 
5555 2500 8000 100 check 
3333 1700 8000 100 check 
total pot: 800 
/inquire 

---------------

---------------
river/ 
CLUBS 3 
/river 

---------------

---------------
inquire/ 
8888 1700 8000 100 check 
2222 1700 8000 100 check 
6666 1700 8000 100 check 
1111 1700 8000 100 check 
4444 1700 8000 100 check 
7777 2500 8000 100 check 
5555 2500 8000 100 check 
3333 1700 8000 100 check 
total pot: 800 
/inquire 

---------------

---------------
showdown/ 
common/ 
SPADES 6 
CLUBS 8 
DIAMONDS 5 
DIAMONDS J 
CLUBS 3 
/common 
7: 7777 CLUBS 10 HEARTS Q HIGH_CARD 
1: 4444 DIAMONDS 7 DIAMONDS 6 ONE_PAIR 
8: 1111 DIAMONDS 9 HEARTS 4 HIGH_CARD 
4: 6666 DIAMONDS A CLUBS K HIGH_CARD 
5: 2222 SPADES A DIAMONDS 4 HIGH_CARD 
6: 8888 SPADES Q SPADES K HIGH_CARD 
3: 3333 HEARTS 7 HEARTS 3 ONE_PAIR 
2: 5555 SPADES 7 HEARTS 5 ONE_PAIR 
/showdown 

---------------

---------------
pot-win/ 
4444: 800 
/pot-win 

---------------

---------------seat/ 
button: 8888 2000 8000 
small blind: 3333 2000 8000 
big blind: 5555 2000 8000 
7777 2000 8000 
4444 2000 8000 
1111 2000 8000 
6666 2000 8000 
2222 2000 8000 
/seat 

---------------
blind/ 
3333: 50 
5555: 100 
/blind 

---------------

---------------
hold/ 
DIAMONDS 10 
CLUBS Q 
/hold 

---------------

---------------
inquire/ 
2222 1900 8000 100 call 
6666 1900 8000 100 call 
1111 1900 8000 100 call 
4444 1900 8000 100 call 
7777 1900 8000 100 call 
5555 1900 8000 100 blind 
3333 1950 8000 50 blind 
total pot: 650 
/inquire 

---------------

---------------
flop/ 
HEARTS Q 
SPADES 7 
CLUBS 8 
/flop 

---------------

---------------
inquire/ 
2222 1900 8000 100 check 
6666 1900 8000 100 check 
1111 1900 8000 100 check 
4444 1900 8000 100 check 
7777 1900 8000 100 check 
5555 1900 8000 100 check 
3333 1900 8000 100 check 
8888 1900 8000 100 call 
total pot: 800 
/inquire 

---------------

---------------
turn/ 
SPADES 8 
/turn 

---------------

---------------
inquire/ 
2222 1900 8000 100 check 
6666 1900 8000 100 check 
1111 1900 8000 100 check 
4444 1900 8000 100 check 
7777 1900 8000 100 check 
5555 1900 8000 100 check 
3333 1900 8000 100 check 
8888 1900 8000 100 check 
total pot: 800 
/inquire 

---------------

---------------
river/ 
CLUBS K 
/river 

---------------

---------------
inquire/ 
2222 1900 8000 100 check 
6666 1900 8000 100 check 
1111 1900 8000 100 check 
4444 1900 8000 100 check 
7777 1900 8000 100 check 
5555 1900 8000 100 check 
3333 1900 8000 100 check 
8888 1900 8000 100 check 
total pot: 800 
/inquire 

---------------

---------------
showdown/ 
common/ 
HEARTS Q 
SPADES 7 
CLUBS 8 
SPADES 8 
CLUBS K 
/common 
6: 3333 DIAMONDS 6 HEARTS 6 TWO_PAIR 
1: 5555 DIAMONDS 8 DIAMONDS 3 THREE_OF_A_KIND 
3: 7777 SPADES Q CLUBS 9 TWO_PAIR 
5: 4444 CLUBS 7 DIAMONDS A TWO_PAIR 
7: 1111 SPADES 6 DIAMONDS 2 ONE_PAIR 
2: 6666 SPADES K HEARTS 10 TWO_PAIR 
4: 2222 CLUBS J SPADES J TWO_PAIR 
3: 8888 DIAMONDS 10 CLUBS Q TWO_PAIR 
/showdown 

---------------

---------------
pot-win/ 
5555: 800 
/pot-win 

---------------

---------------
seat/ 
button: 3333 1900 8000 
small blind: 5555 2700 8000 
big blind: 7777 1900 8000 
4444 1900 8000 
1111 1900 8000 
6666 1900 8000 
2222 1900 8000 
8888 1900 8000 
/seat 

---------------

---------------
blind/ 
5555: 50 
7777: 100 
/blind 

---------------

---------------
hold/ 
CLUBS J 
SPADES J 
/hold 

---------------

---------------
inquire/ 
2222 1800 8000 100 call 
6666 1800 8000 100 call 
1111 1800 8000 100 call 
4444 1800 8000 100 call 
7777 1800 8000 100 blind 
5555 2650 8000 50 blind 
total pot: 550 
/inquire 

---------------

---------------
flop/ 
HEARTS Q 
SPADES 7 
CLUBS 8 
/flop 

---------------

---------------
inquire/ 
2222 1800 8000 100 check 
6666 1800 8000 100 check 
1111 1800 8000 100 check 
4444 1800 8000 100 check 
7777 1800 8000 100 check 
5555 2600 8000 100 check 
3333 1800 8000 100 call 
8888 1800 8000 100 call 
total pot: 800 
/inquire 

---------------

---------------
turn/ 
SPADES 8 
/turn 

---------------

---------------
inquire/ 
2222 1800 8000 100 check 
6666 1800 8000 100 check 
1111 1800 8000 100 check 
4444 1800 8000 100 check 
7777 1800 8000 100 check 
5555 2600 8000 100 check 
3333 1800 8000 100 check 
8888 1800 8000 100 check 
total pot: 800 
/inquire 

---------------

---------------
river/ 
CLUBS K 
/river 

---------------

---------------
inquire/ 
2222 1800 8000 100 check 
6666 1800 8000 100 check 
1111 1800 8000 100 check 
4444 1800 8000 100 check 
7777 1800 8000 100 check 
5555 2600 8000 100 check 
3333 1800 8000 100 check 
8888 1800 8000 100 check 
total pot: 800 
/inquire 

---------------

---------------
showdown/ 
common/ 
HEARTS Q 
SPADES 7 
CLUBS 8 
SPADES 8 
CLUBS K 
/common 
6: 5555 DIAMONDS 6 HEARTS 6 TWO_PAIR 
1: 7777 DIAMONDS 8 DIAMONDS 3 THREE_OF_A_KIND 
3: 4444 SPADES Q CLUBS 9 TWO_PAIR 
5: 1111 CLUBS 7 DIAMONDS A TWO_PAIR 
7: 6666 SPADES 6 DIAMONDS 2 ONE_PAIR 
2: 2222 SPADES K HEARTS 10 TWO_PAIR 
4: 8888 CLUBS J SPADES J TWO_PAIR 
3: 3333 DIAMONDS 10 CLUBS Q TWO_PAIR 
/showdown 

---------------

---------------
pot-win/ 
7777: 800 
/pot-win 

---------------

---------------
seat/ 
button: 5555 2600 8000 
small blind: 7777 2600 8000 
big blind: 4444 1800 8000 
1111 1800 8000 
6666 1800 8000 
2222 1800 8000 
8888 1800 8000 
3333 1800 8000 
/seat 

---------------

---------------
blind/ 
7777: 50 
4444: 100 
/blind 

---------------

---------------
hold/ 
SPADES Q 
SPADES K 
/hold 

---------------

---------------
inquire/ 
2222 1700 8000 100 call 
6666 1700 8000 100 call 
1111 1700 8000 100 call 
4444 1700 8000 100 blind 
7777 2550 8000 50 blind 
total pot: 450 
/inquire 

---------------

---------------
flop/ 
SPADES 6 
CLUBS 8 
DIAMONDS 5 
/flop 

---------------

---------------
inquire/ 
2222 1700 8000 100 check 
6666 1700 8000 100 check 
1111 1700 8000 100 check 
4444 1700 8000 100 check 
7777 2500 8000 100 check 
5555 2500 8000 100 call 
3333 1700 8000 100 call 
8888 1700 8000 100 call 
total pot: 800 
/inquire 

---------------

---------------
turn/ 
DIAMONDS J 
/turn 

---------------

---------------
inquire/ 
2222 1700 8000 100 check 
6666 1700 8000 100 check 
1111 1700 8000 100 check 
4444 1700 8000 100 check 
7777 2500 8000 100 check 
5555 2500 8000 100 check 
3333 1700 8000 100 check 
8888 1700 8000 100 check 
total pot: 800 
/inquire 

---------------

---------------
river/ 
CLUBS 3 
/river 

---------------

---------------
inquire/ 
2222 1700 8000 100 check 
6666 1700 8000 100 check 
1111 1700 8000 100 check 
4444 1700 8000 100 check 
7777 2500 8000 100 check 
5555 2500 8000 100 check 
3333 1700 8000 100 check 
8888 1700 8000 100 check 
total pot: 800 
/inquire 

---------------

---------------
showdown/ 
common/ 
SPADES 6 
CLUBS 8 
DIAMONDS 5 
DIAMONDS J 
CLUBS 3 
/common 
7: 7777 CLUBS 10 HEARTS Q HIGH_CARD 
1: 4444 DIAMONDS 7 DIAMONDS 6 ONE_PAIR 
8: 1111 DIAMONDS 9 HEARTS 4 HIGH_CARD 
4: 6666 DIAMONDS A CLUBS K HIGH_CARD 
5: 2222 SPADES A DIAMONDS 4 HIGH_CARD 
6: 8888 SPADES Q SPADES K HIGH_CARD 
3: 3333 HEARTS 7 HEARTS 3 ONE_PAIR 
2: 5555 SPADES 7 HEARTS 5 ONE_PAIR 
/showdown 

---------------

---------------
pot-win/ 
4444: 800 
/pot-win 

---------------

---------------
seat/ 
button: 7777 2500 8000 
small blind: 4444 2500 8000 
big blind: 1111 1700 8000 
6666 1700 8000 
2222 1700 8000 
8888 1700 8000 
3333 1700 8000 
5555 2500 8000 
/seat 

---------------

---------------
blind/ 
4444: 50 
1111: 100 
/blind 

---------------

---------------
hold/ 
SPADES A 
DIAMONDS 4 
/hold 

---------------

---------------
inquire/ 
2222 1600 8000 100 call 
6666 1600 8000 100 call 
1111 1600 8000 100 blind 
4444 2450 8000 50 blind 
total pot: 350 
/inquire 

---------------

---------------
flop/ 
SPADES 6 
CLUBS 8 
DIAMONDS 5 
/flop 

---------------

---------------
inquire/ 
2222 1600 8000 100 check 
6666 1600 8000 100 check 
1111 1600 8000 100 check 
4444 2400 8000 100 check 
7777 2400 8000 100 call 
5555 2400 8000 100 call 
3333 1600 8000 100 call 
8888 1600 8000 100 call 
total pot: 800 
/inquire 

---------------

---------------
turn/ 
DIAMONDS J 
/turn 

---------------

---------------
inquire/ 
2222 1600 8000 100 check 
6666 1600 8000 100 check 
1111 1600 8000 100 check 
4444 2400 8000 100 check 
7777 2400 8000 100 check 
5555 2400 8000 100 check 
3333 1600 8000 100 check 
8888 1600 8000 100 check 
total pot: 800 
/inquire 

---------------

---------------
river/ 
CLUBS 3 
/river 

---------------

---------------
inquire/ 
2222 1600 8000 100 check 
6666 1600 8000 100 check 
1111 1600 8000 100 check 
4444 2400 8000 100 check 
7777 2400 8000 100 check 
5555 2400 8000 100 check 
3333 1600 8000 100 check 
8888 1600 8000 100 check 
total pot: 800 
/inquire 

---------------

---------------
showdown/ 
common/ 
SPADES 6 
CLUBS 8 
DIAMONDS 5 
DIAMONDS J 
CLUBS 3 
/common 
7: 4444 CLUBS 10 HEARTS Q HIGH_CARD 
1: 1111 DIAMONDS 7 DIAMONDS 6 ONE_PAIR 
8: 6666 DIAMONDS 9 HEARTS 4 HIGH_CARD 
4: 2222 DIAMONDS A CLUBS K HIGH_CARD 
5: 8888 SPADES A DIAMONDS 4 HIGH_CARD 
6: 3333 SPADES Q SPADES K HIGH_CARD 
3: 5555 HEARTS 7 HEARTS 3 ONE_PAIR 
2: 7777 SPADES 7 HEARTS 5 ONE_PAIR 
/showdown 

---------------

---------------
pot-win/ 
1111: 800 
/pot-win 

---------------

---------------
seat/ 
button: 4444 2400 8000 
small blind: 1111 2400 8000 
big blind: 6666 1600 8000 
2222 1600 8000 
8888 1600 8000 
3333 1600 8000 
5555 2400 8000 
7777 2400 8000 
/seat 

---------------
blind/ 
1111: 50 
6666: 100 
/blind 

---------------

---------------
hold/ 
DIAMONDS A 
CLUBS K 
/hold 

---------------

---------------
inquire/ 
2222 1500 8000 100 call 
6666 1500 8000 100 blind 
1111 2350 8000 50 blind 
total pot: 250 
/inquire 

---------------

---------------
flop/ 
SPADES 6 
CLUBS 8 
DIAMONDS 5 
/flop 

---------------

---------------
inquire/ 
2222 1500 8000 100 check 
6666 1500 8000 100 check 
1111 2300 8000 100 check 
4444 2300 8000 100 call 
7777 2300 8000 100 call 
5555 2300 8000 100 call 
3333 1500 8000 100 call 
8888 1500 8000 100 call 
total pot: 800 
/inquire 

---------------

---------------
turn/ 
DIAMONDS J 
/turn 

---------------

---------------
inquire/ 
2222 1500 8000 100 check 
6666 1500 8000 100 check 
1111 2300 8000 100 check 
4444 2300 8000 100 check 
7777 2300 8000 100 check 
5555 2300 8000 100 check 
3333 1500 8000 100 check 
8888 1500 8000 100 check 
total pot: 800 
/inquire 

---------------

---------------
river/ 
CLUBS 3 
/river 

---------------

---------------
inquire/ 
2222 1500 8000 100 check 
6666 1500 8000 100 check 
1111 2300 8000 100 check 
4444 2300 8000 100 check 
7777 2300 8000 100 check 
5555 2300 8000 100 check 
3333 1500 8000 100 check 
8888 1500 8000 100 check 
total pot: 800 
/inquire 

---------------

---------------
showdown/ 
common/ 
SPADES 6 
CLUBS 8 
DIAMONDS 5 
DIAMONDS J 
CLUBS 3 
/common 
7: 1111 CLUBS 10 HEARTS Q HIGH_CARD 
1: 6666 DIAMONDS 7 DIAMONDS 6 ONE_PAIR 
8: 2222 DIAMONDS 9 HEARTS 4 HIGH_CARD 
4: 8888 DIAMONDS A CLUBS K HIGH_CARD 
5: 3333 SPADES A DIAMONDS 4 HIGH_CARD 
6: 5555 SPADES Q SPADES K HIGH_CARD 
3: 7777 HEARTS 7 HEARTS 3 ONE_PAIR 
2: 4444 SPADES 7 HEARTS 5 ONE_PAIR 
/showdown 

---------------

---------------
seat/ 
button: 8888 2000 8000 
small blind: 3333 2000 8000 
big blind: 5555 2000 8000 
7777 2000 8000 
4444 2000 8000 
1111 2000 8000 
6666 2000 8000 
2222 2000 8000 
/seat 

---------------
blind/ 
3333: 50 
5555: 100 
/blind 

---------------

---------------
hold/ 
DIAMONDS 10 
CLUBS Q 
/hold 

---------------

---------------
inquire/ 
2222 1900 8000 100 call 
6666 1900 8000 100 call 
1111 1900 8000 100 call 
4444 1900 8000 100 call 
7777 1900 8000 100 call 
5555 1900 8000 100 blind 
3333 1950 8000 50 blind 
total pot: 650 
/inquire 

---------------

---------------
flop/ 
HEARTS Q 
SPADES 7 
CLUBS 8 
/flop 

---------------

---------------
inquire/ 
2222 1900 8000 100 check 
6666 1900 8000 100 check 
1111 1900 8000 100 check 
4444 1900 8000 100 check 
7777 1900 8000 100 check 
5555 1900 8000 100 check 
3333 1900 8000 100 check 
8888 1900 8000 100 call 
total pot: 800 
/inquire 

---------------

---------------
turn/ 
SPADES 8 
/turn 

---------------

---------------
inquire/ 
2222 1900 8000 100 check 
6666 1900 8000 100 check 
1111 1900 8000 100 check 
4444 1900 8000 100 check 
7777 1900 8000 100 check 
5555 1900 8000 100 check 
3333 1900 8000 100 check 
8888 1900 8000 100 check 
total pot: 800 
/inquire 

---------------

---------------
river/ 
CLUBS K 
/river 

---------------

---------------
inquire/ 
2222 1900 8000 100 check 
6666 1900 8000 100 check 
1111 1900 8000 100 check 
4444 1900 8000 100 check 
7777 1900 8000 100 check 
5555 1900 8000 100 check 
3333 1900 8000 100 check 
8888 1900 8000 100 check 
total pot: 800 
/inquire 

---------------

---------------
showdown/ 
common/ 
HEARTS Q 
SPADES 7 
CLUBS 8 
SPADES 8 
CLUBS K 
/common 
6: 3333 DIAMONDS 6 HEARTS 6 TWO_PAIR 
1: 5555 DIAMONDS 8 DIAMONDS 3 THREE_OF_A_KIND 
3: 7777 SPADES Q CLUBS 9 TWO_PAIR 
5: 4444 CLUBS 7 DIAMONDS A TWO_PAIR 
7: 1111 SPADES 6 DIAMONDS 2 ONE_PAIR 
2: 6666 SPADES K HEARTS 10 TWO_PAIR 
4: 2222 CLUBS J SPADES J TWO_PAIR 
3: 8888 DIAMONDS 10 CLUBS Q TWO_PAIR 
/showdown 

---------------

---------------
pot-win/ 
5555: 800 
/pot-win 

---------------

---------------
seat/ 
button: 3333 1900 8000 
small blind: 5555 2700 8000 
big blind: 7777 1900 8000 
4444 1900 8000 
1111 1900 8000 
6666 1900 8000 
2222 1900 8000 
8888 1900 8000 
/seat 

---------------

---------------
blind/ 
5555: 50 
7777: 100 
/blind 

---------------

---------------
hold/ 
CLUBS J 
SPADES J 
/hold 

---------------

---------------
inquire/ 
2222 1800 8000 100 call 
6666 1800 8000 100 call 
1111 1800 8000 100 call 
4444 1800 8000 100 call 
7777 1800 8000 100 blind 
5555 2650 8000 50 blind 
total pot: 550 
/inquire 

---------------

---------------
flop/ 
HEARTS Q 
SPADES 7 
CLUBS 8 
/flop 

---------------

---------------
inquire/ 
2222 1800 8000 100 check 
6666 1800 8000 100 check 
1111 1800 8000 100 check 
4444 1800 8000 100 check 
7777 1800 8000 100 check 
5555 2600 8000 100 check 
3333 1800 8000 100 call 
8888 1800 8000 100 call 
total pot: 800 
/inquire 

---------------

---------------
turn/ 
SPADES 8 
/turn 

---------------

---------------
inquire/ 
2222 1800 8000 100 check 
6666 1800 8000 100 check 
1111 1800 8000 100 check 
4444 1800 8000 100 check 
7777 1800 8000 100 check 
5555 2600 8000 100 check 
3333 1800 8000 100 check 
8888 1800 8000 100 check 
total pot: 800 
/inquire 

---------------

---------------
river/ 
CLUBS K 
/river 

---------------

---------------
inquire/ 
2222 1800 8000 100 check 
6666 1800 8000 100 check 
1111 1800 8000 100 check 
4444 1800 8000 100 check 
7777 1800 8000 100 check 
5555 2600 8000 100 check 
3333 1800 8000 100 check 
8888 1800 8000 100 check 
total pot: 800 
/inquire 

---------------

---------------
showdown/ 
common/ 
HEARTS Q 
SPADES 7 
CLUBS 8 
SPADES 8 
CLUBS K 
/common 
6: 5555 DIAMONDS 6 HEARTS 6 TWO_PAIR 
1: 7777 DIAMONDS 8 DIAMONDS 3 THREE_OF_A_KIND 
3: 4444 SPADES Q CLUBS 9 TWO_PAIR 
5: 1111 CLUBS 7 DIAMONDS A TWO_PAIR 
7: 6666 SPADES 6 DIAMONDS 2 ONE_PAIR 
2: 2222 SPADES K HEARTS 10 TWO_PAIR 
4: 8888 CLUBS J SPADES J TWO_PAIR 
3: 3333 DIAMONDS 10 CLUBS Q TWO_PAIR 
/showdown 

---------------

---------------
pot-win/ 
7777: 800 
/pot-win 

---------------

---------------
seat/ 
button: 5555 2600 8000 
small blind: 7777 2600 8000 
big blind: 4444 1800 8000 
1111 1800 8000 
6666 1800 8000 
2222 1800 8000 
8888 1800 8000 
3333 1800 8000 
/seat 

---------------

---------------
blind/ 
7777: 50 
4444: 100 
/blind 

---------------

---------------
hold/ 
SPADES Q 
SPADES K 
/hold 

---------------

---------------
inquire/ 
2222 1700 8000 100 call 
6666 1700 8000 100 call 
1111 1700 8000 100 call 
4444 1700 8000 100 blind 
7777 2550 8000 50 blind 
total pot: 450 
/inquire 

---------------

---------------
flop/ 
SPADES 6 
CLUBS 8 
DIAMONDS 5 
/flop 

---------------

---------------
inquire/ 
2222 1700 8000 100 check 
6666 1700 8000 100 check 
1111 1700 8000 100 check 
4444 1700 8000 100 check 
7777 2500 8000 100 check 
5555 2500 8000 100 call 
3333 1700 8000 100 call 
8888 1700 8000 100 call 
total pot: 800 
/inquire 

---------------

---------------
turn/ 
DIAMONDS J 
/turn 

---------------

---------------
inquire/ 
2222 1700 8000 100 check 
6666 1700 8000 100 check 
1111 1700 8000 100 check 
4444 1700 8000 100 check 
7777 2500 8000 100 check 
5555 2500 8000 100 check 
3333 1700 8000 100 check 
8888 1700 8000 100 check 
total pot: 800 
/inquire 

---------------

---------------
river/ 
CLUBS 3 
/river 

---------------

---------------
inquire/ 
2222 1700 8000 100 check 
6666 1700 8000 100 check 
1111 1700 8000 100 check 
4444 1700 8000 100 check 
7777 2500 8000 100 check 
5555 2500 8000 100 check 
3333 1700 8000 100 check 
8888 1700 8000 100 check 
total pot: 800 
/inquire 

---------------

---------------
showdown/ 
common/ 
SPADES 6 
CLUBS 8 
DIAMONDS 5 
DIAMONDS J 
CLUBS 3 
/common 
7: 7777 CLUBS 10 HEARTS Q HIGH_CARD 
1: 4444 DIAMONDS 7 DIAMONDS 6 ONE_PAIR 
8: 1111 DIAMONDS 9 HEARTS 4 HIGH_CARD 
4: 6666 DIAMONDS A CLUBS K HIGH_CARD 
5: 2222 SPADES A DIAMONDS 4 HIGH_CARD 
6: 8888 SPADES Q SPADES K HIGH_CARD 
3: 3333 HEARTS 7 HEARTS 3 ONE_PAIR 
2: 5555 SPADES 7 HEARTS 5 ONE_PAIR 
/showdown 

---------------

---------------
pot-win/ 
4444: 800 
/pot-win 

---------------

---------------
seat/ 
button: 7777 2500 8000 
small blind: 4444 2500 8000 
big blind: 1111 1700 8000 
6666 1700 8000 
2222 1700 8000 
8888 1700 8000 
3333 1700 8000 
5555 2500 8000 
/seat 

---------------

---------------
blind/ 
4444: 50 
1111: 100 
/blind 

---------------

---------------
hold/ 
SPADES A 
DIAMONDS 4 
/hold 

---------------

---------------
inquire/ 
2222 1600 8000 100 call 
6666 1600 8000 100 call 
1111 1600 8000 100 blind 
4444 2450 8000 50 blind 
total pot: 350 
/inquire 

---------------

---------------
flop/ 
SPADES 6 
CLUBS 8 
DIAMONDS 5 
/flop 

---------------

---------------
inquire/ 
2222 1600 8000 100 check 
6666 1600 8000 100 check 
1111 1600 8000 100 check 
4444 2400 8000 100 check 
7777 2400 8000 100 call 
5555 2400 8000 100 call 
3333 1600 8000 100 call 
8888 1600 8000 100 call 
total pot: 800 
/inquire 

---------------

---------------
turn/ 
DIAMONDS J 
/turn 

---------------

---------------
inquire/ 
2222 1600 8000 100 check 
6666 1600 8000 100 check 
1111 1600 8000 100 check 
4444 2400 8000 100 check 
7777 2400 8000 100 check 
5555 2400 8000 100 check 
3333 1600 8000 100 check 
8888 1600 8000 100 check 
total pot: 800 
/inquire 

---------------

---------------
river/ 
CLUBS 3 
/river 

---------------

---------------
inquire/ 
2222 1600 8000 100 check 
6666 1600 8000 100 check 
1111 1600 8000 100 check 
4444 2400 8000 100 check 
7777 2400 8000 100 check 
5555 2400 8000 100 check 
3333 1600 8000 100 check 
8888 1600 8000 100 check 
total pot: 800 
/inquire 

---------------

---------------
showdown/ 
common/ 
SPADES 6 
CLUBS 8 
DIAMONDS 5 
DIAMONDS J 
CLUBS 3 
/common 
7: 4444 CLUBS 10 HEARTS Q HIGH_CARD 
1: 1111 DIAMONDS 7 DIAMONDS 6 ONE_PAIR 
8: 6666 DIAMONDS 9 HEARTS 4 HIGH_CARD 
4: 2222 DIAMONDS A CLUBS K HIGH_CARD 
5: 8888 SPADES A DIAMONDS 4 HIGH_CARD 
6: 3333 SPADES Q SPADES K HIGH_CARD 
3: 5555 HEARTS 7 HEARTS 3 ONE_PAIR 
2: 7777 SPADES 7 HEARTS 5 ONE_PAIR 
/showdown 

---------------

---------------
pot-win/ 
1111: 800 
/pot-win 

---------------

---------------
seat/ 
button: 4444 2400 8000 
small blind: 1111 2400 8000 
big blind: 6666 1600 8000 
2222 1600 8000 
8888 1600 8000 
3333 1600 8000 
5555 2400 8000 
7777 2400 8000 
/seat 

---------------
blind/ 
1111: 50 
6666: 100 
/blind 

---------------

---------------
hold/ 
DIAMONDS A 
CLUBS K 
/hold 

---------------

---------------
inquire/ 
2222 1500 8000 100 call 
6666 1500 8000 100 blind 
1111 2350 8000 50 blind 
total pot: 250 
/inquire 

---------------

---------------
flop/ 
SPADES 6 
CLUBS 8 
DIAMONDS 5 
/flop 

---------------

---------------
inquire/ 
2222 1500 8000 100 check 
6666 1500 8000 100 check 
1111 2300 8000 100 check 
4444 2300 8000 100 call 
7777 2300 8000 100 call 
5555 2300 8000 100 call 
3333 1500 8000 100 call 
8888 1500 8000 100 call 
total pot: 800 
/inquire 

---------------

---------------
turn/ 
DIAMONDS J 
/turn 

---------------

---------------
inquire/ 
2222 1500 8000 100 check 
6666 1500 8000 100 check 
1111 2300 8000 100 check 
4444 2300 8000 100 check 
7777 2300 8000 100 check 
5555 2300 8000 100 check 
3333 1500 8000 100 check 
8888 1500 8000 100 check 
total pot: 800 
/inquire 

---------------

---------------
river/ 
CLUBS 3 
/river 

---------------

---------------
inquire/ 
2222 1500 8000 100 check 
6666 1500 8000 100 check 
1111 2300 8000 100 check 
4444 2300 8000 100 check 
7777 2300 8000 100 check 
5555 2300 8000 100 check 
3333 1500 8000 100 check 
8888 1500 8000 100 check 
total pot: 800 
/inquire 

---------------

---------------
showdown/ 
common/ 
SPADES 6 
CLUBS 8 
DIAMONDS 5 
DIAMONDS J 
CLUBS 3 
/common 
7: 1111 CLUBS 10 HEARTS Q HIGH_CARD 
1: 6666 DIAMONDS 7 DIAMONDS 6 ONE_PAIR 
8: 2222 DIAMONDS 9 HEARTS 4 HIGH_CARD 
4: 8888 DIAMONDS A CLUBS K HIGH_CARD 
5: 3333 SPADES A DIAMONDS 4 HIGH_CARD 
6: 5555 SPADES Q SPADES K HIGH_CARD 
3: 7777 HEARTS 7 HEARTS 3 ONE_PAIR 
2: 4444 SPADES 7 HEARTS 5 ONE_PAIR 
/showdown 

---------------

---------------
pot-win/ 
6666: 800 
/pot-win 

---------------

---------------
seat/ 
button: 8888 2000 8000 
small blind: 3333 2000 8000 
big blind: 5555 2000 8000 
7777 2000 8000 
4444 2000 8000 
1111 2000 8000 
6666 2000 8000 
2222 2000 8000 
/seat 

---------------
blind/ 
3333: 50 
5555: 100 
/blind 

---------------

---------------
hold/ 
DIAMONDS 10 
CLUBS Q 
/hold 

---------------

---------------
inquire/ 
2222 1900 8000 100 call 
6666 1900 8000 100 call 
1111 1900 8000 100 call 
4444 1900 8000 100 call 
7777 1900 8000 100 call 
5555 1900 8000 100 blind 
3333 1950 8000 50 blind 
total pot: 650 
/inquire 

---------------

---------------
flop/ 
HEARTS Q 
SPADES 7 
CLUBS 8 
/flop 

---------------

---------------
inquire/ 
2222 1900 8000 100 check 
6666 1900 8000 100 check 
1111 1900 8000 100 check 
4444 1900 8000 100 check 
7777 1900 8000 100 check 
5555 1900 8000 100 check 
3333 1900 8000 100 check 
8888 1900 8000 100 call 
total pot: 800 
/inquire 

---------------

---------------
turn/ 
SPADES 8 
/turn 

---------------

---------------
inquire/ 
2222 1900 8000 100 check 
6666 1900 8000 100 check 
1111 1900 8000 100 check 
4444 1900 8000 100 check 
7777 1900 8000 100 check 
5555 1900 8000 100 check 
3333 1900 8000 100 check 
8888 1900 8000 100 check 
total pot: 800 
/inquire 

---------------

---------------
river/ 
CLUBS K 
/river 

---------------

---------------
inquire/ 
2222 1900 8000 100 check 
6666 1900 8000 100 check 
1111 1900 8000 100 check 
4444 1900 8000 100 check 
7777 1900 8000 100 check 
5555 1900 8000 100 check 
3333 1900 8000 100 check 
8888 1900 8000 100 check 
total pot: 800 
/inquire 

---------------

---------------
showdown/ 
common/ 
HEARTS Q 
SPADES 7 
CLUBS 8 
SPADES 8 
CLUBS K 
/common 
6: 3333 DIAMONDS 6 HEARTS 6 TWO_PAIR 
1: 5555 DIAMONDS 8 DIAMONDS 3 THREE_OF_A_KIND 
3: 7777 SPADES Q CLUBS 9 TWO_PAIR 
5: 4444 CLUBS 7 DIAMONDS A TWO_PAIR 
7: 1111 SPADES 6 DIAMONDS 2 ONE_PAIR 
2: 6666 SPADES K HEARTS 10 TWO_PAIR 
4: 2222 CLUBS J SPADES J TWO_PAIR 
3: 8888 DIAMONDS 10 CLUBS Q TWO_PAIR 
/showdown 

---------------

---------------
pot-win/ 
5555: 800 
/pot-win 

---------------

---------------
seat/ 
button: 3333 1900 8000 
small blind: 5555 2700 8000 
big blind: 7777 1900 8000 
4444 1900 8000 
1111 1900 8000 
6666 1900 8000 
2222 1900 8000 
8888 1900 8000 
/seat 

---------------

---------------
blind/ 
5555: 50 
7777: 100 
/blind 

---------------

---------------
hold/ 
CLUBS J 
SPADES J 
/hold 

---------------

---------------
inquire/ 
2222 1800 8000 100 call 
6666 1800 8000 100 call 
1111 1800 8000 100 call 
4444 1800 8000 100 call 
7777 1800 8000 100 blind 
5555 2650 8000 50 blind 
total pot: 550 
/inquire 

---------------

---------------
flop/ 
HEARTS Q 
SPADES 7 
CLUBS 8 
/flop 

---------------

---------------
inquire/ 
2222 1800 8000 100 check 
6666 1800 8000 100 check 
1111 1800 8000 100 check 
4444 1800 8000 100 check 
7777 1800 8000 100 check 
5555 2600 8000 100 check 
3333 1800 8000 100 call 
8888 1800 8000 100 call 
total pot: 800 
/inquire 

---------------

---------------
turn/ 
SPADES 8 
/turn 

---------------

---------------
inquire/ 
2222 1800 8000 100 check 
6666 1800 8000 100 check 
1111 1800 8000 100 check 
4444 1800 8000 100 check 
7777 1800 8000 100 check 
5555 2600 8000 100 check 
3333 1800 8000 100 check 
8888 1800 8000 100 check 
total pot: 800 
/inquire 

---------------

---------------
river/ 
CLUBS K 
/river 

---------------

---------------
inquire/ 
2222 1800 8000 100 check 
6666 1800 8000 100 check 
1111 1800 8000 100 check 
4444 1800 8000 100 check 
7777 1800 8000 100 check 
5555 2600 8000 100 check 
3333 1800 8000 100 check 
8888 1800 8000 100 check 
total pot: 800 
/inquire 

---------------

---------------
showdown/ 
common/ 
HEARTS Q 
SPADES 7 
CLUBS 8 
SPADES 8 
CLUBS K 
/common 
6: 5555 DIAMONDS 6 HEARTS 6 TWO_PAIR 
1: 7777 DIAMONDS 8 DIAMONDS 3 THREE_OF_A_KIND 
3: 4444 SPADES Q CLUBS 9 TWO_PAIR 
5: 1111 CLUBS 7 DIAMONDS A TWO_PAIR 
7: 6666 SPADES 6 DIAMONDS 2 ONE_PAIR 
2: 2222 SPADES K HEARTS 10 TWO_PAIR 
4: 8888 CLUBS J SPADES J TWO_PAIR 
3: 3333 DIAMONDS 10 CLUBS Q TWO_PAIR 
/showdown 

---------------

---------------
pot-win/ 
7777: 800 
/pot-win 

---------------

---------------
seat/ 
button: 5555 2600 8000 
small blind: 7777 2600 8000 
big blind: 4444 1800 8000 
1111 1800 8000 
6666 1800 8000 
2222 1800 8000 
8888 1800 8000 
3333 1800 8000 
/seat 

---------------

---------------
blind/ 
7777: 50 
4444: 100 
/blind 

---------------

---------------
hold/ 
SPADES Q 
SPADES K 
/hold 

---------------

---------------
inquire/ 
2222 1700 8000 100 call 
6666 1700 8000 100 call 
1111 1700 8000 100 call 
4444 1700 8000 100 blind 
7777 2550 8000 50 blind 
total pot: 450 
/inquire 

---------------

---------------
flop/ 
SPADES 6 
CLUBS 8 
DIAMONDS 5 
/flop 

---------------

---------------
inquire/ 
2222 1700 8000 100 check 
6666 1700 8000 100 check 
1111 1700 8000 100 check 
4444 1700 8000 100 check 
7777 2500 8000 100 check 
5555 2500 8000 100 call 
3333 1700 8000 100 call 
8888 1700 8000 100 call 
total pot: 800 
/inquire 

---------------

---------------
turn/ 
DIAMONDS J 
/turn 

---------------

---------------
inquire/ 
2222 1700 8000 100 check 
6666 1700 8000 100 check 
1111 1700 8000 100 check 
4444 1700 8000 100 check 
7777 2500 8000 100 check 
5555 2500 8000 100 check 
3333 1700 8000 100 check 
8888 1700 8000 100 check 
total pot: 800 
/inquire 

---------------

---------------
river/ 
CLUBS 3 
/river 

---------------

---------------
inquire/ 
2222 1700 8000 100 check 
6666 1700 8000 100 check 
1111 1700 8000 100 check 
4444 1700 8000 100 check 
7777 2500 8000 100 check 
5555 2500 8000 100 check 
3333 1700 8000 100 check 
8888 1700 8000 100 check 
total pot: 800 
/inquire 

---------------

---------------
showdown/ 
common/ 
SPADES 6 
CLUBS 8 
DIAMONDS 5 
DIAMONDS J 
CLUBS 3 
/common 
7: 7777 CLUBS 10 HEARTS Q HIGH_CARD 
1: 4444 DIAMONDS 7 DIAMONDS 6 ONE_PAIR 
8: 1111 DIAMONDS 9 HEARTS 4 HIGH_CARD 
4: 6666 DIAMONDS A CLUBS K HIGH_CARD 
5: 2222 SPADES A DIAMONDS 4 HIGH_CARD 
6: 8888 SPADES Q SPADES K HIGH_CARD 
3: 3333 HEARTS 7 HEARTS 3 ONE_PAIR 
2: 5555 SPADES 7 HEARTS 5 ONE_PAIR 
/showdown 

---------------

---------------
pot-win/ 
4444: 800 
/pot-win 

---------------

---------------
seat/ 
button: 7777 2500 8000 
small blind: 4444 2500 8000 
big blind: 1111 1700 8000 
6666 1700 8000 
2222 1700 8000 
8888 1700 8000 
3333 1700 8000 
5555 2500 8000 
/seat 

---------------

---------------
blind/ 
4444: 50 
1111: 100 
/blind 

---------------

---------------
hold/ 
SPADES A 
DIAMONDS 4 
/hold 

---------------

---------------
inquire/ 
2222 1600 8000 100 call 
6666 1600 8000 100 call 
1111 1600 8000 100 blind 
4444 2450 8000 50 blind 
total pot: 350 
/inquire 

---------------

---------------
flop/ 
SPADES 6 
CLUBS 8 
DIAMONDS 5 
/flop 

---------------

---------------
inquire/ 
2222 1600 8000 100 check 
6666 1600 8000 100 check 
1111 1600 8000 100 check 
4444 2400 8000 100 check 
7777 2400 8000 100 call 
5555 2400 8000 100 call 
3333 1600 8000 100 call 
8888 1600 8000 100 call 
total pot: 800 
/inquire 

---------------

---------------
turn/ 
DIAMONDS J 
/turn 

---------------

---------------
inquire/ 
2222 1600 8000 100 check 
6666 1600 8000 100 check 
1111 1600 8000 100 check 
4444 2400 8000 100 check 
7777 2400 8000 100 check 
5555 2400 8000 100 check 
3333 1600 8000 100 check 
8888 1600 8000 100 check 
total pot: 800 
/inquire 

---------------

---------------
river/ 
CLUBS 3 
/river 

---------------

---------------
inquire/ 
2222 1600 8000 100 check 
6666 1600 8000 100 check 
1111 1600 8000 100 check 
4444 2400 8000 100 check 
7777 2400 8000 100 check 
5555 2400 8000 100 check 
3333 1600 8000 100 check 
8888 1600 8000 100 check 
total pot: 800 
/inquire 

---------------

---------------
showdown/ 
common/ 
SPADES 6 
CLUBS 8 
DIAMONDS 5 
DIAMONDS J 
CLUBS 3 
/common 
7: 4444 CLUBS 10 HEARTS Q HIGH_CARD 
1: 1111 DIAMONDS 7 DIAMONDS 6 ONE_PAIR 
8: 6666 DIAMONDS 9 HEARTS 4 HIGH_CARD 
4: 2222 DIAMONDS A CLUBS K HIGH_CARD 
5: 8888 SPADES A DIAMONDS 4 HIGH_CARD 
6: 3333 SPADES Q SPADES K HIGH_CARD 
3: 5555 HEARTS 7 HEARTS 3 ONE_PAIR 
2: 7777 SPADES 7 HEARTS 5 ONE_PAIR 
/showdown 

---------------

---------------
pot-win/ 
1111: 800 
/pot-win 

---------------

---------------
seat/ 
button: 4444 2400 8000 
small blind: 1111 2400 8000 
big blind: 6666 1600 8000 
2222 1600 8000 
8888 1600 8000 
3333 1600 8000 
5555 2400 8000 
7777 2400 8000 
/seat 

---------------
blind/ 
1111: 50 
6666: 100 
/blind 

---------------

---------------
hold/ 
DIAMONDS A 
CLUBS K 
/hold 

---------------

---------------
inquire/ 
2222 1500 8000 100 call 
6666 1500 8000 100 blind 
1111 2350 8000 50 blind 
total pot: 250 
/inquire 

---------------

---------------
flop/ 
SPADES 6 
CLUBS 8 
DIAMONDS 5 
/flop 

---------------

---------------
inquire/ 
2222 1500 8000 100 check 
6666 1500 8000 100 check 
1111 2300 8000 100 check 
4444 2300 8000 100 call 
7777 2300 8000 100 call 
5555 2300 8000 100 call 
3333 1500 8000 100 call 
8888 1500 8000 100 call 
total pot: 800 
/inquire 

---------------

---------------
turn/ 
DIAMONDS J 
/turn 

---------------

---------------
inquire/ 
2222 1500 8000 100 check 
6666 1500 8000 100 check 
1111 2300 8000 100 check 
4444 2300 8000 100 check 
7777 2300 8000 100 check 
5555 2300 8000 100 check 
3333 1500 8000 100 check 
8888 1500 8000 100 check 
total pot: 800 
/inquire 

---------------

---------------
river/ 
CLUBS 3 
/river 

---------------

---------------
inquire/ 
2222 1500 8000 100 check 
6666 1500 8000 100 check 
1111 2300 8000 100 check 
4444 2300 8000 100 check 
7777 2300 8000 100 check 
5555 2300 8000 100 check 
3333 1500 8000 100 check 
8888 1500 8000 100 check 
total pot: 800 
/inquire 

---------------
0 8000 
2222 1600 8000 
8888 1600 8000 
3333 1600 8000 
5555 2400 8000 
7777 2400 8000 
/seat 

---------------

---------------
blind/ 
1111: 50 
6666: 100 
/blind 

---------------

---------------
hold/ 
CLUBS 10 
HEARTS Q 
/hold 

---------------

---------------
inquire/ 
4444 2300 8000 100 call 
7777 2300 8000 100 call 
5555 2300 8000 100 call 
3333 1500 8000 100 call 
8888 1500 8000 100 call 
2222 1500 8000 100 call 
6666 1500 8000 100 blind 
1111 2350 8000 50 blind 
total pot: 750 
/inquire 

---------------

---------------
flop/ 
SPADES 6 
CLUBS 8 
DIAMONDS 5 
/flop 

---------------

---------------
inquire/ 
4444 2300 8000 100 call 
7777 2300 8000 100 call 
5555 2300 8000 100 call 
3333 1500 8000 100 call 
8888 1500 8000 100 call 
2222 1500 8000 100 call 
6666 1500 8000 100 check 
1111 2300 8000 100 call 
total pot: 800 
/inquire 

---------------

---------------
turn/ 
DIAMONDS J 
/turn 

---------------

---------------
inquire/ 
4444 2300 8000 100 check 
7777 2300 8000 100 check 
5555 2300 8000 100 check 
3333 1500 8000 100 check 
8888 1500 8000 100 check 
2222 1500 8000 100 check 
6666 1500 8000 100 check 
1111 2300 8000 100 check 
total pot: 800 
/inquire 

---------------

---------------
river/ 
CLUBS 3 
/river 

---------------

---------------
inquire/ 
4444 2300 8000 100 check 
7777 2300 8000 100 check 
5555 2300 8000 100 check 
3333 1500 8000 100 check 
8888 1500 8000 100 check 
2222 1500 8000 100 check 
6666 1500 8000 100 check 
1111 2300 8000 100 check 
total pot: 800 
/inquire 

---------------

---------------
showdown/ 
common/ 
SPADES 6 
CLUBS 8 
DIAMONDS 5 
DIAMONDS J 
CLUBS 3 
/common 
7: 1111 CLUBS 10 HEARTS Q HIGH_CARD 
1: 6666 DIAMONDS 7 DIAMONDS 6 ONE_PAIR 
8: 2222 DIAMONDS 9 HEARTS 4 HIGH_CARD 
4: 8888 DIAMONDS A CLUBS K HIGH_CARD 
5: 3333 SPADES A DIAMONDS 4 HIGH_CARD 
6: 5555 SPADES Q SPADES K HIGH_CARD 
3: 7777 HEARTS 7 HEARTS 3 ONE_PAIR 
2: 4444 SPADES 7 HEARTS 5 ONE_PAIR 
/showdown 

---------------

---------------
pot-win/ 
6666: 800 
/pot-win 

---------------

---------------
game-over 

---------------
 
6666 1700 8000 
2222 1700 8000 
8888 1700 8000 
3333 1700 8000 
5555 2500 8000 
/seat 

---------------

---------------
blind/ 
4444: 50 
1111: 100 
/blind 

---------------

---------------
hold/ 
DIAMONDS A 
CLUBS K 
/hold 

---------------

---------------
inquire/ 
6666 1600 8000 100 call 
1111 1600 8000 100 blind 
4444 2450 8000 50 blind 
total pot: 250 
/inquire 

---------------

---------------
flop/ 
SPADES 6 
CLUBS 8 
DIAMONDS 5 
/flop 

---------------

---------------
inquire/ 
6666 1600 8000 100 check 
1111 1600 8000 100 check 
4444 2400 8000 100 check 
7777 2400 8000 100 call 
5555 2400 8000 100 call 
3333 1600 8000 100 call 
8888 1600 8000 100 call 
2222 1600 8000 100 call 
total pot: 800 
/inquire 

---------------

---------------
turn/ 
DIAMONDS J 
/turn 

---------------

---------------
inquire/ 
6666 1600 8000 100 check 
1111 1600 8000 100 check 
4444 2400 8000 100 check 
7777 2400 8000 100 check 
5555 2400 8000 100 check 
3333 1600 8000 100 check 
8888 1600 8000 100 check 
2222 1600 8000 100 check 
total pot: 800 
/inquire 

---------------

---------------
river/ 
CLUBS 3 
/river 

---------------

---------------
inquire/ 
6666 1600 8000 100 check 
1111 1600 8000 100 check 
4444 2400 8000 100 check 
7777 2400 8000 100 check 
5555 2400 8000 100 check 
3333 1600 8000 100 check 
8888 1600 8000 100 check 
2222 1600 8000 100 check 
total pot: 800 
/inquire 

---------------

---------------
showdown/ 
common/ 
SPADES 6 
CLUBS 8 
DIAMONDS 5 
DIAMONDS J 
CLUBS 3 
/common 
7: 4444 CLUBS 10 HEARTS Q HIGH_CARD 
1: 1111 DIAMONDS 7 DIAMONDS 6 ONE_PAIR 
8: 6666 DIAMONDS 9 HEARTS 4 HIGH_CARD 
4: 2222 DIAMONDS A CLUBS K HIGH_CARD 
5: 8888 SPADES A DIAMONDS 4 HIGH_CARD 
6: 3333 SPADES Q SPADES K HIGH_CARD 
3: 5555 HEARTS 7 HEARTS 3 ONE_PAIR 
2: 7777 SPADES 7 HEARTS 5 ONE_PAIR 
/showdown 

---------------

---------------
pot-win/ 
1111: 800 
/pot-win 

---------------

---------------
seat/ 
button: 4444 2400 8000 
small blind: 1111 2400 8000 
big blind: 6666 1600 8000 
2222 1600 8000 
8888 1600 8000 
3333 1600 8000 
5555 2400 8000 
7777 2400 8000 
/seat 

---------------

---------------
blind/ 
1111: 50 
6666: 100 
/blind 

---------------

---------------
hold/ 
DIAMONDS 9 
HEARTS 4 
/hold 

---------------

---------------
inquire/ 
6666 1500 8000 100 blind 
1111 2350 8000 50 blind 
total pot: 150 
/inquire 

---------------

---------------
flop/ 
SPADES 6 
CLUBS 8 
DIAMONDS 5 
/flop 

---------------

---------------
inquire/ 
6666 1500 8000 100 check 
1111 2300 8000 100 check 
4444 2300 8000 100 call 
7777 2300 8000 100 call 
5555 2300 8000 100 call 
3333 1500 8000 100 call 
8888 1500 8000 100 call 
2222 1500 8000 100 call 
total pot: 800 
/inquire 

---------------

---------------
turn/ 
DIAMONDS J 
/turn 

---------------

---------------
inquire/ 
6666 1500 8000 100 check 
1111 2300 8000 100 check 
4444 2300 8000 100 check 
7777 2300 8000 100 check 
5555 2300 8000 100 check 
3333 1500 8000 100 check 
8888 1500 8000 100 check 
2222 1500 8000 100 check 
total pot: 800 
/inquire 

---------------

---------------
river/ 
CLUBS 3 
/river 

---------------

---------------
inquire/ 
6666 1500 8000 100 check 
1111 2300 8000 100 check 
4444 2300 8000 100 check 
7777 2300 8000 100 check 
5555 2300 8000 100 check 
3333 1500 8000 100 check 
8888 1500 8000 100 check 
2222 1500 8000 100 check 
total pot: 800 
/inquire 

---------------

---------------
showdown/ 
common/ 
SPADES 6 
CLUBS 8 
DIAMONDSseat/ 
button: 8888 2000 8000 
small blind: 3333 2000 8000 
big blind: 5555 2000 8000 
7777 2000 8000 
4444 2000 8000 
1111 2000 8000 
6666 2000 8000 
2222 2000 8000 
/seat 

---------------
blind/ 
3333: 50 
5555: 100 
/blind 

---------------

---------------
hold/ 
DIAMONDS 8 
DIAMONDS 3 
/hold 

---------------

---------------
inquire/ 
3333 1900 8000 100 call 
8888 1900 8000 100 call 
2222 1900 8000 100 call 
6666 1900 8000 100 call 
1111 1900 8000 100 call 
4444 1900 8000 100 call 
7777 1900 8000 100 call 
5555 1900 8000 100 blind 
total pot: 800 
/inquire 

---------------

---------------
flop/ 
HEARTS Q 
SPADES 7 
CLUBS 8 
/flop 

---------------

---------------
inquire/ 
3333 1900 8000 100 check 
8888 1900 8000 100 call 
2222 1900 8000 100 call 
6666 1900 8000 100 call 
1111 1900 8000 100 call 
4444 1900 8000 100 call 
7777 1900 8000 100 call 
5555 1900 8000 100 check 
total pot: 800 
/inquire 

---------------

---------------
turn/ 
SPADES 8 
/turn 

---------------

---------------
inquire/ 
3333 1900 8000 100 check 
8888 1900 8000 100 check 
2222 1900 8000 100 check 
6666 1900 8000 100 check 
1111 1900 8000 100 check 
4444 1900 8000 100 check 
7777 1900 8000 100 check 
5555 1900 8000 100 check 
total pot: 800 
/inquire 

---------------

---------------
river/ 
CLUBS K 
/river 

---------------

---------------
inquire/ 
3333 1900 8000 100 check 
8888 1900 8000 100 check 
2222 1900 8000 100 check 
6666 1900 8000 100 check 
1111 1900 8000 100 check 
4444 1900 8000 100 check 
7777 1900 8000 100 check 
5555 1900 8000 100 check 
total pot: 800 
/inquire 

---------------

---------------
showdown/ 
common/ 
HEARTS Q 
SPADES 7 
CLUBS 8 
SPADES 8 
CLUBS K 
/common 
6: 3333 DIAMONDS 6 HEARTS 6 TWO_PAIR 
1: 5555 DIAMONDS 8 DIAMONDS 3 THREE_OF_A_KIND 
3: 7777 SPADES Q CLUBS 9 TWO_PAIR 
5: 4444 CLUBS 7 DIAMONDS A TWO_PAIR 
7: 1111 SPADES 6 DIAMONDS 2 ONE_PAIR 
2: 6666 SPADES K HEARTS 10 TWO_PAIR 
4: 2222 CLUBS J SPADES J TWO_PAIR 
3: 8888 DIAMONDS 10 CLUBS Q TWO_PAIR 
/showdown 

---------------

---------------
pot-win/ 
5555: 800 
/pot-win 

---------------

---------------
seat/ 
button: 3333 1900 8000 
small blind: 5555 2700 8000 
big blind: 7777 1900 8000 
4444 1900 8000 
1111 1900 8000 
6666 1900 8000 
2222 1900 8000 
8888 1900 8000 
/seat 

---------------

---------------
blind/ 
5555: 50 
7777: 100 
/blind 

---------------

---------------
hold/ 
DIAMONDS 6 
HEARTS 6 
/hold 

---------------

---------------
inquire/ 
3333 1800 8000 100 call 
8888 1800 8000 100 call 
2222 1800 8000 100 call 
6666 1800 8000 100 call 
1111 1800 8000 100 call 
4444 1800 8000 100 call 
7777 1800 8000 100 blind 
5555 2650 8000 50 blind 
total pot: 750 
/inquire 

---------------

---------------
flop/ 
HEARTS Q 
SPADES 7 
CLUBS 8 
/flop 

---------------

---------------
inquire/ 
3333 1800 8000 100 call 
8888 1800 8000 100 call 
2222 1800 8000 100 call 
6666 1800 8000 100 call 
1111 1800 8000 100 call 
4444 1800 8000 100 call 
7777 1800 8000 100 check 
5555 2600 8000 100 call 
total pot: 800 
/inquire 

---------------

---------------
turn/ 
SPADES 8 
/turn 

---------------

---------------
inquire/ 
3333 1800 8000 100 check 
8888 1800 8000 100 check 
2222 1800 8000 100 check 
6666 1800 8000 100 check 
1111 1800 8000 100 check 
4444 1800 8000 100 check 
7777 1800 8000 100 check 
5555 2600 8000 100 check 
total pot: 800 
/inquire 

---------------

---------------
river/ 
CLUBS K 
/river 

---------------

---------------
inquire/ 
3333 1800 8000 100 check 
8888 1800 8000 100 check 
2222 1800 8000 100 check 
6666 1800 8000 100 check 
1111 1800 8000 100 check 
4444 1800 8000 100 check 
7777 1800 8000 100 check 
5555 2600 8000 100 check 
total pot: 800 
/inquire 

---------------

---------------
showdown/ 
common/ 
HEARTS Q 
SPADES 7 
CLUBS 8 
SPADES 8 
CLUBS K 
/common 
6: 5555 DIAMONDS 6 HEARTS 6 TWO_PAIR 
1: 7777 DIAMONDS 8 DIAMONDS 3 THREE_OF_A_KIND 
3: 4444 SPADES Q CLUBS 9 TWO_PAIR 
5: 1111 CLUBS 7 DIAMONDS A TWO_PAIR 
7: 6666 SPADES 6 DIAMONDS 2 ONE_PAIR 
2: 2222 SPADES K HEARTS 10 TWO_PAIR 
4: 8888 CLUBS J SPADES J TWO_PAIR 
3: 3333 DIAMONDS 10 CLUBS Q TWO_PAIR 
/showdown 

---------------

---------------
pot-win/ 
7777: 800 
/pot-win 

---------------

---------------
seat/ 
button: 5555 2600 8000 
small blind: 7777 2600 8000 
big blind: 4444 1800 8000 
1111 1800 8000 
6666 1800 8000 
2222 1800 8000 
8888 1800 8000 
3333 1800 8000 
/seat 

---------------

---------------
blind/ 
7777: 50 
4444: 100 
/blind 

---------------

---------------
hold/ 
SPADES 7 
HEARTS 5 
/hold 

---------------

---------------
inquire/ 
3333 1700 8000 100 call 
8888 1700 8000 100 call 
2222 1700 8000 100 call 
6666 1700 8000 100 call 
1111 1700 8000 100 call 
4444 1700 8000 100 blind 
7777 2550 8000 50 blind 
total pot: 650 
/inquire 

---------------

---------------
flop/ 
SPADES 6 
CLUBS 8 
DIAMONDS 5 
/flop 

---------------

---------------
inquire/ 
3333 1700 8000 100 check 
8888 1700 8000 100 check 
2222 1700 8000 100 check 
6666 1700 8000 100 check 
1111 1700 8000 100 check 
4444 1700 8000 100 check 
7777 2500 8000 100 check 
5555 2500 8000 100 call 
total pot: 800 
/inquire 

---------------

---------------
turn/ 
DIAMONDS J 
/turn 

---------------

---------------
inquire/ 
3333 1700 8000 100 check 
8888 1700 8000 100 check 
2222 1700 8000 100 check 
6666 1700 8000 100 check 
1111 1700 8000 100 check 
4444 1700 8000 100 check 
7777 2500 8000 100 check 
5555 2500 8000 100 check 
total pot: 800 
/inquire 

---------------

---------------
river/ 
CLUBS 3 
/river 

---------------

---------------
inquire/ 
3333 1700 8000 100 check 
8888 1700 8000 100 check 
2222 1700 8000 100 check 
6666 1700 8000 100 check 
1111 1700 8000 100 check 
4444 1700 8000 100 check 
7777 2500 8000 100 check 
5555 2500 8000 100 check 
total pot: 800 
/inquire 

---------------

---------------
showdown/ 
common/ 
SPADES 6 
CLUBS 8 
DIAMONDS 5 
DIAMONDS J 
CLUBS 3 
/common 
7: 7777 CLUBS 10 HEARTS Q HIGH_CARD 
1: 4444 DIAMONDS 7 DIAMONDS 6 ONE_PAIR 
8: 1111 DIAMONDS 9 HEARTS 4 HIGH_CARD 
4: 6666 DIAMONDS A CLUBS K HIGH_CARD 
5: 2222 SPADES A DIAMONDS 4 HIGH_CARD 
6: 8888 SPADES Q SPADES K HIGH_CARD 
3: 3333 HEARTS 7 HEARTS 3 ONE_PAIR 
2: 5555 SPADES 7 HEARTS 5 ONE_PAIR 
/showdown 

---------------

---------------
pot-win/ 
4444: 800 
/pot-win 

---------------

---------------
seat/ 
button: 7777 2500 8000 
small blind: 4444 2500 8000 
big blind: 1111 1700 8000 
6666 1700 8000 
2222 1700 8000 
8888 1700 8000 
3333 1700 8000 
5555 2500 8000 
/seat 

---------------

---------------
blind/ 
4444: 50 
1111: 100 
/blind 

---------------

---------------
hold/ 
HEARTS 7 
HEARTS 3 
/hold 

---------------

---------------
inquire/ 
3333 1600 8000 100 call 
8888 1600 8000 100 call 
2222 1600 8000 100 call 
6666 1600 8000 100 call 
1111 1600 8000 100 blind 
4444 2450 8000 50 blind 
total pot: 550 
/inquire 

---------------

---------------
flop/ 
SPADES 6 
CLUBS 8 
DIAMONDS 5 
/flop 

---------------

---------------
inquire/ 
3333 1600 8000 100 check 
8888 1600 8000 100 check 
2222 1600 8000 100 check 
6666 1600 8000 100 check 
1111 1600 8000 100 check 
4444 2400 8000 100 check 
7777 2400 8000 100 call 
5555 2400 8000 100 call 
total pot: 800 
/inquire 

---------------

---------------
turn/ 
DIAMONDS J 
/turn 

---------------

---------------
inquire/ 
3333 1600 8000 100 check 
8888 1600 8000 100 check 
2222 1600 8000 100 check 
6666 1600 8000 100 check 
1111 1600 8000 100 check 
4444 2400 8000 100 check 
7777 2400 8000 100 check 
5555 2400 8000 100 check 
total pot: 800 
/inquire 

---------------

---------------
river/ 
CLUBS 3 
/river 

---------------

---------------
inquire/ 
3333 1600 8000 100 check 
8888 1600 8000 100 check 
2222 1600 8000 100 check 
6666 1600 8000 100 check 
1111 1600 8000 100 check 
4444 2400 8000 100 check 
7777 2400 8000 100 check 
5555 2400 8000 100 check 
total pot: 800 
/inquire 

---------------

---------------
showdown/ 
common/ 
SPADES 6 
CLUBS 8 
DIAMONDS 5 
DIAMONDS J 
CLUBS 3 
/common 
7: 4444 CLUBS 10 HEARTS Q HIGH_CARD 
1: 1111 DIAMONDS 7 DIAMONDS 6 ONE_PAIR 
8: 6666 DIAMONDS 9 HEARTS 4 HIGH_CARD 
4: 2222 DIAMONDS A CLUBS K HIGH_CARD 
5: 8888 SPADES A DIAMONDS 4 HIGH_CARD 
6: 3333 SPADES Q SPADES K HIGH_CARD 
3: 5555 HEARTS 7 HEARTS 3 ONE_PAIR 
2: 7777 SPADES 7 HEARTS 5 ONE_PAIR 
/showdown 

---------------

---------------
pot-win/ 
1111: 800 
/pot-win 

---------------

---------------
seat/ 
button: 4444 2400 8000 
small blind: 1111 2400 8000 
big blind: 6666 1600 8000 
2222 1600 8000 
8888 1600 8000 
3333 1600 8000 
5555 2400 8000 
7777 2400 8000 
/seat 

---------------

---------------
blind/ 
1111: 50 
6666: 100 
/blind 

---------------

---------------
hold/ 
SPADES Q 
SPADES K 
/hold 

---------------

---------------
inquire/ 
3333 1500 8000 100 call 
8888 1500 8000 100 call 
2222 1500 8000 100 call 
6666 1500 8000 100 blind 
1111 2350 8000 50 blind 
total pot: 450 
/inquire 

---------------

---------------
flop/ 
SPADES 6 
CLUBS 8 
DIAMONDS 5 
/flop 

---------------

---------------
inquire/ 
3333 1500 8000 100 check 
8888 1500 8000 100 check 
2222 1500 8000 100 check 
6666 1500 8000 100 check 
1111 2300 8000 100 check 
4444 2300 8000 100 call 
7777 2300 8000 100 call 
5555 2300 8000 100 call 
total pot: 800 
/inquire 

---------------

---------------
turn/ 
DIAMONDS J 
/turn 

---------------

---------------
inquire/ 
3333 1500 8000 100 check 
8888 1500 8000 100 check 
2222 1500 8000 100 check 
6666 1500 8000 100 check 
1111 2300 8000 100 check 
4444 2300 8000 100 check 
7777 2300 8000 100 check 
5555 2300 8000 100 check 
total pot: 800 
/inquire 

---------------

---------------
river/ 
CLUBS 3 
/river 

---------------

---------------
inquire/ 
3333 1500 8000 100 check 
8888 1500 8000 100 check 
2222 1500 8000 100 check 
6666 1500 8000 100 check 
1111 2300 8000 100 check 
4444 2300 8000 100 check 
7777 2300 8000 100 check 
5555 2300 8000 100 check 
total pot: 800 
/inquire 

---------------

---------------
showdown/ 
common/ 
SPADES 6 
CLUBS 8 
DIAMONDS 5 
DIAMONDS J 
CLUBS 3 
/common 
7: 1111 CLUBS 10 HEARTS Q HIGH_CARD 
1: 6666 DIAMONDS 7 DIAMONDS 6 ONE_PAIR 
8: 2222 DIAMONDS 9 HEARTS 4 HIGH_CARD 
4: 8888 DIAMONDS A CLUBS K HIGH_CARD 
5: 3333 SPADES A DIAMONDS 4 HIGH_CARD 
6: 5555 SPADES Q SPADES K HIGH_CARD 
3: 7777 HEARTS 7 HEARTS 3 ONE_PAIR 
2: 4444 SPADES 7 HEARTS 5 ONE_PAIR 
/showdown 

---------------

---------------
pot-win/ 
6666: 800 
/pot-win 

---------------

---------------
game-over 

---------------
