seat/ 
button: 3333 2000 8000 
small blind: 7777 2000 8000 
big blind: 6666 2000 8000 
1111 2000 8000 
2222 2000 8000 
8888 2000 8000 
5555 2000 8000 
4444 2000 8000 
/seat 

------------


blind/ 
7777: 50 
6666: 100 
/blind 

------------



------------


hold/ 
DIAMONDS Q 
DIAMONDS 9 
/hold 

------------



------------


inquire/ 
2222 1900 8000 100 call 
1111 1900 8000 100 call 
6666 1900 8000 100 blind 
7777 1950 8000 50 blind 
total pot: 350 
/inquire 

------------



------------


flop/ 
HEARTS 7 
SPADES A 
SPADES 9 
/flop 

------------



------------


inquire/ 
2222 1900 8000 100 check 
1111 1900 8000 100 check 
6666 1900 8000 100 check 
7777 1900 8000 100 check 
3333 1900 8000 100 call 
4444 1900 8000 100 call 
5555 1900 8000 100 call 
8888 1900 8000 100 call 
total pot: 800 
/inquire 

------------



------------


turn/ 
HEARTS A 
/turn 

------------



------------


inquire/ 
2222 1900 8000 100 check 
1111 1900 8000 100 check 
6666 1900 8000 100 check 
7777 1900 8000 100 check 
3333 1900 8000 100 check 
4444 1900 8000 100 check 
5555 1900 8000 100 check 
8888 1900 8000 100 check 
total pot: 800 
/inquire 

------------



------------


river/ 
HEARTS Q 
/river 

------------



------------


inquire/ 
2222 1900 8000 100 check 
1111 1900 8000 100 check 
6666 1900 8000 100 check 
7777 1900 8000 100 check 
3333 1900 8000 100 check 
4444 1900 8000 100 check 
5555 1900 8000 100 check 
8888 1900 8000 100 check 
total pot: 800 
/inquire 

------------



------------


showdown/ 
common/ 
HEARTS 7 
SPADES A 
SPADES 9 
HEARTS A 
HEARTS Q 
/common 
1: 7777 CLUBS A SPADES 4 THREE_OF_A_KIND 
7: 6666 CLUBS 3 CLUBS 10 ONE_PAIR 
6: 1111 CLUBS 4 SPADES J ONE_PAIR 
4: 2222 CLUBS 6 HEARTS 6 TWO_PAIR 
2: 8888 DIAMONDS Q DIAMONDS 9 TWO_PAIR 
5: 5555 SPADES K SPADES 6 ONE_PAIR 
8: 4444 SPADES 3 SPADES 2 ONE_PAIR 
3: 3333 DIAMONDS 3 DIAMONDS 7 TWO_PAIR 
/showdown 

------------



------------


pot-win/ 
7777: 800 
/pot-win 

------------


seat/ 
button: 7777 2700 8000 
small blind: 6666 1900 8000 
big blind: 1111 1900 8000 
2222 1900 8000 
8888 1900 8000 
5555 1900 8000 
4444 1900 8000 
3333 1900 8000 
/seat 

------------


blind/ 
6666: 50 
1111: 100 
/blind 

------------


hold/ 
CLUBS 6 
HEARTS 6 
/hold 

------------


inquire/ 
2222 1800 8000 100 call 
1111 1800 8000 100 blind 
6666 1850 8000 50 blind 
total pot: 250 
/inquire 

------------



------------


flop/ 
HEARTS 7 
SPADES A 
SPADES 9 
/flop 

------------



------------


inquire/ 
2222 1800 8000 100 check 
1111 1800 8000 100 check 
6666 1800 8000 100 check 
7777 2600 8000 100 call 
3333 1800 8000 100 call 
4444 1800 8000 100 call 
5555 1800 8000 100 call 
8888 1800 8000 100 call 
total pot: 800 
/inquire 

------------



------------


turn/ 
HEARTS A 
/turn 

------------



------------


inquire/ 
2222 1800 8000 100 check 
1111 1800 8000 100 check 
6666 1800 8000 100 check 
7777 2600 8000 100 check 
3333 1800 8000 100 check 
4444 1800 8000 100 check 
5555 1800 8000 100 check 
8888 1800 8000 100 check 
total pot: 800 
/inquire 

------------



------------


river/ 
HEARTS Q 
/river 

------------



------------


inquire/ 
2222 1800 8000 100 check 
1111 1800 8000 100 check 
6666 1800 8000 100 check 
7777 2600 8000 100 check 
3333 1800 8000 100 check 
4444 1800 8000 100 check 
5555 1800 8000 100 check 
8888 1800 8000 100 check 
total pot: 800 
/inquire 

------------



------------


showdown/ 
common/ 
HEARTS 7 
SPADES A 
SPADES 9 
HEARTS A 
HEARTS Q 
/common 
1: 6666 CLUBS A SPADES 4 THREE_OF_A_KIND 
7: 1111 CLUBS 3 CLUBS 10 ONE_PAIR 
6: 2222 CLUBS 4 SPADES J ONE_PAIR 
4: 8888 CLUBS 6 HEARTS 6 TWO_PAIR 
2: 5555 DIAMONDS Q DIAMONDS 9 TWO_PAIR 
5: 4444 SPADES K SPADES 6 ONE_PAIR 
8: 3333 SPADES 3 SPADES 2 ONE_PAIR 
3: 7777 DIAMONDS 3 DIAMONDS 7 TWO_PAIR 
/showdown 

------------



------------


pot-win/ 
6666: 800 
/pot-win 

------------


seat/ 
button: 6666 2600 8000 
small blind: 1111 1800 8000 
big blind: 2222 1800 8000 
8888 1800 8000 
5555 1800 8000 
4444 1800 8000 
3333 1800 8000 
7777 2600 8000 
/seat 

------------


blind/ 
1111: 50 
2222: 100 
/blind 

------------


hold/ 
CLUBS 4 
SPADES J 
/hold 

------------


inquire/ 
2222 1700 8000 100 blind 
1111 1750 8000 50 blind 
total pot: 150 
/inquire 

------------



------------


flop/ 
HEARTS 7 
SPADES A 
SPADES 9 
/flop 

------------



------------


inquire/ 
2222 1700 8000 100 check 
1111 1700 8000 100 check 
6666 2500 8000 100 call 
7777 2500 8000 100 call 
3333 1700 8000 100 call 
4444 1700 8000 100 call 
5555 1700 8000 100 call 
8888 1700 8000 100 call 
total pot: 800 
/inquire 

------------



------------


turn/ 
HEARTS A 
/turn 

------------



------------


inquire/ 
2222 1700 8000 100 check 
1111 1700 8000 100 check 
6666 2500 8000 100 check 
7777 2500 8000 100 check 
3333 1700 8000 100 check 
4444 1700 8000 100 check 
5555 1700 8000 100 check 
8888 1700 8000 100 check 
total pot: 800 
/inquire 

------------



------------


river/ 
HEARTS Q 
/river 

------------



------------


inquire/ 
2222 1700 8000 100 check 
1111 1700 8000 100 check 
6666 2500 8000 100 check 
7777 2500 8000 100 check 
3333 1700 8000 100 check 
4444 1700 8000 100 check 
5555 1700 8000 100 check 
8888 1700 8000 100 check 
total pot: 800 
/inquire 

------------



------------


showdown/ 
common/ 
HEARTS 7 
SPADES A 
SPADES 9 
HEARTS A 
HEARTS Q 
/common 
1: 1111 CLUBS A SPADES 4 THREE_OF_A_KIND 
7: 2222 CLUBS 3 CLUBS 10 ONE_PAIR 
6: 8888 CLUBS 4 SPADES J ONE_PAIR 
4: 5555 CLUBS 6 HEARTS 6 TWO_PAIR 
2: 4444 DIAMONDS Q DIAMONDS 9 TWO_PAIR 
5: 3333 SPADES K SPADES 6 ONE_PAIR 
8: 7777 SPADES 3 SPADES 2 ONE_PAIR 
3: 6666 DIAMONDS 3 DIAMONDS 7 TWO_PAIR 
/showdown 

------------



------------


pot-win/ 
1111: 800 
/pot-win 

------------


seat/ 
button: 1111 2500 8000 
small blind: 2222 1700 8000 
big blind: 8888 1700 8000 
5555 1700 8000 
4444 1700 8000 
3333 1700 8000 
7777 2500 8000 
6666 2500 8000 
/seat 

------------


blind/ 
2222: 50 
8888: 100 
/blind 

------------


hold/ 
CLUBS 3 
CLUBS 10 
/hold 

------------



------------


inquire/ 
2222 1600 8000 100 call 
1111 2400 8000 100 call 
6666 2400 8000 100 call 
7777 2400 8000 100 call 
3333 1600 8000 100 call 
4444 1600 8000 100 call 
5555 1600 8000 100 call 
8888 1600 8000 100 blind 
total pot: 800 
/inquire 

------------



------------


flop/ 
HEARTS 7 
SPADES A 
SPADES 9 
/flop 

------------



------------


inquire/ 
2222 1600 8000 100 check 
1111 2400 8000 100 call 
6666 2400 8000 100 call 
7777 2400 8000 100 call 
3333 1600 8000 100 call 
4444 1600 8000 100 call 
5555 1600 8000 100 call 
8888 1600 8000 100 check 
total pot: 800 
/inquire 

------------



------------


turn/ 
HEARTS A 
/turn 

------------



------------


inquire/ 
2222 1600 8000 100 check 
1111 2400 8000 100 check 
6666 2400 8000 100 check 
7777 2400 8000 100 check 
3333 1600 8000 100 check 
4444 1600 8000 100 check 
5555 1600 8000 100 check 
8888 1600 8000 100 check 
total pot: 800 
/inquire 

------------



------------


river/ 
HEARTS Q 
/river 

------------



------------


inquire/ 
2222 1600 8000 100 check 
1111 2400 8000 100 check 
6666 2400 8000 100 check 
7777 2400 8000 100 check 
3333 1600 8000 100 check 
4444 1600 8000 100 check 
5555 1600 8000 100 check 
8888 1600 8000 100 check 
total pot: 800 
/inquire 

------------



------------


showdown/ 
common/ 
HEARTS 7 
SPADES A 
SPADES 9 
HEARTS A 
HEARTS Q 
/common 
1: 2222 CLUBS A SPADES 4 THREE_OF_A_KIND 
7: 8888 CLUBS 3 CLUBS 10 ONE_PAIR 
6: 5555 CLUBS 4 SPADES J ONE_PAIR 
4: 4444 CLUBS 6 HEARTS 6 TWO_PAIR 
2: 3333 DIAMONDS Q DIAMONDS 9 TWO_PAIR 
5: 7777 SPADES K SPADES 6 ONE_PAIR 
8: 6666 SPADES 3 SPADES 2 ONE_PAIR 
3: 1111 DIAMONDS 3 DIAMONDS 7 TWO_PAIR 
/showdown 

------------



------------


pot-win/ 
2222: 800 
/pot-win 

------------


seat/ 
button: 2222 2400 8000 
small blind: 8888 1600 8000 
big blind: 5555 1600 8000 
4444 1600 8000 
3333 1600 8000 
7777 2400 8000 
6666 2400 8000 
1111 2400 8000 
/seat 

------------


blind/ 
8888: 50 
5555: 100 
/blind 

------------


hold/ 
CLUBS 10 
CLUBS 7 
/hold 

------------



------------


inquire/ 
2222 2300 8000 100 call 
1111 2300 8000 100 call 
6666 2300 8000 100 call 
7777 2300 8000 100 call 
3333 1500 8000 100 call 
4444 1500 8000 100 call 
5555 1500 8000 100 blind 
8888 1550 8000 50 blind 
total pot: 750 
/inquire 

------------



------------


flop/ 
CLUBS 2 
CLUBS A 
DIAMONDS 5 
/flop 

------------



------------


inquire/ 
2222 2300 8000 100 call 
1111 2300 8000 100 call 
6666 2300 8000 100 call 
7777 2300 8000 100 call 
3333 1500 8000 100 call 
4444 1500 8000 100 call 
5555 1500 8000 100 check 
8888 1500 8000 100 call 
total pot: 800 
/inquire 

------------



------------


turn/ 
SPADES 9 
/turn 

------------



------------


inquire/ 
2222 2300 8000 100 check 
1111 2300 8000 100 check 
6666 2300 8000 100 check 
7777 2300 8000 100 check 
3333 1500 8000 100 check 
4444 1500 8000 100 check 
5555 1500 8000 100 check 
8888 1500 8000 100 check 
total pot: 800 
/inquire 

------------



------------


river/ 
CLUBS 9 
/river 

------------



------------


inquire/ 
2222 2300 8000 100 check 
1111 2300 8000 100 check 
6666 2300 8000 100 check 
7777 2300 8000 100 check 
3333 1500 8000 100 check 
4444 1500 8000 100 check 
5555 1500 8000 100 check 
8888 1500 8000 100 check 
total pot: 800 
/inquire 

------------



------------


showdown/ 
common/ 
CLUBS 2 
CLUBS A 
DIAMONDS 5 
SPADES 9 
CLUBS 9 
/common 
2: 8888 CLUBS 10 CLUBS 7 FLUSH 
5: 5555 HEARTS 5 SPADES 3 TWO_PAIR 
5: 4444 SPADES 5 DIAMONDS 3 TWO_PAIR 
7: 3333 SPADES 8 HEARTS J ONE_PAIR 
6: 7777 SPADES 4 SPADES K ONE_PAIR 
4: 6666 HEARTS K DIAMONDS K TWO_PAIR 
1: 1111 CLUBS J CLUBS 3 FLUSH 
3: 2222 HEARTS 9 HEARTS 6 THREE_OF_A_KIND 
/showdown 

------------



------------


pot-win/ 
1111: 800 
/pot-win 

------------


seat/ 
button: 8888 1500 8000 
small blind: 5555 1500 8000 
big blind: 4444 1500 8000 
3333 1500 8000 
7777 2300 8000 
6666 2300 8000 
1111 3100 8000 
2222 2300 8000 
/seat 

------------


blind/ 
5555: 50 
4444: 100 
/blind 

------------


hold/ 
HEARTS 9 
HEARTS 6 
/hold 

------------



------------


inquire/ 
2222 2200 8000 100 call 
1111 3000 8000 100 call 
6666 2200 8000 100 call 
7777 2200 8000 100 call 
3333 1400 8000 100 call 
4444 1400 8000 100 blind 
5555 1450 8000 50 blind 
total pot: 650 
/inquire 

------------



------------


flop/ 
CLUBS 2 
CLUBS A 
DIAMONDS 5 
/flop 

------------



------------


inquire/ 
2222 2200 8000 100 check 
1111 3000 8000 100 check 
6666 2200 8000 100 check 
7777 2200 8000 100 check 
3333 1400 8000 100 check 
4444 1400 8000 100 check 
5555 1400 8000 100 check 
8888 1400 8000 100 call 
total pot: 800 
/inquire 

------------



------------


turn/ 
SPADES 9 
/turn 

------------



------------


inquire/ 
2222 2200 8000 100 check 
1111 3000 8000 100 check 
6666 2200 8000 100 check 
7777 2200 8000 100 check 
3333 1400 8000 100 check 
4444 1400 8000 100 check 
5555 1400 8000 100 check 
8888 1400 8000 100 check 
total pot: 800 
/inquire 

------------



------------


river/ 
CLUBS 9 
/river 

------------



------------


inquire/ 
2222 2200 8000 100 check 
1111 3000 8000 100 check 
6666 2200 8000 100 check 
7777 2200 8000 100 check 
3333 1400 8000 100 check 
4444 1400 8000 100 check 
5555 1400 8000 100 check 
8888 1400 8000 100 check 
total pot: 800 
/inquire 

------------



------------


showdown/ 
common/ 
CLUBS 2 
CLUBS A 
DIAMONDS 5 
SPADES 9 
CLUBS 9 
/common 
2: 5555 CLUBS 10 CLUBS 7 FLUSH 
5: 4444 HEARTS 5 SPADES 3 TWO_PAIR 
5: 3333 SPADES 5 DIAMONDS 3 TWO_PAIR 
7: 7777 SPADES 8 HEARTS J ONE_PAIR 
6: 6666 SPADES 4 SPADES K ONE_PAIR 
4: 1111 HEARTS K DIAMONDS K TWO_PAIR 
1: 2222 CLUBS J CLUBS 3 FLUSH 
3: 8888 HEARTS 9 HEARTS 6 THREE_OF_A_KIND 
/showdown 

------------



------------


pot-win/ 
2222: 800 
/pot-win 

------------


seat/ 
button: 5555 1400 8000 
small blind: 4444 1400 8000 
big blind: 3333 1400 8000 
7777 2200 8000 
6666 2200 8000 
1111 3000 8000 
2222 3000 8000 
8888 1400 8000 
/seat 

------------


blind/ 
4444: 50 
3333: 100 
/blind 

------------


hold/ 
CLUBS J 
CLUBS 3 
/hold 

------------



------------


inquire/ 
2222 2900 8000 100 call 
1111 2900 8000 100 call 
6666 2100 8000 100 call 
7777 2100 8000 100 call 
3333 1300 8000 100 blind 
4444 1350 8000 50 blind 
total pot: 550 
/inquire 

------------



------------


flop/ 
CLUBS 2 
CLUBS A 
DIAMONDS 5 
/flop 

------------



------------


inquire/ 
2222 2900 8000 100 check 
1111 2900 8000 100 check 
6666 2100 8000 100 check 
7777 2100 8000 100 check 
3333 1300 8000 100 check 
4444 1300 8000 100 check 
5555 1300 8000 100 call 
8888 1300 8000 100 call 
total pot: 800 
/inquire 

------------



------------


turn/ 
SPADES 9 
/turn 

------------



------------


inquire/ 
2222 2900 8000 100 check 
1111 2900 8000 100 check 
6666 2100 8000 100 check 
7777 2100 8000 100 check 
3333 1300 8000 100 check 
4444 1300 8000 100 check 
5555 1300 8000 100 check 
8888 1300 8000 100 check 
total pot: 800 
/inquire 

------------



------------


river/ 
CLUBS 9 
/river 

------------



------------


inquire/ 
2222 2900 8000 100 check 
1111 2900 8000 100 check 
6666 2100 8000 100 check 
7777 2100 8000 100 check 
3333 1300 8000 100 check 
4444 1300 8000 100 check 
5555 1300 8000 100 check 
8888 1300 8000 100 check 
total pot: 800 
/inquire 

------------



------------


showdown/ 
common/ 
CLUBS 2 
CLUBS A 
DIAMONDS 5 
SPADES 9 
CLUBS 9 
/common 
2: 4444 CLUBS 10 CLUBS 7 FLUSH 
5: 3333 HEARTS 5 SPADES 3 TWO_PAIR 
5: 7777 SPADES 5 DIAMONDS 3 TWO_PAIR 
7: 6666 SPADES 8 HEARTS J ONE_PAIR 
6: 1111 SPADES 4 SPADES K ONE_PAIR 
4: 2222 HEARTS K DIAMONDS K TWO_PAIR 
1: 8888 CLUBS J CLUBS 3 FLUSH 
3: 5555 HEARTS 9 HEARTS 6 THREE_OF_A_KIND 
/showdown 

------------



------------


pot-win/ 
8888: 800 
/pot-win 

------------


seat/ 
button: 4444 1300 8000 
small blind: 3333 1300 8000 
big blind: 7777 2100 8000 
6666 2100 8000 
1111 2900 8000 
2222 2900 8000 
8888 2100 8000 
5555 1300 8000 
/seat 

------------


blind/ 
3333: 50 
7777: 100 
/blind 

------------


hold/ 
HEARTS K 
DIAMONDS K 
/hold 

------------



------------


inquire/ 
2222 2800 8000 100 call 
1111 2800 8000 100 call 
6666 2000 8000 100 call 
7777 2000 8000 100 blind 
3333 1250 8000 50 blind 
total pot: 450 
/inquire 

------------



------------


flop/ 
CLUBS 2 
CLUBS A 
DIAMONDS 5 
/flop 

------------



------------


inquire/ 
2222 2800 8000 100 check 
1111 2800 8000 100 check 
6666 2000 8000 100 check 
7777 2000 8000 100 check 
3333 1200 8000 100 check 
4444 1200 8000 100 call 
5555 1200 8000 100 call 
8888 2000 8000 100 call 
total pot: 800 
/inquire 

------------



------------


turn/ 
SPADES 9 
/turn 

------------



------------


inquire/ 
2222 2800 8000 100 check 
1111 2800 8000 100 check 
6666 2000 8000 100 check 
7777 2000 8000 100 check 
3333 1200 8000 100 check 
4444 1200 8000 100 check 
5555 1200 8000 100 check 
8888 2000 8000 100 check 
total pot: 800 
/inquire 

------------



------------


river/ 
CLUBS 9 
/river 

------------



------------


inquire/ 
2222 2800 8000 100 check 
1111 2800 8000 100 check 
6666 2000 8000 100 check 
7777 2000 8000 100 check 
3333 1200 8000 100 check 
4444 1200 8000 100 check 
5555 1200 8000 100 check 
8888 2000 8000 100 check 
total pot: 800 
/inquire 

------------



------------


showdown/ 
common/ 
CLUBS 2 
CLUBS A 
DIAMONDS 5 
SPADES 9 
CLUBS 9 
/common 
2: 3333 CLUBS 10 CLUBS 7 FLUSH 
5: 7777 HEARTS 5 SPADES 3 TWO_PAIR 
5: 6666 SPADES 5 DIAMONDS 3 TWO_PAIR 
7: 1111 SPADES 8 HEARTS J ONE_PAIR 
6: 2222 SPADES 4 SPADES K ONE_PAIR 
4: 8888 HEARTS K DIAMONDS K TWO_PAIR 
1: 5555 CLUBS J CLUBS 3 FLUSH 
3: 4444 HEARTS 9 HEARTS 6 THREE_OF_A_KIND 
/showdown 

------------



------------


pot-win/ 
5555: 800 
/pot-win 

------------


seat/ 
button: 3333 1200 8000 
small blind: 7777 2000 8000 
big blind: 6666 2000 8000 
1111 2800 8000 
2222 2800 8000 
8888 2000 8000 
5555 2000 8000 
4444 1200 8000 
/seat 

------------


blind/ 
7777: 50 
6666: 100 
/blind 

------------


hold/ 
SPADES 4 
SPADES K 
/hold 

------------



------------


inquire/ 
2222 2700 8000 100 call 
1111 2700 8000 100 call 
6666 1900 8000 100 blind 
7777 1950 8000 50 blind 
total pot: 350 
/inquire 

------------



------------


flop/ 
CLUBS 2 
CLUBS A 
DIAMONDS 5 
/flop 

------------



------------


inquire/ 
2222 2700 8000 100 check 
1111 2700 8000 100 check 
6666 1900 8000 100 check 
7777 1900 8000 100 check 
3333 1100 8000 100 call 
4444 1100 8000 100 call 
5555 1900 8000 100 call 
8888 1900 8000 100 call 
total pot: 800 
/inquire 

------------



------------


turn/ 
SPADES 9 
/turn 

------------



------------


inquire/ 
2222 2700 8000 100 check 
1111 2700 8000 100 check 
6666 1900 8000 100 check 
7777 1900 8000 100 check 
3333 1100 8000 100 check 
4444 1100 8000 100 check 
5555 1900 8000 100 check 
8888 1900 8000 100 check 
total pot: 800 
/inquire 

------------



------------


river/ 
CLUBS 9 
/river 

------------



------------


inquire/ 
2222 2700 8000 100 check 
1111 2700 8000 100 check 
6666 1900 8000 100 check 
7777 1900 8000 100 check 
3333 1100 8000 100 check 
4444 1100 8000 100 check 
5555 1900 8000 100 check 
8888 1900 8000 100 check 
total pot: 800 
/inquire 

------------



------------


showdown/ 
common/ 
CLUBS 2 
CLUBS A 
DIAMONDS 5 
SPADES 9 
CLUBS 9 
/common 
2: 7777 CLUBS 10 CLUBS 7 FLUSH 
5: 6666 HEARTS 5 SPADES 3 TWO_PAIR 
5: 1111 SPADES 5 DIAMONDS 3 TWO_PAIR 
7: 2222 SPADES 8 HEARTS J ONE_PAIR 
6: 8888 SPADES 4 SPADES K ONE_PAIR 
4: 5555 HEARTS K DIAMONDS K TWO_PAIR 
1: 4444 CLUBS J CLUBS 3 FLUSH 
3: 3333 HEARTS 9 HEARTS 6 THREE_OF_A_KIND 
/showdown 

------------



------------


pot-win/ 
4444: 800 
/pot-win 

------------


seat/ 
button: 7777 1900 8000 
small blind: 6666 1900 8000 
big blind: 1111 2700 8000 
2222 2700 8000 
8888 1900 8000 
5555 1900 8000 
4444 1900 8000 
3333 1100 8000 
/seat 

------------


blind/ 
6666: 50 
1111: 100 
/blind 

------------


hold/ 
SPADES 8 
HEARTS J 
/hold 

------------



------------


inquire/ 
2222 2600 8000 100 call 
1111 2600 8000 100 blind 
6666 1850 8000 50 blind 
total pot: 250 
/inquire 

------------



------------


flop/ 
CLUBS 2 
CLUBS A 
DIAMONDS 5 
/flop 

------------



------------


inquire/ 
2222 2600 8000 100 check 
1111 2600 8000 100 check 
6666 1800 8000 100 check 
7777 1800 8000 100 call 
3333 1000 8000 100 call 
4444 1800 8000 100 call 
5555 1800 8000 100 call 
8888 1800 8000 100 call 
total pot: 800 
/inquire 

------------



------------


turn/ 
SPADES 9 
/turn 

------------



------------


inquire/ 
2222 2600 8000 100 check 
1111 2600 8000 100 check 
6666 1800 8000 100 check 
7777 1800 8000 100 check 
3333 1000 8000 100 check 
4444 1800 8000 100 check 
5555 1800 8000 100 check 
8888 1800 8000 100 check 
total pot: 800 
/inquire 

------------



------------


river/ 
CLUBS 9 
/river 

------------



------------


inquire/ 
2222 2600 8000 100 check 
1111 2600 8000 100 check 
6666 1800 8000 100 check 
7777 1800 8000 100 check 
3333 1000 8000 100 check 
4444 1800 8000 100 check 
5555 1800 8000 100 check 
8888 1800 8000 100 check 
total pot: 800 
/inquire 

------------



------------


showdown/ 
common/ 
CLUBS 2 
CLUBS A 
DIAMONDS 5 
SPADES 9 
CLUBS 9 
/common 
2: 6666 CLUBS 10 CLUBS 7 FLUSH 
5: 1111 HEARTS 5 SPADES 3 TWO_PAIR 
5: 2222 SPADES 5 DIAMONDS 3 TWO_PAIR 
7: 8888 SPADES 8 HEARTS J ONE_PAIR 
6: 5555 SPADES 4 SPADES K ONE_PAIR 
4: 4444 HEARTS K DIAMONDS K TWO_PAIR 
1: 3333 CLUBS J CLUBS 3 FLUSH 
3: 7777 HEARTS 9 HEARTS 6 THREE_OF_A_KIND 
/showdown 

------------



------------


pot-win/ 
3333: 800 
/pot-win 

------------


seat/ 
button: 6666 1800 8000 
small blind: 1111 2600 8000 
big blind: 2222 2600 8000 
8888 1800 8000 
5555 1800 8000 
4444 1800 8000 
3333 1800 8000 
7777 1800 8000 
/seat 

------------


blind/ 
1111: 50 
2222: 100 
/blind 

------------


hold/ 
SPADES 7 
CLUBS 4 
/hold 

------------


inquire/ 
2222 2500 8000 100 blind 
1111 2550 8000 50 blind 
total pot: 150 
/inquire 

------------



------------


flop/ 
SPADES K 
DIAMONDS 9 
HEARTS 6 
/flop 

------------



------------


inquire/ 
2222 2500 8000 100 check 
1111 2500 8000 100 check 
6666 1700 8000 100 call 
7777 1700 8000 100 call 
3333 1700 8000 100 call 
4444 1700 8000 100 call 
5555 1700 8000 100 call 
8888 1700 8000 100 call 
total pot: 800 
/inquire 

------------



------------


turn/ 
DIAMONDS A 
/turn 

------------



------------


inquire/ 
2222 2500 8000 100 check 
1111 2500 8000 100 check 
6666 1700 8000 100 check 
7777 1700 8000 100 check 
3333 1700 8000 100 check 
4444 1700 8000 100 check 
5555 1700 8000 100 check 
8888 1700 8000 100 check 
total pot: 800 
/inquire 

------------



------------


river/ 
CLUBS 10 
/river 

------------



------------


inquire/ 
2222 2500 8000 100 check 
1111 2500 8000 100 check 
6666 1700 8000 100 check 
7777 1700 8000 100 check 
3333 1700 8000 100 check 
4444 1700 8000 100 check 
5555 1700 8000 100 check 
8888 1700 8000 100 check 
total pot: 800 
/inquire 

------------



------------


showdown/ 
common/ 
SPADES K 
DIAMONDS 9 
HEARTS 6 
DIAMONDS A 
CLUBS 10 
/common 
1: 1111 DIAMONDS 7 CLUBS A ONE_PAIR 
5: 2222 SPADES 3 SPADES 6 ONE_PAIR 
7: 8888 SPADES 7 CLUBS 4 HIGH_CARD 
2: 5555 HEARTS 8 DIAMONDS 10 ONE_PAIR 
2: 4444 CLUBS 7 SPADES 10 ONE_PAIR 
3: 3333 HEARTS 9 CLUBS J ONE_PAIR 
6: 7777 SPADES J SPADES 8 HIGH_CARD 
4: 6666 CLUBS Q CLUBS 6 ONE_PAIR 
/showdown 

------------



------------


pot-win/ 
1111: 800 
/pot-win 

------------


seat/ 
button: 1111 3300 8000 
small blind: 2222 2500 8000 
big blind: 8888 1700 8000 
5555 1700 8000 
4444 1700 8000 
3333 1700 8000 
7777 1700 8000 
6666 1700 8000 
/seat 

------------


blind/ 
2222: 50 
8888: 100 
/blind 

------------


hold/ 
SPADES 3 
SPADES 6 
/hold 

------------



------------


inquire/ 
2222 2400 8000 100 call 
1111 3200 8000 100 call 
6666 1600 8000 100 call 
7777 1600 8000 100 call 
3333 1600 8000 100 call 
4444 1600 8000 100 call 
5555 1600 8000 100 call 
8888 1600 8000 100 blind 
total pot: 800 
/inquire 

------------



------------


flop/ 
SPADES K 
DIAMONDS 9 
HEARTS 6 
/flop 

------------



------------


inquire/ 
2222 2400 8000 100 check 
1111 3200 8000 100 call 
6666 1600 8000 100 call 
7777 1600 8000 100 call 
3333 1600 8000 100 call 
4444 1600 8000 100 call 
5555 1600 8000 100 call 
8888 1600 8000 100 check 
total pot: 800 
/inquire 

------------



------------


turn/ 
DIAMONDS A 
/turn 

------------



------------


inquire/ 
2222 2400 8000 100 check 
1111 3200 8000 100 check 
6666 1600 8000 100 check 
7777 1600 8000 100 check 
3333 1600 8000 100 check 
4444 1600 8000 100 check 
5555 1600 8000 100 check 
8888 1600 8000 100 check 
total pot: 800 
/inquire 

------------



------------


river/ 
CLUBS 10 
/river 

------------



------------


inquire/ 
2222 2400 8000 100 check 
1111 3200 8000 100 check 
6666 1600 8000 100 check 
7777 1600 8000 100 check 
3333 1600 8000 100 check 
4444 1600 8000 100 check 
5555 1600 8000 100 check 
8888 1600 8000 100 check 
total pot: 800 
/inquire 

------------



------------


showdown/ 
common/ 
SPADES K 
DIAMONDS 9 
HEARTS 6 
DIAMONDS A 
CLUBS 10 
/common 
1: 2222 DIAMONDS 7 CLUBS A ONE_PAIR 
5: 8888 SPADES 3 SPADES 6 ONE_PAIR 
7: 5555 SPADES 7 CLUBS 4 HIGH_CARD 
2: 4444 HEARTS 8 DIAMONDS 10 ONE_PAIR 
2: 3333 CLUBS 7 SPADES 10 ONE_PAIR 
3: 7777 HEARTS 9 CLUBS J ONE_PAIR 
6: 6666 SPADES J SPADES 8 HIGH_CARD 
4: 1111 CLUBS Q CLUBS 6 ONE_PAIR 
/showdown 

------------



------------


pot-win/ 
2222: 800 
/pot-win 

------------


seat/ 
button: 2222 3200 8000 
small blind: 8888 1600 8000 
big blind: 5555 1600 8000 
4444 1600 8000 
3333 1600 8000 
7777 1600 8000 
6666 1600 8000 
1111 3200 8000 
/seat 

------------


blind/ 
8888: 50 
5555: 100 
/blind 

------------


hold/ 
DIAMONDS 7 
CLUBS A 
/hold 

------------



------------


inquire/ 
2222 3100 8000 100 call 
1111 3100 8000 100 call 
6666 1500 8000 100 call 
7777 1500 8000 100 call 
3333 1500 8000 100 call 
4444 1500 8000 100 call 
5555 1500 8000 100 blind 
8888 1550 8000 50 blind 
total pot: 750 
/inquire 

------------



------------


flop/ 
SPADES K 
DIAMONDS 9 
HEARTS 6 
/flop 

------------



------------


inquire/ 
2222 3100 8000 100 call 
1111 3100 8000 100 call 
6666 1500 8000 100 call 
7777 1500 8000 100 call 
3333 1500 8000 100 call 
4444 1500 8000 100 call 
5555 1500 8000 100 check 
8888 1500 8000 100 call 
total pot: 800 
/inquire 

------------



------------


turn/ 
DIAMONDS A 
/turn 

------------



------------


inquire/ 
2222 3100 8000 100 check 
1111 3100 8000 100 check 
6666 1500 8000 100 check 
7777 1500 8000 100 check 
3333 1500 8000 100 check 
4444 1500 8000 100 check 
5555 1500 8000 100 check 
8888 1500 8000 100 check 
total pot: 800 
/inquire 

------------



------------


river/ 
CLUBS 10 
/river 

------------



------------


inquire/ 
2222 3100 8000 100 check 
1111 3100 8000 100 check 
6666 1500 8000 100 check 
7777 1500 8000 100 check 
3333 1500 8000 100 check 
4444 1500 8000 100 check 
5555 1500 8000 100 check 
8888 1500 8000 100 check 
total pot: 800 
/inquire 

------------



------------


showdown/ 
common/ 
SPADES K 
DIAMONDS 9 
HEARTS 6 
DIAMONDS A 
CLUBS 10 
/common 
1: 8888 DIAMONDS 7 CLUBS A ONE_PAIR 
5: 5555 SPADES 3 SPADES 6 ONE_PAIR 
7: 4444 SPADES 7 CLUBS 4 HIGH_CARD 
2: 3333 HEARTS 8 DIAMONDS 10 ONE_PAIR 
2: 7777 CLUBS 7 SPADES 10 ONE_PAIR 
3: 6666 HEARTS 9 CLUBS J ONE_PAIR 
6: 1111 SPADES J SPADES 8 HIGH_CARD 
4: 2222 CLUBS Q CLUBS 6 ONE_PAIR 
/showdown 

------------



------------


pot-win/ 
8888: 800 
/pot-win 

------------


seat/ 
button: 8888 2300 8000 
small blind: 5555 1500 8000 
big blind: 4444 1500 8000 
3333 1500 8000 
7777 1500 8000 
6666 1500 8000 
1111 3100 8000 
2222 3100 8000 
/seat 

------------


blind/ 
5555: 50 
4444: 100 
/blind 

------------


hold/ 
CLUBS Q 
CLUBS 6 
/hold 

------------



------------


inquire/ 
2222 3000 8000 100 call 
1111 3000 8000 100 call 
6666 1400 8000 100 call 
7777 1400 8000 100 call 
3333 1400 8000 100 call 
4444 1400 8000 100 blind 
5555 1450 8000 50 blind 
total pot: 650 
/inquire 

------------



------------


flop/ 
SPADES K 
DIAMONDS 9 
HEARTS 6 
/flop 

------------



------------


inquire/ 
2222 3000 8000 100 check 
1111 3000 8000 100 check 
6666 1400 8000 100 check 
7777 1400 8000 100 check 
3333 1400 8000 100 check 
4444 1400 8000 100 check 
5555 1400 8000 100 check 
8888 2200 8000 100 call 
total pot: 800 
/inquire 

------------



------------


turn/ 
DIAMONDS A 
/turn 

------------



------------


inquire/ 
2222 3000 8000 100 check 
1111 3000 8000 100 check 
6666 1400 8000 100 check 
7777 1400 8000 100 check 
3333 1400 8000 100 check 
4444 1400 8000 100 check 
5555 1400 8000 100 check 
8888 2200 8000 100 check 
total pot: 800 
/inquire 

------------



------------


river/ 
CLUBS 10 
/river 

------------



------------


inquire/ 
2222 3000 8000 100 check 
1111 3000 8000 100 check 
6666 1400 8000 100 check 
7777 1400 8000 100 check 
3333 1400 8000 100 check 
4444 1400 8000 100 check 
5555 1400 8000 100 check 
8888 2200 8000 100 check 
total pot: 800 
/inquire 

------------



------------


showdown/ 
common/ 
SPADES K 
DIAMONDS 9 
HEARTS 6 
DIAMONDS A 
CLUBS 10 
/common 
1: 5555 DIAMONDS 7 CLUBS A ONE_PAIR 
5: 4444 SPADES 3 SPADES 6 ONE_PAIR 
7: 3333 SPADES 7 CLUBS 4 HIGH_CARD 
2: 7777 HEARTS 8 DIAMONDS 10 ONE_PAIR 
2: 6666 CLUBS 7 SPADES 10 ONE_PAIR 
3: 1111 HEARTS 9 CLUBS J ONE_PAIR 
6: 2222 SPADES J SPADES 8 HIGH_CARD 
4: 8888 CLUBS Q CLUBS 6 ONE_PAIR 
/showdown 

------------



------------


pot-win/ 
5555: 800 
/pot-win 

------------


seat/ 
button: 5555 2200 8000 
small blind: 4444 1400 8000 
big blind: 3333 1400 8000 
7777 1400 8000 
6666 1400 8000 
1111 3000 8000 
2222 3000 8000 
8888 2200 8000 
/seat 

------------


blind/ 
4444: 50 
3333: 100 
/blind 

------------


hold/ 
SPADES J 
SPADES 8 
/hold 

------------



------------


inquire/ 
2222 2900 8000 100 call 
1111 2900 8000 100 call 
6666 1300 8000 100 call 
7777 1300 8000 100 call 
3333 1300 8000 100 blind 
4444 1350 8000 50 blind 
total pot: 550 
/inquire 

------------



------------


flop/ 
SPADES K 
DIAMONDS 9 
HEARTS 6 
/flop 

------------



------------


inquire/ 
2222 2900 8000 100 check 
1111 2900 8000 100 check 
6666 1300 8000 100 check 
7777 1300 8000 100 check 
3333 1300 8000 100 check 
4444 1300 8000 100 check 
5555 2100 8000 100 call 
8888 2100 8000 100 call 
total pot: 800 
/inquire 

------------



------------


turn/ 
DIAMONDS A 
/turn 

------------



------------


inquire/ 
2222 2900 8000 100 check 
1111 2900 8000 100 check 
6666 1300 8000 100 check 
7777 1300 8000 100 check 
3333 1300 8000 100 check 
4444 1300 8000 100 check 
5555 2100 8000 100 check 
8888 2100 8000 100 check 
total pot: 800 
/inquire 

------------



------------


river/ 
CLUBS 10 
/river 

------------



------------


inquire/ 
2222 2900 8000 100 check 
1111 2900 8000 100 check 
6666 1300 8000 100 check 
7777 1300 8000 100 check 
3333 1300 8000 100 check 
4444 1300 8000 100 check 
5555 2100 8000 100 check 
8888 2100 8000 100 check 
total pot: 800 
/inquire 

------------



------------


showdown/ 
common/ 
SPADES K 
DIAMONDS 9 
HEARTS 6 
DIAMONDS A 
CLUBS 10 
/common 
1: 4444 DIAMONDS 7 CLUBS A ONE_PAIR 
5: 3333 SPADES 3 SPADES 6 ONE_PAIR 
7: 7777 SPADES 7 CLUBS 4 HIGH_CARD 
2: 6666 HEARTS 8 DIAMONDS 10 ONE_PAIR 
2: 1111 CLUBS 7 SPADES 10 ONE_PAIR 
3: 2222 HEARTS 9 CLUBS J ONE_PAIR 
6: 8888 SPADES J SPADES 8 HIGH_CARD 
4: 5555 CLUBS Q CLUBS 6 ONE_PAIR 
/showdown 

------------



------------


pot-win/ 
4444: 800 
/pot-win 

------------


seat/ 
button: 4444 2100 8000 
small blind: 3333 1300 8000 
big blind: 7777 1300 8000 
6666 1300 8000 
1111 2900 8000 
2222 2900 8000 
8888 2100 8000 
5555 2100 8000 
/seat 

------------


blind/ 
3333: 50 
7777: 100 
/blind 

------------


hold/ 
DIAMONDS J 
DIAMONDS 9 
/hold 

------------



------------


inquire/ 
2222 2800 8000 100 call 
1111 2800 8000 100 call 
6666 1200 8000 100 call 
7777 1200 8000 100 blind 
3333 1250 8000 50 blind 
total pot: 450 
/inquire 

------------



------------


flop/ 
SPADES 9 
SPADES 6 
CLUBS A 
/flop 

------------



------------


inquire/ 
2222 2800 8000 100 check 
1111 2800 8000 100 check 
6666 1200 8000 100 check 
7777 1200 8000 100 check 
3333 1200 8000 100 check 
4444 2000 8000 100 call 
5555 2000 8000 100 call 
8888 2000 8000 100 call 
total pot: 800 
/inquire 

------------



------------


turn/ 
HEARTS Q 
/turn 

------------



------------


inquire/ 
2222 2800 8000 100 check 
1111 2800 8000 100 check 
6666 1200 8000 100 check 
7777 1200 8000 100 check 
3333 1200 8000 100 check 
4444 2000 8000 100 check 
5555 2000 8000 100 check 
8888 2000 8000 100 check 
total pot: 800 
/inquire 

------------



------------


river/ 
CLUBS J 
/river 

------------



------------


inquire/ 
2222 2800 8000 100 check 
1111 2800 8000 100 check 
6666 1200 8000 100 check 
7777 1200 8000 100 check 
3333 1200 8000 100 check 
4444 2000 8000 100 check 
5555 2000 8000 100 check 
8888 2000 8000 100 check 
total pot: 800 
/inquire 

------------



------------


showdown/ 
common/ 
SPADES 9 
SPADES 6 
CLUBS A 
HEARTS Q 
CLUBS J 
/common 
4: 3333 HEARTS J HEARTS 3 ONE_PAIR 
1: 7777 DIAMONDS 6 SPADES Q TWO_PAIR 
6: 6666 DIAMONDS 7 HEARTS 8 HIGH_CARD 
7: 1111 SPADES 5 DIAMONDS 2 HIGH_CARD 
3: 2222 CLUBS 8 SPADES A ONE_PAIR 
2: 8888 DIAMONDS J DIAMONDS 9 TWO_PAIR 
7: 5555 HEARTS 5 SPADES 3 HIGH_CARD 
5: 4444 HEARTS 9 DIAMONDS 10 ONE_PAIR 
/showdown 

------------



------------


pot-win/ 
7777: 800 
/pot-win 

------------


seat/ 
button: 3333 1200 8000 
small blind: 7777 2000 8000 
big blind: 6666 1200 8000 
1111 2800 8000 
2222 2800 8000 
8888 2000 8000 
5555 2000 8000 
4444 2000 8000 
/seat 

------------


blind/ 
7777: 50 
6666: 100 
/blind 

------------


hold/ 
CLUBS 8 
SPADES A 
/hold 

------------



------------


inquire/ 
2222 2700 8000 100 call 
1111 2700 8000 100 call 
6666 1100 8000 100 blind 
7777 1950 8000 50 blind 
total pot: 350 
/inquire 

------------



------------


flop/ 
SPADES 9 
SPADES 6 
CLUBS A 
/flop 

------------



------------


inquire/ 
2222 2700 8000 100 check 
1111 2700 8000 100 check 
6666 1100 8000 100 check 
7777 1900 8000 100 check 
3333 1100 8000 100 call 
4444 1900 8000 100 call 
5555 1900 8000 100 call 
8888 1900 8000 100 call 
total pot: 800 
/inquire 

------------



------------


turn/ 
HEARTS Q 
/turn 

------------



------------


inquire/ 
2222 2700 8000 100 check 
1111 2700 8000 100 check 
6666 1100 8000 100 check 
7777 1900 8000 100 check 
3333 1100 8000 100 check 
4444 1900 8000 100 check 
5555 1900 8000 100 check 
8888 1900 8000 100 check 
total pot: 800 
/inquire 

------------



------------


river/ 
CLUBS J 
/river 

------------



------------


inquire/ 
2222 2700 8000 100 check 
1111 2700 8000 100 check 
6666 1100 8000 100 check 
7777 1900 8000 100 check 
3333 1100 8000 100 check 
4444 1900 8000 100 check 
5555 1900 8000 100 check 
8888 1900 8000 100 check 
total pot: 800 
/inquire 

------------



------------


showdown/ 
common/ 
SPADES 9 
SPADES 6 
CLUBS A 
HEARTS Q 
CLUBS J 
/common 
4: 7777 HEARTS J HEARTS 3 ONE_PAIR 
1: 6666 DIAMONDS 6 SPADES Q TWO_PAIR 
6: 1111 DIAMONDS 7 HEARTS 8 HIGH_CARD 
7: 2222 SPADES 5 DIAMONDS 2 HIGH_CARD 
3: 8888 CLUBS 8 SPADES A ONE_PAIR 
2: 5555 DIAMONDS J DIAMONDS 9 TWO_PAIR 
7: 4444 HEARTS 5 SPADES 3 HIGH_CARD 
5: 3333 HEARTS 9 DIAMONDS 10 ONE_PAIR 
/showdown 

------------



------------


pot-win/ 
6666: 800 
/pot-win 

------------


seat/ 
button: 7777 1900 8000 
small blind: 6666 1900 8000 
big blind: 1111 2700 8000 
2222 2700 8000 
8888 1900 8000 
5555 1900 8000 
4444 1900 8000 
3333 1100 8000 
/seat 

------------


blind/ 
6666: 50 
1111: 100 
/blind 

------------


hold/ 
SPADES 5 
DIAMONDS 2 
/hold 

------------



------------


inquire/ 
2222 2600 8000 100 call 
1111 2600 8000 100 blind 
6666 1850 8000 50 blind 
total pot: 250 
/inquire 

------------



------------


flop/ 
SPADES 9 
SPADES 6 
CLUBS A 
/flop 

------------



------------


inquire/ 
2222 2600 8000 100 check 
1111 2600 8000 100 check 
6666 1800 8000 100 check 
7777 1800 8000 100 call 
3333 1000 8000 100 call 
4444 1800 8000 100 call 
5555 1800 8000 100 call 
8888 1800 8000 100 call 
total pot: 800 
/inquire 

------------



------------


turn/ 
HEARTS Q 
/turn 

------------



------------


inquire/ 
2222 2600 8000 100 check 
1111 2600 8000 100 check 
6666 1800 8000 100 check 
7777 1800 8000 100 check 
3333 1000 8000 100 check 
4444 1800 8000 100 check 
5555 1800 8000 100 check 
8888 1800 8000 100 check 
total pot: 800 
/inquire 

------------



------------


river/ 
CLUBS J 
/river 

------------



------------


inquire/ 
2222 2600 8000 100 check 
1111 2600 8000 100 check 
6666 1800 8000 100 check 
7777 1800 8000 100 check 
3333 1000 8000 100 check 
4444 1800 8000 100 check 
5555 1800 8000 100 check 
8888 1800 8000 100 check 
total pot: 800 
/inquire 

------------



------------


showdown/ 
common/ 
SPADES 9 
SPADES 6 
CLUBS A 
HEARTS Q 
CLUBS J 
/common 
4: 6666 HEARTS J HEARTS 3 ONE_PAIR 
1: 1111 DIAMONDS 6 SPADES Q TWO_PAIR 
6: 2222 DIAMONDS 7 HEARTS 8 HIGH_CARD 
7: 8888 SPADES 5 DIAMONDS 2 HIGH_CARD 
3: 5555 CLUBS 8 SPADES A ONE_PAIR 
2: 4444 DIAMONDS J DIAMONDS 9 TWO_PAIR 
7: 3333 HEARTS 5 SPADES 3 HIGH_CARD 
5: 7777 HEARTS 9 DIAMONDS 10 ONE_PAIR 
/showdown 

------------



------------


pot-win/ 
1111: 800 
/pot-win 

------------


seat/ 
button: 6666 1800 8000 
small blind: 1111 3400 8000 
big blind: 2222 2600 8000 
8888 1800 8000 
5555 1800 8000 
4444 1800 8000 
3333 1000 8000 
7777 1800 8000 
/seat 

------------


blind/ 
1111: 50 
2222: 100 
/blind 

------------


hold/ 
DIAMONDS 7 
HEARTS 8 
/hold 

------------


inquire/ 
2222 2500 8000 100 blind 
1111 3350 8000 50 blind 
total pot: 150 
/inquire 

------------



------------


flop/ 
SPADES 9 
SPADES 6 
CLUBS A 
/flop 

------------



------------


inquire/ 
2222 2500 8000 100 check 
1111 3300 8000 100 check 
6666 1700 8000 100 call 
7777 1700 8000 100 call 
3333 900 8000 100 call 
4444 1700 8000 100 call 
5555 1700 8000 100 call 
8888 1700 8000 100 call 
total pot: 800 
/inquire 

------------



------------


turn/ 
HEARTS Q 
/turn 

------------



------------


inquire/ 
2222 2500 8000 100 check 
1111 3300 8000 100 check 
6666 1700 8000 100 check 
7777 1700 8000 100 check 
3333 900 8000 100 check 
4444 1700 8000 100 check 
5555 1700 8000 100 check 
8888 1700 8000 100 check 
total pot: 800 
/inquire 

------------



------------


river/ 
CLUBS J 
/river 

------------



------------


inquire/ 
2222 2500 8000 100 check 
1111 3300 8000 100 check 
6666 1700 8000 100 check 
7777 1700 8000 100 check 
3333 900 8000 100 check 
4444 1700 8000 100 check 
5555 1700 8000 100 check 
8888 1700 8000 100 check 
total pot: 800 
/inquire 

------------



------------


showdown/ 
common/ 
SPADES 9 
SPADES 6 
CLUBS A 
HEARTS Q 
CLUBS J 
/common 
4: 1111 HEARTS J HEARTS 3 ONE_PAIR 
1: 2222 DIAMONDS 6 SPADES Q TWO_PAIR 
6: 8888 DIAMONDS 7 HEARTS 8 HIGH_CARD 
7: 5555 SPADES 5 DIAMONDS 2 HIGH_CARD 
3: 4444 CLUBS 8 SPADES A ONE_PAIR 
2: 3333 DIAMONDS J DIAMONDS 9 TWO_PAIR 
7: 7777 HEARTS 5 SPADES 3 HIGH_CARD 
5: 6666 HEARTS 9 DIAMONDS 10 ONE_PAIR 
/showdown 

------------



------------


pot-win/ 
2222: 800 
/pot-win 

------------


seat/ 
button: 1111 3300 8000 
small blind: 2222 3300 8000 
big blind: 8888 1700 8000 
5555 1700 8000 
4444 1700 8000 
3333 900 8000 
7777 1700 8000 
6666 1700 8000 
/seat 

------------


blind/ 
2222: 50 
8888: 100 
/blind 

------------


hold/ 
DIAMONDS 6 
SPADES Q 
/hold 

------------



------------


inquire/ 
2222 3200 8000 100 call 
1111 3200 8000 100 call 
6666 1600 8000 100 call 
7777 1600 8000 100 call 
3333 800 8000 100 call 
4444 1600 8000 100 call 
5555 1600 8000 100 call 
8888 1600 8000 100 blind 
total pot: 800 
/inquire 

------------



------------


flop/ 
SPADES 9 
SPADES 6 
CLUBS A 
/flop 

------------



------------


inquire/ 
2222 3200 8000 100 check 
1111 3200 8000 100 call 
6666 1600 8000 100 call 
7777 1600 8000 100 call 
3333 800 8000 100 call 
4444 1600 8000 100 call 
5555 1600 8000 100 call 
8888 1600 8000 100 check 
total pot: 800 
/inquire 

------------



------------


turn/ 
HEARTS Q 
/turn 

------------



------------


inquire/ 
2222 3200 8000 100 check 
1111 3200 8000 100 check 
6666 1600 8000 100 check 
7777 1600 8000 100 check 
3333 800 8000 100 check 
4444 1600 8000 100 check 
5555 1600 8000 100 check 
8888 1600 8000 100 check 
total pot: 800 
/inquire 

------------



------------


river/ 
CLUBS J 
/river 

------------



------------


inquire/ 
2222 3200 8000 100 check 
1111 3200 8000 100 check 
6666 1600 8000 100 check 
7777 1600 8000 100 check 
3333 800 8000 100 check 
4444 1600 8000 100 check 
5555 1600 8000 100 check 
8888 1600 8000 100 check 
total pot: 800 
/inquire 

------------



------------


showdown/ 
common/ 
SPADES 9 
SPADES 6 
CLUBS A 
HEARTS Q 
CLUBS J 
/common 
4: 2222 HEARTS J HEARTS 3 ONE_PAIR 
1: 8888 DIAMONDS 6 SPADES Q TWO_PAIR 
6: 5555 DIAMONDS 7 HEARTS 8 HIGH_CARD 
7: 4444 SPADES 5 DIAMONDS 2 HIGH_CARD 
3: 3333 CLUBS 8 SPADES A ONE_PAIR 
2: 7777 DIAMONDS J DIAMONDS 9 TWO_PAIR 
7: 6666 HEARTS 5 SPADES 3 HIGH_CARD 
5: 1111 HEARTS 9 DIAMONDS 10 ONE_PAIR 
/showdown 

------------



------------


pot-win/ 
8888: 800 
/pot-win 

------------


seat/ 
button: 2222 3200 8000 
small blind: 8888 2400 8000 
big blind: 5555 1600 8000 
4444 1600 8000 
3333 800 8000 
7777 1600 8000 
6666 1600 8000 
1111 3200 8000 
/seat 

------------


blind/ 
8888: 50 
5555: 100 
/blind 

------------


hold/ 
HEARTS J 
HEARTS 3 
/hold 

------------



------------


inquire/ 
2222 3100 8000 100 call 
1111 3100 8000 100 call 
6666 1500 8000 100 call 
7777 1500 8000 100 call 
3333 700 8000 100 call 
4444 1500 8000 100 call 
5555 1500 8000 100 blind 
8888 2350 8000 50 blind 
total pot: 750 
/inquire 

------------



------------


flop/ 
SPADES 9 
SPADES 6 
CLUBS A 
/flop 

------------



------------


inquire/ 
2222 3100 8000 100 call 
1111 3100 8000 100 call 
6666 1500 8000 100 call 
7777 1500 8000 100 call 
3333 700 8000 100 call 
4444 1500 8000 100 call 
5555 1500 8000 100 check 
8888 2300 8000 100 call 
total pot: 800 
/inquire 

------------



------------


turn/ 
HEARTS Q 
/turn 

------------



------------


inquire/ 
2222 3100 8000 100 check 
1111 3100 8000 100 check 
6666 1500 8000 100 check 
7777 1500 8000 100 check 
3333 700 8000 100 check 
4444 1500 8000 100 check 
5555 1500 8000 100 check 
8888 2300 8000 100 check 
total pot: 800 
/inquire 

------------



------------


river/ 
CLUBS J 
/river 

------------



------------


inquire/ 
2222 3100 8000 100 check 
1111 3100 8000 100 check 
6666 1500 8000 100 check 
7777 1500 8000 100 check 
3333 700 8000 100 check 
4444 1500 8000 100 check 
5555 1500 8000 100 check 
8888 2300 8000 100 check 
total pot: 800 
/inquire 

------------



------------


showdown/ 
common/ 
SPADES 9 
SPADES 6 
CLUBS A 
HEARTS Q 
CLUBS J 
/common 
4: 8888 HEARTS J HEARTS 3 ONE_PAIR 
1: 5555 DIAMONDS 6 SPADES Q TWO_PAIR 
6: 4444 DIAMONDS 7 HEARTS 8 HIGH_CARD 
7: 3333 SPADES 5 DIAMONDS 2 HIGH_CARD 
3: 7777 CLUBS 8 SPADES A ONE_PAIR 
2: 6666 DIAMONDS J DIAMONDS 9 TWO_PAIR 
7: 1111 HEARTS 5 SPADES 3 HIGH_CARD 
5: 2222 HEARTS 9 DIAMONDS 10 ONE_PAIR 
/showdown 

------------



------------


pot-win/ 
5555: 800 
/pot-win 

------------


seat/ 
button: 8888 2300 8000 
small blind: 5555 2300 8000 
big blind: 4444 1500 8000 
3333 700 8000 
7777 1500 8000 
6666 1500 8000 
1111 3100 8000 
2222 3100 8000 
/seat 

------------


blind/ 
5555: 50 
4444: 100 
/blind 

------------


hold/ 
DIAMONDS 5 
CLUBS Q 
/hold 

------------



------------


inquire/ 
2222 3000 8000 100 call 
1111 3000 8000 100 call 
6666 1400 8000 100 call 
7777 1400 8000 100 call 
3333 600 8000 100 call 
4444 1400 8000 100 blind 
5555 2250 8000 50 blind 
total pot: 650 
/inquire 

------------



------------


flop/ 
HEARTS 2 
CLUBS 2 
SPADES 2 
/flop 

------------



------------


inquire/ 
2222 3000 8000 100 check 
1111 3000 8000 100 check 
6666 1400 8000 100 check 
7777 1400 8000 100 check 
3333 600 8000 100 check 
4444 1400 8000 100 check 
5555 2200 8000 100 check 
8888 2200 8000 100 call 
total pot: 800 
/inquire 

------------



------------


turn/ 
HEARTS 9 
/turn 

------------



------------


inquire/ 
2222 3000 8000 100 check 
1111 3000 8000 100 check 
6666 1400 8000 100 check 
7777 1400 8000 100 check 
3333 600 8000 100 check 
4444 1400 8000 100 check 
5555 2200 8000 100 check 
8888 2200 8000 100 check 
total pot: 800 
/inquire 

------------



------------


river/ 
HEARTS 4 
/river 

------------



------------


inquire/ 
2222 3000 8000 100 check 
1111 3000 8000 100 check 
6666 1400 8000 100 check 
7777 1400 8000 100 check 
3333 600 8000 100 check 
4444 1400 8000 100 check 
5555 2200 8000 100 check 
8888 2200 8000 100 check 
total pot: 800 
/inquire 

------------



------------


showdown/ 
common/ 
HEARTS 2 
CLUBS 2 
SPADES 2 
HEARTS 9 
HEARTS 4 
/common 
4: 5555 SPADES Q HEARTS J THREE_OF_A_KIND 
1: 4444 DIAMONDS 2 DIAMONDS 7 FOUR_OF_A_KIND 
8: 3333 CLUBS 5 DIAMONDS 6 THREE_OF_A_KIND 
6: 7777 HEARTS 10 SPADES 8 THREE_OF_A_KIND 
2: 6666 DIAMONDS 9 SPADES A FULL_HOUSE 
3: 1111 DIAMONDS 4 CLUBS A FULL_HOUSE 
7: 2222 SPADES 7 HEARTS 6 THREE_OF_A_KIND 
5: 8888 DIAMONDS 5 CLUBS Q THREE_OF_A_KIND 
/showdown 

------------



------------


pot-win/ 
4444: 800 
/pot-win 

------------


seat/ 
button: 5555 2200 8000 
small blind: 4444 2200 8000 
big blind: 3333 600 8000 
7777 1400 8000 
6666 1400 8000 
1111 3000 8000 
2222 3000 8000 
8888 2200 8000 
/seat 

------------


blind/ 
4444: 50 
3333: 100 
/blind 

------------


hold/ 
SPADES 7 
HEARTS 6 
/hold 

------------



------------


inquire/ 
2222 2900 8000 100 call 
1111 2900 8000 100 call 
6666 1300 8000 100 call 
7777 1300 8000 100 call 
3333 500 8000 100 blind 
4444 2150 8000 50 blind 
total pot: 550 
/inquire 

------------



------------


flop/ 
HEARTS 2 
CLUBS 2 
SPADES 2 
/flop 

------------



------------


inquire/ 
2222 2900 8000 100 check 
1111 2900 8000 100 check 
6666 1300 8000 100 check 
7777 1300 8000 100 check 
3333 500 8000 100 check 
4444 2100 8000 100 check 
5555 2100 8000 100 call 
8888 2100 8000 100 call 
total pot: 800 
/inquire 

------------



------------


turn/ 
HEARTS 9 
/turn 

------------



------------


inquire/ 
2222 2900 8000 100 check 
1111 2900 8000 100 check 
6666 1300 8000 100 check 
7777 1300 8000 100 check 
3333 500 8000 100 check 
4444 2100 8000 100 check 
5555 2100 8000 100 check 
8888 2100 8000 100 check 
total pot: 800 
/inquire 

------------



------------


river/ 
HEARTS 4 
/river 

------------



------------


inquire/ 
2222 2900 8000 100 check 
1111 2900 8000 100 check 
6666 1300 8000 100 check 
7777 1300 8000 100 check 
3333 500 8000 100 check 
4444 2100 8000 100 check 
5555 2100 8000 100 check 
8888 2100 8000 100 check 
total pot: 800 
/inquire 

------------



------------


showdown/ 
common/ 
HEARTS 2 
CLUBS 2 
SPADES 2 
HEARTS 9 
HEARTS 4 
/common 
4: 4444 SPADES Q HEARTS J THREE_OF_A_KIND 
1: 3333 DIAMONDS 2 DIAMONDS 7 FOUR_OF_A_KIND 
8: 7777 CLUBS 5 DIAMONDS 6 THREE_OF_A_KIND 
6: 6666 HEARTS 10 SPADES 8 THREE_OF_A_KIND 
2: 1111 DIAMONDS 9 SPADES A FULL_HOUSE 
3: 2222 DIAMONDS 4 CLUBS A FULL_HOUSE 
7: 8888 SPADES 7 HEARTS 6 THREE_OF_A_KIND 
5: 5555 DIAMONDS 5 CLUBS Q THREE_OF_A_KIND 
/showdown 

------------



------------


pot-win/ 
3333: 800 
/pot-win 

------------


seat/ 
button: 4444 2100 8000 
small blind: 3333 1300 8000 
big blind: 7777 1300 8000 
6666 1300 8000 
1111 2900 8000 
2222 2900 8000 
8888 2100 8000 
5555 2100 8000 
/seat 

------------


blind/ 
3333: 50 
7777: 100 
/blind 

------------


hold/ 
DIAMONDS 4 
CLUBS A 
/hold 

------------



------------


inquire/ 
2222 2800 8000 100 call 
1111 2800 8000 100 call 
6666 1200 8000 100 call 
7777 1200 8000 100 blind 
3333 1250 8000 50 blind 
total pot: 450 
/inquire 

------------



------------


flop/ 
HEARTS 2 
CLUBS 2 
SPADES 2 
/flop 

------------



------------


inquire/ 
2222 2800 8000 100 check 
1111 2800 8000 100 check 
6666 1200 8000 100 check 
7777 1200 8000 100 check 
3333 1200 8000 100 check 
4444 2000 8000 100 call 
5555 2000 8000 100 call 
8888 2000 8000 100 call 
total pot: 800 
/inquire 

------------



------------


turn/ 
HEARTS 9 
/turn 

------------



------------


inquire/ 
2222 2800 8000 100 check 
1111 2800 8000 100 check 
6666 1200 8000 100 check 
7777 1200 8000 100 check 
3333 1200 8000 100 check 
4444 2000 8000 100 check 
5555 2000 8000 100 check 
8888 2000 8000 100 check 
total pot: 800 
/inquire 

------------



------------


river/ 
HEARTS 4 
/river 

------------



------------


inquire/ 
2222 2800 8000 100 check 
1111 2800 8000 100 check 
6666 1200 8000 100 check 
7777 1200 8000 100 check 
3333 1200 8000 100 check 
4444 2000 8000 100 check 
5555 2000 8000 100 check 
8888 2000 8000 100 check 
total pot: 800 
/inquire 

------------



------------


showdown/ 
common/ 
HEARTS 2 
CLUBS 2 
SPADES 2 
HEARTS 9 
HEARTS 4 
/common 
4: 3333 SPADES Q HEARTS J THREE_OF_A_KIND 
1: 7777 DIAMONDS 2 DIAMONDS 7 FOUR_OF_A_KIND 
8: 6666 CLUBS 5 DIAMONDS 6 THREE_OF_A_KIND 
6: 1111 HEARTS 10 SPADES 8 THREE_OF_A_KIND 
2: 2222 DIAMONDS 9 SPADES A FULL_HOUSE 
3: 8888 DIAMONDS 4 CLUBS A FULL_HOUSE 
7: 5555 SPADES 7 HEARTS 6 THREE_OF_A_KIND 
5: 4444 DIAMONDS 5 CLUBS Q THREE_OF_A_KIND 
/showdown 

------------



------------


pot-win/ 
7777: 800 
/pot-win 

------------


seat/ 
button: 3333 1200 8000 
small blind: 7777 2000 8000 
big blind: 6666 1200 8000 
1111 2800 8000 
2222 2800 8000 
8888 2000 8000 
5555 2000 8000 
4444 2000 8000 
/seat 

------------


blind/ 
7777: 50 
6666: 100 
/blind 

------------


hold/ 
DIAMONDS 9 
SPADES A 
/hold 

------------



------------


inquire/ 
2222 2700 8000 100 call 
1111 2700 8000 100 call 
6666 1100 8000 100 blind 
7777 1950 8000 50 blind 
total pot: 350 
/inquire 

------------



------------


flop/ 
HEARTS 2 
CLUBS 2 
SPADES 2 
/flop 

------------



------------


inquire/ 
2222 2700 8000 100 check 
1111 2700 8000 100 check 
6666 1100 8000 100 check 
7777 1900 8000 100 check 
3333 1100 8000 100 call 
4444 1900 8000 100 call 
5555 1900 8000 100 call 
8888 1900 8000 100 call 
total pot: 800 
/inquire 

------------



------------


turn/ 
HEARTS 9 
/turn 

------------



------------


inquire/ 
2222 2700 8000 100 check 
1111 2700 8000 100 check 
6666 1100 8000 100 check 
7777 1900 8000 100 check 
3333 1100 8000 100 check 
4444 1900 8000 100 check 
5555 1900 8000 100 check 
8888 1900 8000 100 check 
total pot: 800 
/inquire 

------------



------------


river/ 
HEARTS 4 
/river 

------------



------------


inquire/ 
2222 2700 8000 100 check 
1111 2700 8000 100 check 
6666 1100 8000 100 check 
7777 1900 8000 100 check 
3333 1100 8000 100 check 
4444 1900 8000 100 check 
5555 1900 8000 100 check 
8888 1900 8000 100 check 
total pot: 800 
/inquire 

------------



------------


showdown/ 
common/ 
HEARTS 2 
CLUBS 2 
SPADES 2 
HEARTS 9 
HEARTS 4 
/common 
4: 7777 SPADES Q HEARTS J THREE_OF_A_KIND 
1: 6666 DIAMONDS 2 DIAMONDS 7 FOUR_OF_A_KIND 
8: 1111 CLUBS 5 DIAMONDS 6 THREE_OF_A_KIND 
6: 2222 HEARTS 10 SPADES 8 THREE_OF_A_KIND 
2: 8888 DIAMONDS 9 SPADES A FULL_HOUSE 
3: 5555 DIAMONDS 4 CLUBS A FULL_HOUSE 
7: 4444 SPADES 7 HEARTS 6 THREE_OF_A_KIND 
5: 3333 DIAMONDS 5 CLUBS Q THREE_OF_A_KIND 
/showdown 

------------



------------


pot-win/ 
6666: 800 
/pot-win 

------------


seat/ 
button: 7777 1900 8000 
small blind: 6666 1900 8000 
big blind: 1111 2700 8000 
2222 2700 8000 
8888 1900 8000 
5555 1900 8000 
4444 1900 8000 
3333 1100 8000 
/seat 

------------


blind/ 
6666: 50 
1111: 100 
/blind 

------------


hold/ 
HEARTS 10 
SPADES 8 
/hold 

------------



------------


inquire/ 
2222 2600 8000 100 call 
1111 2600 8000 100 blind 
6666 1850 8000 50 blind 
total pot: 250 
/inquire 

------------



------------


flop/ 
HEARTS 2 
CLUBS 2 
SPADES 2 
/flop 

------------



------------


inquire/ 
2222 2600 8000 100 check 
1111 2600 8000 100 check 
6666 1800 8000 100 check 
7777 1800 8000 100 call 
3333 1000 8000 100 call 
4444 1800 8000 100 call 
5555 1800 8000 100 call 
8888 1800 8000 100 call 
total pot: 800 
/inquire 

------------



------------


turn/ 
HEARTS 9 
/turn 

------------



------------


inquire/ 
2222 2600 8000 100 check 
1111 2600 8000 100 check 
6666 1800 8000 100 check 
7777 1800 8000 100 check 
3333 1000 8000 100 check 
4444 1800 8000 100 check 
5555 1800 8000 100 check 
8888 1800 8000 100 check 
total pot: 800 
/inquire 

------------



------------


river/ 
HEARTS 4 
/river 

------------



------------


inquire/ 
2222 2600 8000 100 check 
1111 2600 8000 100 check 
6666 1800 8000 100 check 
7777 1800 8000 100 check 
3333 1000 8000 100 check 
4444 1800 8000 100 check 
5555 1800 8000 100 check 
8888 1800 8000 100 check 
total pot: 800 
/inquire 

------------



------------


showdown/ 
common/ 
HEARTS 2 
CLUBS 2 
SPADES 2 
HEARTS 9 
HEARTS 4 
/common 
4: 6666 SPADES Q HEARTS J THREE_OF_A_KIND 
1: 1111 DIAMONDS 2 DIAMONDS 7 FOUR_OF_A_KIND 
8: 2222 CLUBS 5 DIAMONDS 6 THREE_OF_A_KIND 
6: 8888 HEARTS 10 SPADES 8 THREE_OF_A_KIND 
2: 5555 DIAMONDS 9 SPADES A FULL_HOUSE 
3: 4444 DIAMONDS 4 CLUBS A FULL_HOUSE 
7: 3333 SPADES 7 HEARTS 6 THREE_OF_A_KIND 
5: 7777 DIAMONDS 5 CLUBS Q THREE_OF_A_KIND 
/showdown 

------------



------------


pot-win/ 
1111: 800 
/pot-win 

------------


seat/ 
button: 6666 1800 8000 
small blind: 1111 3400 8000 
big blind: 2222 2600 8000 
8888 1800 8000 
5555 1800 8000 
4444 1800 8000 
3333 1000 8000 
7777 1800 8000 
/seat 

------------


blind/ 
1111: 50 
2222: 100 
/blind 

------------


hold/ 
HEARTS 8 
CLUBS 2 
/hold 

------------


inquire/ 
2222 2500 8000 100 blind 
1111 3350 8000 50 blind 
total pot: 150 
/inquire 

------------



------------


flop/ 
DIAMONDS K 
CLUBS 10 
HEARTS 4 
/flop 

------------



------------


inquire/ 
2222 2500 8000 100 check 
1111 3300 8000 100 check 
6666 1700 8000 100 call 
7777 1700 8000 100 call 
3333 900 8000 100 call 
4444 1700 8000 100 call 
5555 1700 8000 100 call 
8888 1700 8000 100 call 
total pot: 800 
/inquire 

------------



------------


turn/ 
CLUBS A 
/turn 

------------



------------


inquire/ 
2222 2500 8000 100 check 
1111 3300 8000 100 check 
6666 1700 8000 100 check 
7777 1700 8000 100 check 
3333 900 8000 100 check 
4444 1700 8000 100 check 
5555 1700 8000 100 check 
8888 1700 8000 100 check 
total pot: 800 
/inquire 

------------



------------


river/ 
SPADES 6 
/river 

------------



------------


inquire/ 
2222 2500 8000 100 check 
1111 3300 8000 100 check 
6666 1700 8000 100 check 
7777 1700 8000 100 check 
3333 900 8000 100 check 
4444 1700 8000 100 check 
5555 1700 8000 100 check 
8888 1700 8000 100 check 
total pot: 800 
/inquire 

------------



------------


showdown/ 
common/ 
DIAMONDS K 
CLUBS 10 
HEARTS 4 
CLUBS A 
SPADES 6 
/common 
2: 1111 HEARTS K HEARTS J ONE_PAIR 
5: 2222 CLUBS 3 DIAMONDS 4 ONE_PAIR 
6: 8888 HEARTS 8 CLUBS 2 HIGH_CARD 
4: 5555 CLUBS 6 HEARTS 3 ONE_PAIR 
5: 4444 SPADES 4 HEARTS 9 ONE_PAIR 
1: 3333 CLUBS 8 SPADES A ONE_PAIR 
1: 7777 DIAMONDS A DIAMONDS 8 ONE_PAIR 
3: 6666 DIAMONDS 3 SPADES K ONE_PAIR 
/showdown 

------------



------------


pot-win/ 
3333: 400 
7777: 400 
/pot-win 

------------


seat/ 
button: 1111 3300 8000 
small blind: 2222 2500 8000 
big blind: 8888 1700 8000 
5555 1700 8000 
4444 1700 8000 
3333 1300 8000 
7777 2100 8000 
6666 1700 8000 
/seat 

------------


blind/ 
2222: 50 
8888: 100 
/blind 

------------


hold/ 
CLUBS 3 
DIAMONDS 4 
/hold 

------------



------------


inquire/ 
2222 2400 8000 100 call 
1111 3200 8000 100 call 
6666 1600 8000 100 call 
7777 2000 8000 100 call 
3333 1200 8000 100 call 
4444 1600 8000 100 call 
5555 1600 8000 100 call 
8888 1600 8000 100 blind 
total pot: 800 
/inquire 

------------



------------


flop/ 
DIAMONDS K 
CLUBS 10 
HEARTS 4 
/flop 

------------



------------


inquire/ 
2222 2400 8000 100 check 
1111 3200 8000 100 call 
6666 1600 8000 100 call 
7777 2000 8000 100 call 
3333 1200 8000 100 call 
4444 1600 8000 100 call 
5555 1600 8000 100 call 
8888 1600 8000 100 check 
total pot: 800 
/inquire 

------------



------------


turn/ 
CLUBS A 
/turn 

------------



------------


inquire/ 
2222 2400 8000 100 check 
1111 3200 8000 100 check 
6666 1600 8000 100 check 
7777 2000 8000 100 check 
3333 1200 8000 100 check 
4444 1600 8000 100 check 
5555 1600 8000 100 check 
8888 1600 8000 100 check 
total pot: 800 
/inquire 

------------



------------


river/ 
SPADES 6 
/river 

------------



------------


inquire/ 
2222 2400 8000 100 check 
1111 3200 8000 100 check 
6666 1600 8000 100 check 
7777 2000 8000 100 check 
3333 1200 8000 100 check 
4444 1600 8000 100 check 
5555 1600 8000 100 check 
8888 1600 8000 100 check 
total pot: 800 
/inquire 

------------



------------


showdown/ 
common/ 
DIAMONDS K 
CLUBS 10 
HEARTS 4 
CLUBS A 
SPADES 6 
/common 
2: 2222 HEARTS K HEARTS J ONE_PAIR 
5: 8888 CLUBS 3 DIAMONDS 4 ONE_PAIR 
6: 5555 HEARTS 8 CLUBS 2 HIGH_CARD 
4: 4444 CLUBS 6 HEARTS 3 ONE_PAIR 
5: 3333 SPADES 4 HEARTS 9 ONE_PAIR 
1: 7777 CLUBS 8 SPADES A ONE_PAIR 
1: 6666 DIAMONDS A DIAMONDS 8 ONE_PAIR 
3: 1111 DIAMONDS 3 SPADES K ONE_PAIR 
/showdown 

------------



------------


pot-win/ 
7777: 400 
6666: 400 
/pot-win 

------------


seat/ 
button: 2222 2400 8000 
small blind: 8888 1600 8000 
big blind: 5555 1600 8000 
4444 1600 8000 
3333 1200 8000 
7777 2400 8000 
6666 2000 8000 
1111 3200 8000 
/seat 

------------


blind/ 
8888: 50 
5555: 100 
/blind 

------------


hold/ 
HEARTS K 
HEARTS J 
/hold 

------------



------------


inquire/ 
2222 2300 8000 100 call 
1111 3100 8000 100 call 
6666 1900 8000 100 call 
7777 2300 8000 100 call 
3333 1100 8000 100 call 
4444 1500 8000 100 call 
5555 1500 8000 100 blind 
8888 1550 8000 50 blind 
total pot: 750 
/inquire 

------------



------------


flop/ 
DIAMONDS K 
CLUBS 10 
HEARTS 4 
/flop 

------------



------------


inquire/ 
2222 2300 8000 100 call 
1111 3100 8000 100 call 
6666 1900 8000 100 call 
7777 2300 8000 100 call 
3333 1100 8000 100 call 
4444 1500 8000 100 call 
5555 1500 8000 100 check 
8888 1500 8000 100 call 
total pot: 800 
/inquire 

------------



------------


turn/ 
CLUBS A 
/turn 

------------



------------


inquire/ 
2222 2300 8000 100 check 
1111 3100 8000 100 check 
6666 1900 8000 100 check 
7777 2300 8000 100 check 
3333 1100 8000 100 check 
4444 1500 8000 100 check 
5555 1500 8000 100 check 
8888 1500 8000 100 check 
total pot: 800 
/inquire 

------------



------------


river/ 
SPADES 6 
/river 

------------



------------


inquire/ 
2222 2300 8000 100 check 
1111 3100 8000 100 check 
6666 1900 8000 100 check 
7777 2300 8000 100 check 
3333 1100 8000 100 check 
4444 1500 8000 100 check 
5555 1500 8000 100 check 
8888 1500 8000 100 check 
total pot: 800 
/inquire 

------------



------------


showdown/ 
common/ 
DIAMONDS K 
CLUBS 10 
HEARTS 4 
CLUBS A 
SPADES 6 
/common 
2: 8888 HEARTS K HEARTS J ONE_PAIR 
5: 5555 CLUBS 3 DIAMONDS 4 ONE_PAIR 
6: 4444 HEARTS 8 CLUBS 2 HIGH_CARD 
4: 3333 CLUBS 6 HEARTS 3 ONE_PAIR 
5: 7777 SPADES 4 HEARTS 9 ONE_PAIR 
1: 6666 CLUBS 8 SPADES A ONE_PAIR 
1: 1111 DIAMONDS A DIAMONDS 8 ONE_PAIR 
3: 2222 DIAMONDS 3 SPADES K ONE_PAIR 
/showdown 

------------



------------


pot-win/ 
6666: 400 
1111: 400 
/pot-win 

------------


seat/ 
button: 8888 1500 8000 
small blind: 5555 1500 8000 
big blind: 4444 1500 8000 
3333 1100 8000 
7777 2300 8000 
6666 2300 8000 
1111 3500 8000 
2222 2300 8000 
/seat 

------------


blind/ 
5555: 50 
4444: 100 
/blind 

------------


hold/ 
DIAMONDS 3 
SPADES K 
/hold 

------------



------------


inquire/ 
2222 2200 8000 100 call 
1111 3400 8000 100 call 
6666 2200 8000 100 call 
7777 2200 8000 100 call 
3333 1000 8000 100 call 
4444 1400 8000 100 blind 
5555 1450 8000 50 blind 
total pot: 650 
/inquire 

------------



------------


flop/ 
DIAMONDS K 
CLUBS 10 
HEARTS 4 
/flop 

------------



------------


inquire/ 
2222 2200 8000 100 check 
1111 3400 8000 100 check 
6666 2200 8000 100 check 
7777 2200 8000 100 check 
3333 1000 8000 100 check 
4444 1400 8000 100 check 
5555 1400 8000 100 check 
8888 1400 8000 100 call 
total pot: 800 
/inquire 

------------



------------


turn/ 
CLUBS A 
/turn 

------------



------------


inquire/ 
2222 2200 8000 100 check 
1111 3400 8000 100 check 
6666 2200 8000 100 check 
7777 2200 8000 100 check 
3333 1000 8000 100 check 
4444 1400 8000 100 check 
5555 1400 8000 100 check 
8888 1400 8000 100 check 
total pot: 800 
/inquire 

------------



------------


river/ 
SPADES 6 
/river 

------------



------------


inquire/ 
2222 2200 8000 100 check 
1111 3400 8000 100 check 
6666 2200 8000 100 check 
7777 2200 8000 100 check 
3333 1000 8000 100 check 
4444 1400 8000 100 check 
5555 1400 8000 100 check 
8888 1400 8000 100 check 
total pot: 800 
/inquire 

------------



------------


showdown/ 
common/ 
DIAMONDS K 
CLUBS 10 
HEARTS 4 
CLUBS A 
SPADES 6 
/common 
2: 5555 HEARTS K HEARTS J ONE_PAIR 
5: 4444 CLUBS 3 DIAMONDS 4 ONE_PAIR 
6: 3333 HEARTS 8 CLUBS 2 HIGH_CARD 
4: 7777 CLUBS 6 HEARTS 3 ONE_PAIR 
5: 6666 SPADES 4 HEARTS 9 ONE_PAIR 
1: 1111 CLUBS 8 SPADES A ONE_PAIR 
1: 2222 DIAMONDS A DIAMONDS 8 ONE_PAIR 
3: 8888 DIAMONDS 3 SPADES K ONE_PAIR 
/showdown 

------------



------------


pot-win/ 
1111: 400 
2222: 400 
/pot-win 

------------


seat/ 
button: 5555 1400 8000 
small blind: 4444 1400 8000 
big blind: 3333 1000 8000 
7777 2200 8000 
6666 2200 8000 
1111 3800 8000 
2222 2600 8000 
8888 1400 8000 
/seat 

------------


blind/ 
4444: 50 
3333: 100 
/blind 

------------


hold/ 
DIAMONDS A 
DIAMONDS 8 
/hold 

------------



------------


inquire/ 
2222 2500 8000 100 call 
1111 3700 8000 100 call 
6666 2100 8000 100 call 
7777 2100 8000 100 call 
3333 900 8000 100 blind 
4444 1350 8000 50 blind 
total pot: 550 
/inquire 

------------



------------


flop/ 
DIAMONDS K 
CLUBS 10 
HEARTS 4 
/flop 

------------



------------


inquire/ 
2222 2500 8000 100 check 
1111 3700 8000 100 check 
6666 2100 8000 100 check 
7777 2100 8000 100 check 
3333 900 8000 100 check 
4444 1300 8000 100 check 
5555 1300 8000 100 call 
8888 1300 8000 100 call 
total pot: 800 
/inquire 

------------



------------


turn/ 
CLUBS A 
/turn 

------------



------------


inquire/ 
2222 2500 8000 100 check 
1111 3700 8000 100 check 
6666 2100 8000 100 check 
7777 2100 8000 100 check 
3333 900 8000 100 check 
4444 1300 8000 100 check 
5555 1300 8000 100 check 
8888 1300 8000 100 check 
total pot: 800 
/inquire 

------------



------------


river/ 
SPADES 6 
/river 

------------



------------


inquire/ 
2222 2500 8000 100 check 
1111 3700 8000 100 check 
6666 2100 8000 100 check 
7777 2100 8000 100 check 
3333 900 8000 100 check 
4444 1300 8000 100 check 
5555 1300 8000 100 check 
8888 1300 8000 100 check 
total pot: 800 
/inquire 

------------



------------


showdown/ 
common/ 
DIAMONDS K 
CLUBS 10 
HEARTS 4 
CLUBS A 
SPADES 6 
/common 
2: 4444 HEARTS K HEARTS J ONE_PAIR 
5: 3333 CLUBS 3 DIAMONDS 4 ONE_PAIR 
6: 7777 HEARTS 8 CLUBS 2 HIGH_CARD 
4: 6666 CLUBS 6 HEARTS 3 ONE_PAIR 
5: 1111 SPADES 4 HEARTS 9 ONE_PAIR 
1: 2222 CLUBS 8 SPADES A ONE_PAIR 
1: 8888 DIAMONDS A DIAMONDS 8 ONE_PAIR 
3: 5555 DIAMONDS 3 SPADES K ONE_PAIR 
/showdown 

------------



------------


pot-win/ 
2222: 400 
8888: 400 
/pot-win 

------------


seat/ 
button: 4444 1300 8000 
small blind: 3333 900 8000 
big blind: 7777 2100 8000 
6666 2100 8000 
1111 3700 8000 
2222 2900 8000 
8888 1700 8000 
5555 1300 8000 
/seat 

------------


blind/ 
3333: 50 
7777: 100 
/blind 

------------


hold/ 
CLUBS 8 
SPADES A 
/hold 

------------



------------


inquire/ 
2222 2800 8000 100 call 
1111 3600 8000 100 call 
6666 2000 8000 100 call 
7777 2000 8000 100 blind 
3333 850 8000 50 blind 
total pot: 450 
/inquire 

------------



------------


flop/ 
DIAMONDS K 
CLUBS 10 
HEARTS 4 
/flop 

------------



------------


inquire/ 
2222 2800 8000 100 check 
1111 3600 8000 100 check 
6666 2000 8000 100 check 
7777 2000 8000 100 check 
3333 800 8000 100 check 
4444 1200 8000 100 call 
5555 1200 8000 100 call 
8888 1600 8000 100 call 
total pot: 800 
/inquire 

------------



------------


turn/ 
CLUBS A 
/turn 

------------



------------


inquire/ 
2222 2800 8000 100 check 
1111 3600 8000 100 check 
6666 2000 8000 100 check 
7777 2000 8000 100 check 
3333 800 8000 100 check 
4444 1200 8000 100 check 
5555 1200 8000 100 check 
8888 1600 8000 100 check 
total pot: 800 
/inquire 

------------



------------


river/ 
SPADES 6 
/river 

------------



------------


inquire/ 
2222 2800 8000 100 check 
1111 3600 8000 100 check 
6666 2000 8000 100 check 
7777 2000 8000 100 check 
3333 800 8000 100 check 
4444 1200 8000 100 check 
5555 1200 8000 100 check 
8888 1600 8000 100 check 
total pot: 800 
/inquire 

------------



------------


showdown/ 
common/ 
DIAMONDS K 
CLUBS 10 
HEARTS 4 
CLUBS A 
SPADES 6 
/common 
2: 3333 HEARTS K HEARTS J ONE_PAIR 
5: 7777 CLUBS 3 DIAMONDS 4 ONE_PAIR 
6: 6666 HEARTS 8 CLUBS 2 HIGH_CARD 
4: 1111 CLUBS 6 HEARTS 3 ONE_PAIR 
5: 2222 SPADES 4 HEARTS 9 ONE_PAIR 
1: 8888 CLUBS 8 SPADES A ONE_PAIR 
1: 5555 DIAMONDS A DIAMONDS 8 ONE_PAIR 
3: 4444 DIAMONDS 3 SPADES K ONE_PAIR 
/showdown 

------------



------------


pot-win/ 
8888: 400 
5555: 400 
/pot-win 

------------


seat/ 
button: 3333 800 8000 
small blind: 7777 2000 8000 
big blind: 6666 2000 8000 
1111 3600 8000 
2222 2800 8000 
8888 2000 8000 
5555 1600 8000 
4444 1200 8000 
/seat 

------------


blind/ 
7777: 50 
6666: 100 
/blind 

------------


hold/ 
SPADES 2 
DIAMONDS K 
/hold 

------------



------------


inquire/ 
2222 2700 8000 100 call 
1111 3500 8000 100 call 
6666 1900 8000 100 blind 
7777 1950 8000 50 blind 
total pot: 350 
/inquire 

------------



------------


flop/ 
CLUBS 8 
DIAMONDS 3 
CLUBS 10 
/flop 

------------



------------


inquire/ 
2222 2700 8000 100 check 
1111 3500 8000 100 check 
6666 1900 8000 100 check 
7777 1900 8000 100 check 
3333 700 8000 100 call 
4444 1100 8000 100 call 
5555 1500 8000 100 call 
8888 1900 8000 100 call 
total pot: 800 
/inquire 

------------



------------


turn/ 
CLUBS K 
/turn 

------------



------------


inquire/ 
2222 2700 8000 100 check 
1111 3500 8000 100 check 
6666 1900 8000 100 check 
7777 1900 8000 100 check 
3333 700 8000 100 check 
4444 1100 8000 100 check 
5555 1500 8000 100 check 
8888 1900 8000 100 check 
total pot: 800 
/inquire 

------------



------------


river/ 
CLUBS 2 
/river 

------------



------------


inquire/ 
2222 2700 8000 100 check 
1111 3500 8000 100 check 
6666 1900 8000 100 check 
7777 1900 8000 100 check 
3333 700 8000 100 check 
4444 1100 8000 100 check 
5555 1500 8000 100 check 
8888 1900 8000 100 check 
total pot: 800 
/inquire 

------------



------------


showdown/ 
common/ 
CLUBS 8 
DIAMONDS 3 
CLUBS 10 
CLUBS K 
CLUBS 2 
/common 
4: 7777 CLUBS 5 DIAMONDS 9 FLUSH 
6: 6666 HEARTS 7 SPADES 7 ONE_PAIR 
7: 1111 HEARTS J HEARTS 2 ONE_PAIR 
3: 2222 DIAMONDS 10 CLUBS 7 FLUSH 
5: 8888 SPADES 2 DIAMONDS K TWO_PAIR 
1: 5555 CLUBS A HEARTS 5 FLUSH 
8: 4444 SPADES 9 HEARTS 6 HIGH_CARD 
2: 3333 CLUBS J HEARTS K FLUSH 
/showdown 

------------



------------


pot-win/ 
5555: 800 
/pot-win 

------------


seat/ 
button: 7777 1900 8000 
small blind: 6666 1900 8000 
big blind: 1111 3500 8000 
2222 2700 8000 
8888 1900 8000 
5555 2300 8000 
4444 1100 8000 
3333 700 8000 
/seat 

------------


blind/ 
6666: 50 
1111: 100 
/blind 

------------


hold/ 
DIAMONDS 10 
CLUBS 7 
/hold 

------------



------------


inquire/ 
2222 2600 8000 100 call 
1111 3400 8000 100 blind 
6666 1850 8000 50 blind 
total pot: 250 
/inquire 

------------



------------


flop/ 
CLUBS 8 
DIAMONDS 3 
CLUBS 10 
/flop 

------------



------------


inquire/ 
2222 2600 8000 100 check 
1111 3400 8000 100 check 
6666 1800 8000 100 check 
7777 1800 8000 100 call 
3333 600 8000 100 call 
4444 1000 8000 100 call 
5555 2200 8000 100 call 
8888 1800 8000 100 call 
total pot: 800 
/inquire 

------------



------------


turn/ 
CLUBS K 
/turn 

------------



------------


inquire/ 
2222 2600 8000 100 check 
1111 3400 8000 100 check 
6666 1800 8000 100 check 
7777 1800 8000 100 check 
3333 600 8000 100 check 
4444 1000 8000 100 check 
5555 2200 8000 100 check 
8888 1800 8000 100 check 
total pot: 800 
/inquire 

------------



------------


river/ 
CLUBS 2 
/river 

------------



------------


inquire/ 
2222 2600 8000 100 check 
1111 3400 8000 100 check 
6666 1800 8000 100 check 
7777 1800 8000 100 check 
3333 600 8000 100 check 
4444 1000 8000 100 check 
5555 2200 8000 100 check 
8888 1800 8000 100 check 
total pot: 800 
/inquire 

------------



------------


showdown/ 
common/ 
CLUBS 8 
DIAMONDS 3 
CLUBS 10 
CLUBS K 
CLUBS 2 
/common 
4: 6666 CLUBS 5 DIAMONDS 9 FLUSH 
6: 1111 HEARTS 7 SPADES 7 ONE_PAIR 
7: 2222 HEARTS J HEARTS 2 ONE_PAIR 
3: 8888 DIAMONDS 10 CLUBS 7 FLUSH 
5: 5555 SPADES 2 DIAMONDS K TWO_PAIR 
1: 4444 CLUBS A HEARTS 5 FLUSH 
8: 3333 SPADES 9 HEARTS 6 HIGH_CARD 
2: 7777 CLUBS J HEARTS K FLUSH 
/showdown 

------------



------------


pot-win/ 
4444: 800 
/pot-win 

------------


seat/ 
button: 6666 1800 8000 
small blind: 1111 3400 8000 
big blind: 2222 2600 8000 
8888 1800 8000 
5555 2200 8000 
4444 1800 8000 
3333 600 8000 
7777 1800 8000 
/seat 

------------


blind/ 
1111: 50 
2222: 100 
/blind 

------------


hold/ 
HEARTS J 
HEARTS 2 
/hold 

------------


inquire/ 
2222 2500 8000 100 blind 
1111 3350 8000 50 blind 
total pot: 150 
/inquire 

------------



------------


flop/ 
CLUBS 8 
DIAMONDS 3 
CLUBS 10 
/flop 

------------



------------


inquire/ 
2222 2500 8000 100 check 
1111 3300 8000 100 check 
6666 1700 8000 100 call 
7777 1700 8000 100 call 
3333 500 8000 100 call 
4444 1700 8000 100 call 
5555 2100 8000 100 call 
8888 1700 8000 100 call 
total pot: 800 
/inquire 

------------



------------


turn/ 
CLUBS K 
/turn 

------------



------------


inquire/ 
2222 2500 8000 100 check 
1111 3300 8000 100 check 
6666 1700 8000 100 check 
7777 1700 8000 100 check 
3333 500 8000 100 check 
4444 1700 8000 100 check 
5555 2100 8000 100 check 
8888 1700 8000 100 check 
total pot: 800 
/inquire 

------------



------------


river/ 
CLUBS 2 
/river 

------------



------------


inquire/ 
2222 2500 8000 100 check 
1111 3300 8000 100 check 
6666 1700 8000 100 check 
7777 1700 8000 100 check 
3333 500 8000 100 check 
4444 1700 8000 100 check 
5555 2100 8000 100 check 
8888 1700 8000 100 check 
total pot: 800 
/inquire 

------------



------------


showdown/ 
common/ 
CLUBS 8 
DIAMONDS 3 
CLUBS 10 
CLUBS K 
CLUBS 2 
/common 
4: 1111 CLUBS 5 DIAMONDS 9 FLUSH 
6: 2222 HEARTS 7 SPADES 7 ONE_PAIR 
7: 8888 HEARTS J HEARTS 2 ONE_PAIR 
3: 5555 DIAMONDS 10 CLUBS 7 FLUSH 
5: 4444 SPADES 2 DIAMONDS K TWO_PAIR 
1: 3333 CLUBS A HEARTS 5 FLUSH 
8: 7777 SPADES 9 HEARTS 6 HIGH_CARD 
2: 6666 CLUBS J HEARTS K FLUSH 
/showdown 

------------



------------


pot-win/ 
3333: 800 
/pot-win 

------------


seat/ 
button: 1111 3300 8000 
small blind: 2222 2500 8000 
big blind: 8888 1700 8000 
5555 2100 8000 
4444 1700 8000 
3333 1300 8000 
7777 1700 8000 
6666 1700 8000 
/seat 

------------


blind/ 
2222: 50 
8888: 100 
/blind 

------------


hold/ 
HEARTS 7 
SPADES 7 
/hold 

------------



------------


inquire/ 
2222 2400 8000 100 call 
1111 3200 8000 100 call 
6666 1600 8000 100 call 
7777 1600 8000 100 call 
3333 1200 8000 100 call 
4444 1600 8000 100 call 
5555 2000 8000 100 call 
8888 1600 8000 100 blind 
total pot: 800 
/inquire 

------------



------------


flop/ 
CLUBS 8 
DIAMONDS 3 
CLUBS 10 
/flop 

------------



------------


inquire/ 
2222 2400 8000 100 check 
1111 3200 8000 100 call 
6666 1600 8000 100 call 
7777 1600 8000 100 call 
3333 1200 8000 100 call 
4444 1600 8000 100 call 
5555 2000 8000 100 call 
8888 1600 8000 100 check 
total pot: 800 
/inquire 

------------



------------


turn/ 
CLUBS K 
/turn 

------------



------------


inquire/ 
2222 2400 8000 100 check 
1111 3200 8000 100 check 
6666 1600 8000 100 check 
7777 1600 8000 100 check 
3333 1200 8000 100 check 
4444 1600 8000 100 check 
5555 2000 8000 100 check 
8888 1600 8000 100 check 
total pot: 800 
/inquire 

------------



------------


river/ 
CLUBS 2 
/river 

------------



------------


inquire/ 
2222 2400 8000 100 check 
1111 3200 8000 100 check 
6666 1600 8000 100 check 
7777 1600 8000 100 check 
3333 1200 8000 100 check 
4444 1600 8000 100 check 
5555 2000 8000 100 check 
8888 1600 8000 100 check 
total pot: 800 
/inquire 

------------



------------


showdown/ 
common/ 
CLUBS 8 
DIAMONDS 3 
CLUBS 10 
CLUBS K 
CLUBS 2 
/common 
4: 2222 CLUBS 5 DIAMONDS 9 FLUSH 
6: 8888 HEARTS 7 SPADES 7 ONE_PAIR 
7: 5555 HEARTS J HEARTS 2 ONE_PAIR 
3: 4444 DIAMONDS 10 CLUBS 7 FLUSH 
5: 3333 SPADES 2 DIAMONDS K TWO_PAIR 
1: 7777 CLUBS A HEARTS 5 FLUSH 
8: 6666 SPADES 9 HEARTS 6 HIGH_CARD 
2: 1111 CLUBS J HEARTS K FLUSH 
/showdown 

------------



------------


pot-win/ 
7777: 800 
/pot-win 

------------


seat/ 
button: 2222 2400 8000 
small blind: 8888 1600 8000 
big blind: 5555 2000 8000 
4444 1600 8000 
3333 1200 8000 
7777 2400 8000 
6666 1600 8000 
1111 3200 8000 
/seat 

------------


blind/ 
8888: 50 
5555: 100 
/blind 

------------


hold/ 
CLUBS 5 
DIAMONDS 9 
/hold 

------------



------------


inquire/ 
2222 2300 8000 100 call 
1111 3100 8000 100 call 
6666 1500 8000 100 call 
7777 2300 8000 100 call 
3333 1100 8000 100 call 
4444 1500 8000 100 call 
5555 1900 8000 100 blind 
8888 1550 8000 50 blind 
total pot: 750 
/inquire 

------------



------------


flop/ 
CLUBS 8 
DIAMONDS 3 
CLUBS 10 
/flop 

------------



------------


inquire/ 
2222 2300 8000 100 call 
1111 3100 8000 100 call 
6666 1500 8000 100 call 
7777 2300 8000 100 call 
3333 1100 8000 100 call 
4444 1500 8000 100 call 
5555 1900 8000 100 check 
8888 1500 8000 100 call 
total pot: 800 
/inquire 

------------



------------


turn/ 
CLUBS K 
/turn 

------------



------------


inquire/ 
2222 2300 8000 100 check 
1111 3100 8000 100 check 
6666 1500 8000 100 check 
7777 2300 8000 100 check 
3333 1100 8000 100 check 
4444 1500 8000 100 check 
5555 1900 8000 100 check 
8888 1500 8000 100 check 
total pot: 800 
/inquire 

------------



------------


river/ 
CLUBS 2 
/river 

------------



------------


inquire/ 
2222 2300 8000 100 check 
1111 3100 8000 100 check 
6666 1500 8000 100 check 
7777 2300 8000 100 check 
3333 1100 8000 100 check 
4444 1500 8000 100 check 
5555 1900 8000 100 check 
8888 1500 8000 100 check 
total pot: 800 
/inquire 

------------



------------


showdown/ 
common/ 
CLUBS 8 
DIAMONDS 3 
CLUBS 10 
CLUBS K 
CLUBS 2 
/common 
4: 8888 CLUBS 5 DIAMONDS 9 FLUSH 
6: 5555 HEARTS 7 SPADES 7 ONE_PAIR 
7: 4444 HEARTS J HEARTS 2 ONE_PAIR 
3: 3333 DIAMONDS 10 CLUBS 7 FLUSH 
5: 7777 SPADES 2 DIAMONDS K TWO_PAIR 
1: 6666 CLUBS A HEARTS 5 FLUSH 
8: 1111 SPADES 9 HEARTS 6 HIGH_CARD 
2: 2222 CLUBS J HEARTS K FLUSH 
/showdown 

------------



------------


pot-win/ 
6666: 800 
/pot-win 

------------


seat/ 
button: 8888 1500 8000 
small blind: 5555 1900 8000 
big blind: 4444 1500 8000 
3333 1100 8000 
7777 2300 8000 
6666 2300 8000 
1111 3100 8000 
2222 2300 8000 
/seat 

------------


blind/ 
5555: 50 
4444: 100 
/blind 

------------


hold/ 
CLUBS J 
HEARTS K 
/hold 

------------



------------


inquire/ 
2222 2200 8000 100 call 
1111 3000 8000 100 call 
6666 2200 8000 100 call 
7777 2200 8000 100 call 
3333 1000 8000 100 call 
4444 1400 8000 100 blind 
5555 1850 8000 50 blind 
total pot: 650 
/inquire 

------------



------------


flop/ 
CLUBS 8 
DIAMONDS 3 
CLUBS 10 
/flop 

------------



------------


inquire/ 
2222 2200 8000 100 check 
1111 3000 8000 100 check 
6666 2200 8000 100 check 
7777 2200 8000 100 check 
3333 1000 8000 100 check 
4444 1400 8000 100 check 
5555 1800 8000 100 check 
8888 1400 8000 100 call 
total pot: 800 
/inquire 

------------



------------


turn/ 
CLUBS K 
/turn 

------------



------------


inquire/ 
2222 2200 8000 100 check 
1111 3000 8000 100 check 
6666 2200 8000 100 check 
7777 2200 8000 100 check 
3333 1000 8000 100 check 
4444 1400 8000 100 check 
5555 1800 8000 100 check 
8888 1400 8000 100 check 
total pot: 800 
/inquire 

------------



------------


river/ 
CLUBS 2 
/river 

------------



------------


inquire/ 
2222 2200 8000 100 check 
1111 3000 8000 100 check 
6666 2200 8000 100 check 
7777 2200 8000 100 check 
3333 1000 8000 100 check 
4444 1400 8000 100 check 
5555 1800 8000 100 check 
8888 1400 8000 100 check 
total pot: 800 
/inquire 

------------



------------


showdown/ 
common/ 
CLUBS 8 
DIAMONDS 3 
CLUBS 10 
CLUBS K 
CLUBS 2 
/common 
4: 5555 CLUBS 5 DIAMONDS 9 FLUSH 
6: 4444 HEARTS 7 SPADES 7 ONE_PAIR 
7: 3333 HEARTS J HEARTS 2 ONE_PAIR 
3: 7777 DIAMONDS 10 CLUBS 7 FLUSH 
5: 6666 SPADES 2 DIAMONDS K TWO_PAIR 
1: 1111 CLUBS A HEARTS 5 FLUSH 
8: 2222 SPADES 9 HEARTS 6 HIGH_CARD 
2: 8888 CLUBS J HEARTS K FLUSH 
/showdown 

------------



------------


pot-win/ 
1111: 800 
/pot-win 

------------


seat/ 
button: 5555 1800 8000 
small blind: 4444 1400 8000 
big blind: 3333 1000 8000 
7777 2200 8000 
6666 2200 8000 
1111 3800 8000 
2222 2200 8000 
8888 1400 8000 
/seat 

------------


blind/ 
4444: 50 
3333: 100 
/blind 

------------


hold/ 
CLUBS K 
CLUBS 7 
/hold 

------------



------------


inquire/ 
2222 2100 8000 100 call 
1111 3700 8000 100 call 
6666 2100 8000 100 call 
7777 2100 8000 100 call 
3333 900 8000 100 blind 
4444 1350 8000 50 blind 
total pot: 550 
/inquire 

------------



------------


flop/ 
SPADES 6 
CLUBS 10 
DIAMONDS 7 
/flop 

------------



------------


inquire/ 
2222 2100 8000 100 check 
1111 3700 8000 100 check 
6666 2100 8000 100 check 
7777 2100 8000 100 check 
3333 900 8000 100 check 
4444 1300 8000 100 check 
5555 1700 8000 100 call 
8888 1300 8000 100 call 
total pot: 800 
/inquire 

------------



------------


turn/ 
SPADES 10 
/turn 

------------



------------


inquire/ 
2222 2100 8000 100 check 
1111 3700 8000 100 check 
6666 2100 8000 100 check 
7777 2100 8000 100 check 
3333 900 8000 100 check 
4444 1300 8000 100 check 
5555 1700 8000 100 check 
8888 1300 8000 100 check 
total pot: 800 
/inquire 

------------



------------


river/ 
SPADES 2 
/river 

------------



------------


inquire/ 
2222 2100 8000 100 check 
1111 3700 8000 100 check 
6666 2100 8000 100 check 
7777 2100 8000 100 check 
3333 900 8000 100 check 
4444 1300 8000 100 check 
5555 1700 8000 100 check 
8888 1300 8000 100 check 
total pot: 800 
/inquire 

------------



------------


showdown/ 
common/ 
SPADES 6 
CLUBS 10 
DIAMONDS 7 
SPADES 10 
SPADES 2 
/common 
8: 4444 DIAMONDS 8 DIAMONDS 4 ONE_PAIR 
4: 3333 CLUBS A DIAMONDS J ONE_PAIR 
3: 7777 HEARTS 3 DIAMONDS 2 TWO_PAIR 
2: 6666 HEARTS 7 SPADES 3 TWO_PAIR 
7: 1111 DIAMONDS K SPADES 4 ONE_PAIR 
5: 2222 DIAMONDS A SPADES 8 ONE_PAIR 
1: 8888 CLUBS K CLUBS 7 TWO_PAIR 
6: 5555 HEARTS A CLUBS 5 ONE_PAIR 
/showdown 

------------



------------


pot-win/ 
8888: 800 
/pot-win 

------------


seat/ 
button: 4444 1300 8000 
small blind: 3333 900 8000 
big blind: 7777 2100 8000 
6666 2100 8000 
1111 3700 8000 
2222 2100 8000 
8888 2100 8000 
5555 1700 8000 
/seat 

------------


blind/ 
3333: 50 
7777: 100 
/blind 

------------


hold/ 
DIAMONDS A 
SPADES 8 
/hold 

------------



------------


inquire/ 
2222 2000 8000 100 call 
1111 3600 8000 100 call 
6666 2000 8000 100 call 
7777 2000 8000 100 blind 
3333 850 8000 50 blind 
total pot: 450 
/inquire 

------------



------------


flop/ 
SPADES 6 
CLUBS 10 
DIAMONDS 7 
/flop 

------------



------------


inquire/ 
2222 2000 8000 100 check 
1111 3600 8000 100 check 
6666 2000 8000 100 check 
7777 2000 8000 100 check 
3333 800 8000 100 check 
4444 1200 8000 100 call 
5555 1600 8000 100 call 
8888 2000 8000 100 call 
total pot: 800 
/inquire 

------------



------------


turn/ 
SPADES 10 
/turn 

------------



------------


inquire/ 
2222 2000 8000 100 check 
1111 3600 8000 100 check 
6666 2000 8000 100 check 
7777 2000 8000 100 check 
3333 800 8000 100 check 
4444 1200 8000 100 check 
5555 1600 8000 100 check 
8888 2000 8000 100 check 
total pot: 800 
/inquire 

------------



------------


river/ 
SPADES 2 
/river 

------------



------------


inquire/ 
2222 2000 8000 100 check 
1111 3600 8000 100 check 
6666 2000 8000 100 check 
7777 2000 8000 100 check 
3333 800 8000 100 check 
4444 1200 8000 100 check 
5555 1600 8000 100 check 
8888 2000 8000 100 check 
total pot: 800 
/inquire 

------------



------------


showdown/ 
common/ 
SPADES 6 
CLUBS 10 
DIAMONDS 7 
SPADES 10 
SPADES 2 
/common 
8: 3333 DIAMONDS 8 DIAMONDS 4 ONE_PAIR 
4: 7777 CLUBS A DIAMONDS J ONE_PAIR 
3: 6666 HEARTS 3 DIAMONDS 2 TWO_PAIR 
2: 1111 HEARTS 7 SPADES 3 TWO_PAIR 
7: 2222 DIAMONDS K SPADES 4 ONE_PAIR 
5: 8888 DIAMONDS A SPADES 8 ONE_PAIR 
1: 5555 CLUBS K CLUBS 7 TWO_PAIR 
6: 4444 HEARTS A CLUBS 5 ONE_PAIR 
/showdown 

------------



------------


pot-win/ 
5555: 800 
/pot-win 

------------


seat/ 
button: 3333 800 8000 
small blind: 7777 2000 8000 
big blind: 6666 2000 8000 
1111 3600 8000 
2222 2000 8000 
8888 2000 8000 
5555 2400 8000 
4444 1200 8000 
/seat 

------------


blind/ 
7777: 50 
6666: 100 
/blind 

------------


hold/ 
DIAMONDS K 
SPADES 4 
/hold 

------------



------------


inquire/ 
2222 1900 8000 100 call 
1111 3500 8000 100 call 
6666 1900 8000 100 blind 
7777 1950 8000 50 blind 
total pot: 350 
/inquire 

------------



------------


flop/ 
SPADES 6 
CLUBS 10 
DIAMONDS 7 
/flop 

------------



------------


inquire/ 
2222 1900 8000 100 check 
1111 3500 8000 100 check 
6666 1900 8000 100 check 
7777 1900 8000 100 check 
3333 700 8000 100 call 
4444 1100 8000 100 call 
5555 2300 8000 100 call 
8888 1900 8000 100 call 
total pot: 800 
/inquire 

------------



------------


turn/ 
SPADES 10 
/turn 

------------



------------


inquire/ 
2222 1900 8000 100 check 
1111 3500 8000 100 check 
6666 1900 8000 100 check 
7777 1900 8000 100 check 
3333 700 8000 100 check 
4444 1100 8000 100 check 
5555 2300 8000 100 check 
8888 1900 8000 100 check 
total pot: 800 
/inquire 

------------



------------


river/ 
SPADES 2 
/river 

------------



------------


inquire/ 
2222 1900 8000 100 check 
1111 3500 8000 100 check 
6666 1900 8000 100 check 
7777 1900 8000 100 check 
3333 700 8000 100 check 
4444 1100 8000 100 check 
5555 2300 8000 100 check 
8888 1900 8000 100 check 
total pot: 800 
/inquire 

------------



------------


showdown/ 
common/ 
SPADES 6 
CLUBS 10 
DIAMONDS 7 
SPADES 10 
SPADES 2 
/common 
8: 7777 DIAMONDS 8 DIAMONDS 4 ONE_PAIR 
4: 6666 CLUBS A DIAMONDS J ONE_PAIR 
3: 1111 HEARTS 3 DIAMONDS 2 TWO_PAIR 
2: 2222 HEARTS 7 SPADES 3 TWO_PAIR 
7: 8888 DIAMONDS K SPADES 4 ONE_PAIR 
5: 5555 DIAMONDS A SPADES 8 ONE_PAIR 
1: 4444 CLUBS K CLUBS 7 TWO_PAIR 
6: 3333 HEARTS A CLUBS 5 ONE_PAIR 
/showdown 

------------



------------


pot-win/ 
4444: 800 
/pot-win 

------------


seat/ 
button: 7777 1900 8000 
small blind: 6666 1900 8000 
big blind: 1111 3500 8000 
2222 1900 8000 
8888 1900 8000 
5555 2300 8000 
4444 1900 8000 
3333 700 8000 
/seat 

------------


blind/ 
6666: 50 
1111: 100 
/blind 

------------


hold/ 
HEARTS 7 
SPADES 3 
/hold 

------------


inquire/ 
2222 1800 8000 100 call 
1111 3400 8000 100 blind 
6666 1850 8000 50 blind 
total pot: 250 
/inquire 

------------



------------


flop/ 
SPADES 6 
CLUBS 10 
DIAMONDS 7 
/flop 

------------



------------


inquire/ 
2222 1800 8000 100 check 
1111 3400 8000 100 check 
6666 1800 8000 100 check 
7777 1800 8000 100 call 
3333 600 8000 100 call 
4444 1800 8000 100 call 
5555 2200 8000 100 call 
8888 1800 8000 100 call 
total pot: 800 
/inquire 

------------



------------


turn/ 
SPADES 10 
/turn 

------------



------------


inquire/ 
2222 1800 8000 100 check 
1111 3400 8000 100 check 
6666 1800 8000 100 check 
7777 1800 8000 100 check 
3333 600 8000 100 check 
4444 1800 8000 100 check 
5555 2200 8000 100 check 
8888 1800 8000 100 check 
total pot: 800 
/inquire 

------------



------------


river/ 
SPADES 2 
/river 

------------



------------


inquire/ 
2222 1800 8000 100 check 
1111 3400 8000 100 check 
6666 1800 8000 100 check 
7777 1800 8000 100 check 
3333 600 8000 100 check 
4444 1800 8000 100 check 
5555 2200 8000 100 check 
8888 1800 8000 100 check 
total pot: 800 
/inquire 

------------



------------


showdown/ 
common/ 
SPADES 6 
CLUBS 10 
DIAMONDS 7 
SPADES 10 
SPADES 2 
/common 
8: 6666 DIAMONDS 8 DIAMONDS 4 ONE_PAIR 
4: 1111 CLUBS A DIAMONDS J ONE_PAIR 
3: 2222 HEARTS 3 DIAMONDS 2 TWO_PAIR 
2: 8888 HEARTS 7 SPADES 3 TWO_PAIR 
7: 5555 DIAMONDS K SPADES 4 ONE_PAIR 
5: 4444 DIAMONDS A SPADES 8 ONE_PAIR 
1: 3333 CLUBS K CLUBS 7 TWO_PAIR 
6: 7777 HEARTS A CLUBS 5 ONE_PAIR 
/showdown 

------------



------------


pot-win/ 
3333: 800 
/pot-win 

------------


seat/ 
button: 6666 1800 8000 
small blind: 1111 3400 8000 
big blind: 2222 1800 8000 
8888 1800 8000 
5555 2200 8000 
4444 1800 8000 
3333 1400 8000 
7777 1800 8000 
/seat 

------------


blind/ 
1111: 50 
2222: 100 
/blind 

------------


hold/ 
HEARTS 3 
DIAMONDS 2 
/hold 

------------


inquire/ 
2222 1700 8000 100 blind 
1111 3350 8000 50 blind 
total pot: 150 
/inquire 

------------



------------


flop/ 
SPADES 6 
CLUBS 10 
DIAMONDS 7 
/flop 

------------



------------


inquire/ 
2222 1700 8000 100 check 
1111 3300 8000 100 check 
6666 1700 8000 100 call 
7777 1700 8000 100 call 
3333 1300 8000 100 call 
4444 1700 8000 100 call 
5555 2100 8000 100 call 
8888 1700 8000 100 call 
total pot: 800 
/inquire 

------------



------------


turn/ 
SPADES 10 
/turn 

------------



------------


inquire/ 
2222 1700 8000 100 check 
1111 3300 8000 100 check 
6666 1700 8000 100 check 
7777 1700 8000 100 check 
3333 1300 8000 100 check 
4444 1700 8000 100 check 
5555 2100 8000 100 check 
8888 1700 8000 100 check 
total pot: 800 
/inquire 

------------



------------


river/ 
SPADES 2 
/river 

------------



------------


inquire/ 
2222 1700 8000 100 check 
1111 3300 8000 100 check 
6666 1700 8000 100 check 
7777 1700 8000 100 check 
3333 1300 8000 100 check 
4444 1700 8000 100 check 
5555 2100 8000 100 check 
8888 1700 8000 100 check 
total pot: 800 
/inquire 

------------



------------


showdown/ 
common/ 
SPADES 6 
CLUBS 10 
DIAMONDS 7 
SPADES 10 
SPADES 2 
/common 
8: 1111 DIAMONDS 8 DIAMONDS 4 ONE_PAIR 
4: 2222 CLUBS A DIAMONDS J ONE_PAIR 
3: 8888 HEARTS 3 DIAMONDS 2 TWO_PAIR 
2: 5555 HEARTS 7 SPADES 3 TWO_PAIR 
7: 4444 DIAMONDS K SPADES 4 ONE_PAIR 
5: 3333 DIAMONDS A SPADES 8 ONE_PAIR 
1: 7777 CLUBS K CLUBS 7 TWO_PAIR 
6: 6666 HEARTS A CLUBS 5 ONE_PAIR 
/showdown 

------------



------------


pot-win/ 
7777: 800 
/pot-win 

------------


seat/ 
button: 1111 3300 8000 
small blind: 2222 1700 8000 
big blind: 8888 1700 8000 
5555 2100 8000 
4444 1700 8000 
3333 1300 8000 
7777 2500 8000 
6666 1700 8000 
/seat 

------------


blind/ 
2222: 50 
8888: 100 
/blind 

------------


hold/ 
CLUBS 2 
SPADES 2 
/hold 

------------



------------


inquire/ 
2222 1600 8000 100 call 
1111 3200 8000 100 call 
6666 1600 8000 100 call 
7777 2400 8000 100 call 
3333 1200 8000 100 call 
4444 1600 8000 100 call 
5555 2000 8000 100 call 
8888 1600 8000 100 blind 
total pot: 800 
/inquire 

------------



------------


flop/ 
DIAMONDS K 
DIAMONDS A 
DIAMONDS 2 
/flop 

------------



------------


inquire/ 
2222 1600 8000 100 check 
1111 3200 8000 100 call 
6666 1600 8000 100 call 
7777 2400 8000 100 call 
3333 1200 8000 100 call 
4444 1600 8000 100 call 
5555 2000 8000 100 call 
8888 1600 8000 100 check 
total pot: 800 
/inquire 

------------



------------


turn/ 
SPADES 5 
/turn 

------------



------------


inquire/ 
2222 1600 8000 100 check 
1111 3200 8000 100 check 
6666 1600 8000 100 check 
7777 2400 8000 100 check 
3333 1200 8000 100 check 
4444 1600 8000 100 check 
5555 2000 8000 100 check 
8888 1600 8000 100 check 
total pot: 800 
/inquire 

------------



------------


river/ 
HEARTS K 
/river 

------------



------------


inquire/ 
2222 1600 8000 100 check 
1111 3200 8000 100 check 
6666 1600 8000 100 check 
7777 2400 8000 100 check 
3333 1200 8000 100 check 
4444 1600 8000 100 check 
5555 2000 8000 100 check 
8888 1600 8000 100 check 
total pot: 800 
/inquire 

------------



------------


showdown/ 
common/ 
DIAMONDS K 
DIAMONDS A 
DIAMONDS 2 
SPADES 5 
HEARTS K 
/common 
6: 2222 SPADES 7 DIAMONDS 10 ONE_PAIR 
1: 8888 CLUBS 2 SPADES 2 FULL_HOUSE 
5: 5555 HEARTS 8 HEARTS 2 TWO_PAIR 
4: 4444 HEARTS 5 HEARTS 10 TWO_PAIR 
2: 3333 SPADES Q SPADES A TWO_PAIR 
8: 7777 CLUBS 3 SPADES 6 ONE_PAIR 
3: 6666 CLUBS 7 DIAMONDS 7 TWO_PAIR 
7: 1111 HEARTS 9 DIAMONDS 8 ONE_PAIR 
/showdown 

------------



------------


pot-win/ 
8888: 800 
/pot-win 

------------


seat/ 
button: 2222 1600 8000 
small blind: 8888 2400 8000 
big blind: 5555 2000 8000 
4444 1600 8000 
3333 1200 8000 
7777 2400 8000 
6666 1600 8000 
1111 3200 8000 
/seat 

------------


blind/ 
8888: 50 
5555: 100 
/blind 

------------


hold/ 
SPADES 7 
DIAMONDS 10 
/hold 

------------



------------


inquire/ 
2222 1500 8000 100 call 
1111 3100 8000 100 call 
6666 1500 8000 100 call 
7777 2300 8000 100 call 
3333 1100 8000 100 call 
4444 1500 8000 100 call 
5555 1900 8000 100 blind 
8888 2350 8000 50 blind 
total pot: 750 
/inquire 

------------



------------


flop/ 
DIAMONDS K 
DIAMONDS A 
DIAMONDS 2 
/flop 

------------



------------


inquire/ 
2222 1500 8000 100 call 
1111 3100 8000 100 call 
6666 1500 8000 100 call 
7777 2300 8000 100 call 
3333 1100 8000 100 call 
4444 1500 8000 100 call 
5555 1900 8000 100 check 
8888 2300 8000 100 call 
total pot: 800 
/inquire 

------------



------------


turn/ 
SPADES 5 
/turn 

------------



------------


inquire/ 
2222 1500 8000 100 check 
1111 3100 8000 100 check 
6666 1500 8000 100 check 
7777 2300 8000 100 check 
3333 1100 8000 100 check 
4444 1500 8000 100 check 
5555 1900 8000 100 check 
8888 2300 8000 100 check 
total pot: 800 
/inquire 

------------



------------


river/ 
HEARTS K 
/river 

------------



------------


inquire/ 
2222 1500 8000 100 check 
1111 3100 8000 100 check 
6666 1500 8000 100 check 
7777 2300 8000 100 check 
3333 1100 8000 100 check 
4444 1500 8000 100 check 
5555 1900 8000 100 check 
8888 2300 8000 100 check 
total pot: 800 
/inquire 

------------



------------


showdown/ 
common/ 
DIAMONDS K 
DIAMONDS A 
DIAMONDS 2 
SPADES 5 
HEARTS K 
/common 
6: 8888 SPADES 7 DIAMONDS 10 ONE_PAIR 
1: 5555 CLUBS 2 SPADES 2 FULL_HOUSE 
5: 4444 HEARTS 8 HEARTS 2 TWO_PAIR 
4: 3333 HEARTS 5 HEARTS 10 TWO_PAIR 
2: 7777 SPADES Q SPADES A TWO_PAIR 
8: 6666 CLUBS 3 SPADES 6 ONE_PAIR 
3: 1111 CLUBS 7 DIAMONDS 7 TWO_PAIR 
7: 2222 HEARTS 9 DIAMONDS 8 ONE_PAIR 
/showdown 

------------



------------


pot-win/ 
5555: 800 
/pot-win 

------------


seat/ 
button: 8888 2300 8000 
small blind: 5555 2700 8000 
big blind: 4444 1500 8000 
3333 1100 8000 
7777 2300 8000 
6666 1500 8000 
1111 3100 8000 
2222 1500 8000 
/seat 

------------


blind/ 
5555: 50 
4444: 100 
/blind 

------------


hold/ 
HEARTS 9 
DIAMONDS 8 
/hold 

------------



------------


inquire/ 
2222 1400 8000 100 call 
1111 3000 8000 100 call 
6666 1400 8000 100 call 
7777 2200 8000 100 call 
3333 1000 8000 100 call 
4444 1400 8000 100 blind 
5555 2650 8000 50 blind 
total pot: 650 
/inquire 

------------



------------


flop/ 
DIAMONDS K 
DIAMONDS A 
DIAMONDS 2 
/flop 

------------



------------


inquire/ 
2222 1400 8000 100 check 
1111 3000 8000 100 check 
6666 1400 8000 100 check 
7777 2200 8000 100 check 
3333 1000 8000 100 check 
4444 1400 8000 100 check 
5555 2600 8000 100 check 
8888 2200 8000 100 call 
total pot: 800 
/inquire 

------------



------------


turn/ 
SPADES 5 
/turn 

------------



------------


inquire/ 
2222 1400 8000 100 check 
1111 3000 8000 100 check 
6666 1400 8000 100 check 
7777 2200 8000 100 check 
3333 1000 8000 100 check 
4444 1400 8000 100 check 
5555 2600 8000 100 check 
8888 2200 8000 100 check 
total pot: 800 
/inquire 

------------



------------


river/ 
HEARTS K 
/river 

------------



------------


inquire/ 
2222 1400 8000 100 check 
1111 3000 8000 100 check 
6666 1400 8000 100 check 
7777 2200 8000 100 check 
3333 1000 8000 100 check 
4444 1400 8000 100 check 
5555 2600 8000 100 check 
8888 2200 8000 100 check 
total pot: 800 
/inquire 

------------



------------


showdown/ 
common/ 
DIAMONDS K 
DIAMONDS A 
DIAMONDS 2 
SPADES 5 
HEARTS K 
/common 
6: 5555 SPADES 7 DIAMONDS 10 ONE_PAIR 
1: 4444 CLUBS 2 SPADES 2 FULL_HOUSE 
5: 3333 HEARTS 8 HEARTS 2 TWO_PAIR 
4: 7777 HEARTS 5 HEARTS 10 TWO_PAIR 
2: 6666 SPADES Q SPADES A TWO_PAIR 
8: 1111 CLUBS 3 SPADES 6 ONE_PAIR 
3: 2222 CLUBS 7 DIAMONDS 7 TWO_PAIR 
7: 8888 HEARTS 9 DIAMONDS 8 ONE_PAIR 
/showdown 

------------



------------


pot-win/ 
4444: 800 
/pot-win 

------------


seat/ 
button: 5555 2600 8000 
small blind: 4444 2200 8000 
big blind: 3333 1000 8000 
7777 2200 8000 
6666 1400 8000 
1111 3000 8000 
2222 1400 8000 
8888 2200 8000 
/seat 

------------


blind/ 
4444: 50 
3333: 100 
/blind 

------------


hold/ 
CLUBS 7 
DIAMONDS 7 
/hold 

------------



------------


inquire/ 
2222 1300 8000 100 call 
1111 2900 8000 100 call 
6666 1300 8000 100 call 
7777 2100 8000 100 call 
3333 900 8000 100 blind 
4444 2150 8000 50 blind 
total pot: 550 
/inquire 

------------



------------


flop/ 
DIAMONDS K 
DIAMONDS A 
DIAMONDS 2 
/flop 

------------



------------


inquire/ 
2222 1300 8000 100 check 
1111 2900 8000 100 check 
6666 1300 8000 100 check 
7777 2100 8000 100 check 
3333 900 8000 100 check 
4444 2100 8000 100 check 
5555 2500 8000 100 call 
8888 2100 8000 100 call 
total pot: 800 
/inquire 

------------



------------


turn/ 
SPADES 5 
/turn 

------------



------------


inquire/ 
2222 1300 8000 100 check 
1111 2900 8000 100 check 
6666 1300 8000 100 check 
7777 2100 8000 100 check 
3333 900 8000 100 check 
4444 2100 8000 100 check 
5555 2500 8000 100 check 
8888 2100 8000 100 check 
total pot: 800 
/inquire 

------------



------------


river/ 
HEARTS K 
/river 

------------



------------


inquire/ 
2222 1300 8000 100 check 
1111 2900 8000 100 check 
6666 1300 8000 100 check 
7777 2100 8000 100 check 
3333 900 8000 100 check 
4444 2100 8000 100 check 
5555 2500 8000 100 check 
8888 2100 8000 100 check 
total pot: 800 
/inquire 

------------



------------


showdown/ 
common/ 
DIAMONDS K 
DIAMONDS A 
DIAMONDS 2 
SPADES 5 
HEARTS K 
/common 
6: 4444 SPADES 7 DIAMONDS 10 ONE_PAIR 
1: 3333 CLUBS 2 SPADES 2 FULL_HOUSE 
5: 7777 HEARTS 8 HEARTS 2 TWO_PAIR 
4: 6666 HEARTS 5 HEARTS 10 TWO_PAIR 
2: 1111 SPADES Q SPADES A TWO_PAIR 
8: 2222 CLUBS 3 SPADES 6 ONE_PAIR 
3: 8888 CLUBS 7 DIAMONDS 7 TWO_PAIR 
7: 5555 HEARTS 9 DIAMONDS 8 ONE_PAIR 
/showdown 

------------



------------


pot-win/ 
3333: 800 
/pot-win 

------------


seat/ 
button: 4444 2100 8000 
small blind: 3333 1700 8000 
big blind: 7777 2100 8000 
6666 1300 8000 
1111 2900 8000 
2222 1300 8000 
8888 2100 8000 
5555 2500 8000 
/seat 

------------


blind/ 
3333: 50 
7777: 100 
/blind 

------------


hold/ 
CLUBS 3 
SPADES 6 
/hold 

------------



------------


inquire/ 
2222 1200 8000 100 call 
1111 2800 8000 100 call 
6666 1200 8000 100 call 
7777 2000 8000 100 blind 
3333 1650 8000 50 blind 
total pot: 450 
/inquire 

------------



------------


flop/ 
DIAMONDS K 
DIAMONDS A 
DIAMONDS 2 
/flop 

------------



------------


inquire/ 
2222 1200 8000 100 check 
1111 2800 8000 100 check 
6666 1200 8000 100 check 
7777 2000 8000 100 check 
3333 1600 8000 100 check 
4444 2000 8000 100 call 
5555 2400 8000 100 call 
8888 2000 8000 100 call 
total pot: 800 
/inquire 

------------



------------


turn/ 
SPADES 5 
/turn 

------------



------------


inquire/ 
2222 1200 8000 100 check 
1111 2800 8000 100 check 
6666 1200 8000 100 check 
7777 2000 8000 100 check 
3333 1600 8000 100 check 
4444 2000 8000 100 check 
5555 2400 8000 100 check 
8888 2000 8000 100 check 
total pot: 800 
/inquire 

------------



------------


river/ 
HEARTS K 
/river 

------------



------------


inquire/ 
2222 1200 8000 100 check 
1111 2800 8000 100 check 
6666 1200 8000 100 check 
7777 2000 8000 100 check 
3333 1600 8000 100 check 
4444 2000 8000 100 check 
5555 2400 8000 100 check 
8888 2000 8000 100 check 
total pot: 800 
/inquire 

------------



------------


showdown/ 
common/ 
DIAMONDS K 
DIAMONDS A 
DIAMONDS 2 
SPADES 5 
HEARTS K 
/common 
6: 3333 SPADES 7 DIAMONDS 10 ONE_PAIR 
1: 7777 CLUBS 2 SPADES 2 FULL_HOUSE 
5: 6666 HEARTS 8 HEARTS 2 TWO_PAIR 
4: 1111 HEARTS 5 HEARTS 10 TWO_PAIR 
2: 2222 SPADES Q SPADES A TWO_PAIR 
8: 8888 CLUBS 3 SPADES 6 ONE_PAIR 
3: 5555 CLUBS 7 DIAMONDS 7 TWO_PAIR 
7: 4444 HEARTS 9 DIAMONDS 8 ONE_PAIR 
/showdown 

------------



------------


pot-win/ 
7777: 800 
/pot-win 

------------


seat/ 
button: 3333 1600 8000 
small blind: 7777 2800 8000 
big blind: 6666 1200 8000 
1111 2800 8000 
2222 1200 8000 
8888 2000 8000 
5555 2400 8000 
4444 2000 8000 
/seat 

------------


blind/ 
7777: 50 
6666: 100 
/blind 

------------


hold/ 
SPADES Q 
SPADES A 
/hold 

------------



------------


inquire/ 
2222 1100 8000 100 call 
1111 2700 8000 100 call 
6666 1100 8000 100 blind 
7777 2750 8000 50 blind 
total pot: 350 
/inquire 

------------



------------


flop/ 
DIAMONDS K 
DIAMONDS A 
DIAMONDS 2 
/flop 

------------



------------


inquire/ 
2222 1100 8000 100 check 
1111 2700 8000 100 check 
6666 1100 8000 100 check 
7777 2700 8000 100 check 
3333 1500 8000 100 call 
4444 1900 8000 100 call 
5555 2300 8000 100 call 
8888 1900 8000 100 call 
total pot: 800 
/inquire 

------------



------------


turn/ 
SPADES 5 
/turn 

------------



------------


inquire/ 
2222 1100 8000 100 check 
1111 2700 8000 100 check 
6666 1100 8000 100 check 
7777 2700 8000 100 check 
3333 1500 8000 100 check 
4444 1900 8000 100 check 
5555 2300 8000 100 check 
8888 1900 8000 100 check 
total pot: 800 
/inquire 

------------



------------


river/ 
HEARTS K 
/river 

------------



------------


inquire/ 
2222 1100 8000 100 check 
1111 2700 8000 100 check 
6666 1100 8000 100 check 
7777 2700 8000 100 check 
3333 1500 8000 100 check 
4444 1900 8000 100 check 
5555 2300 8000 100 check 
8888 1900 8000 100 check 
total pot: 800 
/inquire 

------------



------------


showdown/ 
common/ 
DIAMONDS K 
DIAMONDS A 
DIAMONDS 2 
SPADES 5 
HEARTS K 
/common 
6: 7777 SPADES 7 DIAMONDS 10 ONE_PAIR 
1: 6666 CLUBS 2 SPADES 2 FULL_HOUSE 
5: 1111 HEARTS 8 HEARTS 2 TWO_PAIR 
4: 2222 HEARTS 5 HEARTS 10 TWO_PAIR 
2: 8888 SPADES Q SPADES A TWO_PAIR 
8: 5555 CLUBS 3 SPADES 6 ONE_PAIR 
3: 4444 CLUBS 7 DIAMONDS 7 TWO_PAIR 
7: 3333 HEARTS 9 DIAMONDS 8 ONE_PAIR 
/showdown 

------------



------------


pot-win/ 
6666: 800 
/pot-win 

------------


seat/ 
button: 7777 2700 8000 
small blind: 6666 1900 8000 
big blind: 1111 2700 8000 
2222 1100 8000 
8888 1900 8000 
5555 2300 8000 
4444 1900 8000 
3333 1500 8000 
/seat 

------------


blind/ 
6666: 50 
1111: 100 
/blind 

------------


hold/ 
HEARTS 8 
SPADES Q 
/hold 

------------



------------


inquire/ 
2222 1000 8000 100 call 
1111 2600 8000 100 blind 
6666 1850 8000 50 blind 
total pot: 250 
/inquire 

------------



------------


flop/ 
CLUBS 2 
DIAMONDS 8 
HEARTS K 
/flop 

------------



------------


inquire/ 
2222 1000 8000 100 check 
1111 2600 8000 100 check 
6666 1800 8000 100 check 
7777 2600 8000 100 call 
3333 1400 8000 100 call 
4444 1800 8000 100 call 
5555 2200 8000 100 call 
8888 1800 8000 100 call 
total pot: 800 
/inquire 

------------



------------


turn/ 
SPADES K 
/turn 

------------



------------


inquire/ 
2222 1000 8000 100 check 
1111 2600 8000 100 check 
6666 1800 8000 100 check 
7777 2600 8000 100 check 
3333 1400 8000 100 check 
4444 1800 8000 100 check 
5555 2200 8000 100 check 
8888 1800 8000 100 check 
total pot: 800 
/inquire 

------------



------------


river/ 
DIAMONDS 2 
/river 

------------



------------


inquire/ 
2222 1000 8000 100 check 
1111 2600 8000 100 check 
6666 1800 8000 100 check 
7777 2600 8000 100 check 
3333 1400 8000 100 check 
4444 1800 8000 100 check 
5555 2200 8000 100 check 
8888 1800 8000 100 check 
total pot: 800 
/inquire 

------------



------------


showdown/ 
common/ 
CLUBS 2 
DIAMONDS 8 
HEARTS K 
SPADES K 
DIAMONDS 2 
/common 
4: 6666 CLUBS Q CLUBS J TWO_PAIR 
5: 1111 SPADES 6 DIAMONDS 9 TWO_PAIR 
5: 2222 SPADES 9 SPADES 5 TWO_PAIR 
2: 8888 HEARTS 8 SPADES Q TWO_PAIR 
3: 5555 CLUBS 6 DIAMONDS A TWO_PAIR 
6: 4444 HEARTS 6 CLUBS 7 TWO_PAIR 
1: 3333 CLUBS K SPADES 2 FULL_HOUSE 
5: 7777 HEARTS 9 SPADES 4 TWO_PAIR 
/showdown 

------------



------------


pot-win/ 
3333: 800 
/pot-win 

------------


seat/ 
button: 6666 1800 8000 
small blind: 1111 2600 8000 
big blind: 2222 1000 8000 
8888 1800 8000 
5555 2200 8000 
4444 1800 8000 
3333 2200 8000 
7777 2600 8000 
/seat 

------------


blind/ 
1111: 50 
2222: 100 
/blind 

------------


hold/ 
SPADES 9 
SPADES 5 
/hold 

------------


inquire/ 
2222 900 8000 100 blind 
1111 2550 8000 50 blind 
total pot: 150 
/inquire 

------------



------------


flop/ 
CLUBS 2 
DIAMONDS 8 
HEARTS K 
/flop 

------------



------------


inquire/ 
2222 900 8000 100 check 
1111 2500 8000 100 check 
6666 1700 8000 100 call 
7777 2500 8000 100 call 
3333 2100 8000 100 call 
4444 1700 8000 100 call 
5555 2100 8000 100 call 
8888 1700 8000 100 call 
total pot: 800 
/inquire 

------------



------------


turn/ 
SPADES K 
/turn 

------------



------------


inquire/ 
2222 900 8000 100 check 
1111 2500 8000 100 check 
6666 1700 8000 100 check 
7777 2500 8000 100 check 
3333 2100 8000 100 check 
4444 1700 8000 100 check 
5555 2100 8000 100 check 
8888 1700 8000 100 check 
total pot: 800 
/inquire 

------------



------------


river/ 
DIAMONDS 2 
/river 

------------



------------


inquire/ 
2222 900 8000 100 check 
1111 2500 8000 100 check 
6666 1700 8000 100 check 
7777 2500 8000 100 check 
3333 2100 8000 100 check 
4444 1700 8000 100 check 
5555 2100 8000 100 check 
8888 1700 8000 100 check 
total pot: 800 
/inquire 

------------



------------


showdown/ 
common/ 
CLUBS 2 
DIAMONDS 8 
HEARTS K 
SPADES K 
DIAMONDS 2 
/common 
4: 1111 CLUBS Q CLUBS J TWO_PAIR 
5: 2222 SPADES 6 DIAMONDS 9 TWO_PAIR 
5: 8888 SPADES 9 SPADES 5 TWO_PAIR 
2: 5555 HEARTS 8 SPADES Q TWO_PAIR 
3: 4444 CLUBS 6 DIAMONDS A TWO_PAIR 
6: 3333 HEARTS 6 CLUBS 7 TWO_PAIR 
1: 7777 CLUBS K SPADES 2 FULL_HOUSE 
5: 6666 HEARTS 9 SPADES 4 TWO_PAIR 
/showdown 

------------



------------


pot-win/ 
7777: 800 
/pot-win 

------------


seat/ 
button: 1111 2500 8000 
small blind: 2222 900 8000 
big blind: 8888 1700 8000 
5555 2100 8000 
4444 1700 8000 
3333 2100 8000 
7777 3300 8000 
6666 1700 8000 
/seat 

------------


blind/ 
2222: 50 
8888: 100 
/blind 

------------


hold/ 
SPADES 6 
DIAMONDS 9 
/hold 

------------



------------


inquire/ 
2222 800 8000 100 call 
1111 2400 8000 100 call 
6666 1600 8000 100 call 
7777 3200 8000 100 call 
3333 2000 8000 100 call 
4444 1600 8000 100 call 
5555 2000 8000 100 call 
8888 1600 8000 100 blind 
total pot: 800 
/inquire 

------------



------------


flop/ 
CLUBS 2 
DIAMONDS 8 
HEARTS K 
/flop 

------------



------------


inquire/ 
2222 800 8000 100 check 
1111 2400 8000 100 call 
6666 1600 8000 100 call 
7777 3200 8000 100 call 
3333 2000 8000 100 call 
4444 1600 8000 100 call 
5555 2000 8000 100 call 
8888 1600 8000 100 check 
total pot: 800 
/inquire 

------------



------------


turn/ 
SPADES K 
/turn 

------------



------------


inquire/ 
2222 800 8000 100 check 
1111 2400 8000 100 check 
6666 1600 8000 100 check 
7777 3200 8000 100 check 
3333 2000 8000 100 check 
4444 1600 8000 100 check 
5555 2000 8000 100 check 
8888 1600 8000 100 check 
total pot: 800 
/inquire 

------------



------------


river/ 
DIAMONDS 2 
/river 

------------



------------


inquire/ 
2222 800 8000 100 check 
1111 2400 8000 100 check 
6666 1600 8000 100 check 
7777 3200 8000 100 check 
3333 2000 8000 100 check 
4444 1600 8000 100 check 
5555 2000 8000 100 check 
8888 1600 8000 100 check 
total pot: 800 
/inquire 

------------



------------


showdown/ 
common/ 
CLUBS 2 
DIAMONDS 8 
HEARTS K 
SPADES K 
DIAMONDS 2 
/common 
4: 2222 CLUBS Q CLUBS J TWO_PAIR 
5: 8888 SPADES 6 DIAMONDS 9 TWO_PAIR 
5: 5555 SPADES 9 SPADES 5 TWO_PAIR 
2: 4444 HEARTS 8 SPADES Q TWO_PAIR 
3: 3333 CLUBS 6 DIAMONDS A TWO_PAIR 
6: 7777 HEARTS 6 CLUBS 7 TWO_PAIR 
1: 6666 CLUBS K SPADES 2 FULL_HOUSE 
5: 1111 HEARTS 9 SPADES 4 TWO_PAIR 
/showdown 

------------



------------


pot-win/ 
6666: 800 
/pot-win 

------------


seat/ 
button: 2222 800 8000 
small blind: 8888 1600 8000 
big blind: 5555 2000 8000 
4444 1600 8000 
3333 2000 8000 
7777 3200 8000 
6666 2400 8000 
1111 2400 8000 
/seat 

------------


blind/ 
8888: 50 
5555: 100 
/blind 

------------


hold/ 
CLUBS Q 
CLUBS J 
/hold 

------------



------------


inquire/ 
2222 700 8000 100 call 
1111 2300 8000 100 call 
6666 2300 8000 100 call 
7777 3100 8000 100 call 
3333 1900 8000 100 call 
4444 1500 8000 100 call 
5555 1900 8000 100 blind 
8888 1550 8000 50 blind 
total pot: 750 
/inquire 

------------



------------


flop/ 
CLUBS 2 
DIAMONDS 8 
HEARTS K 
/flop 

------------



------------


inquire/ 
2222 700 8000 100 call 
1111 2300 8000 100 call 
6666 2300 8000 100 call 
7777 3100 8000 100 call 
3333 1900 8000 100 call 
4444 1500 8000 100 call 
5555 1900 8000 100 check 
8888 1500 8000 100 call 
total pot: 800 
/inquire 

------------



------------


turn/ 
SPADES K 
/turn 

------------



------------


inquire/ 
2222 700 8000 100 check 
1111 2300 8000 100 check 
6666 2300 8000 100 check 
7777 3100 8000 100 check 
3333 1900 8000 100 check 
4444 1500 8000 100 check 
5555 1900 8000 100 check 
8888 1500 8000 100 check 
total pot: 800 
/inquire 

------------



------------


river/ 
DIAMONDS 2 
/river 

------------



------------


inquire/ 
2222 700 8000 100 check 
1111 2300 8000 100 check 
6666 2300 8000 100 check 
7777 3100 8000 100 check 
3333 1900 8000 100 check 
4444 1500 8000 100 check 
5555 1900 8000 100 check 
8888 1500 8000 100 check 
total pot: 800 
/inquire 

------------



------------


showdown/ 
common/ 
CLUBS 2 
DIAMONDS 8 
HEARTS K 
SPADES K 
DIAMONDS 2 
/common 
4: 8888 CLUBS Q CLUBS J TWO_PAIR 
5: 5555 SPADES 6 DIAMONDS 9 TWO_PAIR 
5: 4444 SPADES 9 SPADES 5 TWO_PAIR 
2: 3333 HEARTS 8 SPADES Q TWO_PAIR 
3: 7777 CLUBS 6 DIAMONDS A TWO_PAIR 
6: 6666 HEARTS 6 CLUBS 7 TWO_PAIR 
1: 1111 CLUBS K SPADES 2 FULL_HOUSE 
5: 2222 HEARTS 9 SPADES 4 TWO_PAIR 
/showdown 

------------



------------


pot-win/ 
1111: 800 
/pot-win 

------------


seat/ 
button: 8888 1500 8000 
small blind: 5555 1900 8000 
big blind: 4444 1500 8000 
3333 1900 8000 
7777 3100 8000 
6666 2300 8000 
1111 3100 8000 
2222 700 8000 
/seat 

------------


blind/ 
5555: 50 
4444: 100 
/blind 

------------


hold/ 
HEARTS 9 
SPADES 4 
/hold 

------------



------------


inquire/ 
2222 600 8000 100 call 
1111 3000 8000 100 call 
6666 2200 8000 100 call 
7777 3000 8000 100 call 
3333 1800 8000 100 call 
4444 1400 8000 100 blind 
5555 1850 8000 50 blind 
total pot: 650 
/inquire 

------------



------------


flop/ 
CLUBS 2 
DIAMONDS 8 
HEARTS K 
/flop 

------------



------------


inquire/ 
2222 600 8000 100 check 
1111 3000 8000 100 check 
6666 2200 8000 100 check 
7777 3000 8000 100 check 
3333 1800 8000 100 check 
4444 1400 8000 100 check 
5555 1800 8000 100 check 
8888 1400 8000 100 call 
total pot: 800 
/inquire 

------------



------------


turn/ 
SPADES K 
/turn 

------------



------------


inquire/ 
2222 600 8000 100 check 
1111 3000 8000 100 check 
6666 2200 8000 100 check 
7777 3000 8000 100 check 
3333 1800 8000 100 check 
4444 1400 8000 100 check 
5555 1800 8000 100 check 
8888 1400 8000 100 check 
total pot: 800 
/inquire 

------------



------------


river/ 
DIAMONDS 2 
/river 

------------



------------


inquire/ 
2222 600 8000 100 check 
1111 3000 8000 100 check 
6666 2200 8000 100 check 
7777 3000 8000 100 check 
3333 1800 8000 100 check 
4444 1400 8000 100 check 
5555 1800 8000 100 check 
8888 1400 8000 100 check 
total pot: 800 
/inquire 

------------



------------


showdown/ 
common/ 
CLUBS 2 
DIAMONDS 8 
HEARTS K 
SPADES K 
DIAMONDS 2 
/common 
4: 5555 CLUBS Q CLUBS J TWO_PAIR 
5: 4444 SPADES 6 DIAMONDS 9 TWO_PAIR 
5: 3333 SPADES 9 SPADES 5 TWO_PAIR 
2: 7777 HEARTS 8 SPADES Q TWO_PAIR 
3: 6666 CLUBS 6 DIAMONDS A TWO_PAIR 
6: 1111 HEARTS 6 CLUBS 7 TWO_PAIR 
1: 2222 CLUBS K SPADES 2 FULL_HOUSE 
5: 8888 HEARTS 9 SPADES 4 TWO_PAIR 
/showdown 

------------



------------


pot-win/ 
2222: 800 
/pot-win 

------------


seat/ 
button: 5555 1800 8000 
small blind: 4444 1400 8000 
big blind: 3333 1800 8000 
7777 3000 8000 
6666 2200 8000 
1111 3000 8000 
2222 1400 8000 
8888 1400 8000 
/seat 

------------


blind/ 
4444: 50 
3333: 100 
/blind 

------------


hold/ 
DIAMONDS 5 
SPADES A 
/hold 

------------



------------


inquire/ 
2222 1300 8000 100 call 
1111 2900 8000 100 call 
6666 2100 8000 100 call 
7777 2900 8000 100 call 
3333 1700 8000 100 blind 
4444 1350 8000 50 blind 
total pot: 550 
/inquire 

------------



------------


flop/ 
SPADES 10 
CLUBS 10 
DIAMONDS 9 
/flop 

------------



------------


inquire/ 
2222 1300 8000 100 check 
1111 2900 8000 100 check 
6666 2100 8000 100 check 
7777 2900 8000 100 check 
3333 1700 8000 100 check 
4444 1300 8000 100 check 
5555 1700 8000 100 call 
8888 1300 8000 100 call 
total pot: 800 
/inquire 

------------



------------


turn/ 
CLUBS 4 
/turn 

------------



------------


inquire/ 
2222 1300 8000 100 check 
1111 2900 8000 100 check 
6666 2100 8000 100 check 
7777 2900 8000 100 check 
3333 1700 8000 100 check 
4444 1300 8000 100 check 
5555 1700 8000 100 check 
8888 1300 8000 100 check 
total pot: 800 
/inquire 

------------



------------


river/ 
SPADES J 
/river 

------------



------------


inquire/ 
2222 1300 8000 100 check 
1111 2900 8000 100 check 
6666 2100 8000 100 check 
7777 2900 8000 100 check 
3333 1700 8000 100 check 
4444 1300 8000 100 check 
5555 1700 8000 100 check 
8888 1300 8000 100 check 
total pot: 800 
/inquire 

------------



------------


showdown/ 
common/ 
SPADES 10 
CLUBS 10 
DIAMONDS 9 
CLUBS 4 
SPADES J 
/common 
8: 4444 HEARTS 6 CLUBS 5 ONE_PAIR 
7: 3333 CLUBS 8 SPADES 3 ONE_PAIR 
6: 7777 DIAMONDS 7 CLUBS Q ONE_PAIR 
1: 6666 DIAMONDS J HEARTS J FULL_HOUSE 
4: 1111 HEARTS 4 SPADES 6 TWO_PAIR 
2: 2222 HEARTS 9 HEARTS Q TWO_PAIR 
5: 8888 DIAMONDS 5 SPADES A ONE_PAIR 
3: 5555 CLUBS 7 SPADES 7 TWO_PAIR 
/showdown 

------------



------------


pot-win/ 
6666: 800 
/pot-win 

------------


seat/ 
button: 4444 1300 8000 
small blind: 3333 1700 8000 
big blind: 7777 2900 8000 
6666 2900 8000 
1111 2900 8000 
2222 1300 8000 
8888 1300 8000 
5555 1700 8000 
/seat 

------------


blind/ 
3333: 50 
7777: 100 
/blind 

------------


hold/ 
HEARTS 9 
HEARTS Q 
/hold 

------------



------------


inquire/ 
2222 1200 8000 100 call 
1111 2800 8000 100 call 
6666 2800 8000 100 call 
7777 2800 8000 100 blind 
3333 1650 8000 50 blind 
total pot: 450 
/inquire 

------------



------------


flop/ 
SPADES 10 
CLUBS 10 
DIAMONDS 9 
/flop 

------------



------------


inquire/ 
2222 1200 8000 100 check 
1111 2800 8000 100 check 
6666 2800 8000 100 check 
7777 2800 8000 100 check 
3333 1600 8000 100 check 
4444 1200 8000 100 call 
5555 1600 8000 100 call 
8888 1200 8000 100 call 
total pot: 800 
/inquire 

------------



------------


turn/ 
CLUBS 4 
/turn 

------------



------------


inquire/ 
2222 1200 8000 100 check 
1111 2800 8000 100 check 
6666 2800 8000 100 check 
7777 2800 8000 100 check 
3333 1600 8000 100 check 
4444 1200 8000 100 check 
5555 1600 8000 100 check 
8888 1200 8000 100 check 
total pot: 800 
/inquire 

------------



------------


river/ 
SPADES J 
/river 

------------



------------


inquire/ 
2222 1200 8000 100 check 
1111 2800 8000 100 check 
6666 2800 8000 100 check 
7777 2800 8000 100 check 
3333 1600 8000 100 check 
4444 1200 8000 100 check 
5555 1600 8000 100 check 
8888 1200 8000 100 check 
total pot: 800 
/inquire 

------------



------------


showdown/ 
common/ 
SPADES 10 
CLUBS 10 
DIAMONDS 9 
CLUBS 4 
SPADES J 
/common 
8: 3333 HEARTS 6 CLUBS 5 ONE_PAIR 
7: 7777 CLUBS 8 SPADES 3 ONE_PAIR 
6: 6666 DIAMONDS 7 CLUBS Q ONE_PAIR 
1: 1111 DIAMONDS J HEARTS J FULL_HOUSE 
4: 2222 HEARTS 4 SPADES 6 TWO_PAIR 
2: 8888 HEARTS 9 HEARTS Q TWO_PAIR 
5: 5555 DIAMONDS 5 SPADES A ONE_PAIR 
3: 4444 CLUBS 7 SPADES 7 TWO_PAIR 
/showdown 

------------



------------


pot-win/ 
1111: 800 
/pot-win 

------------


seat/ 
button: 3333 1600 8000 
small blind: 7777 2800 8000 
big blind: 6666 2800 8000 
1111 3600 8000 
2222 1200 8000 
8888 1200 8000 
5555 1600 8000 
4444 1200 8000 
/seat 

------------


blind/ 
7777: 50 
6666: 100 
/blind 

------------


hold/ 
HEARTS 4 
SPADES 6 
/hold 

------------



------------


inquire/ 
2222 1100 8000 100 call 
1111 3500 8000 100 call 
6666 2700 8000 100 blind 
7777 2750 8000 50 blind 
total pot: 350 
/inquire 

------------



------------


flop/ 
SPADES 10 
CLUBS 10 
DIAMONDS 9 
/flop 

------------



------------


inquire/ 
2222 1100 8000 100 check 
1111 3500 8000 100 check 
6666 2700 8000 100 check 
7777 2700 8000 100 check 
3333 1500 8000 100 call 
4444 1100 8000 100 call 
5555 1500 8000 100 call 
8888 1100 8000 100 call 
total pot: 800 
/inquire 

------------



------------


turn/ 
CLUBS 4 
/turn 

------------



------------


inquire/ 
2222 1100 8000 100 check 
1111 3500 8000 100 check 
6666 2700 8000 100 check 
7777 2700 8000 100 check 
3333 1500 8000 100 check 
4444 1100 8000 100 check 
5555 1500 8000 100 check 
8888 1100 8000 100 check 
total pot: 800 
/inquire 

------------



------------


river/ 
SPADES J 
/river 

------------



------------


inquire/ 
2222 1100 8000 100 check 
1111 3500 8000 100 check 
6666 2700 8000 100 check 
7777 2700 8000 100 check 
3333 1500 8000 100 check 
4444 1100 8000 100 check 
5555 1500 8000 100 check 
8888 1100 8000 100 check 
total pot: 800 
/inquire 

------------



------------


showdown/ 
common/ 
SPADES 10 
CLUBS 10 
DIAMONDS 9 
CLUBS 4 
SPADES J 
/common 
8: 7777 HEARTS 6 CLUBS 5 ONE_PAIR 
7: 6666 CLUBS 8 SPADES 3 ONE_PAIR 
6: 1111 DIAMONDS 7 CLUBS Q ONE_PAIR 
1: 2222 DIAMONDS J HEARTS J FULL_HOUSE 
4: 8888 HEARTS 4 SPADES 6 TWO_PAIR 
2: 5555 HEARTS 9 HEARTS Q TWO_PAIR 
5: 4444 DIAMONDS 5 SPADES A ONE_PAIR 
3: 3333 CLUBS 7 SPADES 7 TWO_PAIR 
/showdown 

------------



------------


pot-win/ 
2222: 800 
/pot-win 

------------


seat/ 
button: 7777 2700 8000 
small blind: 6666 2700 8000 
big blind: 1111 3500 8000 
2222 1900 8000 
8888 1100 8000 
5555 1500 8000 
4444 1100 8000 
3333 1500 8000 
/seat 

------------


blind/ 
6666: 50 
1111: 100 
/blind 

------------


hold/ 
DIAMONDS J 
HEARTS J 
/hold 

------------



------------


inquire/ 
2222 1800 8000 100 call 
1111 3400 8000 100 blind 
6666 2650 8000 50 blind 
total pot: 250 
/inquire 

------------



------------


flop/ 
SPADES 10 
CLUBS 10 
DIAMONDS 9 
/flop 

------------



------------


inquire/ 
2222 1800 8000 100 check 
1111 3400 8000 100 check 
6666 2600 8000 100 check 
7777 2600 8000 100 call 
3333 1400 8000 100 call 
4444 1000 8000 100 call 
5555 1400 8000 100 call 
8888 1000 8000 100 call 
total pot: 800 
/inquire 

------------



------------


turn/ 
CLUBS 4 
/turn 

------------



------------


inquire/ 
2222 1800 8000 100 check 
1111 3400 8000 100 check 
6666 2600 8000 100 check 
7777 2600 8000 100 check 
3333 1400 8000 100 check 
4444 1000 8000 100 check 
5555 1400 8000 100 check 
8888 1000 8000 100 check 
total pot: 800 
/inquire 

------------



------------


river/ 
SPADES J 
/river 

------------



------------


inquire/ 
2222 1800 8000 100 check 
1111 3400 8000 100 check 
6666 2600 8000 100 check 
7777 2600 8000 100 check 
3333 1400 8000 100 check 
4444 1000 8000 100 check 
5555 1400 8000 100 check 
8888 1000 8000 100 check 
total pot: 800 
/inquire 

------------



------------


showdown/ 
common/ 
SPADES 10 
CLUBS 10 
DIAMONDS 9 
CLUBS 4 
SPADES J 
/common 
8: 6666 HEARTS 6 CLUBS 5 ONE_PAIR 
7: 1111 CLUBS 8 SPADES 3 ONE_PAIR 
6: 2222 DIAMONDS 7 CLUBS Q ONE_PAIR 
1: 8888 DIAMONDS J HEARTS J FULL_HOUSE 
4: 5555 HEARTS 4 SPADES 6 TWO_PAIR 
2: 4444 HEARTS 9 HEARTS Q TWO_PAIR 
5: 3333 DIAMONDS 5 SPADES A ONE_PAIR 
3: 7777 CLUBS 7 SPADES 7 TWO_PAIR 
/showdown 

------------



------------


pot-win/ 
8888: 800 
/pot-win 

------------


seat/ 
button: 6666 2600 8000 
small blind: 1111 3400 8000 
big blind: 2222 1800 8000 
8888 1800 8000 
5555 1400 8000 
4444 1000 8000 
3333 1400 8000 
7777 2600 8000 
/seat 

------------


blind/ 
1111: 50 
2222: 100 
/blind 

------------


hold/ 
DIAMONDS 7 
CLUBS Q 
/hold 

------------


inquire/ 
2222 1700 8000 100 blind 
1111 3350 8000 50 blind 
total pot: 150 
/inquire 

------------



------------


flop/ 
SPADES 10 
CLUBS 10 
DIAMONDS 9 
/flop 

------------



------------


inquire/ 
2222 1700 8000 100 check 
1111 3300 8000 100 check 
6666 2500 8000 100 call 
7777 2500 8000 100 call 
3333 1300 8000 100 call 
4444 900 8000 100 call 
5555 1300 8000 100 call 
8888 1700 8000 100 call 
total pot: 800 
/inquire 

------------



------------


turn/ 
CLUBS 4 
/turn 

------------



------------


inquire/ 
2222 1700 8000 100 check 
1111 3300 8000 100 check 
6666 2500 8000 100 check 
7777 2500 8000 100 check 
3333 1300 8000 100 check 
4444 900 8000 100 check 
5555 1300 8000 100 check 
8888 1700 8000 100 check 
total pot: 800 
/inquire 

------------



------------


river/ 
SPADES J 
/river 

------------



------------


inquire/ 
2222 1700 8000 100 check 
1111 3300 8000 100 check 
6666 2500 8000 100 check 
7777 2500 8000 100 check 
3333 1300 8000 100 check 
4444 900 8000 100 check 
5555 1300 8000 100 check 
8888 1700 8000 100 check 
total pot: 800 
/inquire 

------------



------------


showdown/ 
common/ 
SPADES 10 
CLUBS 10 
DIAMONDS 9 
CLUBS 4 
SPADES J 
/common 
8: 1111 HEARTS 6 CLUBS 5 ONE_PAIR 
7: 2222 CLUBS 8 SPADES 3 ONE_PAIR 
6: 8888 DIAMONDS 7 CLUBS Q ONE_PAIR 
1: 5555 DIAMONDS J HEARTS J FULL_HOUSE 
4: 4444 HEARTS 4 SPADES 6 TWO_PAIR 
2: 3333 HEARTS 9 HEARTS Q TWO_PAIR 
5: 7777 DIAMONDS 5 SPADES A ONE_PAIR 
3: 6666 CLUBS 7 SPADES 7 TWO_PAIR 
/showdown 

------------



------------


pot-win/ 
5555: 800 
/pot-win 

------------


seat/ 
button: 1111 3300 8000 
small blind: 2222 1700 8000 
big blind: 8888 1700 8000 
5555 2100 8000 
4444 900 8000 
3333 1300 8000 
7777 2500 8000 
6666 2500 8000 
/seat 

------------


blind/ 
2222: 50 
8888: 100 
/blind 

------------


hold/ 
CLUBS 8 
SPADES 3 
/hold 

------------



------------


inquire/ 
2222 1600 8000 100 call 
1111 3200 8000 100 call 
6666 2400 8000 100 call 
7777 2400 8000 100 call 
3333 1200 8000 100 call 
4444 800 8000 100 call 
5555 2000 8000 100 call 
8888 1600 8000 100 blind 
total pot: 800 
/inquire 

------------



------------


flop/ 
SPADES 10 
CLUBS 10 
DIAMONDS 9 
/flop 

------------



------------


inquire/ 
2222 1600 8000 100 check 
1111 3200 8000 100 call 
6666 2400 8000 100 call 
7777 2400 8000 100 call 
3333 1200 8000 100 call 
4444 800 8000 100 call 
5555 2000 8000 100 call 
8888 1600 8000 100 check 
total pot: 800 
/inquire 

------------



------------


turn/ 
CLUBS 4 
/turn 

------------



------------


inquire/ 
2222 1600 8000 100 check 
1111 3200 8000 100 check 
6666 2400 8000 100 check 
7777 2400 8000 100 check 
3333 1200 8000 100 check 
4444 800 8000 100 check 
5555 2000 8000 100 check 
8888 1600 8000 100 check 
total pot: 800 
/inquire 

------------



------------


river/ 
SPADES J 
/river 

------------



------------


inquire/ 
2222 1600 8000 100 check 
1111 3200 8000 100 check 
6666 2400 8000 100 check 
7777 2400 8000 100 check 
3333 1200 8000 100 check 
4444 800 8000 100 check 
5555 2000 8000 100 check 
8888 1600 8000 100 check 
total pot: 800 
/inquire 

------------



------------


showdown/ 
common/ 
SPADES 10 
CLUBS 10 
DIAMONDS 9 
CLUBS 4 
SPADES J 
/common 
8: 2222 HEARTS 6 CLUBS 5 ONE_PAIR 
7: 8888 CLUBS 8 SPADES 3 ONE_PAIR 
6: 5555 DIAMONDS 7 CLUBS Q ONE_PAIR 
1: 4444 DIAMONDS J HEARTS J FULL_HOUSE 
4: 3333 HEARTS 4 SPADES 6 TWO_PAIR 
2: 7777 HEARTS 9 HEARTS Q TWO_PAIR 
5: 6666 DIAMONDS 5 SPADES A ONE_PAIR 
3: 1111 CLUBS 7 SPADES 7 TWO_PAIR 
/showdown 

------------



------------


pot-win/ 
4444: 800 
/pot-win 

------------


seat/ 
button: 2222 1600 8000 
small blind: 8888 1600 8000 
big blind: 5555 2000 8000 
4444 1600 8000 
3333 1200 8000 
7777 2400 8000 
6666 2400 8000 
1111 3200 8000 
/seat 

------------


blind/ 
8888: 50 
5555: 100 
/blind 

------------


hold/ 
HEARTS 4 
SPADES 10 
/hold 

------------



------------


inquire/ 
2222 1500 8000 100 call 
1111 3100 8000 100 call 
6666 2300 8000 100 call 
7777 2300 8000 100 call 
3333 1100 8000 100 call 
4444 1500 8000 100 call 
5555 1900 8000 100 blind 
8888 1550 8000 50 blind 
total pot: 750 
/inquire 

------------



------------


flop/ 
DIAMONDS 10 
SPADES 6 
CLUBS Q 
/flop 

------------



------------


inquire/ 
2222 1500 8000 100 call 
1111 3100 8000 100 call 
6666 2300 8000 100 call 
7777 2300 8000 100 call 
3333 1100 8000 100 call 
4444 1500 8000 100 call 
5555 1900 8000 100 check 
8888 1500 8000 100 call 
total pot: 800 
/inquire 

------------



------------


turn/ 
HEARTS 7 
/turn 

------------



------------


inquire/ 
2222 1500 8000 100 check 
1111 3100 8000 100 check 
6666 2300 8000 100 check 
7777 2300 8000 100 check 
3333 1100 8000 100 check 
4444 1500 8000 100 check 
5555 1900 8000 100 check 
8888 1500 8000 100 check 
total pot: 800 
/inquire 

------------



------------


river/ 
DIAMONDS 5 
/river 

------------



------------


inquire/ 
2222 1500 8000 100 check 
1111 3100 8000 100 check 
6666 2300 8000 100 check 
7777 2300 8000 100 check 
3333 1100 8000 100 check 
4444 1500 8000 100 check 
5555 1900 8000 100 check 
8888 1500 8000 100 check 
total pot: 800 
/inquire 

------------



------------


showdown/ 
common/ 
DIAMONDS 10 
SPADES 6 
CLUBS Q 
HEARTS 7 
DIAMONDS 5 
/common 
3: 8888 HEARTS 4 SPADES 10 ONE_PAIR 
6: 5555 DIAMONDS 9 SPADES 5 ONE_PAIR 
4: 4444 HEARTS A SPADES 7 ONE_PAIR 
8: 3333 SPADES 3 CLUBS 2 HIGH_CARD 
5: 7777 CLUBS A HEARTS 5 ONE_PAIR 
7: 6666 SPADES 8 HEARTS J HIGH_CARD 
2: 1111 HEARTS Q CLUBS 3 ONE_PAIR 
1: 2222 HEARTS K DIAMONDS Q ONE_PAIR 
/showdown 

------------



------------


pot-win/ 
2222: 800 
/pot-win 

------------


seat/ 
button: 8888 1500 8000 
small blind: 5555 1900 8000 
big blind: 4444 1500 8000 
3333 1100 8000 
7777 2300 8000 
6666 2300 8000 
1111 3100 8000 
2222 2300 8000 
/seat 

------------


blind/ 
5555: 50 
4444: 100 
/blind 

------------


hold/ 
HEARTS K 
DIAMONDS Q 
/hold 

------------



------------


inquire/ 
2222 2200 8000 100 call 
1111 3000 8000 100 call 
6666 2200 8000 100 call 
7777 2200 8000 100 call 
3333 1000 8000 100 call 
4444 1400 8000 100 blind 
5555 1850 8000 50 blind 
total pot: 650 
/inquire 

------------



------------


flop/ 
DIAMONDS 10 
SPADES 6 
CLUBS Q 
/flop 

------------



------------


inquire/ 
2222 2200 8000 100 check 
1111 3000 8000 100 check 
6666 2200 8000 100 check 
7777 2200 8000 100 check 
3333 1000 8000 100 check 
4444 1400 8000 100 check 
5555 1800 8000 100 check 
8888 1400 8000 100 call 
total pot: 800 
/inquire 

------------



------------


turn/ 
HEARTS 7 
/turn 

------------



------------


inquire/ 
2222 2200 8000 100 check 
1111 3000 8000 100 check 
6666 2200 8000 100 check 
7777 2200 8000 100 check 
3333 1000 8000 100 check 
4444 1400 8000 100 check 
5555 1800 8000 100 check 
8888 1400 8000 100 check 
total pot: 800 
/inquire 

------------



------------


river/ 
DIAMONDS 5 
/river 

------------



------------


inquire/ 
2222 2200 8000 100 check 
1111 3000 8000 100 check 
6666 2200 8000 100 check 
7777 2200 8000 100 check 
3333 1000 8000 100 check 
4444 1400 8000 100 check 
5555 1800 8000 100 check 
8888 1400 8000 100 check 
total pot: 800 
/inquire 

------------



------------


showdown/ 
common/ 
DIAMONDS 10 
SPADES 6 
CLUBS Q 
HEARTS 7 
DIAMONDS 5 
/common 
3: 5555 HEARTS 4 SPADES 10 ONE_PAIR 
6: 4444 DIAMONDS 9 SPADES 5 ONE_PAIR 
4: 3333 HEARTS A SPADES 7 ONE_PAIR 
8: 7777 SPADES 3 CLUBS 2 HIGH_CARD 
5: 6666 CLUBS A HEARTS 5 ONE_PAIR 
7: 1111 SPADES 8 HEARTS J HIGH_CARD 
2: 2222 HEARTS Q CLUBS 3 ONE_PAIR 
1: 8888 HEARTS K DIAMONDS Q ONE_PAIR 
/showdown 

------------



------------


pot-win/ 
8888: 800 
/pot-win 

------------


seat/ 
button: 5555 1800 8000 
small blind: 4444 1400 8000 
big blind: 3333 1000 8000 
7777 2200 8000 
6666 2200 8000 
1111 3000 8000 
2222 2200 8000 
8888 2200 8000 
/seat 

------------


blind/ 
4444: 50 
3333: 100 
/blind 

------------


hold/ 
HEARTS Q 
CLUBS 3 
/hold 

------------



------------


inquire/ 
2222 2100 8000 100 call 
1111 2900 8000 100 call 
6666 2100 8000 100 call 
7777 2100 8000 100 call 
3333 900 8000 100 blind 
4444 1350 8000 50 blind 
total pot: 550 
/inquire 

------------



------------


flop/ 
DIAMONDS 10 
SPADES 6 
CLUBS Q 
/flop 

------------



------------


inquire/ 
2222 2100 8000 100 check 
1111 2900 8000 100 check 
6666 2100 8000 100 check 
7777 2100 8000 100 check 
3333 900 8000 100 check 
4444 1300 8000 100 check 
5555 1700 8000 100 call 
8888 2100 8000 100 call 
total pot: 800 
/inquire 

------------



------------


turn/ 
HEARTS 7 
/turn 

------------



------------


inquire/ 
2222 2100 8000 100 check 
1111 2900 8000 100 check 
6666 2100 8000 100 check 
7777 2100 8000 100 check 
3333 900 8000 100 check 
4444 1300 8000 100 check 
5555 1700 8000 100 check 
8888 2100 8000 100 check 
total pot: 800 
/inquire 

------------



------------


river/ 
DIAMONDS 5 
/river 

------------



------------


inquire/ 
2222 2100 8000 100 check 
1111 2900 8000 100 check 
6666 2100 8000 100 check 
7777 2100 8000 100 check 
3333 900 8000 100 check 
4444 1300 8000 100 check 
5555 1700 8000 100 check 
8888 2100 8000 100 check 
total pot: 800 
/inquire 

------------



------------


showdown/ 
common/ 
DIAMONDS 10 
SPADES 6 
CLUBS Q 
HEARTS 7 
DIAMONDS 5 
/common 
3: 4444 HEARTS 4 SPADES 10 ONE_PAIR 
6: 3333 DIAMONDS 9 SPADES 5 ONE_PAIR 
4: 7777 HEARTS A SPADES 7 ONE_PAIR 
8: 6666 SPADES 3 CLUBS 2 HIGH_CARD 
5: 1111 CLUBS A HEARTS 5 ONE_PAIR 
7: 2222 SPADES 8 HEARTS J HIGH_CARD 
2: 8888 HEARTS Q CLUBS 3 ONE_PAIR 
1: 5555 HEARTS K DIAMONDS Q ONE_PAIR 
/showdown 

------------



------------


pot-win/ 
5555: 800 
/pot-win 

------------


seat/ 
button: 4444 1300 8000 
small blind: 3333 900 8000 
big blind: 7777 2100 8000 
6666 2100 8000 
1111 2900 8000 
2222 2100 8000 
8888 2100 8000 
5555 2500 8000 
/seat 

------------


blind/ 
3333: 50 
7777: 100 
/blind 

------------


hold/ 
SPADES 8 
HEARTS J 
/hold 

------------



------------


inquire/ 
2222 2000 8000 100 call 
1111 2800 8000 100 call 
6666 2000 8000 100 call 
7777 2000 8000 100 blind 
3333 850 8000 50 blind 
total pot: 450 
/inquire 

------------



------------


flop/ 
DIAMONDS 10 
SPADES 6 
CLUBS Q 
/flop 

------------



------------


inquire/ 
2222 2000 8000 100 check 
1111 2800 8000 100 check 
6666 2000 8000 100 check 
7777 2000 8000 100 check 
3333 800 8000 100 check 
4444 1200 8000 100 call 
5555 2400 8000 100 call 
8888 2000 8000 100 call 
total pot: 800 
/inquire 

------------



------------


turn/ 
HEARTS 7 
/turn 

------------



------------


inquire/ 
2222 2000 8000 100 check 
1111 2800 8000 100 check 
6666 2000 8000 100 check 
7777 2000 8000 100 check 
3333 800 8000 100 check 
4444 1200 8000 100 check 
5555 2400 8000 100 check 
8888 2000 8000 100 check 
total pot: 800 
/inquire 

------------



------------


river/ 
DIAMONDS 5 
/river 

------------



------------


inquire/ 
2222 2000 8000 100 check 
1111 2800 8000 100 check 
6666 2000 8000 100 check 
7777 2000 8000 100 check 
3333 800 8000 100 check 
4444 1200 8000 100 check 
5555 2400 8000 100 check 
8888 2000 8000 100 check 
total pot: 800 
/inquire 

------------



------------


showdown/ 
common/ 
DIAMONDS 10 
SPADES 6 
CLUBS Q 
HEARTS 7 
DIAMONDS 5 
/common 
3: 3333 HEARTS 4 SPADES 10 ONE_PAIR 
6: 7777 DIAMONDS 9 SPADES 5 ONE_PAIR 
4: 6666 HEARTS A SPADES 7 ONE_PAIR 
8: 1111 SPADES 3 CLUBS 2 HIGH_CARD 
5: 2222 CLUBS A HEARTS 5 ONE_PAIR 
7: 8888 SPADES 8 HEARTS J HIGH_CARD 
2: 5555 HEARTS Q CLUBS 3 ONE_PAIR 
1: 4444 HEARTS K DIAMONDS Q ONE_PAIR 
/showdown 

------------



------------


pot-win/ 
4444: 800 
/pot-win 

------------


seat/ 
button: 3333 800 8000 
small blind: 7777 2000 8000 
big blind: 6666 2000 8000 
1111 2800 8000 
2222 2000 8000 
8888 2000 8000 
5555 2400 8000 
4444 2000 8000 
/seat 

------------


blind/ 
7777: 50 
6666: 100 
/blind 

------------


hold/ 
CLUBS A 
HEARTS 5 
/hold 

------------



------------


inquire/ 
2222 1900 8000 100 call 
1111 2700 8000 100 call 
6666 1900 8000 100 blind 
7777 1950 8000 50 blind 
total pot: 350 
/inquire 

------------



------------


flop/ 
DIAMONDS 10 
SPADES 6 
CLUBS Q 
/flop 

------------



------------


inquire/ 
2222 1900 8000 100 check 
1111 2700 8000 100 check 
6666 1900 8000 100 check 
7777 1900 8000 100 check 
3333 700 8000 100 call 
4444 1900 8000 100 call 
5555 2300 8000 100 call 
8888 1900 8000 100 call 
total pot: 800 
/inquire 

------------



------------


turn/ 
HEARTS 7 
/turn 

------------



------------


inquire/ 
2222 1900 8000 100 check 
1111 2700 8000 100 check 
6666 1900 8000 100 check 
7777 1900 8000 100 check 
3333 700 8000 100 check 
4444 1900 8000 100 check 
5555 2300 8000 100 check 
8888 1900 8000 100 check 
total pot: 800 
/inquire 

------------



------------


river/ 
DIAMONDS 5 
/river 

------------



------------


inquire/ 
2222 1900 8000 100 check 
1111 2700 8000 100 check 
6666 1900 8000 100 check 
7777 1900 8000 100 check 
3333 700 8000 100 check 
4444 1900 8000 100 check 
5555 2300 8000 100 check 
8888 1900 8000 100 check 
total pot: 800 
/inquire 

------------



------------


showdown/ 
common/ 
DIAMONDS 10 
SPADES 6 
CLUBS Q 
HEARTS 7 
DIAMONDS 5 
/common 
3: 7777 HEARTS 4 SPADES 10 ONE_PAIR 
6: 6666 DIAMONDS 9 SPADES 5 ONE_PAIR 
4: 1111 HEARTS A SPADES 7 ONE_PAIR 
8: 2222 SPADES 3 CLUBS 2 HIGH_CARD 
5: 8888 CLUBS A HEARTS 5 ONE_PAIR 
7: 5555 SPADES 8 HEARTS J HIGH_CARD 
2: 4444 HEARTS Q CLUBS 3 ONE_PAIR 
1: 3333 HEARTS K DIAMONDS Q ONE_PAIR 
/showdown 

------------



------------


pot-win/ 
3333: 800 
/pot-win 

------------


seat/ 
button: 7777 1900 8000 
small blind: 6666 1900 8000 
big blind: 1111 2700 8000 
2222 1900 8000 
8888 1900 8000 
5555 2300 8000 
4444 1900 8000 
3333 1500 8000 
/seat 

------------


blind/ 
6666: 50 
1111: 100 
/blind 

------------


hold/ 
CLUBS 9 
HEARTS 9 
/hold 

------------



------------


inquire/ 
2222 1800 8000 100 call 
1111 2600 8000 100 blind 
6666 1850 8000 50 blind 
total pot: 250 
/inquire 

------------



------------


flop/ 
CLUBS 2 
HEARTS 4 
DIAMONDS K 
/flop 

------------



------------


inquire/ 
2222 1800 8000 100 check 
1111 2600 8000 100 check 
6666 1800 8000 100 check 
7777 1800 8000 100 call 
3333 1400 8000 100 call 
4444 1800 8000 100 call 
5555 2200 8000 100 call 
8888 1800 8000 100 call 
total pot: 800 
/inquire 

------------



------------


turn/ 
DIAMONDS 8 
/turn 

------------



------------


inquire/ 
2222 1800 8000 100 check 
1111 2600 8000 100 check 
6666 1800 8000 100 check 
7777 1800 8000 100 check 
3333 1400 8000 100 check 
4444 1800 8000 100 check 
5555 2200 8000 100 check 
8888 1800 8000 100 check 
total pot: 800 
/inquire 

------------



------------


river/ 
CLUBS 7 
/river 

------------



------------


inquire/ 
2222 1800 8000 100 check 
1111 2600 8000 100 check 
6666 1800 8000 100 check 
7777 1800 8000 100 check 
3333 1400 8000 100 check 
4444 1800 8000 100 check 
5555 2200 8000 100 check 
8888 1800 8000 100 check 
total pot: 800 
/inquire 

------------



------------


showdown/ 
common/ 
CLUBS 2 
HEARTS 4 
DIAMONDS K 
DIAMONDS 8 
CLUBS 7 
/common 
5: 6666 CLUBS J DIAMONDS 9 HIGH_CARD 
8: 1111 DIAMONDS 3 HEARTS 5 HIGH_CARD 
7: 2222 DIAMONDS 10 HEARTS 6 HIGH_CARD 
2: 8888 CLUBS 9 HEARTS 9 ONE_PAIR 
6: 5555 HEARTS J CLUBS 3 HIGH_CARD 
1: 4444 HEARTS K SPADES Q ONE_PAIR 
4: 3333 DIAMONDS 5 CLUBS 5 ONE_PAIR 
3: 7777 SPADES 7 SPADES J ONE_PAIR 
/showdown 

------------



------------


pot-win/ 
4444: 800 
/pot-win 

------------


seat/ 
button: 6666 1800 8000 
small blind: 1111 2600 8000 
big blind: 2222 1800 8000 
8888 1800 8000 
5555 2200 8000 
4444 2600 8000 
3333 1400 8000 
7777 1800 8000 
/seat 

------------


blind/ 
1111: 50 
2222: 100 
/blind 

------------


hold/ 
DIAMONDS 10 
HEARTS 6 
/hold 

------------


inquire/ 
2222 1700 8000 100 blind 
1111 2550 8000 50 blind 
total pot: 150 
/inquire 

------------



------------


flop/ 
CLUBS 2 
HEARTS 4 
DIAMONDS K 
/flop 

------------



------------


inquire/ 
2222 1700 8000 100 check 
1111 2500 8000 100 check 
6666 1700 8000 100 call 
7777 1700 8000 100 call 
3333 1300 8000 100 call 
4444 2500 8000 100 call 
5555 2100 8000 100 call 
8888 1700 8000 100 call 
total pot: 800 
/inquire 

------------



------------


turn/ 
DIAMONDS 8 
/turn 

------------



------------


inquire/ 
2222 1700 8000 100 check 
1111 2500 8000 100 check 
6666 1700 8000 100 check 
7777 1700 8000 100 check 
3333 1300 8000 100 check 
4444 2500 8000 100 check 
5555 2100 8000 100 check 
8888 1700 8000 100 check 
total pot: 800 
/inquire 

------------



------------


river/ 
CLUBS 7 
/river 

------------



------------


inquire/ 
2222 1700 8000 100 check 
1111 2500 8000 100 check 
6666 1700 8000 100 check 
7777 1700 8000 100 check 
3333 1300 8000 100 check 
4444 2500 8000 100 check 
5555 2100 8000 100 check 
8888 1700 8000 100 check 
total pot: 800 
/inquire 

------------



------------


showdown/ 
common/ 
CLUBS 2 
HEARTS 4 
DIAMONDS K 
DIAMONDS 8 
CLUBS 7 
/common 
5: 1111 CLUBS J DIAMONDS 9 HIGH_CARD 
8: 2222 DIAMONDS 3 HEARTS 5 HIGH_CARD 
7: 8888 DIAMONDS 10 HEARTS 6 HIGH_CARD 
2: 5555 CLUBS 9 HEARTS 9 ONE_PAIR 
6: 4444 HEARTS J CLUBS 3 HIGH_CARD 
1: 3333 HEARTS K SPADES Q ONE_PAIR 
4: 7777 DIAMONDS 5 CLUBS 5 ONE_PAIR 
3: 6666 SPADES 7 SPADES J ONE_PAIR 
/showdown 

------------



------------


pot-win/ 
3333: 800 
/pot-win 

------------


seat/ 
button: 1111 2500 8000 
small blind: 2222 1700 8000 
big blind: 8888 1700 8000 
5555 2100 8000 
4444 2500 8000 
3333 2100 8000 
7777 1700 8000 
6666 1700 8000 
/seat 

------------


blind/ 
2222: 50 
8888: 100 
/blind 

------------


hold/ 
DIAMONDS 3 
HEARTS 5 
/hold 

------------



------------


inquire/ 
2222 1600 8000 100 call 
1111 2400 8000 100 call 
6666 1600 8000 100 call 
7777 1600 8000 100 call 
3333 2000 8000 100 call 
4444 2400 8000 100 call 
5555 2000 8000 100 call 
8888 1600 8000 100 blind 
total pot: 800 
/inquire 

------------



------------


flop/ 
CLUBS 2 
HEARTS 4 
DIAMONDS K 
/flop 

------------



------------


inquire/ 
2222 1600 8000 100 check 
1111 2400 8000 100 call 
6666 1600 8000 100 call 
7777 1600 8000 100 call 
3333 2000 8000 100 call 
4444 2400 8000 100 call 
5555 2000 8000 100 call 
8888 1600 8000 100 check 
total pot: 800 
/inquire 

------------



------------


turn/ 
DIAMONDS 8 
/turn 

------------



------------


inquire/ 
2222 1600 8000 100 check 
1111 2400 8000 100 check 
6666 1600 8000 100 check 
7777 1600 8000 100 check 
3333 2000 8000 100 check 
4444 2400 8000 100 check 
5555 2000 8000 100 check 
8888 1600 8000 100 check 
total pot: 800 
/inquire 

------------



------------


river/ 
CLUBS 7 
/river 

------------



------------


inquire/ 
2222 1600 8000 100 check 
1111 2400 8000 100 check 
6666 1600 8000 100 check 
7777 1600 8000 100 check 
3333 2000 8000 100 check 
4444 2400 8000 100 check 
5555 2000 8000 100 check 
8888 1600 8000 100 check 
total pot: 800 
/inquire 

------------



------------


showdown/ 
common/ 
CLUBS 2 
HEARTS 4 
DIAMONDS K 
DIAMONDS 8 
CLUBS 7 
/common 
5: 2222 CLUBS J DIAMONDS 9 HIGH_CARD 
8: 8888 DIAMONDS 3 HEARTS 5 HIGH_CARD 
7: 5555 DIAMONDS 10 HEARTS 6 HIGH_CARD 
2: 4444 CLUBS 9 HEARTS 9 ONE_PAIR 
6: 3333 HEARTS J CLUBS 3 HIGH_CARD 
1: 7777 HEARTS K SPADES Q ONE_PAIR 
4: 6666 DIAMONDS 5 CLUBS 5 ONE_PAIR 
3: 1111 SPADES 7 SPADES J ONE_PAIR 
/showdown 

------------



------------


pot-win/ 
7777: 800 
/pot-win 

------------


seat/ 
button: 2222 1600 8000 
small blind: 8888 1600 8000 
big blind: 5555 2000 8000 
4444 2400 8000 
3333 2000 8000 
7777 2400 8000 
6666 1600 8000 
1111 2400 8000 
/seat 

------------


blind/ 
8888: 50 
5555: 100 
/blind 

------------


hold/ 
CLUBS J 
DIAMONDS 9 
/hold 

------------



------------


inquire/ 
2222 1500 8000 100 call 
1111 2300 8000 100 call 
6666 1500 8000 100 call 
7777 2300 8000 100 call 
3333 1900 8000 100 call 
4444 2300 8000 100 call 
5555 1900 8000 100 blind 
8888 1550 8000 50 blind 
total pot: 750 
/inquire 

------------



------------


flop/ 
CLUBS 2 
HEARTS 4 
DIAMONDS K 
/flop 

------------



------------


inquire/ 
2222 1500 8000 100 call 
1111 2300 8000 100 call 
6666 1500 8000 100 call 
7777 2300 8000 100 call 
3333 1900 8000 100 call 
4444 2300 8000 100 call 
5555 1900 8000 100 check 
8888 1500 8000 100 call 
total pot: 800 
/inquire 

------------



------------


turn/ 
DIAMONDS 8 
/turn 

------------



------------


inquire/ 
2222 1500 8000 100 check 
1111 2300 8000 100 check 
6666 1500 8000 100 check 
7777 2300 8000 100 check 
3333 1900 8000 100 check 
4444 2300 8000 100 check 
5555 1900 8000 100 check 
8888 1500 8000 100 check 
total pot: 800 
/inquire 

------------



------------


river/ 
CLUBS 7 
/river 

------------



------------


inquire/ 
2222 1500 8000 100 check 
1111 2300 8000 100 check 
6666 1500 8000 100 check 
7777 2300 8000 100 check 
3333 1900 8000 100 check 
4444 2300 8000 100 check 
5555 1900 8000 100 check 
8888 1500 8000 100 check 
total pot: 800 
/inquire 

------------



------------


showdown/ 
common/ 
CLUBS 2 
HEARTS 4 
DIAMONDS K 
DIAMONDS 8 
CLUBS 7 
/common 
5: 8888 CLUBS J DIAMONDS 9 HIGH_CARD 
8: 5555 DIAMONDS 3 HEARTS 5 HIGH_CARD 
7: 4444 DIAMONDS 10 HEARTS 6 HIGH_CARD 
2: 3333 CLUBS 9 HEARTS 9 ONE_PAIR 
6: 7777 HEARTS J CLUBS 3 HIGH_CARD 
1: 6666 HEARTS K SPADES Q ONE_PAIR 
4: 1111 DIAMONDS 5 CLUBS 5 ONE_PAIR 
3: 2222 SPADES 7 SPADES J ONE_PAIR 
/showdown 

------------



------------


pot-win/ 
6666: 800 
/pot-win 

------------


seat/ 
button: 8888 1500 8000 
small blind: 5555 1900 8000 
big blind: 4444 2300 8000 
3333 1900 8000 
7777 2300 8000 
6666 2300 8000 
1111 2300 8000 
2222 1500 8000 
/seat 

------------


blind/ 
5555: 50 
4444: 100 
/blind 

------------


hold/ 
SPADES 7 
SPADES J 
/hold 

------------



------------


inquire/ 
2222 1400 8000 100 call 
1111 2200 8000 100 call 
6666 2200 8000 100 call 
7777 2200 8000 100 call 
3333 1800 8000 100 call 
4444 2200 8000 100 blind 
5555 1850 8000 50 blind 
total pot: 650 
/inquire 

------------



------------


flop/ 
CLUBS 2 
HEARTS 4 
DIAMONDS K 
/flop 

------------



------------


inquire/ 
2222 1400 8000 100 check 
1111 2200 8000 100 check 
6666 2200 8000 100 check 
7777 2200 8000 100 check 
3333 1800 8000 100 check 
4444 2200 8000 100 check 
5555 1800 8000 100 check 
8888 1400 8000 100 call 
total pot: 800 
/inquire 

------------



------------


turn/ 
DIAMONDS 8 
/turn 

------------



------------


inquire/ 
2222 1400 8000 100 check 
1111 2200 8000 100 check 
6666 2200 8000 100 check 
7777 2200 8000 100 check 
3333 1800 8000 100 check 
4444 2200 8000 100 check 
5555 1800 8000 100 check 
8888 1400 8000 100 check 
total pot: 800 
/inquire 

------------



------------


river/ 
CLUBS 7 
/river 

------------



------------


inquire/ 
2222 1400 8000 100 check 
1111 2200 8000 100 check 
6666 2200 8000 100 check 
7777 2200 8000 100 check 
3333 1800 8000 100 check 
4444 2200 8000 100 check 
5555 1800 8000 100 check 
8888 1400 8000 100 check 
total pot: 800 
/inquire 

------------



------------


showdown/ 
common/ 
CLUBS 2 
HEARTS 4 
DIAMONDS K 
DIAMONDS 8 
CLUBS 7 
/common 
5: 5555 CLUBS J DIAMONDS 9 HIGH_CARD 
8: 4444 DIAMONDS 3 HEARTS 5 HIGH_CARD 
7: 3333 DIAMONDS 10 HEARTS 6 HIGH_CARD 
2: 7777 CLUBS 9 HEARTS 9 ONE_PAIR 
6: 6666 HEARTS J CLUBS 3 HIGH_CARD 
1: 1111 HEARTS K SPADES Q ONE_PAIR 
4: 2222 DIAMONDS 5 CLUBS 5 ONE_PAIR 
3: 8888 SPADES 7 SPADES J ONE_PAIR 
/showdown 

------------



------------


pot-win/ 
1111: 800 
/pot-win 

------------


seat/ 
button: 5555 1800 8000 
small blind: 4444 2200 8000 
big blind: 3333 1800 8000 
7777 2200 8000 
6666 2200 8000 
1111 3000 8000 
2222 1400 8000 
8888 1400 8000 
/seat 

------------


blind/ 
4444: 50 
3333: 100 
/blind 

------------


hold/ 
DIAMONDS 5 
CLUBS 5 
/hold 

------------



------------


inquire/ 
2222 1300 8000 100 call 
1111 2900 8000 100 call 
6666 2100 8000 100 call 
7777 2100 8000 100 call 
3333 1700 8000 100 blind 
4444 2150 8000 50 blind 
total pot: 550 
/inquire 

------------



------------


flop/ 
CLUBS 2 
HEARTS 4 
DIAMONDS K 
/flop 

------------



------------


inquire/ 
2222 1300 8000 100 check 
1111 2900 8000 100 check 
6666 2100 8000 100 check 
7777 2100 8000 100 check 
3333 1700 8000 100 check 
4444 2100 8000 100 check 
5555 1700 8000 100 call 
8888 1300 8000 100 call 
total pot: 800 
/inquire 

------------



------------


turn/ 
DIAMONDS 8 
/turn 

------------



------------


inquire/ 
2222 1300 8000 100 check 
1111 2900 8000 100 check 
6666 2100 8000 100 check 
7777 2100 8000 100 check 
3333 1700 8000 100 check 
4444 2100 8000 100 check 
5555 1700 8000 100 check 
8888 1300 8000 100 check 
total pot: 800 
/inquire 

------------



------------


river/ 
CLUBS 7 
/river 

------------



------------


inquire/ 
2222 1300 8000 100 check 
1111 2900 8000 100 check 
6666 2100 8000 100 check 
7777 2100 8000 100 check 
3333 1700 8000 100 check 
4444 2100 8000 100 check 
5555 1700 8000 100 check 
8888 1300 8000 100 check 
total pot: 800 
/inquire 

------------



------------


showdown/ 
common/ 
CLUBS 2 
HEARTS 4 
DIAMONDS K 
DIAMONDS 8 
CLUBS 7 
/common 
5: 4444 CLUBS J DIAMONDS 9 HIGH_CARD 
8: 3333 DIAMONDS 3 HEARTS 5 HIGH_CARD 
7: 7777 DIAMONDS 10 HEARTS 6 HIGH_CARD 
2: 6666 CLUBS 9 HEARTS 9 ONE_PAIR 
6: 1111 HEARTS J CLUBS 3 HIGH_CARD 
1: 2222 HEARTS K SPADES Q ONE_PAIR 
4: 8888 DIAMONDS 5 CLUBS 5 ONE_PAIR 
3: 5555 SPADES 7 SPADES J ONE_PAIR 
/showdown 

------------



------------


pot-win/ 
2222: 800 
/pot-win 

------------


seat/ 
button: 4444 2100 8000 
small blind: 3333 1700 8000 
big blind: 7777 2100 8000 
6666 2100 8000 
1111 2900 8000 
2222 2100 8000 
8888 1300 8000 
5555 1700 8000 
/seat 

------------


blind/ 
3333: 50 
7777: 100 
/blind 

------------


hold/ 
CLUBS 10 
DIAMONDS 9 
/hold 

------------



------------


inquire/ 
2222 2000 8000 100 call 
1111 2800 8000 100 call 
6666 2000 8000 100 call 
7777 2000 8000 100 blind 
3333 1650 8000 50 blind 
total pot: 450 
/inquire 

------------



------------


flop/ 
CLUBS J 
CLUBS 3 
HEARTS 8 
/flop 

------------



------------


inquire/ 
2222 2000 8000 100 check 
1111 2800 8000 100 check 
6666 2000 8000 100 check 
7777 2000 8000 100 check 
3333 1600 8000 100 check 
4444 2000 8000 100 call 
5555 1600 8000 100 call 
8888 1200 8000 100 call 
total pot: 800 
/inquire 

------------



------------


turn/ 
SPADES J 
/turn 

------------



------------


inquire/ 
2222 2000 8000 100 check 
1111 2800 8000 100 check 
6666 2000 8000 100 check 
7777 2000 8000 100 check 
3333 1600 8000 100 check 
4444 2000 8000 100 check 
5555 1600 8000 100 check 
8888 1200 8000 100 check 
total pot: 800 
/inquire 

------------



------------


river/ 
SPADES 3 
/river 

------------



------------


inquire/ 
2222 2000 8000 100 check 
1111 2800 8000 100 check 
6666 2000 8000 100 check 
7777 2000 8000 100 check 
3333 1600 8000 100 check 
4444 2000 8000 100 check 
5555 1600 8000 100 check 
8888 1200 8000 100 check 
total pot: 800 
/inquire 

------------



------------


showdown/ 
common/ 
CLUBS J 
CLUBS 3 
HEARTS 8 
SPADES J 
SPADES 3 
/common 
7: 3333 SPADES 2 SPADES 6 TWO_PAIR 
4: 7777 HEARTS 7 SPADES K TWO_PAIR 
5: 6666 HEARTS Q DIAMONDS 2 TWO_PAIR 
2: 1111 DIAMONDS 8 HEARTS 3 FULL_HOUSE 
1: 2222 DIAMONDS J CLUBS 9 FULL_HOUSE 
6: 8888 CLUBS 10 DIAMONDS 9 TWO_PAIR 
3: 5555 SPADES 10 CLUBS A TWO_PAIR 
6: 4444 SPADES 7 DIAMONDS 10 TWO_PAIR 
/showdown 

------------



------------


pot-win/ 
2222: 800 
/pot-win 

------------


seat/ 
button: 3333 1600 8000 
small blind: 7777 2000 8000 
big blind: 6666 2000 8000 
1111 2800 8000 
2222 2800 8000 
8888 1200 8000 
5555 1600 8000 
4444 2000 8000 
/seat 

------------


blind/ 
7777: 50 
6666: 100 
/blind 

------------


hold/ 
DIAMONDS J 
CLUBS 9 
/hold 

------------



------------


inquire/ 
2222 2700 8000 100 call 
1111 2700 8000 100 call 
6666 1900 8000 100 blind 
7777 1950 8000 50 blind 
total pot: 350 
/inquire 

------------



------------


flop/ 
CLUBS J 
CLUBS 3 
HEARTS 8 
/flop 

------------



------------


inquire/ 
2222 2700 8000 100 check 
1111 2700 8000 100 check 
6666 1900 8000 100 check 
7777 1900 8000 100 check 
3333 1500 8000 100 call 
4444 1900 8000 100 call 
5555 1500 8000 100 call 
8888 1100 8000 100 call 
total pot: 800 
/inquire 

------------



------------


turn/ 
SPADES J 
/turn 

------------



------------


inquire/ 
2222 2700 8000 100 check 
1111 2700 8000 100 check 
6666 1900 8000 100 check 
7777 1900 8000 100 check 
3333 1500 8000 100 check 
4444 1900 8000 100 check 
5555 1500 8000 100 check 
8888 1100 8000 100 check 
total pot: 800 
/inquire 

------------



------------


river/ 
SPADES 3 
/river 

------------



------------


inquire/ 
2222 2700 8000 100 check 
1111 2700 8000 100 check 
6666 1900 8000 100 check 
7777 1900 8000 100 check 
3333 1500 8000 100 check 
4444 1900 8000 100 check 
5555 1500 8000 100 check 
8888 1100 8000 100 check 
total pot: 800 
/inquire 

------------



------------


showdown/ 
common/ 
CLUBS J 
CLUBS 3 
HEARTS 8 
SPADES J 
SPADES 3 
/common 
7: 7777 SPADES 2 SPADES 6 TWO_PAIR 
4: 6666 HEARTS 7 SPADES K TWO_PAIR 
5: 1111 HEARTS Q DIAMONDS 2 TWO_PAIR 
2: 2222 DIAMONDS 8 HEARTS 3 FULL_HOUSE 
1: 8888 DIAMONDS J CLUBS 9 FULL_HOUSE 
6: 5555 CLUBS 10 DIAMONDS 9 TWO_PAIR 
3: 4444 SPADES 10 CLUBS A TWO_PAIR 
6: 3333 SPADES 7 DIAMONDS 10 TWO_PAIR 
/showdown 

------------



------------


pot-win/ 
8888: 800 
/pot-win 

------------


seat/ 
button: 7777 1900 8000 
small blind: 6666 1900 8000 
big blind: 1111 2700 8000 
2222 2700 8000 
8888 1900 8000 
5555 1500 8000 
4444 1900 8000 
3333 1500 8000 
/seat 

------------


blind/ 
6666: 50 
1111: 100 
/blind 

------------


hold/ 
DIAMONDS 8 
HEARTS 3 
/hold 

------------


inquire/ 
2222 2600 8000 100 call 
1111 2600 8000 100 blind 
6666 1850 8000 50 blind 
total pot: 250 
/inquire 

------------



------------


flop/ 
CLUBS J 
CLUBS 3 
HEARTS 8 
/flop 

------------



------------


inquire/ 
2222 2600 8000 100 check 
1111 2600 8000 100 check 
6666 1800 8000 100 check 
7777 1800 8000 100 call 
3333 1400 8000 100 call 
4444 1800 8000 100 call 
5555 1400 8000 100 call 
8888 1800 8000 100 call 
total pot: 800 
/inquire 

------------



------------


turn/ 
SPADES J 
/turn 

------------



------------


inquire/ 
2222 2600 8000 100 check 
1111 2600 8000 100 check 
6666 1800 8000 100 check 
7777 1800 8000 100 check 
3333 1400 8000 100 check 
4444 1800 8000 100 check 
5555 1400 8000 100 check 
8888 1800 8000 100 check 
total pot: 800 
/inquire 

------------



------------


river/ 
SPADES 3 
/river 

------------



------------


inquire/ 
2222 2600 8000 100 check 
1111 2600 8000 100 check 
6666 1800 8000 100 check 
7777 1800 8000 100 check 
3333 1400 8000 100 check 
4444 1800 8000 100 check 
5555 1400 8000 100 check 
8888 1800 8000 100 check 
total pot: 800 
/inquire 

------------



------------


showdown/ 
common/ 
CLUBS J 
CLUBS 3 
HEARTS 8 
SPADES J 
SPADES 3 
/common 
7: 6666 SPADES 2 SPADES 6 TWO_PAIR 
4: 1111 HEARTS 7 SPADES K TWO_PAIR 
5: 2222 HEARTS Q DIAMONDS 2 TWO_PAIR 
2: 8888 DIAMONDS 8 HEARTS 3 FULL_HOUSE 
1: 5555 DIAMONDS J CLUBS 9 FULL_HOUSE 
6: 4444 CLUBS 10 DIAMONDS 9 TWO_PAIR 
3: 3333 SPADES 10 CLUBS A TWO_PAIR 
6: 7777 SPADES 7 DIAMONDS 10 TWO_PAIR 
/showdown 

------------



------------


pot-win/ 
5555: 800 
/pot-win 

------------


seat/ 
button: 6666 1800 8000 
small blind: 1111 2600 8000 
big blind: 2222 2600 8000 
8888 1800 8000 
5555 2200 8000 
4444 1800 8000 
3333 1400 8000 
7777 1800 8000 
/seat 

------------


blind/ 
1111: 50 
2222: 100 
/blind 

------------


hold/ 
HEARTS Q 
DIAMONDS 2 
/hold 

------------


inquire/ 
2222 2500 8000 100 blind 
1111 2550 8000 50 blind 
total pot: 150 
/inquire 

------------



------------


flop/ 
CLUBS J 
CLUBS 3 
HEARTS 8 
/flop 

------------



------------


inquire/ 
2222 2500 8000 100 check 
1111 2500 8000 100 check 
6666 1700 8000 100 call 
7777 1700 8000 100 call 
3333 1300 8000 100 call 
4444 1700 8000 100 call 
5555 2100 8000 100 call 
8888 1700 8000 100 call 
total pot: 800 
/inquire 

------------



------------


turn/ 
SPADES J 
/turn 

------------



------------


inquire/ 
2222 2500 8000 100 check 
1111 2500 8000 100 check 
6666 1700 8000 100 check 
7777 1700 8000 100 check 
3333 1300 8000 100 check 
4444 1700 8000 100 check 
5555 2100 8000 100 check 
8888 1700 8000 100 check 
total pot: 800 
/inquire 

------------



------------


river/ 
SPADES 3 
/river 

------------



------------


inquire/ 
2222 2500 8000 100 check 
1111 2500 8000 100 check 
6666 1700 8000 100 check 
7777 1700 8000 100 check 
3333 1300 8000 100 check 
4444 1700 8000 100 check 
5555 2100 8000 100 check 
8888 1700 8000 100 check 
total pot: 800 
/inquire 

------------



------------


showdown/ 
common/ 
CLUBS J 
CLUBS 3 
HEARTS 8 
SPADES J 
SPADES 3 
/common 
7: 1111 SPADES 2 SPADES 6 TWO_PAIR 
4: 2222 HEARTS 7 SPADES K TWO_PAIR 
5: 8888 HEARTS Q DIAMONDS 2 TWO_PAIR 
2: 5555 DIAMONDS 8 HEARTS 3 FULL_HOUSE 
1: 4444 DIAMONDS J CLUBS 9 FULL_HOUSE 
6: 3333 CLUBS 10 DIAMONDS 9 TWO_PAIR 
3: 7777 SPADES 10 CLUBS A TWO_PAIR 
6: 6666 SPADES 7 DIAMONDS 10 TWO_PAIR 
/showdown 

------------



------------


pot-win/ 
4444: 800 
/pot-win 

------------


seat/ 
button: 1111 2500 8000 
small blind: 2222 2500 8000 
big blind: 8888 1700 8000 
5555 2100 8000 
4444 2500 8000 
3333 1300 8000 
7777 1700 8000 
6666 1700 8000 
/seat 

------------


blind/ 
2222: 50 
8888: 100 
/blind 

------------


hold/ 
HEARTS 7 
SPADES K 
/hold 

------------



------------


inquire/ 
2222 2400 8000 100 call 
1111 2400 8000 100 call 
6666 1600 8000 100 call 
7777 1600 8000 100 call 
3333 1200 8000 100 call 
4444 2400 8000 100 call 
5555 2000 8000 100 call 
8888 1600 8000 100 blind 
total pot: 800 
/inquire 

------------



------------


flop/ 
CLUBS J 
CLUBS 3 
HEARTS 8 
/flop 

------------



------------


inquire/ 
2222 2400 8000 100 check 
1111 2400 8000 100 call 
6666 1600 8000 100 call 
7777 1600 8000 100 call 
3333 1200 8000 100 call 
4444 2400 8000 100 call 
5555 2000 8000 100 call 
8888 1600 8000 100 check 
total pot: 800 
/inquire 

------------



------------


turn/ 
SPADES J 
/turn 

------------



------------


inquire/ 
2222 2400 8000 100 check 
1111 2400 8000 100 check 
6666 1600 8000 100 check 
7777 1600 8000 100 check 
3333 1200 8000 100 check 
4444 2400 8000 100 check 
5555 2000 8000 100 check 
8888 1600 8000 100 check 
total pot: 800 
/inquire 

------------



------------


river/ 
SPADES 3 
/river 

------------



------------


inquire/ 
2222 2400 8000 100 check 
1111 2400 8000 100 check 
6666 1600 8000 100 check 
7777 1600 8000 100 check 
3333 1200 8000 100 check 
4444 2400 8000 100 check 
5555 2000 8000 100 check 
8888 1600 8000 100 check 
total pot: 800 
/inquire 

------------



------------


showdown/ 
common/ 
CLUBS J 
CLUBS 3 
HEARTS 8 
SPADES J 
SPADES 3 
/common 
7: 2222 SPADES 2 SPADES 6 TWO_PAIR 
4: 8888 HEARTS 7 SPADES K TWO_PAIR 
5: 5555 HEARTS Q DIAMONDS 2 TWO_PAIR 
2: 4444 DIAMONDS 8 HEARTS 3 FULL_HOUSE 
1: 3333 DIAMONDS J CLUBS 9 FULL_HOUSE 
6: 7777 CLUBS 10 DIAMONDS 9 TWO_PAIR 
3: 6666 SPADES 10 CLUBS A TWO_PAIR 
6: 1111 SPADES 7 DIAMONDS 10 TWO_PAIR 
/showdown 

------------



------------


pot-win/ 
3333: 800 
/pot-win 

------------


seat/ 
button: 2222 2400 8000 
small blind: 8888 1600 8000 
big blind: 5555 2000 8000 
4444 2400 8000 
3333 2000 8000 
7777 1600 8000 
6666 1600 8000 
1111 2400 8000 
/seat 

------------


blind/ 
8888: 50 
5555: 100 
/blind 

------------


hold/ 
SPADES 2 
SPADES 6 
/hold 

------------



------------


inquire/ 
2222 2300 8000 100 call 
1111 2300 8000 100 call 
6666 1500 8000 100 call 
7777 1500 8000 100 call 
3333 1900 8000 100 call 
4444 2300 8000 100 call 
5555 1900 8000 100 blind 
8888 1550 8000 50 blind 
total pot: 750 
/inquire 

------------



------------


flop/ 
CLUBS J 
CLUBS 3 
HEARTS 8 
/flop 

------------



------------


inquire/ 
2222 2300 8000 100 call 
1111 2300 8000 100 call 
6666 1500 8000 100 call 
7777 1500 8000 100 call 
3333 1900 8000 100 call 
4444 2300 8000 100 call 
5555 1900 8000 100 check 
8888 1500 8000 100 call 
total pot: 800 
/inquire 

------------



------------


turn/ 
SPADES J 
/turn 

------------



------------


inquire/ 
2222 2300 8000 100 check 
1111 2300 8000 100 check 
6666 1500 8000 100 check 
7777 1500 8000 100 check 
3333 1900 8000 100 check 
4444 2300 8000 100 check 
5555 1900 8000 100 check 
8888 1500 8000 100 check 
total pot: 800 
/inquire 

------------



------------


river/ 
SPADES 3 
/river 

------------



------------


inquire/ 
2222 2300 8000 100 check 
1111 2300 8000 100 check 
6666 1500 8000 100 check 
7777 1500 8000 100 check 
3333 1900 8000 100 check 
4444 2300 8000 100 check 
5555 1900 8000 100 check 
8888 1500 8000 100 check 
total pot: 800 
/inquire 

------------



------------


showdown/ 
common/ 
CLUBS J 
CLUBS 3 
HEARTS 8 
SPADES J 
SPADES 3 
/common 
7: 8888 SPADES 2 SPADES 6 TWO_PAIR 
4: 5555 HEARTS 7 SPADES K TWO_PAIR 
5: 4444 HEARTS Q DIAMONDS 2 TWO_PAIR 
2: 3333 DIAMONDS 8 HEARTS 3 FULL_HOUSE 
1: 7777 DIAMONDS J CLUBS 9 FULL_HOUSE 
6: 6666 CLUBS 10 DIAMONDS 9 TWO_PAIR 
3: 1111 SPADES 10 CLUBS A TWO_PAIR 
6: 2222 SPADES 7 DIAMONDS 10 TWO_PAIR 
/showdown 

------------



------------


pot-win/ 
7777: 800 
/pot-win 

------------


seat/ 
button: 8888 1500 8000 
small blind: 5555 1900 8000 
big blind: 4444 2300 8000 
3333 1900 8000 
7777 2300 8000 
6666 1500 8000 
1111 2300 8000 
2222 2300 8000 
/seat 

------------


blind/ 
5555: 50 
4444: 100 
/blind 

------------


hold/ 
SPADES K 
CLUBS 10 
/hold 

------------



------------


inquire/ 
2222 2200 8000 100 call 
1111 2200 8000 100 call 
6666 1400 8000 100 call 
7777 2200 8000 100 call 
3333 1800 8000 100 call 
4444 2200 8000 100 blind 
5555 1850 8000 50 blind 
total pot: 650 
/inquire 

------------



------------


flop/ 
SPADES 6 
SPADES 7 
CLUBS A 
/flop 

------------



------------


inquire/ 
2222 2200 8000 100 check 
1111 2200 8000 100 check 
6666 1400 8000 100 check 
7777 2200 8000 100 check 
3333 1800 8000 100 check 
4444 2200 8000 100 check 
5555 1800 8000 100 check 
8888 1400 8000 100 call 
total pot: 800 
/inquire 

------------



------------


turn/ 
CLUBS J 
/turn 

------------



------------


inquire/ 
2222 2200 8000 100 check 
1111 2200 8000 100 check 
6666 1400 8000 100 check 
7777 2200 8000 100 check 
3333 1800 8000 100 check 
4444 2200 8000 100 check 
5555 1800 8000 100 check 
8888 1400 8000 100 check 
total pot: 800 
/inquire 

------------



------------


river/ 
CLUBS 2 
/river 

------------



------------


inquire/ 
2222 2200 8000 100 check 
1111 2200 8000 100 check 
6666 1400 8000 100 check 
7777 2200 8000 100 check 
3333 1800 8000 100 check 
4444 2200 8000 100 check 
5555 1800 8000 100 check 
8888 1400 8000 100 check 
total pot: 800 
/inquire 

------------



------------


showdown/ 
common/ 
SPADES 6 
SPADES 7 
CLUBS A 
CLUBS J 
CLUBS 2 
/common 
2: 5555 DIAMONDS 5 DIAMONDS A ONE_PAIR 
6: 4444 DIAMONDS 2 HEARTS 9 ONE_PAIR 
8: 3333 HEARTS 3 DIAMONDS Q HIGH_CARD 
5: 7777 HEARTS 5 CLUBS 5 ONE_PAIR 
1: 6666 CLUBS 9 CLUBS 3 FLUSH 
4: 1111 SPADES 3 DIAMONDS 6 ONE_PAIR 
3: 2222 SPADES 8 DIAMONDS 7 ONE_PAIR 
7: 8888 SPADES K CLUBS 10 HIGH_CARD 
/showdown 

------------



------------


pot-win/ 
6666: 800 
/pot-win 

------------


seat/ 
button: 5555 1800 8000 
small blind: 4444 2200 8000 
big blind: 3333 1800 8000 
7777 2200 8000 
6666 2200 8000 
1111 2200 8000 
2222 2200 8000 
8888 1400 8000 
/seat 

------------


blind/ 
4444: 50 
3333: 100 
/blind 

------------


hold/ 
SPADES 8 
DIAMONDS 7 
/hold 

------------



------------


inquire/ 
2222 2100 8000 100 call 
1111 2100 8000 100 call 
6666 2100 8000 100 call 
7777 2100 8000 100 call 
3333 1700 8000 100 blind 
4444 2150 8000 50 blind 
total pot: 550 
/inquire 

------------



------------


flop/ 
SPADES 6 
SPADES 7 
CLUBS A 
/flop 

------------



------------


inquire/ 
2222 2100 8000 100 check 
1111 2100 8000 100 check 
6666 2100 8000 100 check 
7777 2100 8000 100 check 
3333 1700 8000 100 check 
4444 2100 8000 100 check 
5555 1700 8000 100 call 
8888 1300 8000 100 call 
total pot: 800 
/inquire 

------------



------------


turn/ 
CLUBS J 
/turn 

------------



------------


inquire/ 
2222 2100 8000 100 check 
1111 2100 8000 100 check 
6666 2100 8000 100 check 
7777 2100 8000 100 check 
3333 1700 8000 100 check 
4444 2100 8000 100 check 
5555 1700 8000 100 check 
8888 1300 8000 100 check 
total pot: 800 
/inquire 

------------



------------


river/ 
CLUBS 2 
/river 

------------



------------


inquire/ 
2222 2100 8000 100 check 
1111 2100 8000 100 check 
6666 2100 8000 100 check 
7777 2100 8000 100 check 
3333 1700 8000 100 check 
4444 2100 8000 100 check 
5555 1700 8000 100 check 
8888 1300 8000 100 check 
total pot: 800 
/inquire 

------------



------------


showdown/ 
common/ 
SPADES 6 
SPADES 7 
CLUBS A 
CLUBS J 
CLUBS 2 
/common 
2: 4444 DIAMONDS 5 DIAMONDS A ONE_PAIR 
6: 3333 DIAMONDS 2 HEARTS 9 ONE_PAIR 
8: 7777 HEARTS 3 DIAMONDS Q HIGH_CARD 
5: 6666 HEARTS 5 CLUBS 5 ONE_PAIR 
1: 1111 CLUBS 9 CLUBS 3 FLUSH 
4: 2222 SPADES 3 DIAMONDS 6 ONE_PAIR 
3: 8888 SPADES 8 DIAMONDS 7 ONE_PAIR 
7: 5555 SPADES K CLUBS 10 HIGH_CARD 
/showdown 

------------



------------


pot-win/ 
1111: 800 
/pot-win 

------------


seat/ 
button: 4444 2100 8000 
small blind: 3333 1700 8000 
big blind: 7777 2100 8000 
6666 2100 8000 
1111 2900 8000 
2222 2100 8000 
8888 1300 8000 
5555 1700 8000 
/seat 

------------


blind/ 
3333: 50 
7777: 100 
/blind 

------------


hold/ 
SPADES 3 
DIAMONDS 6 
/hold 

------------



------------


inquire/ 
2222 2000 8000 100 call 
1111 2800 8000 100 call 
6666 2000 8000 100 call 
7777 2000 8000 100 blind 
3333 1650 8000 50 blind 
total pot: 450 
/inquire 

------------



------------


flop/ 
SPADES 6 
SPADES 7 
CLUBS A 
/flop 

------------



------------


inquire/ 
2222 2000 8000 100 check 
1111 2800 8000 100 check 
6666 2000 8000 100 check 
7777 2000 8000 100 check 
3333 1600 8000 100 check 
4444 2000 8000 100 call 
5555 1600 8000 100 call 
8888 1200 8000 100 call 
total pot: 800 
/inquire 

------------



------------


turn/ 
CLUBS J 
/turn 

------------



------------


inquire/ 
2222 2000 8000 100 check 
1111 2800 8000 100 check 
6666 2000 8000 100 check 
7777 2000 8000 100 check 
3333 1600 8000 100 check 
4444 2000 8000 100 check 
5555 1600 8000 100 check 
8888 1200 8000 100 check 
total pot: 800 
/inquire 

------------



------------


river/ 
CLUBS 2 
/river 

------------



------------


inquire/ 
2222 2000 8000 100 check 
1111 2800 8000 100 check 
6666 2000 8000 100 check 
7777 2000 8000 100 check 
3333 1600 8000 100 check 
4444 2000 8000 100 check 
5555 1600 8000 100 check 
8888 1200 8000 100 check 
total pot: 800 
/inquire 

------------



------------


showdown/ 
common/ 
SPADES 6 
SPADES 7 
CLUBS A 
CLUBS J 
CLUBS 2 
/common 
2: 3333 DIAMONDS 5 DIAMONDS A ONE_PAIR 
6: 7777 DIAMONDS 2 HEARTS 9 ONE_PAIR 
8: 6666 HEARTS 3 DIAMONDS Q HIGH_CARD 
5: 1111 HEARTS 5 CLUBS 5 ONE_PAIR 
1: 2222 CLUBS 9 CLUBS 3 FLUSH 
4: 8888 SPADES 3 DIAMONDS 6 ONE_PAIR 
3: 5555 SPADES 8 DIAMONDS 7 ONE_PAIR 
7: 4444 SPADES K CLUBS 10 HIGH_CARD 
/showdown 

------------



------------


pot-win/ 
2222: 800 
/pot-win 

------------


seat/ 
button: 3333 1600 8000 
small blind: 7777 2000 8000 
big blind: 6666 2000 8000 
1111 2800 8000 
2222 2800 8000 
8888 1200 8000 
5555 1600 8000 
4444 2000 8000 
/seat 

------------


blind/ 
7777: 50 
6666: 100 
/blind 

------------


hold/ 
CLUBS 9 
CLUBS 3 
/hold 

------------



------------


inquire/ 
2222 2700 8000 100 call 
1111 2700 8000 100 call 
6666 1900 8000 100 blind 
7777 1950 8000 50 blind 
total pot: 350 
/inquire 

------------



------------


flop/ 
SPADES 6 
SPADES 7 
CLUBS A 
/flop 

------------



------------


inquire/ 
2222 2700 8000 100 check 
1111 2700 8000 100 check 
6666 1900 8000 100 check 
7777 1900 8000 100 check 
3333 1500 8000 100 call 
4444 1900 8000 100 call 
5555 1500 8000 100 call 
8888 1100 8000 100 call 
total pot: 800 
/inquire 

------------



------------


turn/ 
CLUBS J 
/turn 

------------



------------


inquire/ 
2222 2700 8000 100 check 
1111 2700 8000 100 check 
6666 1900 8000 100 check 
7777 1900 8000 100 check 
3333 1500 8000 100 check 
4444 1900 8000 100 check 
5555 1500 8000 100 check 
8888 1100 8000 100 check 
total pot: 800 
/inquire 

------------



------------


river/ 
CLUBS 2 
/river 

------------



------------


inquire/ 
2222 2700 8000 100 check 
1111 2700 8000 100 check 
6666 1900 8000 100 check 
7777 1900 8000 100 check 
3333 1500 8000 100 check 
4444 1900 8000 100 check 
5555 1500 8000 100 check 
8888 1100 8000 100 check 
total pot: 800 
/inquire 

------------



------------


showdown/ 
common/ 
SPADES 6 
SPADES 7 
CLUBS A 
CLUBS J 
CLUBS 2 
/common 
2: 7777 DIAMONDS 5 DIAMONDS A ONE_PAIR 
6: 6666 DIAMONDS 2 HEARTS 9 ONE_PAIR 
8: 1111 HEARTS 3 DIAMONDS Q HIGH_CARD 
5: 2222 HEARTS 5 CLUBS 5 ONE_PAIR 
1: 8888 CLUBS 9 CLUBS 3 FLUSH 
4: 5555 SPADES 3 DIAMONDS 6 ONE_PAIR 
3: 4444 SPADES 8 DIAMONDS 7 ONE_PAIR 
7: 3333 SPADES K CLUBS 10 HIGH_CARD 
/showdown 

------------



------------


pot-win/ 
8888: 800 
/pot-win 

------------


seat/ 
button: 7777 1900 8000 
small blind: 6666 1900 8000 
big blind: 1111 2700 8000 
2222 2700 8000 
8888 1900 8000 
5555 1500 8000 
4444 1900 8000 
3333 1500 8000 
/seat 

------------


blind/ 
6666: 50 
1111: 100 
/blind 

------------


hold/ 
HEARTS 5 
CLUBS 5 
/hold 

------------



------------


inquire/ 
2222 2600 8000 100 call 
1111 2600 8000 100 blind 
6666 1850 8000 50 blind 
total pot: 250 
/inquire 

------------



------------


flop/ 
SPADES 6 
SPADES 7 
CLUBS A 
/flop 

------------



------------


inquire/ 
2222 2600 8000 100 check 
1111 2600 8000 100 check 
6666 1800 8000 100 check 
7777 1800 8000 100 call 
3333 1400 8000 100 call 
4444 1800 8000 100 call 
5555 1400 8000 100 call 
8888 1800 8000 100 call 
total pot: 800 
/inquire 

------------



------------


turn/ 
CLUBS J 
/turn 

------------



------------


inquire/ 
2222 2600 8000 100 check 
1111 2600 8000 100 check 
6666 1800 8000 100 check 
7777 1800 8000 100 check 
3333 1400 8000 100 check 
4444 1800 8000 100 check 
5555 1400 8000 100 check 
8888 1800 8000 100 check 
total pot: 800 
/inquire 

------------



------------


river/ 
CLUBS 2 
/river 

------------



------------


inquire/ 
2222 2600 8000 100 check 
1111 2600 8000 100 check 
6666 1800 8000 100 check 
7777 1800 8000 100 check 
3333 1400 8000 100 check 
4444 1800 8000 100 check 
5555 1400 8000 100 check 
8888 1800 8000 100 check 
total pot: 800 
/inquire 

------------



------------


showdown/ 
common/ 
SPADES 6 
SPADES 7 
CLUBS A 
CLUBS J 
CLUBS 2 
/common 
2: 6666 DIAMONDS 5 DIAMONDS A ONE_PAIR 
6: 1111 DIAMONDS 2 HEARTS 9 ONE_PAIR 
8: 2222 HEARTS 3 DIAMONDS Q HIGH_CARD 
5: 8888 HEARTS 5 CLUBS 5 ONE_PAIR 
1: 5555 CLUBS 9 CLUBS 3 FLUSH 
4: 4444 SPADES 3 DIAMONDS 6 ONE_PAIR 
3: 3333 SPADES 8 DIAMONDS 7 ONE_PAIR 
7: 7777 SPADES K CLUBS 10 HIGH_CARD 
/showdown 

------------



------------


pot-win/ 
5555: 800 
/pot-win 

------------


seat/ 
button: 6666 1800 8000 
small blind: 1111 2600 8000 
big blind: 2222 2600 8000 
8888 1800 8000 
5555 2200 8000 
4444 1800 8000 
3333 1400 8000 
7777 1800 8000 
/seat 

------------


blind/ 
1111: 50 
2222: 100 
/blind 

------------


hold/ 
HEARTS 5 
CLUBS 9 
/hold 

------------


inquire/ 
2222 2500 8000 100 blind 
1111 2550 8000 50 blind 
total pot: 150 
/inquire 

------------



------------


flop/ 
CLUBS 2 
CLUBS 5 
DIAMONDS A 
/flop 

------------



------------


inquire/ 
2222 2500 8000 100 check 
1111 2500 8000 100 check 
6666 1700 8000 100 call 
7777 1700 8000 100 call 
3333 1300 8000 100 call 
4444 1700 8000 100 call 
5555 2100 8000 100 call 
8888 1700 8000 100 call 
total pot: 800 
/inquire 

------------



------------


turn/ 
CLUBS 10 
/turn 

------------



------------


inquire/ 
2222 2500 8000 100 check 
1111 2500 8000 100 check 
6666 1700 8000 100 check 
7777 1700 8000 100 check 
3333 1300 8000 100 check 
4444 1700 8000 100 check 
5555 2100 8000 100 check 
8888 1700 8000 100 check 
total pot: 800 
/inquire 

------------



------------


river/ 
SPADES 6 
/river 

------------



------------


inquire/ 
2222 2500 8000 100 check 
1111 2500 8000 100 check 
6666 1700 8000 100 check 
7777 1700 8000 100 check 
3333 1300 8000 100 check 
4444 1700 8000 100 check 
5555 2100 8000 100 check 
8888 1700 8000 100 check 
total pot: 800 
/inquire 

------------



------------


showdown/ 
common/ 
CLUBS 2 
CLUBS 5 
DIAMONDS A 
CLUBS 10 
SPADES 6 
/common 
1: 1111 DIAMONDS 7 HEARTS A ONE_PAIR 
4: 2222 SPADES 7 CLUBS Q HIGH_CARD 
2: 8888 HEARTS 5 CLUBS 9 ONE_PAIR 
6: 5555 CLUBS 3 SPADES 8 HIGH_CARD 
5: 4444 HEARTS 9 SPADES J HIGH_CARD 
6: 3333 CLUBS 8 HEARTS 4 HIGH_CARD 
3: 7777 SPADES Q HEARTS J HIGH_CARD 
4: 6666 DIAMONDS Q HEARTS 7 HIGH_CARD 
/showdown 

------------



------------


pot-win/ 
1111: 800 
/pot-win 

------------


seat/ 
button: 1111 3300 8000 
small blind: 2222 2500 8000 
big blind: 8888 1700 8000 
5555 2100 8000 
4444 1700 8000 
3333 1300 8000 
7777 1700 8000 
6666 1700 8000 
/seat 

------------


blind/ 
2222: 50 
8888: 100 
/blind 

------------


hold/ 
SPADES 7 
CLUBS Q 
/hold 

------------



------------


inquire/ 
2222 2400 8000 100 call 
1111 3200 8000 100 call 
6666 1600 8000 100 call 
7777 1600 8000 100 call 
3333 1200 8000 100 call 
4444 1600 8000 100 call 
5555 2000 8000 100 call 
8888 1600 8000 100 blind 
total pot: 800 
/inquire 

------------



------------


flop/ 
CLUBS 2 
CLUBS 5 
DIAMONDS A 
/flop 

------------



------------


inquire/ 
2222 2400 8000 100 check 
1111 3200 8000 100 call 
6666 1600 8000 100 call 
7777 1600 8000 100 call 
3333 1200 8000 100 call 
4444 1600 8000 100 call 
5555 2000 8000 100 call 
8888 1600 8000 100 check 
total pot: 800 
/inquire 

------------



------------


turn/ 
CLUBS 10 
/turn 

------------



------------


inquire/ 
2222 2400 8000 100 check 
1111 3200 8000 100 check 
6666 1600 8000 100 check 
7777 1600 8000 100 check 
3333 1200 8000 100 check 
4444 1600 8000 100 check 
5555 2000 8000 100 check 
8888 1600 8000 100 check 
total pot: 800 
/inquire 

------------



------------


river/ 
SPADES 6 
/river 

------------



------------


inquire/ 
2222 2400 8000 100 check 
1111 3200 8000 100 check 
6666 1600 8000 100 check 
7777 1600 8000 100 check 
3333 1200 8000 100 check 
4444 1600 8000 100 check 
5555 2000 8000 100 check 
8888 1600 8000 100 check 
total pot: 800 
/inquire 

------------



------------


showdown/ 
common/ 
CLUBS 2 
CLUBS 5 
DIAMONDS A 
CLUBS 10 
SPADES 6 
/common 
1: 2222 DIAMONDS 7 HEARTS A ONE_PAIR 
4: 8888 SPADES 7 CLUBS Q HIGH_CARD 
2: 5555 HEARTS 5 CLUBS 9 ONE_PAIR 
6: 4444 CLUBS 3 SPADES 8 HIGH_CARD 
5: 3333 HEARTS 9 SPADES J HIGH_CARD 
6: 7777 CLUBS 8 HEARTS 4 HIGH_CARD 
3: 6666 SPADES Q HEARTS J HIGH_CARD 
4: 1111 DIAMONDS Q HEARTS 7 HIGH_CARD 
/showdown 

------------



------------


pot-win/ 
2222: 800 
/pot-win 

------------


seat/ 
button: 2222 3200 8000 
small blind: 8888 1600 8000 
big blind: 5555 2000 8000 
4444 1600 8000 
3333 1200 8000 
7777 1600 8000 
6666 1600 8000 
1111 3200 8000 
/seat 

------------


blind/ 
8888: 50 
5555: 100 
/blind 

------------


hold/ 
DIAMONDS 7 
HEARTS A 
/hold 

------------



------------


inquire/ 
2222 3100 8000 100 call 
1111 3100 8000 100 call 
6666 1500 8000 100 call 
7777 1500 8000 100 call 
3333 1100 8000 100 call 
4444 1500 8000 100 call 
5555 1900 8000 100 blind 
8888 1550 8000 50 blind 
total pot: 750 
/inquire 

------------



------------


flop/ 
CLUBS 2 
CLUBS 5 
DIAMONDS A 
/flop 

------------



------------


inquire/ 
2222 3100 8000 100 call 
1111 3100 8000 100 call 
6666 1500 8000 100 call 
7777 1500 8000 100 call 
3333 1100 8000 100 call 
4444 1500 8000 100 call 
5555 1900 8000 100 check 
8888 1500 8000 100 call 
total pot: 800 
/inquire 

------------



------------


turn/ 
CLUBS 10 
/turn 

------------



------------


inquire/ 
2222 3100 8000 100 check 
1111 3100 8000 100 check 
6666 1500 8000 100 check 
7777 1500 8000 100 check 
3333 1100 8000 100 check 
4444 1500 8000 100 check 
5555 1900 8000 100 check 
8888 1500 8000 100 check 
total pot: 800 
/inquire 

------------



------------


river/ 
SPADES 6 
/river 

------------



------------


inquire/ 
2222 3100 8000 100 check 
1111 3100 8000 100 check 
6666 1500 8000 100 check 
7777 1500 8000 100 check 
3333 1100 8000 100 check 
4444 1500 8000 100 check 
5555 1900 8000 100 check 
8888 1500 8000 100 check 
total pot: 800 
/inquire 

------------



------------


showdown/ 
common/ 
CLUBS 2 
CLUBS 5 
DIAMONDS A 
CLUBS 10 
SPADES 6 
/common 
1: 8888 DIAMONDS 7 HEARTS A ONE_PAIR 
4: 5555 SPADES 7 CLUBS Q HIGH_CARD 
2: 4444 HEARTS 5 CLUBS 9 ONE_PAIR 
6: 3333 CLUBS 3 SPADES 8 HIGH_CARD 
5: 7777 HEARTS 9 SPADES J HIGH_CARD 
6: 6666 CLUBS 8 HEARTS 4 HIGH_CARD 
3: 1111 SPADES Q HEARTS J HIGH_CARD 
4: 2222 DIAMONDS Q HEARTS 7 HIGH_CARD 
/showdown 

------------



------------


pot-win/ 
8888: 800 
/pot-win 

------------


seat/ 
button: 8888 2300 8000 
small blind: 5555 1900 8000 
big blind: 4444 1500 8000 
3333 1100 8000 
7777 1500 8000 
6666 1500 8000 
1111 3100 8000 
2222 3100 8000 
/seat 

------------


blind/ 
5555: 50 
4444: 100 
/blind 

------------


hold/ 
DIAMONDS Q 
HEARTS 7 
/hold 

------------



------------


inquire/ 
2222 3000 8000 100 call 
1111 3000 8000 100 call 
6666 1400 8000 100 call 
7777 1400 8000 100 call 
3333 1000 8000 100 call 
4444 1400 8000 100 blind 
5555 1850 8000 50 blind 
total pot: 650 
/inquire 

------------



------------


flop/ 
CLUBS 2 
CLUBS 5 
DIAMONDS A 
/flop 

------------



------------


inquire/ 
2222 3000 8000 100 check 
1111 3000 8000 100 check 
6666 1400 8000 100 check 
7777 1400 8000 100 check 
3333 1000 8000 100 check 
4444 1400 8000 100 check 
5555 1800 8000 100 check 
8888 2200 8000 100 call 
total pot: 800 
/inquire 

------------



------------


turn/ 
CLUBS 10 
/turn 

------------



------------


inquire/ 
2222 3000 8000 100 check 
1111 3000 8000 100 check 
6666 1400 8000 100 check 
7777 1400 8000 100 check 
3333 1000 8000 100 check 
4444 1400 8000 100 check 
5555 1800 8000 100 check 
8888 2200 8000 100 check 
total pot: 800 
/inquire 

------------



------------


river/ 
SPADES 6 
/river 

------------



------------


inquire/ 
2222 3000 8000 100 check 
1111 3000 8000 100 check 
6666 1400 8000 100 check 
7777 1400 8000 100 check 
3333 1000 8000 100 check 
4444 1400 8000 100 check 
5555 1800 8000 100 check 
8888 2200 8000 100 check 
total pot: 800 
/inquire 

------------



------------


showdown/ 
common/ 
CLUBS 2 
CLUBS 5 
DIAMONDS A 
CLUBS 10 
SPADES 6 
/common 
1: 5555 DIAMONDS 7 HEARTS A ONE_PAIR 
4: 4444 SPADES 7 CLUBS Q HIGH_CARD 
2: 3333 HEARTS 5 CLUBS 9 ONE_PAIR 
6: 7777 CLUBS 3 SPADES 8 HIGH_CARD 
5: 6666 HEARTS 9 SPADES J HIGH_CARD 
6: 1111 CLUBS 8 HEARTS 4 HIGH_CARD 
3: 2222 SPADES Q HEARTS J HIGH_CARD 
4: 8888 DIAMONDS Q HEARTS 7 HIGH_CARD 
/showdown 

------------



------------


pot-win/ 
5555: 800 
/pot-win 

------------


seat/ 
button: 5555 2600 8000 
small blind: 4444 1400 8000 
big blind: 3333 1000 8000 
7777 1400 8000 
6666 1400 8000 
1111 3000 8000 
2222 3000 8000 
8888 2200 8000 
/seat 

------------


blind/ 
4444: 50 
3333: 100 
/blind 

------------


hold/ 
SPADES Q 
HEARTS J 
/hold 

------------



------------


inquire/ 
2222 2900 8000 100 call 
1111 2900 8000 100 call 
6666 1300 8000 100 call 
7777 1300 8000 100 call 
3333 900 8000 100 blind 
4444 1350 8000 50 blind 
total pot: 550 
/inquire 

------------



------------


flop/ 
CLUBS 2 
CLUBS 5 
DIAMONDS A 
/flop 

------------



------------


inquire/ 
2222 2900 8000 100 check 
1111 2900 8000 100 check 
6666 1300 8000 100 check 
7777 1300 8000 100 check 
3333 900 8000 100 check 
4444 1300 8000 100 check 
5555 2500 8000 100 call 
8888 2100 8000 100 call 
total pot: 800 
/inquire 

------------



------------


turn/ 
CLUBS 10 
/turn 

------------



------------


inquire/ 
2222 2900 8000 100 check 
1111 2900 8000 100 check 
6666 1300 8000 100 check 
7777 1300 8000 100 check 
3333 900 8000 100 check 
4444 1300 8000 100 check 
5555 2500 8000 100 check 
8888 2100 8000 100 check 
total pot: 800 
/inquire 

------------



------------


river/ 
SPADES 6 
/river 

------------



------------


inquire/ 
2222 2900 8000 100 check 
1111 2900 8000 100 check 
6666 1300 8000 100 check 
7777 1300 8000 100 check 
3333 900 8000 100 check 
4444 1300 8000 100 check 
5555 2500 8000 100 check 
8888 2100 8000 100 check 
total pot: 800 
/inquire 

------------



------------


showdown/ 
common/ 
CLUBS 2 
CLUBS 5 
DIAMONDS A 
CLUBS 10 
SPADES 6 
/common 
1: 4444 DIAMONDS 7 HEARTS A ONE_PAIR 
4: 3333 SPADES 7 CLUBS Q HIGH_CARD 
2: 7777 HEARTS 5 CLUBS 9 ONE_PAIR 
6: 6666 CLUBS 3 SPADES 8 HIGH_CARD 
5: 1111 HEARTS 9 SPADES J HIGH_CARD 
6: 2222 CLUBS 8 HEARTS 4 HIGH_CARD 
3: 8888 SPADES Q HEARTS J HIGH_CARD 
4: 5555 DIAMONDS Q HEARTS 7 HIGH_CARD 
/showdown 

------------



------------


pot-win/ 
4444: 800 
/pot-win 

------------


seat/ 
button: 4444 2100 8000 
small blind: 3333 900 8000 
big blind: 7777 1300 8000 
6666 1300 8000 
1111 2900 8000 
2222 2900 8000 
8888 2100 8000 
5555 2500 8000 
/seat 

------------


blind/ 
3333: 50 
7777: 100 
/blind 

------------


hold/ 
CLUBS 8 
HEARTS 4 
/hold 

------------



------------


inquire/ 
2222 2800 8000 100 call 
1111 2800 8000 100 call 
6666 1200 8000 100 call 
7777 1200 8000 100 blind 
3333 850 8000 50 blind 
total pot: 450 
/inquire 

------------



------------


flop/ 
CLUBS 2 
CLUBS 5 
DIAMONDS A 
/flop 

------------



------------


inquire/ 
2222 2800 8000 100 check 
1111 2800 8000 100 check 
6666 1200 8000 100 check 
7777 1200 8000 100 check 
3333 800 8000 100 check 
4444 2000 8000 100 call 
5555 2400 8000 100 call 
8888 2000 8000 100 call 
total pot: 800 
/inquire 

------------



------------


turn/ 
CLUBS 10 
/turn 

------------



------------


inquire/ 
2222 2800 8000 100 check 
1111 2800 8000 100 check 
6666 1200 8000 100 check 
7777 1200 8000 100 check 
3333 800 8000 100 check 
4444 2000 8000 100 check 
5555 2400 8000 100 check 
8888 2000 8000 100 check 
total pot: 800 
/inquire 

------------



------------


river/ 
SPADES 6 
/river 

------------



------------


inquire/ 
2222 2800 8000 100 check 
1111 2800 8000 100 check 
6666 1200 8000 100 check 
7777 1200 8000 100 check 
3333 800 8000 100 check 
4444 2000 8000 100 check 
5555 2400 8000 100 check 
8888 2000 8000 100 check 
total pot: 800 
/inquire 

------------



------------


showdown/ 
common/ 
CLUBS 2 
CLUBS 5 
DIAMONDS A 
CLUBS 10 
SPADES 6 
/common 
1: 3333 DIAMONDS 7 HEARTS A ONE_PAIR 
4: 7777 SPADES 7 CLUBS Q HIGH_CARD 
2: 6666 HEARTS 5 CLUBS 9 ONE_PAIR 
6: 1111 CLUBS 3 SPADES 8 HIGH_CARD 
5: 2222 HEARTS 9 SPADES J HIGH_CARD 
6: 8888 CLUBS 8 HEARTS 4 HIGH_CARD 
3: 5555 SPADES Q HEARTS J HIGH_CARD 
4: 4444 DIAMONDS Q HEARTS 7 HIGH_CARD 
/showdown 

------------



------------


pot-win/ 
3333: 800 
/pot-win 

------------


seat/ 
button: 3333 1600 8000 
small blind: 7777 1200 8000 
big blind: 6666 1200 8000 
1111 2800 8000 
2222 2800 8000 
8888 2000 8000 
5555 2400 8000 
4444 2000 8000 
/seat 

------------


blind/ 
7777: 50 
6666: 100 
/blind 

------------


hold/ 
HEARTS 4 
CLUBS 2 
/hold 

------------



------------


inquire/ 
2222 2700 8000 100 call 
1111 2700 8000 100 call 
6666 1100 8000 100 blind 
7777 1150 8000 50 blind 
total pot: 350 
/inquire 

------------



------------


flop/ 
CLUBS 8 
HEARTS 3 
DIAMONDS 9 
/flop 

------------



------------


inquire/ 
2222 2700 8000 100 check 
1111 2700 8000 100 check 
6666 1100 8000 100 check 
7777 1100 8000 100 check 
3333 1500 8000 100 call 
4444 1900 8000 100 call 
5555 2300 8000 100 call 
8888 1900 8000 100 call 
total pot: 800 
/inquire 

------------



------------


turn/ 
CLUBS 7 
/turn 

------------



------------


inquire/ 
2222 2700 8000 100 check 
1111 2700 8000 100 check 
6666 1100 8000 100 check 
7777 1100 8000 100 check 
3333 1500 8000 100 check 
4444 1900 8000 100 check 
5555 2300 8000 100 check 
8888 1900 8000 100 check 
total pot: 800 
/inquire 

------------



------------


river/ 
DIAMONDS Q 
/river 

------------



------------


inquire/ 
2222 2700 8000 100 check 
1111 2700 8000 100 check 
6666 1100 8000 100 check 
7777 1100 8000 100 check 
3333 1500 8000 100 check 
4444 1900 8000 100 check 
5555 2300 8000 100 check 
8888 1900 8000 100 check 
total pot: 800 
/inquire 

------------



------------


showdown/ 
common/ 
CLUBS 8 
HEARTS 3 
DIAMONDS 9 
CLUBS 7 
DIAMONDS Q 
/common 
1: 7777 SPADES 10 SPADES 6 STRAIGHT 
6: 6666 DIAMONDS 5 DIAMONDS J HIGH_CARD 
1: 1111 HEARTS 10 CLUBS 6 STRAIGHT 
2: 2222 HEARTS Q SPADES J ONE_PAIR 
7: 8888 HEARTS 4 CLUBS 2 HIGH_CARD 
4: 5555 HEARTS 5 DIAMONDS A HIGH_CARD 
3: 4444 SPADES 7 SPADES 5 ONE_PAIR 
5: 3333 HEARTS 2 DIAMONDS K HIGH_CARD 
/showdown 

------------



------------


pot-win/ 
7777: 400 
1111: 400 
/pot-win 

------------


seat/ 
button: 7777 1500 8000 
small blind: 6666 1100 8000 
big blind: 1111 3100 8000 
2222 2700 8000 
8888 1900 8000 
5555 2300 8000 
4444 1900 8000 
3333 1500 8000 
/seat 

------------


blind/ 
6666: 50 
1111: 100 
/blind 

------------


hold/ 
HEARTS Q 
SPADES J 
/hold 

------------



------------


inquire/ 
2222 2600 8000 100 call 
1111 3000 8000 100 blind 
6666 1050 8000 50 blind 
total pot: 250 
/inquire 

------------



------------


flop/ 
CLUBS 8 
HEARTS 3 
DIAMONDS 9 
/flop 

------------



------------


inquire/ 
2222 2600 8000 100 check 
1111 3000 8000 100 check 
6666 1000 8000 100 check 
7777 1400 8000 100 call 
3333 1400 8000 100 call 
4444 1800 8000 100 call 
5555 2200 8000 100 call 
8888 1800 8000 100 call 
total pot: 800 
/inquire 

------------



------------


turn/ 
CLUBS 7 
/turn 

------------



------------


inquire/ 
2222 2600 8000 100 check 
1111 3000 8000 100 check 
6666 1000 8000 100 check 
7777 1400 8000 100 check 
3333 1400 8000 100 check 
4444 1800 8000 100 check 
5555 2200 8000 100 check 
8888 1800 8000 100 check 
total pot: 800 
/inquire 

------------



------------


river/ 
DIAMONDS Q 
/river 

------------



------------


inquire/ 
2222 2600 8000 100 check 
1111 3000 8000 100 check 
6666 1000 8000 100 check 
7777 1400 8000 100 check 
3333 1400 8000 100 check 
4444 1800 8000 100 check 
5555 2200 8000 100 check 
8888 1800 8000 100 check 
total pot: 800 
/inquire 

------------



------------


showdown/ 
common/ 
CLUBS 8 
HEARTS 3 
DIAMONDS 9 
CLUBS 7 
DIAMONDS Q 
/common 
1: 6666 SPADES 10 SPADES 6 STRAIGHT 
6: 1111 DIAMONDS 5 DIAMONDS J HIGH_CARD 
1: 2222 HEARTS 10 CLUBS 6 STRAIGHT 
2: 8888 HEARTS Q SPADES J ONE_PAIR 
7: 5555 HEARTS 4 CLUBS 2 HIGH_CARD 
4: 4444 HEARTS 5 DIAMONDS A HIGH_CARD 
3: 3333 SPADES 7 SPADES 5 ONE_PAIR 
5: 7777 HEARTS 2 DIAMONDS K HIGH_CARD 
/showdown 

------------



------------


pot-win/ 
6666: 400 
2222: 400 
/pot-win 

------------


seat/ 
button: 6666 1400 8000 
small blind: 1111 3000 8000 
big blind: 2222 3000 8000 
8888 1800 8000 
5555 2200 8000 
4444 1800 8000 
3333 1400 8000 
7777 1400 8000 
/seat 

------------


blind/ 
1111: 50 
2222: 100 
/blind 

------------


hold/ 
HEARTS 10 
CLUBS 6 
/hold 

------------


inquire/ 
2222 2900 8000 100 blind 
1111 2950 8000 50 blind 
total pot: 150 
/inquire 

------------



------------


flop/ 
CLUBS 8 
HEARTS 3 
DIAMONDS 9 
/flop 

------------



------------


inquire/ 
2222 2900 8000 100 check 
1111 2900 8000 100 check 
6666 1300 8000 100 call 
7777 1300 8000 100 call 
3333 1300 8000 100 call 
4444 1700 8000 100 call 
5555 2100 8000 100 call 
8888 1700 8000 100 call 
total pot: 800 
/inquire 

------------



------------


turn/ 
CLUBS 7 
/turn 

------------



------------


inquire/ 
2222 2900 8000 100 check 
1111 2900 8000 100 check 
6666 1300 8000 100 check 
7777 1300 8000 100 check 
3333 1300 8000 100 check 
4444 1700 8000 100 check 
5555 2100 8000 100 check 
8888 1700 8000 100 check 
total pot: 800 
/inquire 

------------



------------


river/ 
DIAMONDS Q 
/river 

------------



------------


inquire/ 
2222 2900 8000 100 check 
1111 2900 8000 100 check 
6666 1300 8000 100 check 
7777 1300 8000 100 check 
3333 1300 8000 100 check 
4444 1700 8000 100 check 
5555 2100 8000 100 check 
8888 1700 8000 100 check 
total pot: 800 
/inquire 

------------



------------


showdown/ 
common/ 
CLUBS 8 
HEARTS 3 
DIAMONDS 9 
CLUBS 7 
DIAMONDS Q 
/common 
1: 1111 SPADES 10 SPADES 6 STRAIGHT 
6: 2222 DIAMONDS 5 DIAMONDS J HIGH_CARD 
1: 8888 HEARTS 10 CLUBS 6 STRAIGHT 
2: 5555 HEARTS Q SPADES J ONE_PAIR 
7: 4444 HEARTS 4 CLUBS 2 HIGH_CARD 
4: 3333 HEARTS 5 DIAMONDS A HIGH_CARD 
3: 7777 SPADES 7 SPADES 5 ONE_PAIR 
5: 6666 HEARTS 2 DIAMONDS K HIGH_CARD 
/showdown 

------------



------------


pot-win/ 
1111: 400 
8888: 400 
/pot-win 

------------


seat/ 
button: 1111 3300 8000 
small blind: 2222 2900 8000 
big blind: 8888 2100 8000 
5555 2100 8000 
4444 1700 8000 
3333 1300 8000 
7777 1300 8000 
6666 1300 8000 
/seat 

------------


blind/ 
2222: 50 
8888: 100 
/blind 

------------


hold/ 
DIAMONDS 5 
DIAMONDS J 
/hold 

------------



------------


inquire/ 
2222 2800 8000 100 call 
1111 3200 8000 100 call 
6666 1200 8000 100 call 
7777 1200 8000 100 call 
3333 1200 8000 100 call 
4444 1600 8000 100 call 
5555 2000 8000 100 call 
8888 2000 8000 100 blind 
total pot: 800 
/inquire 

------------



------------


flop/ 
CLUBS 8 
HEARTS 3 
DIAMONDS 9 
/flop 

------------



------------


inquire/ 
2222 2800 8000 100 check 
1111 3200 8000 100 call 
6666 1200 8000 100 call 
7777 1200 8000 100 call 
3333 1200 8000 100 call 
4444 1600 8000 100 call 
5555 2000 8000 100 call 
8888 2000 8000 100 check 
total pot: 800 
/inquire 

------------



------------


turn/ 
CLUBS 7 
/turn 

------------



------------


inquire/ 
2222 2800 8000 100 check 
1111 3200 8000 100 check 
6666 1200 8000 100 check 
7777 1200 8000 100 check 
3333 1200 8000 100 check 
4444 1600 8000 100 check 
5555 2000 8000 100 check 
8888 2000 8000 100 check 
total pot: 800 
/inquire 

------------



------------


river/ 
DIAMONDS Q 
/river 

------------



------------


inquire/ 
2222 2800 8000 100 check 
1111 3200 8000 100 check 
6666 1200 8000 100 check 
7777 1200 8000 100 check 
3333 1200 8000 100 check 
4444 1600 8000 100 check 
5555 2000 8000 100 check 
8888 2000 8000 100 check 
total pot: 800 
/inquire 

------------



------------


showdown/ 
common/ 
CLUBS 8 
HEARTS 3 
DIAMONDS 9 
CLUBS 7 
DIAMONDS Q 
/common 
1: 2222 SPADES 10 SPADES 6 STRAIGHT 
6: 8888 DIAMONDS 5 DIAMONDS J HIGH_CARD 
1: 5555 HEARTS 10 CLUBS 6 STRAIGHT 
2: 4444 HEARTS Q SPADES J ONE_PAIR 
7: 3333 HEARTS 4 CLUBS 2 HIGH_CARD 
4: 7777 HEARTS 5 DIAMONDS A HIGH_CARD 
3: 6666 SPADES 7 SPADES 5 ONE_PAIR 
5: 1111 HEARTS 2 DIAMONDS K HIGH_CARD 
/showdown 

------------



------------


pot-win/ 
2222: 400 
5555: 400 
/pot-win 

------------


seat/ 
button: 2222 3200 8000 
small blind: 8888 2000 8000 
big blind: 5555 2400 8000 
4444 1600 8000 
3333 1200 8000 
7777 1200 8000 
6666 1200 8000 
1111 3200 8000 
/seat 

------------


blind/ 
8888: 50 
5555: 100 
/blind 

------------


hold/ 
SPADES 10 
SPADES 6 
/hold 

------------



------------


inquire/ 
2222 3100 8000 100 call 
1111 3100 8000 100 call 
6666 1100 8000 100 call 
7777 1100 8000 100 call 
3333 1100 8000 100 call 
4444 1500 8000 100 call 
5555 2300 8000 100 blind 
8888 1950 8000 50 blind 
total pot: 750 
/inquire 

------------



------------


flop/ 
CLUBS 8 
HEARTS 3 
DIAMONDS 9 
/flop 

------------



------------


inquire/ 
2222 3100 8000 100 call 
1111 3100 8000 100 call 
6666 1100 8000 100 call 
7777 1100 8000 100 call 
3333 1100 8000 100 call 
4444 1500 8000 100 call 
5555 2300 8000 100 check 
8888 1900 8000 100 call 
total pot: 800 
/inquire 

------------



------------


turn/ 
CLUBS 7 
/turn 

------------



------------


inquire/ 
2222 3100 8000 100 check 
1111 3100 8000 100 check 
6666 1100 8000 100 check 
7777 1100 8000 100 check 
3333 1100 8000 100 check 
4444 1500 8000 100 check 
5555 2300 8000 100 check 
8888 1900 8000 100 check 
total pot: 800 
/inquire 

------------



------------


river/ 
DIAMONDS Q 
/river 

------------



------------


inquire/ 
2222 3100 8000 100 check 
1111 3100 8000 100 check 
6666 1100 8000 100 check 
7777 1100 8000 100 check 
3333 1100 8000 100 check 
4444 1500 8000 100 check 
5555 2300 8000 100 check 
8888 1900 8000 100 check 
total pot: 800 
/inquire 

------------



------------


showdown/ 
common/ 
CLUBS 8 
HEARTS 3 
DIAMONDS 9 
CLUBS 7 
DIAMONDS Q 
/common 
1: 8888 SPADES 10 SPADES 6 STRAIGHT 
6: 5555 DIAMONDS 5 DIAMONDS J HIGH_CARD 
1: 4444 HEARTS 10 CLUBS 6 STRAIGHT 
2: 3333 HEARTS Q SPADES J ONE_PAIR 
7: 7777 HEARTS 4 CLUBS 2 HIGH_CARD 
4: 6666 HEARTS 5 DIAMONDS A HIGH_CARD 
3: 1111 SPADES 7 SPADES 5 ONE_PAIR 
5: 2222 HEARTS 2 DIAMONDS K HIGH_CARD 
/showdown 

------------



------------


pot-win/ 
8888: 400 
4444: 400 
/pot-win 

------------


seat/ 
button: 8888 2300 8000 
small blind: 5555 2300 8000 
big blind: 4444 1900 8000 
3333 1100 8000 
7777 1100 8000 
6666 1100 8000 
1111 3100 8000 
2222 3100 8000 
/seat 

------------


blind/ 
5555: 50 
4444: 100 
/blind 

------------


hold/ 
SPADES 10 
DIAMONDS 2 
/hold 

------------



------------


inquire/ 
2222 3000 8000 100 call 
1111 3000 8000 100 call 
6666 1000 8000 100 call 
7777 1000 8000 100 call 
3333 1000 8000 100 call 
4444 1800 8000 100 blind 
5555 2250 8000 50 blind 
total pot: 650 
/inquire 

------------



------------


flop/ 
HEARTS 6 
CLUBS 10 
CLUBS 5 
/flop 

------------



------------


inquire/ 
2222 3000 8000 100 check 
1111 3000 8000 100 check 
6666 1000 8000 100 check 
7777 1000 8000 100 check 
3333 1000 8000 100 check 
4444 1800 8000 100 check 
5555 2200 8000 100 check 
8888 2200 8000 100 call 
total pot: 800 
/inquire 

------------



------------


turn/ 
DIAMONDS 3 
/turn 

------------



------------


inquire/ 
2222 3000 8000 100 check 
1111 3000 8000 100 check 
6666 1000 8000 100 check 
7777 1000 8000 100 check 
3333 1000 8000 100 check 
4444 1800 8000 100 check 
5555 2200 8000 100 check 
8888 2200 8000 100 check 
total pot: 800 
/inquire 

------------



------------


river/ 
DIAMONDS A 
/river 

------------



------------


inquire/ 
2222 3000 8000 100 check 
1111 3000 8000 100 check 
6666 1000 8000 100 check 
7777 1000 8000 100 check 
3333 1000 8000 100 check 
4444 1800 8000 100 check 
5555 2200 8000 100 check 
8888 2200 8000 100 check 
total pot: 800 
/inquire 

------------



------------


showdown/ 
common/ 
HEARTS 6 
CLUBS 10 
CLUBS 5 
DIAMONDS 3 
DIAMONDS A 
/common 
7: 5555 SPADES K SPADES Q HIGH_CARD 
2: 4444 SPADES 5 HEARTS 10 TWO_PAIR 
1: 3333 HEARTS 4 SPADES 2 STRAIGHT 
5: 7777 HEARTS 5 SPADES J ONE_PAIR 
6: 6666 CLUBS 4 HEARTS 3 ONE_PAIR 
3: 1111 DIAMONDS Q DIAMONDS 10 ONE_PAIR 
8: 2222 HEARTS J DIAMONDS K HIGH_CARD 
4: 8888 SPADES 10 DIAMONDS 2 ONE_PAIR 
/showdown 

------------



------------


pot-win/ 
3333: 800 
/pot-win 

------------


seat/ 
button: 5555 2200 8000 
small blind: 4444 1800 8000 
big blind: 3333 1800 8000 
7777 1000 8000 
6666 1000 8000 
1111 3000 8000 
2222 3000 8000 
8888 2200 8000 
/seat 

------------


blind/ 
4444: 50 
3333: 100 
/blind 

------------


hold/ 
HEARTS J 
DIAMONDS K 
/hold 

------------



------------


inquire/ 
2222 2900 8000 100 call 
1111 2900 8000 100 call 
6666 900 8000 100 call 
7777 900 8000 100 call 
3333 1700 8000 100 blind 
4444 1750 8000 50 blind 
total pot: 550 
/inquire 

------------



------------


flop/ 
HEARTS 6 
CLUBS 10 
CLUBS 5 
/flop 

------------



------------


inquire/ 
2222 2900 8000 100 check 
1111 2900 8000 100 check 
6666 900 8000 100 check 
7777 900 8000 100 check 
3333 1700 8000 100 check 
4444 1700 8000 100 check 
5555 2100 8000 100 call 
8888 2100 8000 100 call 
total pot: 800 
/inquire 

------------



------------


turn/ 
DIAMONDS 3 
/turn 

------------



------------


inquire/ 
2222 2900 8000 100 check 
1111 2900 8000 100 check 
6666 900 8000 100 check 
7777 900 8000 100 check 
3333 1700 8000 100 check 
4444 1700 8000 100 check 
5555 2100 8000 100 check 
8888 2100 8000 100 check 
total pot: 800 
/inquire 

------------



------------


river/ 
DIAMONDS A 
/river 

------------



------------


inquire/ 
2222 2900 8000 100 check 
1111 2900 8000 100 check 
6666 900 8000 100 check 
7777 900 8000 100 check 
3333 1700 8000 100 check 
4444 1700 8000 100 check 
5555 2100 8000 100 check 
8888 2100 8000 100 check 
total pot: 800 
/inquire 

------------



------------


showdown/ 
common/ 
HEARTS 6 
CLUBS 10 
CLUBS 5 
DIAMONDS 3 
DIAMONDS A 
/common 
7: 4444 SPADES K SPADES Q HIGH_CARD 
2: 3333 SPADES 5 HEARTS 10 TWO_PAIR 
1: 7777 HEARTS 4 SPADES 2 STRAIGHT 
5: 6666 HEARTS 5 SPADES J ONE_PAIR 
6: 1111 CLUBS 4 HEARTS 3 ONE_PAIR 
3: 2222 DIAMONDS Q DIAMONDS 10 ONE_PAIR 
8: 8888 HEARTS J DIAMONDS K HIGH_CARD 
4: 5555 SPADES 10 DIAMONDS 2 ONE_PAIR 
/showdown 

------------



------------


pot-win/ 
7777: 800 
/pot-win 

------------


seat/ 
button: 4444 1700 8000 
small blind: 3333 1700 8000 
big blind: 7777 1700 8000 
6666 900 8000 
1111 2900 8000 
2222 2900 8000 
8888 2100 8000 
5555 2100 8000 
/seat 

------------


blind/ 
3333: 50 
7777: 100 
/blind 

------------


hold/ 
DIAMONDS Q 
DIAMONDS 10 
/hold 

------------



------------


inquire/ 
2222 2800 8000 100 call 
1111 2800 8000 100 call 
6666 800 8000 100 call 
7777 1600 8000 100 blind 
3333 1650 8000 50 blind 
total pot: 450 
/inquire 

------------



------------


flop/ 
HEARTS 6 
CLUBS 10 
CLUBS 5 
/flop 

------------



------------


inquire/ 
2222 2800 8000 100 check 
1111 2800 8000 100 check 
6666 800 8000 100 check 
7777 1600 8000 100 check 
3333 1600 8000 100 check 
4444 1600 8000 100 call 
5555 2000 8000 100 call 
8888 2000 8000 100 call 
total pot: 800 
/inquire 

------------



------------


turn/ 
DIAMONDS 3 
/turn 

------------



------------


inquire/ 
2222 2800 8000 100 check 
1111 2800 8000 100 check 
6666 800 8000 100 check 
7777 1600 8000 100 check 
3333 1600 8000 100 check 
4444 1600 8000 100 check 
5555 2000 8000 100 check 
8888 2000 8000 100 check 
total pot: 800 
/inquire 

------------



------------


river/ 
DIAMONDS A 
/river 

------------



------------


inquire/ 
2222 2800 8000 100 check 
1111 2800 8000 100 check 
6666 800 8000 100 check 
7777 1600 8000 100 check 
3333 1600 8000 100 check 
4444 1600 8000 100 check 
5555 2000 8000 100 check 
8888 2000 8000 100 check 
total pot: 800 
/inquire 

------------



------------


showdown/ 
common/ 
HEARTS 6 
CLUBS 10 
CLUBS 5 
DIAMONDS 3 
DIAMONDS A 
/common 
7: 3333 SPADES K SPADES Q HIGH_CARD 
2: 7777 SPADES 5 HEARTS 10 TWO_PAIR 
1: 6666 HEARTS 4 SPADES 2 STRAIGHT 
5: 1111 HEARTS 5 SPADES J ONE_PAIR 
6: 2222 CLUBS 4 HEARTS 3 ONE_PAIR 
3: 8888 DIAMONDS Q DIAMONDS 10 ONE_PAIR 
8: 5555 HEARTS J DIAMONDS K HIGH_CARD 
4: 4444 SPADES 10 DIAMONDS 2 ONE_PAIR 
/showdown 

------------



------------


pot-win/ 
6666: 800 
/pot-win 

------------


seat/ 
button: 3333 1600 8000 
small blind: 7777 1600 8000 
big blind: 6666 1600 8000 
1111 2800 8000 
2222 2800 8000 
8888 2000 8000 
5555 2000 8000 
4444 1600 8000 
/seat 

------------


blind/ 
7777: 50 
6666: 100 
/blind 

------------


hold/ 
CLUBS 4 
HEARTS 3 
/hold 

------------



------------


inquire/ 
2222 2700 8000 100 call 
1111 2700 8000 100 call 
6666 1500 8000 100 blind 
7777 1550 8000 50 blind 
total pot: 350 
/inquire 

------------



------------


flop/ 
HEARTS 6 
CLUBS 10 
CLUBS 5 
/flop 

------------



------------


inquire/ 
2222 2700 8000 100 check 
1111 2700 8000 100 check 
6666 1500 8000 100 check 
7777 1500 8000 100 check 
3333 1500 8000 100 call 
4444 1500 8000 100 call 
5555 1900 8000 100 call 
8888 1900 8000 100 call 
total pot: 800 
/inquire 

------------



------------


turn/ 
DIAMONDS 3 
/turn 

------------



------------


inquire/ 
2222 2700 8000 100 check 
1111 2700 8000 100 check 
6666 1500 8000 100 check 
7777 1500 8000 100 check 
3333 1500 8000 100 check 
4444 1500 8000 100 check 
5555 1900 8000 100 check 
8888 1900 8000 100 check 
total pot: 800 
/inquire 

------------



------------


river/ 
DIAMONDS A 
/river 

------------



------------


inquire/ 
2222 2700 8000 100 check 
1111 2700 8000 100 check 
6666 1500 8000 100 check 
7777 1500 8000 100 check 
3333 1500 8000 100 check 
4444 1500 8000 100 check 
5555 1900 8000 100 check 
8888 1900 8000 100 check 
total pot: 800 
/inquire 

------------



------------


showdown/ 
common/ 
HEARTS 6 
CLUBS 10 
CLUBS 5 
DIAMONDS 3 
DIAMONDS A 
/common 
7: 7777 SPADES K SPADES Q HIGH_CARD 
2: 6666 SPADES 5 HEARTS 10 TWO_PAIR 
1: 1111 HEARTS 4 SPADES 2 STRAIGHT 
5: 2222 HEARTS 5 SPADES J ONE_PAIR 
6: 8888 CLUBS 4 HEARTS 3 ONE_PAIR 
3: 5555 DIAMONDS Q DIAMONDS 10 ONE_PAIR 
8: 4444 HEARTS J DIAMONDS K HIGH_CARD 
4: 3333 SPADES 10 DIAMONDS 2 ONE_PAIR 
/showdown 

------------



------------


pot-win/ 
1111: 800 
/pot-win 

------------


seat/ 
button: 7777 1500 8000 
small blind: 6666 1500 8000 
big blind: 1111 3500 8000 
2222 2700 8000 
8888 1900 8000 
5555 1900 8000 
4444 1500 8000 
3333 1500 8000 
/seat 

------------


blind/ 
6666: 50 
1111: 100 
/blind 

------------


hold/ 
HEARTS 5 
SPADES J 
/hold 

------------



------------


inquire/ 
2222 2600 8000 100 call 
1111 3400 8000 100 blind 
6666 1450 8000 50 blind 
total pot: 250 
/inquire 

------------



------------


flop/ 
HEARTS 6 
CLUBS 10 
CLUBS 5 
/flop 

------------



------------


inquire/ 
2222 2600 8000 100 check 
1111 3400 8000 100 check 
6666 1400 8000 100 check 
7777 1400 8000 100 call 
3333 1400 8000 100 call 
4444 1400 8000 100 call 
5555 1800 8000 100 call 
8888 1800 8000 100 call 
total pot: 800 
/inquire 

------------



------------


turn/ 
DIAMONDS 3 
/turn 

------------



------------


inquire/ 
2222 2600 8000 100 check 
1111 3400 8000 100 check 
6666 1400 8000 100 check 
7777 1400 8000 100 check 
3333 1400 8000 100 check 
4444 1400 8000 100 check 
5555 1800 8000 100 check 
8888 1800 8000 100 check 
total pot: 800 
/inquire 

------------



------------


river/ 
DIAMONDS A 
/river 

------------



------------


inquire/ 
2222 2600 8000 100 check 
1111 3400 8000 100 check 
6666 1400 8000 100 check 
7777 1400 8000 100 check 
3333 1400 8000 100 check 
4444 1400 8000 100 check 
5555 1800 8000 100 check 
8888 1800 8000 100 check 
total pot: 800 
/inquire 

------------



------------


showdown/ 
common/ 
HEARTS 6 
CLUBS 10 
CLUBS 5 
DIAMONDS 3 
DIAMONDS A 
/common 
7: 6666 SPADES K SPADES Q HIGH_CARD 
2: 1111 SPADES 5 HEARTS 10 TWO_PAIR 
1: 2222 HEARTS 4 SPADES 2 STRAIGHT 
5: 8888 HEARTS 5 SPADES J ONE_PAIR 
6: 5555 CLUBS 4 HEARTS 3 ONE_PAIR 
3: 4444 DIAMONDS Q DIAMONDS 10 ONE_PAIR 
8: 3333 HEARTS J DIAMONDS K HIGH_CARD 
4: 7777 SPADES 10 DIAMONDS 2 ONE_PAIR 
/showdown 

------------



------------


pot-win/ 
2222: 800 
/pot-win 

------------


seat/ 
button: 6666 1400 8000 
small blind: 1111 3400 8000 
big blind: 2222 3400 8000 
8888 1800 8000 
5555 1800 8000 
4444 1400 8000 
3333 1400 8000 
7777 1400 8000 
/seat 

------------


blind/ 
1111: 50 
2222: 100 
/blind 

------------


hold/ 
HEARTS 4 
SPADES 2 
/hold 

------------


inquire/ 
2222 3300 8000 100 blind 
1111 3350 8000 50 blind 
total pot: 150 
/inquire 

------------



------------


flop/ 
HEARTS 6 
CLUBS 10 
CLUBS 5 
/flop 

------------



------------


inquire/ 
2222 3300 8000 100 check 
1111 3300 8000 100 check 
6666 1300 8000 100 call 
7777 1300 8000 100 call 
3333 1300 8000 100 call 
4444 1300 8000 100 call 
5555 1700 8000 100 call 
8888 1700 8000 100 call 
total pot: 800 
/inquire 

------------



------------


turn/ 
DIAMONDS 3 
/turn 

------------



------------


inquire/ 
2222 3300 8000 100 check 
1111 3300 8000 100 check 
6666 1300 8000 100 check 
7777 1300 8000 100 check 
3333 1300 8000 100 check 
4444 1300 8000 100 check 
5555 1700 8000 100 check 
8888 1700 8000 100 check 
total pot: 800 
/inquire 

------------



------------


river/ 
DIAMONDS A 
/river 

------------



------------


inquire/ 
2222 3300 8000 100 check 
1111 3300 8000 100 check 
6666 1300 8000 100 check 
7777 1300 8000 100 check 
3333 1300 8000 100 check 
4444 1300 8000 100 check 
5555 1700 8000 100 check 
8888 1700 8000 100 check 
total pot: 800 
/inquire 

------------



------------


showdown/ 
common/ 
HEARTS 6 
CLUBS 10 
CLUBS 5 
DIAMONDS 3 
DIAMONDS A 
/common 
7: 1111 SPADES K SPADES Q HIGH_CARD 
2: 2222 SPADES 5 HEARTS 10 TWO_PAIR 
1: 8888 HEARTS 4 SPADES 2 STRAIGHT 
5: 5555 HEARTS 5 SPADES J ONE_PAIR 
6: 4444 CLUBS 4 HEARTS 3 ONE_PAIR 
3: 3333 DIAMONDS Q DIAMONDS 10 ONE_PAIR 
8: 7777 HEARTS J DIAMONDS K HIGH_CARD 
4: 6666 SPADES 10 DIAMONDS 2 ONE_PAIR 
/showdown 

------------



------------


pot-win/ 
8888: 800 
/pot-win 

------------


seat/ 
button: 1111 3300 8000 
small blind: 2222 3300 8000 
big blind: 8888 2500 8000 
5555 1700 8000 
4444 1300 8000 
3333 1300 8000 
7777 1300 8000 
6666 1300 8000 
/seat 

------------


blind/ 
2222: 50 
8888: 100 
/blind 

------------


hold/ 
DIAMONDS Q 
HEARTS A 
/hold 

------------



------------


inquire/ 
2222 3200 8000 100 call 
1111 3200 8000 100 call 
6666 1200 8000 100 call 
7777 1200 8000 100 call 
3333 1200 8000 100 call 
4444 1200 8000 100 call 
5555 1600 8000 100 call 
8888 2400 8000 100 blind 
total pot: 800 
/inquire 

------------



------------


flop/ 
HEARTS J 
CLUBS 4 
HEARTS 10 
/flop 

------------



------------


inquire/ 
2222 3200 8000 100 check 
1111 3200 8000 100 call 
6666 1200 8000 100 call 
7777 1200 8000 100 call 
3333 1200 8000 100 call 
4444 1200 8000 100 call 
5555 1600 8000 100 call 
8888 2400 8000 100 check 
total pot: 800 
/inquire 

------------



------------


turn/ 
CLUBS 10 
/turn 

------------



------------


inquire/ 
2222 3200 8000 100 check 
1111 3200 8000 100 check 
6666 1200 8000 100 check 
7777 1200 8000 100 check 
3333 1200 8000 100 check 
4444 1200 8000 100 check 
5555 1600 8000 100 check 
8888 2400 8000 100 check 
total pot: 800 
/inquire 

------------



------------


river/ 
SPADES 5 
/river 

------------



------------


inquire/ 
2222 3200 8000 100 check 
1111 3200 8000 100 check 
6666 1200 8000 100 check 
7777 1200 8000 100 check 
3333 1200 8000 100 check 
4444 1200 8000 100 check 
5555 1600 8000 100 check 
8888 2400 8000 100 check 
total pot: 800 
/inquire 

------------



------------


showdown/ 
common/ 
HEARTS J 
CLUBS 4 
HEARTS 10 
CLUBS 10 
SPADES 5 
/common 
7: 2222 SPADES 9 CLUBS 2 ONE_PAIR 
4: 8888 DIAMONDS Q HEARTS A ONE_PAIR 
5: 5555 SPADES A CLUBS 3 ONE_PAIR 
3: 4444 DIAMONDS 5 HEARTS 2 TWO_PAIR 
1: 3333 DIAMONDS 3 CLUBS J TWO_PAIR 
6: 7777 SPADES 7 CLUBS K ONE_PAIR 
5: 6666 SPADES 2 DIAMONDS A ONE_PAIR 
2: 1111 DIAMONDS K HEARTS 5 TWO_PAIR 
/showdown 

------------



------------


pot-win/ 
3333: 800 
/pot-win 

------------


seat/ 
button: 2222 3200 8000 
small blind: 8888 2400 8000 
big blind: 5555 1600 8000 
4444 1200 8000 
3333 2000 8000 
7777 1200 8000 
6666 1200 8000 
1111 3200 8000 
/seat 

------------


blind/ 
8888: 50 
5555: 100 
/blind 

------------


hold/ 
SPADES 9 
CLUBS 2 
/hold 

------------



------------


inquire/ 
2222 3100 8000 100 call 
1111 3100 8000 100 call 
6666 1100 8000 100 call 
7777 1100 8000 100 call 
3333 1900 8000 100 call 
4444 1100 8000 100 call 
5555 1500 8000 100 blind 
8888 2350 8000 50 blind 
total pot: 750 
/inquire 

------------



------------


flop/ 
HEARTS J 
CLUBS 4 
HEARTS 10 
/flop 

------------



------------


inquire/ 
2222 3100 8000 100 call 
1111 3100 8000 100 call 
6666 1100 8000 100 call 
7777 1100 8000 100 call 
3333 1900 8000 100 call 
4444 1100 8000 100 call 
5555 1500 8000 100 check 
8888 2300 8000 100 call 
total pot: 800 
/inquire 

------------



------------


turn/ 
CLUBS 10 
/turn 

------------



------------


inquire/ 
2222 3100 8000 100 check 
1111 3100 8000 100 check 
6666 1100 8000 100 check 
7777 1100 8000 100 check 
3333 1900 8000 100 check 
4444 1100 8000 100 check 
5555 1500 8000 100 check 
8888 2300 8000 100 check 
total pot: 800 
/inquire 

------------



------------


river/ 
SPADES 5 
/river 

------------



------------


inquire/ 
2222 3100 8000 100 check 
1111 3100 8000 100 check 
6666 1100 8000 100 check 
7777 1100 8000 100 check 
3333 1900 8000 100 check 
4444 1100 8000 100 check 
5555 1500 8000 100 check 
8888 2300 8000 100 check 
total pot: 800 
/inquire 

------------



------------


showdown/ 
common/ 
HEARTS J 
CLUBS 4 
HEARTS 10 
CLUBS 10 
SPADES 5 
/common 
7: 8888 SPADES 9 CLUBS 2 ONE_PAIR 
4: 5555 DIAMONDS Q HEARTS A ONE_PAIR 
5: 4444 SPADES A CLUBS 3 ONE_PAIR 
3: 3333 DIAMONDS 5 HEARTS 2 TWO_PAIR 
1: 7777 DIAMONDS 3 CLUBS J TWO_PAIR 
6: 6666 SPADES 7 CLUBS K ONE_PAIR 
5: 1111 SPADES 2 DIAMONDS A ONE_PAIR 
2: 2222 DIAMONDS K HEARTS 5 TWO_PAIR 
/showdown 

------------



------------


pot-win/ 
7777: 800 
/pot-win 

------------


seat/ 
button: 8888 2300 8000 
small blind: 5555 1500 8000 
big blind: 4444 1100 8000 
3333 1900 8000 
7777 1900 8000 
6666 1100 8000 
1111 3100 8000 
2222 3100 8000 
/seat 

------------


blind/ 
5555: 50 
4444: 100 
/blind 

------------


hold/ 
DIAMONDS K 
HEARTS 5 
/hold 

------------



------------


inquire/ 
2222 3000 8000 100 call 
1111 3000 8000 100 call 
6666 1000 8000 100 call 
7777 1800 8000 100 call 
3333 1800 8000 100 call 
4444 1000 8000 100 blind 
5555 1450 8000 50 blind 
total pot: 650 
/inquire 

------------



------------


flop/ 
HEARTS J 
CLUBS 4 
HEARTS 10 
/flop 

------------



------------


inquire/ 
2222 3000 8000 100 check 
1111 3000 8000 100 check 
6666 1000 8000 100 check 
7777 1800 8000 100 check 
3333 1800 8000 100 check 
4444 1000 8000 100 check 
5555 1400 8000 100 check 
8888 2200 8000 100 call 
total pot: 800 
/inquire 

------------



------------


turn/ 
CLUBS 10 
/turn 

------------



------------


inquire/ 
2222 3000 8000 100 check 
1111 3000 8000 100 check 
6666 1000 8000 100 check 
7777 1800 8000 100 check 
3333 1800 8000 100 check 
4444 1000 8000 100 check 
5555 1400 8000 100 check 
8888 2200 8000 100 check 
total pot: 800 
/inquire 

------------



------------


river/ 
SPADES 5 
/river 

------------



------------


inquire/ 
2222 3000 8000 100 check 
1111 3000 8000 100 check 
6666 1000 8000 100 check 
7777 1800 8000 100 check 
3333 1800 8000 100 check 
4444 1000 8000 100 check 
5555 1400 8000 100 check 
8888 2200 8000 100 check 
total pot: 800 
/inquire 

------------



------------


showdown/ 
common/ 
HEARTS J 
CLUBS 4 
HEARTS 10 
CLUBS 10 
SPADES 5 
/common 
7: 5555 SPADES 9 CLUBS 2 ONE_PAIR 
4: 4444 DIAMONDS Q HEARTS A ONE_PAIR 
5: 3333 SPADES A CLUBS 3 ONE_PAIR 
3: 7777 DIAMONDS 5 HEARTS 2 TWO_PAIR 
1: 6666 DIAMONDS 3 CLUBS J TWO_PAIR 
6: 1111 SPADES 7 CLUBS K ONE_PAIR 
5: 2222 SPADES 2 DIAMONDS A ONE_PAIR 
2: 8888 DIAMONDS K HEARTS 5 TWO_PAIR 
/showdown 

------------



------------


pot-win/ 
6666: 800 
/pot-win 

------------


seat/ 
button: 5555 1400 8000 
small blind: 4444 1000 8000 
big blind: 3333 1800 8000 
7777 1800 8000 
6666 1800 8000 
1111 3000 8000 
2222 3000 8000 
8888 2200 8000 
/seat 

------------


blind/ 
4444: 50 
3333: 100 
/blind 

------------


hold/ 
SPADES 2 
DIAMONDS A 
/hold 

------------



------------


inquire/ 
2222 2900 8000 100 call 
1111 2900 8000 100 call 
6666 1700 8000 100 call 
7777 1700 8000 100 call 
3333 1700 8000 100 blind 
4444 950 8000 50 blind 
total pot: 550 
/inquire 

------------



------------


flop/ 
HEARTS J 
CLUBS 4 
HEARTS 10 
/flop 

------------



------------


inquire/ 
2222 2900 8000 100 check 
1111 2900 8000 100 check 
6666 1700 8000 100 check 
7777 1700 8000 100 check 
3333 1700 8000 100 check 
4444 900 8000 100 check 
5555 1300 8000 100 call 
8888 2100 8000 100 call 
total pot: 800 
/inquire 

------------



------------


turn/ 
CLUBS 10 
/turn 

------------



------------


inquire/ 
2222 2900 8000 100 check 
1111 2900 8000 100 check 
6666 1700 8000 100 check 
7777 1700 8000 100 check 
3333 1700 8000 100 check 
4444 900 8000 100 check 
5555 1300 8000 100 check 
8888 2100 8000 100 check 
total pot: 800 
/inquire 

------------



------------


river/ 
SPADES 5 
/river 

------------



------------


inquire/ 
2222 2900 8000 100 check 
1111 2900 8000 100 check 
6666 1700 8000 100 check 
7777 1700 8000 100 check 
3333 1700 8000 100 check 
4444 900 8000 100 check 
5555 1300 8000 100 check 
8888 2100 8000 100 check 
total pot: 800 
/inquire 

------------



------------


showdown/ 
common/ 
HEARTS J 
CLUBS 4 
HEARTS 10 
CLUBS 10 
SPADES 5 
/common 
7: 4444 SPADES 9 CLUBS 2 ONE_PAIR 
4: 3333 DIAMONDS Q HEARTS A ONE_PAIR 
5: 7777 SPADES A CLUBS 3 ONE_PAIR 
3: 6666 DIAMONDS 5 HEARTS 2 TWO_PAIR 
1: 1111 DIAMONDS 3 CLUBS J TWO_PAIR 
6: 2222 SPADES 7 CLUBS K ONE_PAIR 
5: 8888 SPADES 2 DIAMONDS A ONE_PAIR 
2: 5555 DIAMONDS K HEARTS 5 TWO_PAIR 
/showdown 

------------



------------


pot-win/ 
1111: 800 
/pot-win 

------------


seat/ 
button: 4444 900 8000 
small blind: 3333 1700 8000 
big blind: 7777 1700 8000 
6666 1700 8000 
1111 3700 8000 
2222 2900 8000 
8888 2100 8000 
5555 1300 8000 
/seat 

------------


blind/ 
3333: 50 
7777: 100 
/blind 

------------


hold/ 
SPADES 7 
CLUBS K 
/hold 

------------



------------


inquire/ 
2222 2800 8000 100 call 
1111 3600 8000 100 call 
6666 1600 8000 100 call 
7777 1600 8000 100 blind 
3333 1650 8000 50 blind 
total pot: 450 
/inquire 

------------



------------


flop/ 
HEARTS J 
CLUBS 4 
HEARTS 10 
/flop 

------------



------------


inquire/ 
2222 2800 8000 100 check 
1111 3600 8000 100 check 
6666 1600 8000 100 check 
7777 1600 8000 100 check 
3333 1600 8000 100 check 
4444 800 8000 100 call 
5555 1200 8000 100 call 
8888 2000 8000 100 call 
total pot: 800 
/inquire 

------------



------------


turn/ 
CLUBS 10 
/turn 

------------



------------


inquire/ 
2222 2800 8000 100 check 
1111 3600 8000 100 check 
6666 1600 8000 100 check 
7777 1600 8000 100 check 
3333 1600 8000 100 check 
4444 800 8000 100 check 
5555 1200 8000 100 check 
8888 2000 8000 100 check 
total pot: 800 
/inquire 

------------



------------


river/ 
SPADES 5 
/river 

------------



------------


inquire/ 
2222 2800 8000 100 check 
1111 3600 8000 100 check 
6666 1600 8000 100 check 
7777 1600 8000 100 check 
3333 1600 8000 100 check 
4444 800 8000 100 check 
5555 1200 8000 100 check 
8888 2000 8000 100 check 
total pot: 800 
/inquire 

------------



------------


showdown/ 
common/ 
HEARTS J 
CLUBS 4 
HEARTS 10 
CLUBS 10 
SPADES 5 
/common 
7: 3333 SPADES 9 CLUBS 2 ONE_PAIR 
4: 7777 DIAMONDS Q HEARTS A ONE_PAIR 
5: 6666 SPADES A CLUBS 3 ONE_PAIR 
3: 1111 DIAMONDS 5 HEARTS 2 TWO_PAIR 
1: 2222 DIAMONDS 3 CLUBS J TWO_PAIR 
6: 8888 SPADES 7 CLUBS K ONE_PAIR 
5: 5555 SPADES 2 DIAMONDS A ONE_PAIR 
2: 4444 DIAMONDS K HEARTS 5 TWO_PAIR 
/showdown 

------------



------------


pot-win/ 
2222: 800 
/pot-win 

------------


seat/ 
button: 3333 1600 8000 
small blind: 7777 1600 8000 
big blind: 6666 1600 8000 
1111 3600 8000 
2222 3600 8000 
8888 2000 8000 
5555 1200 8000 
4444 800 8000 
/seat 

------------


blind/ 
7777: 50 
6666: 100 
/blind 

------------


hold/ 
DIAMONDS 3 
CLUBS J 
/hold 

------------



------------


inquire/ 
2222 3500 8000 100 call 
1111 3500 8000 100 call 
6666 1500 8000 100 blind 
7777 1550 8000 50 blind 
total pot: 350 
/inquire 

------------



------------


flop/ 
HEARTS J 
CLUBS 4 
HEARTS 10 
/flop 

------------



------------


inquire/ 
2222 3500 8000 100 check 
1111 3500 8000 100 check 
6666 1500 8000 100 check 
7777 1500 8000 100 check 
3333 1500 8000 100 call 
4444 700 8000 100 call 
5555 1100 8000 100 call 
8888 1900 8000 100 call 
total pot: 800 
/inquire 

------------



------------


turn/ 
CLUBS 10 
/turn 

------------



------------


inquire/ 
2222 3500 8000 100 check 
1111 3500 8000 100 check 
6666 1500 8000 100 check 
7777 1500 8000 100 check 
3333 1500 8000 100 check 
4444 700 8000 100 check 
5555 1100 8000 100 check 
8888 1900 8000 100 check 
total pot: 800 
/inquire 

------------



------------


river/ 
SPADES 5 
/river 

------------



------------


inquire/ 
2222 3500 8000 100 check 
1111 3500 8000 100 check 
6666 1500 8000 100 check 
7777 1500 8000 100 check 
3333 1500 8000 100 check 
4444 700 8000 100 check 
5555 1100 8000 100 check 
8888 1900 8000 100 check 
total pot: 800 
/inquire 

------------



------------


showdown/ 
common/ 
HEARTS J 
CLUBS 4 
HEARTS 10 
CLUBS 10 
SPADES 5 
/common 
7: 7777 SPADES 9 CLUBS 2 ONE_PAIR 
4: 6666 DIAMONDS Q HEARTS A ONE_PAIR 
5: 1111 SPADES A CLUBS 3 ONE_PAIR 
3: 2222 DIAMONDS 5 HEARTS 2 TWO_PAIR 
1: 8888 DIAMONDS 3 CLUBS J TWO_PAIR 
6: 5555 SPADES 7 CLUBS K ONE_PAIR 
5: 4444 SPADES 2 DIAMONDS A ONE_PAIR 
2: 3333 DIAMONDS K HEARTS 5 TWO_PAIR 
/showdown 

------------



------------


pot-win/ 
8888: 800 
/pot-win 

------------


seat/ 
button: 7777 1500 8000 
small blind: 6666 1500 8000 
big blind: 1111 3500 8000 
2222 3500 8000 
8888 2700 8000 
5555 1100 8000 
4444 700 8000 
3333 1500 8000 
/seat 

------------


blind/ 
6666: 50 
1111: 100 
/blind 

------------


hold/ 
HEARTS 4 
CLUBS 8 
/hold 

------------



------------


inquire/ 
2222 3400 8000 100 call 
1111 3400 8000 100 blind 
6666 1450 8000 50 blind 
total pot: 250 
/inquire 

------------



------------


flop/ 
CLUBS 6 
CLUBS 7 
SPADES 8 
/flop 

------------



------------


inquire/ 
2222 3400 8000 100 check 
1111 3400 8000 100 check 
6666 1400 8000 100 check 
7777 1400 8000 100 call 
3333 1400 8000 100 call 
4444 600 8000 100 call 
5555 1000 8000 100 call 
8888 2600 8000 100 call 
total pot: 800 
/inquire 

------------



------------


turn/ 
DIAMONDS 6 
/turn 

------------



------------


inquire/ 
2222 3400 8000 100 check 
1111 3400 8000 100 check 
6666 1400 8000 100 check 
7777 1400 8000 100 check 
3333 1400 8000 100 check 
4444 600 8000 100 check 
5555 1000 8000 100 check 
8888 2600 8000 100 check 
total pot: 800 
/inquire 

------------



------------


river/ 
DIAMONDS 2 
/river 

------------



------------


inquire/ 
2222 3400 8000 100 check 
1111 3400 8000 100 check 
6666 1400 8000 100 check 
7777 1400 8000 100 check 
3333 1400 8000 100 check 
4444 600 8000 100 check 
5555 1000 8000 100 check 
8888 2600 8000 100 check 
total pot: 800 
/inquire 

------------



------------


showdown/ 
common/ 
CLUBS 6 
CLUBS 7 
SPADES 8 
DIAMONDS 6 
DIAMONDS 2 
/common 
4: 6666 HEARTS 7 DIAMONDS 4 TWO_PAIR 
1: 1111 SPADES 6 CLUBS K THREE_OF_A_KIND 
5: 2222 CLUBS J HEARTS K ONE_PAIR 
3: 8888 HEARTS 4 CLUBS 8 TWO_PAIR 
7: 5555 HEARTS J SPADES 3 ONE_PAIR 
6: 4444 CLUBS 9 HEARTS Q ONE_PAIR 
4: 3333 SPADES 7 CLUBS 5 TWO_PAIR 
2: 7777 HEARTS 6 SPADES 4 THREE_OF_A_KIND 
/showdown 

------------



------------


pot-win/ 
1111: 800 
/pot-win 

------------


seat/ 
button: 6666 1400 8000 
small blind: 1111 4200 8000 
big blind: 2222 3400 8000 
8888 2600 8000 
5555 1000 8000 
4444 600 8000 
3333 1400 8000 
7777 1400 8000 
/seat 

------------


blind/ 
1111: 50 
2222: 100 
/blind 

------------


hold/ 
CLUBS J 
HEARTS K 
/hold 

------------


inquire/ 
2222 3300 8000 100 blind 
1111 4150 8000 50 blind 
total pot: 150 
/inquire 

------------



------------


flop/ 
CLUBS 6 
CLUBS 7 
SPADES 8 
/flop 

------------



------------


inquire/ 
2222 3300 8000 100 check 
1111 4100 8000 100 check 
6666 1300 8000 100 call 
7777 1300 8000 100 call 
3333 1300 8000 100 call 
4444 500 8000 100 call 
5555 900 8000 100 call 
8888 2500 8000 100 call 
total pot: 800 
/inquire 

------------



------------


turn/ 
DIAMONDS 6 
/turn 

------------



------------


inquire/ 
2222 3300 8000 100 check 
1111 4100 8000 100 check 
6666 1300 8000 100 check 
7777 1300 8000 100 check 
3333 1300 8000 100 check 
4444 500 8000 100 check 
5555 900 8000 100 check 
8888 2500 8000 100 check 
total pot: 800 
/inquire 

------------



------------


river/ 
DIAMONDS 2 
/river 

------------



------------


inquire/ 
2222 3300 8000 100 check 
1111 4100 8000 100 check 
6666 1300 8000 100 check 
7777 1300 8000 100 check 
3333 1300 8000 100 check 
4444 500 8000 100 check 
5555 900 8000 100 check 
8888 2500 8000 100 check 
total pot: 800 
/inquire 

------------



------------


showdown/ 
common/ 
CLUBS 6 
CLUBS 7 
SPADES 8 
DIAMONDS 6 
DIAMONDS 2 
/common 
4: 1111 HEARTS 7 DIAMONDS 4 TWO_PAIR 
1: 2222 SPADES 6 CLUBS K THREE_OF_A_KIND 
5: 8888 CLUBS J HEARTS K ONE_PAIR 
3: 5555 HEARTS 4 CLUBS 8 TWO_PAIR 
7: 4444 HEARTS J SPADES 3 ONE_PAIR 
6: 3333 CLUBS 9 HEARTS Q ONE_PAIR 
4: 7777 SPADES 7 CLUBS 5 TWO_PAIR 
2: 6666 HEARTS 6 SPADES 4 THREE_OF_A_KIND 
/showdown 

------------



------------


pot-win/ 
2222: 800 
/pot-win 

------------


seat/ 
button: 1111 4100 8000 
small blind: 2222 4100 8000 
big blind: 8888 2500 8000 
5555 900 8000 
4444 500 8000 
3333 1300 8000 
7777 1300 8000 
6666 1300 8000 
/seat 

------------


blind/ 
2222: 50 
8888: 100 
/blind 

------------


hold/ 
SPADES 6 
CLUBS K 
/hold 

------------



------------


inquire/ 
2222 4000 8000 100 call 
1111 4000 8000 100 call 
6666 1200 8000 100 call 
7777 1200 8000 100 call 
3333 1200 8000 100 call 
4444 400 8000 100 call 
5555 800 8000 100 call 
8888 2400 8000 100 blind 
total pot: 800 
/inquire 

------------



------------


flop/ 
CLUBS 6 
CLUBS 7 
SPADES 8 
/flop 

------------



------------


inquire/ 
2222 4000 8000 100 check 
1111 4000 8000 100 call 
6666 1200 8000 100 call 
7777 1200 8000 100 call 
3333 1200 8000 100 call 
4444 400 8000 100 call 
5555 800 8000 100 call 
8888 2400 8000 100 check 
total pot: 800 
/inquire 

------------



------------


turn/ 
DIAMONDS 6 
/turn 

------------



------------


inquire/ 
2222 4000 8000 100 check 
1111 4000 8000 100 check 
6666 1200 8000 100 check 
7777 1200 8000 100 check 
3333 1200 8000 100 check 
4444 400 8000 100 check 
5555 800 8000 100 check 
8888 2400 8000 100 check 
total pot: 800 
/inquire 

------------



------------


river/ 
DIAMONDS 2 
/river 

------------



------------


inquire/ 
2222 4000 8000 100 check 
1111 4000 8000 100 check 
6666 1200 8000 100 check 
7777 1200 8000 100 check 
3333 1200 8000 100 check 
4444 400 8000 100 check 
5555 800 8000 100 check 
8888 2400 8000 100 check 
total pot: 800 
/inquire 

------------



------------


showdown/ 
common/ 
CLUBS 6 
CLUBS 7 
SPADES 8 
DIAMONDS 6 
DIAMONDS 2 
/common 
4: 2222 HEARTS 7 DIAMONDS 4 TWO_PAIR 
1: 8888 SPADES 6 CLUBS K THREE_OF_A_KIND 
5: 5555 CLUBS J HEARTS K ONE_PAIR 
3: 4444 HEARTS 4 CLUBS 8 TWO_PAIR 
7: 3333 HEARTS J SPADES 3 ONE_PAIR 
6: 7777 CLUBS 9 HEARTS Q ONE_PAIR 
4: 6666 SPADES 7 CLUBS 5 TWO_PAIR 
2: 1111 HEARTS 6 SPADES 4 THREE_OF_A_KIND 
/showdown 

------------



------------


pot-win/ 
8888: 800 
/pot-win 

------------


seat/ 
button: 2222 4000 8000 
small blind: 8888 3200 8000 
big blind: 5555 800 8000 
4444 400 8000 
3333 1200 8000 
7777 1200 8000 
6666 1200 8000 
1111 4000 8000 
/seat 

------------


blind/ 
8888: 50 
5555: 100 
/blind 

------------


hold/ 
HEARTS 7 
DIAMONDS 4 
/hold 

------------



------------


inquire/ 
2222 3900 8000 100 call 
1111 3900 8000 100 call 
6666 1100 8000 100 call 
7777 1100 8000 100 call 
3333 1100 8000 100 call 
4444 300 8000 100 call 
5555 700 8000 100 blind 
8888 3150 8000 50 blind 
total pot: 750 
/inquire 

------------



------------


flop/ 
CLUBS 6 
CLUBS 7 
SPADES 8 
/flop 

------------



------------


inquire/ 
2222 3900 8000 100 call 
1111 3900 8000 100 call 
6666 1100 8000 100 call 
7777 1100 8000 100 call 
3333 1100 8000 100 call 
4444 300 8000 100 call 
5555 700 8000 100 check 
8888 3100 8000 100 call 
total pot: 800 
/inquire 

------------



------------


turn/ 
DIAMONDS 6 
/turn 

------------



------------


inquire/ 
2222 3900 8000 100 check 
1111 3900 8000 100 check 
6666 1100 8000 100 check 
7777 1100 8000 100 check 
3333 1100 8000 100 check 
4444 300 8000 100 check 
5555 700 8000 100 check 
8888 3100 8000 100 check 
total pot: 800 
/inquire 

------------



------------


river/ 
DIAMONDS 2 
/river 

------------



------------


inquire/ 
2222 3900 8000 100 check 
1111 3900 8000 100 check 
6666 1100 8000 100 check 
7777 1100 8000 100 check 
3333 1100 8000 100 check 
4444 300 8000 100 check 
5555 700 8000 100 check 
8888 3100 8000 100 check 
total pot: 800 
/inquire 

------------



------------


showdown/ 
common/ 
CLUBS 6 
CLUBS 7 
SPADES 8 
DIAMONDS 6 
DIAMONDS 2 
/common 
4: 8888 HEARTS 7 DIAMONDS 4 TWO_PAIR 
1: 5555 SPADES 6 CLUBS K THREE_OF_A_KIND 
5: 4444 CLUBS J HEARTS K ONE_PAIR 
3: 3333 HEARTS 4 CLUBS 8 TWO_PAIR 
7: 7777 HEARTS J SPADES 3 ONE_PAIR 
6: 6666 CLUBS 9 HEARTS Q ONE_PAIR 
4: 1111 SPADES 7 CLUBS 5 TWO_PAIR 
2: 2222 HEARTS 6 SPADES 4 THREE_OF_A_KIND 
/showdown 

------------



------------


pot-win/ 
5555: 800 
/pot-win 

------------


seat/ 
button: 8888 3100 8000 
small blind: 5555 1500 8000 
big blind: 4444 300 8000 
3333 1100 8000 
7777 1100 8000 
6666 1100 8000 
1111 3900 8000 
2222 3900 8000 
/seat 

------------


blind/ 
5555: 50 
4444: 100 
/blind 

------------


hold/ 
HEARTS 6 
SPADES 4 
/hold 

------------



------------


inquire/ 
2222 3800 8000 100 call 
1111 3800 8000 100 call 
6666 1000 8000 100 call 
7777 1000 8000 100 call 
3333 1000 8000 100 call 
4444 200 8000 100 blind 
5555 1450 8000 50 blind 
total pot: 650 
/inquire 

------------



------------


flop/ 
CLUBS 6 
CLUBS 7 
SPADES 8 
/flop 

------------



------------


inquire/ 
2222 3800 8000 100 check 
1111 3800 8000 100 check 
6666 1000 8000 100 check 
7777 1000 8000 100 check 
3333 1000 8000 100 check 
4444 200 8000 100 check 
5555 1400 8000 100 check 
8888 3000 8000 100 call 
total pot: 800 
/inquire 

------------



------------


turn/ 
DIAMONDS 6 
/turn 

------------



------------


inquire/ 
2222 3800 8000 100 check 
1111 3800 8000 100 check 
6666 1000 8000 100 check 
7777 1000 8000 100 check 
3333 1000 8000 100 check 
4444 200 8000 100 check 
5555 1400 8000 100 check 
8888 3000 8000 100 check 
total pot: 800 
/inquire 

------------



------------


river/ 
DIAMONDS 2 
/river 

------------



------------


inquire/ 
2222 3800 8000 100 check 
1111 3800 8000 100 check 
6666 1000 8000 100 check 
7777 1000 8000 100 check 
3333 1000 8000 100 check 
4444 200 8000 100 check 
5555 1400 8000 100 check 
8888 3000 8000 100 check 
total pot: 800 
/inquire 

------------



------------


showdown/ 
common/ 
CLUBS 6 
CLUBS 7 
SPADES 8 
DIAMONDS 6 
DIAMONDS 2 
/common 
4: 5555 HEARTS 7 DIAMONDS 4 TWO_PAIR 
1: 4444 SPADES 6 CLUBS K THREE_OF_A_KIND 
5: 3333 CLUBS J HEARTS K ONE_PAIR 
3: 7777 HEARTS 4 CLUBS 8 TWO_PAIR 
7: 6666 HEARTS J SPADES 3 ONE_PAIR 
6: 1111 CLUBS 9 HEARTS Q ONE_PAIR 
4: 2222 SPADES 7 CLUBS 5 TWO_PAIR 
2: 8888 HEARTS 6 SPADES 4 THREE_OF_A_KIND 
/showdown 

------------



------------


pot-win/ 
4444: 800 
/pot-win 

------------


seat/ 
button: 5555 1400 8000 
small blind: 4444 1000 8000 
big blind: 3333 1000 8000 
7777 1000 8000 
6666 1000 8000 
1111 3800 8000 
2222 3800 8000 
8888 3000 8000 
/seat 

------------


blind/ 
4444: 50 
3333: 100 
/blind 

------------


hold/ 
CLUBS 5 
DIAMONDS 4 
/hold 

------------



------------


inquire/ 
2222 3700 8000 100 call 
1111 3700 8000 100 call 
6666 900 8000 100 call 
7777 900 8000 100 call 
3333 900 8000 100 blind 
4444 950 8000 50 blind 
total pot: 550 
/inquire 

------------



------------


flop/ 
SPADES 3 
DIAMONDS 2 
SPADES 10 
/flop 

------------



------------


inquire/ 
2222 3700 8000 100 check 
1111 3700 8000 100 check 
6666 900 8000 100 check 
7777 900 8000 100 check 
3333 900 8000 100 check 
4444 900 8000 100 check 
5555 1300 8000 100 call 
8888 2900 8000 100 call 
total pot: 800 
/inquire 

------------



------------


turn/ 
DIAMONDS 9 
/turn 

------------



------------


inquire/ 
2222 3700 8000 100 check 
1111 3700 8000 100 check 
6666 900 8000 100 check 
7777 900 8000 100 check 
3333 900 8000 100 check 
4444 900 8000 100 check 
5555 1300 8000 100 check 
8888 2900 8000 100 check 
total pot: 800 
/inquire 

------------



------------


river/ 
SPADES J 
/river 

------------



------------


inquire/ 
2222 3700 8000 100 check 
1111 3700 8000 100 check 
6666 900 8000 100 check 
7777 900 8000 100 check 
3333 900 8000 100 check 
4444 900 8000 100 check 
5555 1300 8000 100 check 
8888 2900 8000 100 check 
total pot: 800 
/inquire 

------------



------------


showdown/ 
common/ 
SPADES 3 
DIAMONDS 2 
SPADES 10 
DIAMONDS 9 
SPADES J 
/common 
6: 4444 DIAMONDS 8 CLUBS 4 HIGH_CARD 
4: 3333 DIAMONDS Q HEARTS 7 HIGH_CARD 
5: 7777 HEARTS 8 DIAMONDS 5 HIGH_CARD 
3: 6666 HEARTS 2 SPADES Q ONE_PAIR 
1: 1111 DIAMONDS J HEARTS 10 TWO_PAIR 
4: 2222 HEARTS Q SPADES 7 HIGH_CARD 
7: 8888 CLUBS 5 DIAMONDS 4 HIGH_CARD 
2: 5555 HEARTS 3 CLUBS A ONE_PAIR 
/showdown 

------------



------------


pot-win/ 
1111: 800 
/pot-win 

------------


seat/ 
button: 4444 900 8000 
small blind: 3333 900 8000 
big blind: 7777 900 8000 
6666 900 8000 
1111 4500 8000 
2222 3700 8000 
8888 2900 8000 
5555 1300 8000 
/seat 

------------


blind/ 
3333: 50 
7777: 100 
/blind 

------------


hold/ 
HEARTS Q 
SPADES 7 
/hold 

------------



------------


inquire/ 
2222 3600 8000 100 call 
1111 4400 8000 100 call 
6666 800 8000 100 call 
7777 800 8000 100 blind 
3333 850 8000 50 blind 
total pot: 450 
/inquire 

------------



------------


flop/ 
SPADES 3 
DIAMONDS 2 
SPADES 10 
/flop 

------------



------------


inquire/ 
2222 3600 8000 100 check 
1111 4400 8000 100 check 
6666 800 8000 100 check 
7777 800 8000 100 check 
3333 800 8000 100 check 
4444 800 8000 100 call 
5555 1200 8000 100 call 
8888 2800 8000 100 call 
total pot: 800 
/inquire 

------------



------------


turn/ 
DIAMONDS 9 
/turn 

------------



------------


inquire/ 
2222 3600 8000 100 check 
1111 4400 8000 100 check 
6666 800 8000 100 check 
7777 800 8000 100 check 
3333 800 8000 100 check 
4444 800 8000 100 check 
5555 1200 8000 100 check 
8888 2800 8000 100 check 
total pot: 800 
/inquire 

------------



------------


river/ 
SPADES J 
/river 

------------



------------


inquire/ 
2222 3600 8000 100 check 
1111 4400 8000 100 check 
6666 800 8000 100 check 
7777 800 8000 100 check 
3333 800 8000 100 check 
4444 800 8000 100 check 
5555 1200 8000 100 check 
8888 2800 8000 100 check 
total pot: 800 
/inquire 

------------



------------


showdown/ 
common/ 
SPADES 3 
DIAMONDS 2 
SPADES 10 
DIAMONDS 9 
SPADES J 
/common 
6: 3333 DIAMONDS 8 CLUBS 4 HIGH_CARD 
4: 7777 DIAMONDS Q HEARTS 7 HIGH_CARD 
5: 6666 HEARTS 8 DIAMONDS 5 HIGH_CARD 
3: 1111 HEARTS 2 SPADES Q ONE_PAIR 
1: 2222 DIAMONDS J HEARTS 10 TWO_PAIR 
4: 8888 HEARTS Q SPADES 7 HIGH_CARD 
7: 5555 CLUBS 5 DIAMONDS 4 HIGH_CARD 
2: 4444 HEARTS 3 CLUBS A ONE_PAIR 
/showdown 

------------



------------


pot-win/ 
2222: 800 
/pot-win 

------------


seat/ 
button: 3333 800 8000 
small blind: 7777 800 8000 
big blind: 6666 800 8000 
1111 4400 8000 
2222 4400 8000 
8888 2800 8000 
5555 1200 8000 
4444 800 8000 
/seat 

------------


blind/ 
7777: 50 
6666: 100 
/blind 

------------


hold/ 
DIAMONDS J 
HEARTS 10 
/hold 

------------



------------


inquire/ 
2222 4300 8000 100 call 
1111 4300 8000 100 call 
6666 700 8000 100 blind 
7777 750 8000 50 blind 
total pot: 350 
/inquire 

------------



------------


flop/ 
SPADES 3 
DIAMONDS 2 
SPADES 10 
/flop 

------------



------------


inquire/ 
2222 4300 8000 100 check 
1111 4300 8000 100 check 
6666 700 8000 100 check 
7777 700 8000 100 check 
3333 700 8000 100 call 
4444 700 8000 100 call 
5555 1100 8000 100 call 
8888 2700 8000 100 call 
total pot: 800 
/inquire 

------------



------------


turn/ 
DIAMONDS 9 
/turn 

------------



------------


inquire/ 
2222 4300 8000 100 check 
1111 4300 8000 100 check 
6666 700 8000 100 check 
7777 700 8000 100 check 
3333 700 8000 100 check 
4444 700 8000 100 check 
5555 1100 8000 100 check 
8888 2700 8000 100 check 
total pot: 800 
/inquire 

------------



------------


river/ 
SPADES J 
/river 

------------



------------


inquire/ 
2222 4300 8000 100 check 
1111 4300 8000 100 check 
6666 700 8000 100 check 
7777 700 8000 100 check 
3333 700 8000 100 check 
4444 700 8000 100 check 
5555 1100 8000 100 check 
8888 2700 8000 100 check 
total pot: 800 
/inquire 

------------



------------


showdown/ 
common/ 
SPADES 3 
DIAMONDS 2 
SPADES 10 
DIAMONDS 9 
SPADES J 
/common 
6: 7777 DIAMONDS 8 CLUBS 4 HIGH_CARD 
4: 6666 DIAMONDS Q HEARTS 7 HIGH_CARD 
5: 1111 HEARTS 8 DIAMONDS 5 HIGH_CARD 
3: 2222 HEARTS 2 SPADES Q ONE_PAIR 
1: 8888 DIAMONDS J HEARTS 10 TWO_PAIR 
4: 5555 HEARTS Q SPADES 7 HIGH_CARD 
7: 4444 CLUBS 5 DIAMONDS 4 HIGH_CARD 
2: 3333 HEARTS 3 CLUBS A ONE_PAIR 
/showdown 

------------



------------


pot-win/ 
8888: 800 
/pot-win 

------------


seat/ 
button: 7777 700 8000 
small blind: 6666 700 8000 
big blind: 1111 4300 8000 
2222 4300 8000 
8888 3500 8000 
5555 1100 8000 
4444 700 8000 
3333 700 8000 
/seat 

------------


blind/ 
6666: 50 
1111: 100 
/blind 

------------


hold/ 
HEARTS 2 
SPADES Q 
/hold 

------------



------------


inquire/ 
2222 4200 8000 100 call 
1111 4200 8000 100 blind 
6666 650 8000 50 blind 
total pot: 250 
/inquire 

------------



------------


flop/ 
SPADES 3 
DIAMONDS 2 
SPADES 10 
/flop 

------------



------------


inquire/ 
2222 4200 8000 100 check 
1111 4200 8000 100 check 
6666 600 8000 100 check 
7777 600 8000 100 call 
3333 600 8000 100 call 
4444 600 8000 100 call 
5555 1000 8000 100 call 
8888 3400 8000 100 call 
total pot: 800 
/inquire 

------------



------------


turn/ 
DIAMONDS 9 
/turn 

------------



------------


inquire/ 
2222 4200 8000 100 check 
1111 4200 8000 100 check 
6666 600 8000 100 check 
7777 600 8000 100 check 
3333 600 8000 100 check 
4444 600 8000 100 check 
5555 1000 8000 100 check 
8888 3400 8000 100 check 
total pot: 800 
/inquire 

------------



------------


river/ 
SPADES J 
/river 

------------



------------


inquire/ 
2222 4200 8000 100 check 
1111 4200 8000 100 check 
6666 600 8000 100 check 
7777 600 8000 100 check 
3333 600 8000 100 check 
4444 600 8000 100 check 
5555 1000 8000 100 check 
8888 3400 8000 100 check 
total pot: 800 
/inquire 

------------



------------


showdown/ 
common/ 
SPADES 3 
DIAMONDS 2 
SPADES 10 
DIAMONDS 9 
SPADES J 
/common 
6: 6666 DIAMONDS 8 CLUBS 4 HIGH_CARD 
4: 1111 DIAMONDS Q HEARTS 7 HIGH_CARD 
5: 2222 HEARTS 8 DIAMONDS 5 HIGH_CARD 
3: 8888 HEARTS 2 SPADES Q ONE_PAIR 
1: 5555 DIAMONDS J HEARTS 10 TWO_PAIR 
4: 4444 HEARTS Q SPADES 7 HIGH_CARD 
7: 3333 CLUBS 5 DIAMONDS 4 HIGH_CARD 
2: 7777 HEARTS 3 CLUBS A ONE_PAIR 
/showdown 

------------



------------


pot-win/ 
5555: 800 
/pot-win 

------------


seat/ 
button: 6666 600 8000 
small blind: 1111 4200 8000 
big blind: 2222 4200 8000 
8888 3400 8000 
5555 1800 8000 
4444 600 8000 
3333 600 8000 
7777 600 8000 
/seat 

------------


blind/ 
1111: 50 
2222: 100 
/blind 

------------


hold/ 
HEARTS 8 
DIAMONDS 5 
/hold 

------------


inquire/ 
2222 4100 8000 100 blind 
1111 4150 8000 50 blind 
total pot: 150 
/inquire 

------------



------------


flop/ 
SPADES 3 
DIAMONDS 2 
SPADES 10 
/flop 

------------



------------


inquire/ 
2222 4100 8000 100 check 
1111 4100 8000 100 check 
6666 500 8000 100 call 
7777 500 8000 100 call 
3333 500 8000 100 call 
4444 500 8000 100 call 
5555 1700 8000 100 call 
8888 3300 8000 100 call 
total pot: 800 
/inquire 

------------



------------


turn/ 
DIAMONDS 9 
/turn 

------------



------------


inquire/ 
2222 4100 8000 100 check 
1111 4100 8000 100 check 
6666 500 8000 100 check 
7777 500 8000 100 check 
3333 500 8000 100 check 
4444 500 8000 100 check 
5555 1700 8000 100 check 
8888 3300 8000 100 check 
total pot: 800 
/inquire 

------------



------------


river/ 
SPADES J 
/river 

------------



------------


inquire/ 
2222 4100 8000 100 check 
1111 4100 8000 100 check 
6666 500 8000 100 check 
7777 500 8000 100 check 
3333 500 8000 100 check 
4444 500 8000 100 check 
5555 1700 8000 100 check 
8888 3300 8000 100 check 
total pot: 800 
/inquire 

------------



------------


showdown/ 
common/ 
SPADES 3 
DIAMONDS 2 
SPADES 10 
DIAMONDS 9 
SPADES J 
/common 
6: 1111 DIAMONDS 8 CLUBS 4 HIGH_CARD 
4: 2222 DIAMONDS Q HEARTS 7 HIGH_CARD 
5: 8888 HEARTS 8 DIAMONDS 5 HIGH_CARD 
3: 5555 HEARTS 2 SPADES Q ONE_PAIR 
1: 4444 DIAMONDS J HEARTS 10 TWO_PAIR 
4: 3333 HEARTS Q SPADES 7 HIGH_CARD 
7: 7777 CLUBS 5 DIAMONDS 4 HIGH_CARD 
2: 6666 HEARTS 3 CLUBS A ONE_PAIR 
/showdown 

------------



------------


pot-win/ 
4444: 800 
/pot-win 

------------


seat/ 
button: 1111 4100 8000 
small blind: 2222 4100 8000 
big blind: 8888 3300 8000 
5555 1700 8000 
4444 1300 8000 
3333 500 8000 
7777 500 8000 
6666 500 8000 
/seat 

------------


blind/ 
2222: 50 
8888: 100 
/blind 

------------


hold/ 
DIAMONDS Q 
HEARTS 7 
/hold 

------------



------------


inquire/ 
2222 4000 8000 100 call 
1111 4000 8000 100 call 
6666 400 8000 100 call 
7777 400 8000 100 call 
3333 400 8000 100 call 
4444 1200 8000 100 call 
5555 1600 8000 100 call 
8888 3200 8000 100 blind 
total pot: 800 
/inquire 

------------



------------


flop/ 
SPADES 3 
DIAMONDS 2 
SPADES 10 
/flop 

------------



------------


inquire/ 
2222 4000 8000 100 check 
1111 4000 8000 100 call 
6666 400 8000 100 call 
7777 400 8000 100 call 
3333 400 8000 100 call 
4444 1200 8000 100 call 
5555 1600 8000 100 call 
8888 3200 8000 100 check 
total pot: 800 
/inquire 

------------



------------


turn/ 
DIAMONDS 9 
/turn 

------------



------------


inquire/ 
2222 4000 8000 100 check 
1111 4000 8000 100 check 
6666 400 8000 100 check 
7777 400 8000 100 check 
3333 400 8000 100 check 
4444 1200 8000 100 check 
5555 1600 8000 100 check 
8888 3200 8000 100 check 
total pot: 800 
/inquire 

------------



------------


river/ 
SPADES J 
/river 

------------



------------


inquire/ 
2222 4000 8000 100 check 
1111 4000 8000 100 check 
6666 400 8000 100 check 
7777 400 8000 100 check 
3333 400 8000 100 check 
4444 1200 8000 100 check 
5555 1600 8000 100 check 
8888 3200 8000 100 check 
total pot: 800 
/inquire 

------------



------------


showdown/ 
common/ 
SPADES 3 
DIAMONDS 2 
SPADES 10 
DIAMONDS 9 
SPADES J 
/common 
6: 2222 DIAMONDS 8 CLUBS 4 HIGH_CARD 
4: 8888 DIAMONDS Q HEARTS 7 HIGH_CARD 
5: 5555 HEARTS 8 DIAMONDS 5 HIGH_CARD 
3: 4444 HEARTS 2 SPADES Q ONE_PAIR 
1: 3333 DIAMONDS J HEARTS 10 TWO_PAIR 
4: 7777 HEARTS Q SPADES 7 HIGH_CARD 
7: 6666 CLUBS 5 DIAMONDS 4 HIGH_CARD 
2: 1111 HEARTS 3 CLUBS A ONE_PAIR 
/showdown 

------------



------------


pot-win/ 
3333: 800 
/pot-win 

------------


seat/ 
button: 2222 4000 8000 
small blind: 8888 3200 8000 
big blind: 5555 1600 8000 
4444 1200 8000 
3333 1200 8000 
7777 400 8000 
6666 400 8000 
1111 4000 8000 
/seat 

------------


blind/ 
8888: 50 
5555: 100 
/blind 

------------


hold/ 
CLUBS 6 
DIAMONDS 4 
/hold 

------------



------------


inquire/ 
2222 3900 8000 100 call 
1111 3900 8000 100 call 
6666 300 8000 100 call 
7777 300 8000 100 call 
3333 1100 8000 100 call 
4444 1100 8000 100 call 
5555 1500 8000 100 blind 
8888 3150 8000 50 blind 
total pot: 750 
/inquire 

------------



------------


flop/ 
HEARTS Q 
HEARTS K 
CLUBS 4 
/flop 

------------



------------


inquire/ 
2222 3900 8000 100 call 
1111 3900 8000 100 call 
6666 300 8000 100 call 
7777 300 8000 100 call 
3333 1100 8000 100 call 
4444 1100 8000 100 call 
5555 1500 8000 100 check 
8888 3100 8000 100 call 
total pot: 800 
/inquire 

------------



------------


turn/ 
DIAMONDS 5 
/turn 

------------



------------


inquire/ 
2222 3900 8000 100 check 
1111 3900 8000 100 check 
6666 300 8000 100 check 
7777 300 8000 100 check 
3333 1100 8000 100 check 
4444 1100 8000 100 check 
5555 1500 8000 100 check 
8888 3100 8000 100 check 
total pot: 800 
/inquire 

------------



------------


river/ 
SPADES 6 
/river 

------------



------------


inquire/ 
2222 3900 8000 100 check 
1111 3900 8000 100 check 
6666 300 8000 100 check 
7777 300 8000 100 check 
3333 1100 8000 100 check 
4444 1100 8000 100 check 
5555 1500 8000 100 check 
8888 3100 8000 100 check 
total pot: 800 
/inquire 

------------



------------


showdown/ 
common/ 
HEARTS Q 
HEARTS K 
CLUBS 4 
DIAMONDS 5 
SPADES 6 
/common 
1: 8888 CLUBS 6 DIAMONDS 4 TWO_PAIR 
2: 5555 HEARTS 10 DIAMONDS K ONE_PAIR 
6: 4444 DIAMONDS 9 HEARTS 7 HIGH_CARD 
4: 3333 CLUBS A HEARTS 4 ONE_PAIR 
7: 7777 DIAMONDS 3 SPADES 8 HIGH_CARD 
5: 6666 DIAMONDS J CLUBS 2 HIGH_CARD 
7: 1111 HEARTS 8 SPADES 3 HIGH_CARD 
3: 2222 HEARTS 9 SPADES 9 ONE_PAIR 
/showdown 

------------



------------


pot-win/ 
8888: 800 
/pot-win 

------------


seat/ 
button: 8888 3900 8000 
small blind: 5555 1500 8000 
big blind: 4444 1100 8000 
3333 1100 8000 
7777 300 8000 
6666 300 8000 
1111 3900 8000 
2222 3900 8000 
/seat 

------------


blind/ 
5555: 50 
4444: 100 
/blind 

------------


hold/ 
HEARTS 9 
SPADES 9 
/hold 

------------



------------


inquire/ 
2222 3800 8000 100 call 
1111 3800 8000 100 call 
6666 200 8000 100 call 
7777 200 8000 100 call 
3333 1000 8000 100 call 
4444 1000 8000 100 blind 
5555 1450 8000 50 blind 
total pot: 650 
/inquire 

------------



------------


flop/ 
HEARTS Q 
HEARTS K 
CLUBS 4 
/flop 

------------



------------


inquire/ 
2222 3800 8000 100 check 
1111 3800 8000 100 check 
6666 200 8000 100 check 
7777 200 8000 100 check 
3333 1000 8000 100 check 
4444 1000 8000 100 check 
5555 1400 8000 100 check 
8888 3800 8000 100 call 
total pot: 800 
/inquire 

------------



------------


turn/ 
DIAMONDS 5 
/turn 

------------



------------


inquire/ 
2222 3800 8000 100 check 
1111 3800 8000 100 check 
6666 200 8000 100 check 
7777 200 8000 100 check 
3333 1000 8000 100 check 
4444 1000 8000 100 check 
5555 1400 8000 100 check 
8888 3800 8000 100 check 
total pot: 800 
/inquire 

------------



------------


river/ 
SPADES 6 
/river 

------------



------------


inquire/ 
2222 3800 8000 100 check 
1111 3800 8000 100 check 
6666 200 8000 100 check 
7777 200 8000 100 check 
3333 1000 8000 100 check 
4444 1000 8000 100 check 
5555 1400 8000 100 check 
8888 3800 8000 100 check 
total pot: 800 
/inquire 

------------



------------


showdown/ 
common/ 
HEARTS Q 
HEARTS K 
CLUBS 4 
DIAMONDS 5 
SPADES 6 
/common 
1: 5555 CLUBS 6 DIAMONDS 4 TWO_PAIR 
2: 4444 HEARTS 10 DIAMONDS K ONE_PAIR 
6: 3333 DIAMONDS 9 HEARTS 7 HIGH_CARD 
4: 7777 CLUBS A HEARTS 4 ONE_PAIR 
7: 6666 DIAMONDS 3 SPADES 8 HIGH_CARD 
5: 1111 DIAMONDS J CLUBS 2 HIGH_CARD 
7: 2222 HEARTS 8 SPADES 3 HIGH_CARD 
3: 8888 HEARTS 9 SPADES 9 ONE_PAIR 
/showdown 

------------



------------


pot-win/ 
5555: 800 
/pot-win 

------------


seat/ 
button: 5555 2200 8000 
small blind: 4444 1000 8000 
big blind: 3333 1000 8000 
7777 200 8000 
6666 200 8000 
1111 3800 8000 
2222 3800 8000 
8888 3800 8000 
/seat 

------------


blind/ 
4444: 50 
3333: 100 
/blind 

------------


hold/ 
HEARTS 8 
SPADES 3 
/hold 

------------



------------


inquire/ 
2222 3700 8000 100 call 
1111 3700 8000 100 call 
6666 100 8000 100 call 
7777 100 8000 100 call 
3333 900 8000 100 blind 
4444 950 8000 50 blind 
total pot: 550 
/inquire 

------------



------------


flop/ 
HEARTS Q 
HEARTS K 
CLUBS 4 
/flop 

------------



------------


inquire/ 
2222 3700 8000 100 check 
1111 3700 8000 100 check 
6666 100 8000 100 check 
7777 100 8000 100 check 
3333 900 8000 100 check 
4444 900 8000 100 check 
5555 2100 8000 100 call 
8888 3700 8000 100 call 
total pot: 800 
/inquire 

------------



------------


turn/ 
DIAMONDS 5 
/turn 

------------



------------


inquire/ 
2222 3700 8000 100 check 
1111 3700 8000 100 check 
6666 100 8000 100 check 
7777 100 8000 100 check 
3333 900 8000 100 check 
4444 900 8000 100 check 
5555 2100 8000 100 check 
8888 3700 8000 100 check 
total pot: 800 
/inquire 

------------



------------


river/ 
SPADES 6 
/river 

------------



------------


inquire/ 
2222 3700 8000 100 check 
1111 3700 8000 100 check 
6666 100 8000 100 check 
7777 100 8000 100 check 
3333 900 8000 100 check 
4444 900 8000 100 check 
5555 2100 8000 100 check 
8888 3700 8000 100 check 
total pot: 800 
/inquire 

------------



------------


showdown/ 
common/ 
HEARTS Q 
HEARTS K 
CLUBS 4 
DIAMONDS 5 
SPADES 6 
/common 
1: 4444 CLUBS 6 DIAMONDS 4 TWO_PAIR 
2: 3333 HEARTS 10 DIAMONDS K ONE_PAIR 
6: 7777 DIAMONDS 9 HEARTS 7 HIGH_CARD 
4: 6666 CLUBS A HEARTS 4 ONE_PAIR 
7: 1111 DIAMONDS 3 SPADES 8 HIGH_CARD 
5: 2222 DIAMONDS J CLUBS 2 HIGH_CARD 
7: 8888 HEARTS 8 SPADES 3 HIGH_CARD 
3: 5555 HEARTS 9 SPADES 9 ONE_PAIR 
/showdown 

------------



------------


pot-win/ 
4444: 800 
/pot-win 

------------


seat/ 
button: 4444 1700 8000 
small blind: 3333 900 8000 
big blind: 7777 100 8000 
6666 100 8000 
1111 3700 8000 
2222 3700 8000 
8888 3700 8000 
5555 2100 8000 
/seat 

------------


blind/ 
3333: 50 
7777: 100 
/blind 

------------


hold/ 
DIAMONDS J 
CLUBS 2 
/hold 

------------



------------


inquire/ 
2222 3600 8000 100 call 
1111 3600 8000 100 call 
6666 0 8000 100 all_in 
7777 0 8000 100 blind 
3333 850 8000 50 blind 
total pot: 450 
/inquire 

------------



------------


flop/ 
HEARTS Q 
HEARTS K 
CLUBS 4 
/flop 

------------



------------


inquire/ 
2222 3600 8000 100 check 
1111 3600 8000 100 check 
6666 0 8000 100 all_in 
7777 0 8000 100 check 
3333 800 8000 100 check 
4444 1600 8000 100 call 
5555 2000 8000 100 call 
8888 3600 8000 100 call 
total pot: 800 
/inquire 

------------



------------


turn/ 
DIAMONDS 5 
/turn 

------------



------------


inquire/ 
2222 3600 8000 100 check 
1111 3600 8000 100 check 
6666 0 8000 100 all_in 
7777 0 8000 100 check 
3333 800 8000 100 check 
4444 1600 8000 100 check 
5555 2000 8000 100 check 
8888 3600 8000 100 check 
total pot: 800 
/inquire 

------------



------------


river/ 
SPADES 6 
/river 

------------



------------


inquire/ 
2222 3600 8000 100 check 
1111 3600 8000 100 check 
6666 0 8000 100 all_in 
7777 0 8000 100 check 
3333 800 8000 100 check 
4444 1600 8000 100 check 
5555 2000 8000 100 check 
8888 3600 8000 100 check 
total pot: 800 
/inquire 

------------



------------


showdown/ 
common/ 
HEARTS Q 
HEARTS K 
CLUBS 4 
DIAMONDS 5 
SPADES 6 
/common 
1: 3333 CLUBS 6 DIAMONDS 4 TWO_PAIR 
2: 7777 HEARTS 10 DIAMONDS K ONE_PAIR 
6: 6666 DIAMONDS 9 HEARTS 7 HIGH_CARD 
4: 1111 CLUBS A HEARTS 4 ONE_PAIR 
7: 2222 DIAMONDS 3 SPADES 8 HIGH_CARD 
5: 8888 DIAMONDS J CLUBS 2 HIGH_CARD 
7: 5555 HEARTS 8 SPADES 3 HIGH_CARD 
3: 4444 HEARTS 9 SPADES 9 ONE_PAIR 
/showdown 

------------



------------


pot-win/ 
3333: 800 
/pot-win 

------------


seat/ 
button: 3333 1600 8000 
small blind: 7777 2000 6000 
big blind: 6666 2000 6000 
1111 3600 8000 
2222 3600 8000 
8888 3600 8000 
5555 2000 8000 
4444 1600 8000 
/seat 

------------


blind/ 
7777: 50 
6666: 100 
/blind 

------------


hold/ 
DIAMONDS 3 
SPADES 8 
/hold 

------------



------------


inquire/ 
2222 3500 8000 100 call 
1111 3500 8000 100 call 
6666 1900 6000 100 blind 
7777 1950 6000 50 blind 
total pot: 350 
/inquire 

------------



------------


flop/ 
HEARTS Q 
HEARTS K 
CLUBS 4 
/flop 

------------



------------


inquire/ 
2222 3500 8000 100 check 
1111 3500 8000 100 check 
6666 1900 6000 100 check 
7777 1900 6000 100 check 
3333 1500 8000 100 call 
4444 1500 8000 100 call 
5555 1900 8000 100 call 
8888 3500 8000 100 call 
total pot: 800 
/inquire 

------------



------------


turn/ 
DIAMONDS 5 
/turn 

------------



------------


inquire/ 
2222 3500 8000 100 check 
1111 3500 8000 100 check 
6666 1900 6000 100 check 
7777 1900 6000 100 check 
3333 1500 8000 100 check 
4444 1500 8000 100 check 
5555 1900 8000 100 check 
8888 3500 8000 100 check 
total pot: 800 
/inquire 

------------



------------


river/ 
SPADES 6 
/river 

------------



------------


inquire/ 
2222 3500 8000 100 check 
1111 3500 8000 100 check 
6666 1900 6000 100 check 
7777 1900 6000 100 check 
3333 1500 8000 100 check 
4444 1500 8000 100 check 
5555 1900 8000 100 check 
8888 3500 8000 100 check 
total pot: 800 
/inquire 

------------



------------


showdown/ 
common/ 
HEARTS Q 
HEARTS K 
CLUBS 4 
DIAMONDS 5 
SPADES 6 
/common 
1: 7777 CLUBS 6 DIAMONDS 4 TWO_PAIR 
2: 6666 HEARTS 10 DIAMONDS K ONE_PAIR 
6: 1111 DIAMONDS 9 HEARTS 7 HIGH_CARD 
4: 2222 CLUBS A HEARTS 4 ONE_PAIR 
7: 8888 DIAMONDS 3 SPADES 8 HIGH_CARD 
5: 5555 DIAMONDS J CLUBS 2 HIGH_CARD 
7: 4444 HEARTS 8 SPADES 3 HIGH_CARD 
3: 3333 HEARTS 9 SPADES 9 ONE_PAIR 
/showdown 

------------



------------


pot-win/ 
7777: 800 
/pot-win 

------------


seat/ 
button: 7777 2700 6000 
small blind: 6666 1900 6000 
big blind: 1111 3500 8000 
2222 3500 8000 
8888 3500 8000 
5555 1900 8000 
4444 1500 8000 
3333 1500 8000 
/seat 

------------


blind/ 
6666: 50 
1111: 100 
/blind 

------------


hold/ 
DIAMONDS 3 
HEARTS 4 
/hold 

------------



------------


inquire/ 
2222 3400 8000 100 call 
1111 3400 8000 100 blind 
6666 1850 6000 50 blind 
total pot: 250 
/inquire 

------------



------------


flop/ 
HEARTS 6 
CLUBS 2 
HEARTS 8 
/flop 

------------



------------


inquire/ 
2222 3400 8000 100 check 
1111 3400 8000 100 check 
6666 1800 6000 100 check 
7777 2600 6000 100 call 
3333 1400 8000 100 call 
4444 1400 8000 100 call 
5555 1800 8000 100 call 
8888 3400 8000 100 call 
total pot: 800 
/inquire 

------------



------------


turn/ 
DIAMONDS A 
/turn 

------------



------------


inquire/ 
2222 3400 8000 100 check 
1111 3400 8000 100 check 
6666 1800 6000 100 check 
7777 2600 6000 100 check 
3333 1400 8000 100 check 
4444 1400 8000 100 check 
5555 1800 8000 100 check 
8888 3400 8000 100 check 
total pot: 800 
/inquire 

------------



------------


river/ 
DIAMONDS 2 
/river 

------------



------------


inquire/ 
2222 3400 8000 100 check 
1111 3400 8000 100 check 
6666 1800 6000 100 check 
7777 2600 6000 100 check 
3333 1400 8000 100 check 
4444 1400 8000 100 check 
5555 1800 8000 100 check 
8888 3400 8000 100 check 
total pot: 800 
/inquire 

------------



------------


showdown/ 
common/ 
HEARTS 6 
CLUBS 2 
HEARTS 8 
DIAMONDS A 
DIAMONDS 2 
/common 
5: 6666 HEARTS Q CLUBS 4 ONE_PAIR 
6: 1111 SPADES 5 DIAMONDS 4 ONE_PAIR 
2: 2222 CLUBS 6 SPADES 7 TWO_PAIR 
6: 8888 DIAMONDS 3 HEARTS 4 ONE_PAIR 
4: 5555 DIAMONDS K DIAMONDS 9 ONE_PAIR 
3: 4444 SPADES 10 SPADES K ONE_PAIR 
1: 3333 CLUBS K SPADES A TWO_PAIR 
2: 7777 HEARTS 3 DIAMONDS 6 TWO_PAIR 
/showdown 

------------



------------


pot-win/ 
3333: 800 
/pot-win 

------------


seat/ 
button: 6666 1800 6000 
small blind: 1111 3400 8000 
big blind: 2222 3400 8000 
8888 3400 8000 
5555 1800 8000 
4444 1400 8000 
3333 2200 8000 
7777 2600 6000 
/seat 

------------


blind/ 
1111: 50 
2222: 100 
/blind 

------------


hold/ 
CLUBS 6 
SPADES 7 
/hold 

------------


inquire/ 
2222 3300 8000 100 blind 
1111 3350 8000 50 blind 
total pot: 150 
/inquire 

------------



------------


flop/ 
HEARTS 6 
CLUBS 2 
HEARTS 8 
/flop 

------------



------------


inquire/ 
2222 3300 8000 100 check 
1111 3300 8000 100 check 
6666 1700 6000 100 call 
7777 2500 6000 100 call 
3333 2100 8000 100 call 
4444 1300 8000 100 call 
5555 1700 8000 100 call 
8888 3300 8000 100 call 
total pot: 800 
/inquire 

------------



------------


turn/ 
DIAMONDS A 
/turn 

------------



------------


inquire/ 
2222 3300 8000 100 check 
1111 3300 8000 100 check 
6666 1700 6000 100 check 
7777 2500 6000 100 check 
3333 2100 8000 100 check 
4444 1300 8000 100 check 
5555 1700 8000 100 check 
8888 3300 8000 100 check 
total pot: 800 
/inquire 

------------



------------


river/ 
DIAMONDS 2 
/river 

------------



------------


inquire/ 
2222 3300 8000 100 check 
1111 3300 8000 100 check 
6666 1700 6000 100 check 
7777 2500 6000 100 check 
3333 2100 8000 100 check 
4444 1300 8000 100 check 
5555 1700 8000 100 check 
8888 3300 8000 100 check 
total pot: 800 
/inquire 

------------



------------


showdown/ 
common/ 
HEARTS 6 
CLUBS 2 
HEARTS 8 
DIAMONDS A 
DIAMONDS 2 
/common 
5: 1111 HEARTS Q CLUBS 4 ONE_PAIR 
6: 2222 SPADES 5 DIAMONDS 4 ONE_PAIR 
2: 8888 CLUBS 6 SPADES 7 TWO_PAIR 
6: 5555 DIAMONDS 3 HEARTS 4 ONE_PAIR 
4: 4444 DIAMONDS K DIAMONDS 9 ONE_PAIR 
3: 3333 SPADES 10 SPADES K ONE_PAIR 
1: 7777 CLUBS K SPADES A TWO_PAIR 
2: 6666 HEARTS 3 DIAMONDS 6 TWO_PAIR 
/showdown 

------------



------------


pot-win/ 
7777: 800 
/pot-win 

------------


seat/ 
button: 1111 3300 8000 
small blind: 2222 3300 8000 
big blind: 8888 3300 8000 
5555 1700 8000 
4444 1300 8000 
3333 2100 8000 
7777 3300 6000 
6666 1700 6000 
/seat 

------------


blind/ 
2222: 50 
8888: 100 
/blind 

------------


hold/ 
SPADES 5 
DIAMONDS 4 
/hold 

------------



------------


inquire/ 
2222 3200 8000 100 call 
1111 3200 8000 100 call 
6666 1600 6000 100 call 
7777 3200 6000 100 call 
3333 2000 8000 100 call 
4444 1200 8000 100 call 
5555 1600 8000 100 call 
8888 3200 8000 100 blind 
total pot: 800 
/inquire 

------------



------------


flop/ 
HEARTS 6 
CLUBS 2 
HEARTS 8 
/flop 

------------



------------


inquire/ 
2222 3200 8000 100 check 
1111 3200 8000 100 call 
6666 1600 6000 100 call 
7777 3200 6000 100 call 
3333 2000 8000 100 call 
4444 1200 8000 100 call 
5555 1600 8000 100 call 
8888 3200 8000 100 check 
total pot: 800 
/inquire 

------------



------------


turn/ 
DIAMONDS A 
/turn 

------------



------------


inquire/ 
2222 3200 8000 100 check 
1111 3200 8000 100 check 
6666 1600 6000 100 check 
7777 3200 6000 100 check 
3333 2000 8000 100 check 
4444 1200 8000 100 check 
5555 1600 8000 100 check 
8888 3200 8000 100 check 
total pot: 800 
/inquire 

------------



------------


river/ 
DIAMONDS 2 
/river 

------------



------------


inquire/ 
2222 3200 8000 100 check 
1111 3200 8000 100 check 
6666 1600 6000 100 check 
7777 3200 6000 100 check 
3333 2000 8000 100 check 
4444 1200 8000 100 check 
5555 1600 8000 100 check 
8888 3200 8000 100 check 
total pot: 800 
/inquire 

------------



------------


showdown/ 
common/ 
HEARTS 6 
CLUBS 2 
HEARTS 8 
DIAMONDS A 
DIAMONDS 2 
/common 
5: 2222 HEARTS Q CLUBS 4 ONE_PAIR 
6: 8888 SPADES 5 DIAMONDS 4 ONE_PAIR 
2: 5555 CLUBS 6 SPADES 7 TWO_PAIR 
6: 4444 DIAMONDS 3 HEARTS 4 ONE_PAIR 
4: 3333 DIAMONDS K DIAMONDS 9 ONE_PAIR 
3: 7777 SPADES 10 SPADES K ONE_PAIR 
1: 6666 CLUBS K SPADES A TWO_PAIR 
2: 1111 HEARTS 3 DIAMONDS 6 TWO_PAIR 
/showdown 

------------



------------


pot-win/ 
6666: 800 
/pot-win 

------------


seat/ 
button: 2222 3200 8000 
small blind: 8888 3200 8000 
big blind: 5555 1600 8000 
4444 1200 8000 
3333 2000 8000 
7777 3200 6000 
6666 2400 6000 
1111 3200 8000 
/seat 

------------


blind/ 
8888: 50 
5555: 100 
/blind 

------------


hold/ 
HEARTS Q 
CLUBS 4 
/hold 

------------



------------


inquire/ 
2222 3100 8000 100 call 
1111 3100 8000 100 call 
6666 2300 6000 100 call 
7777 3100 6000 100 call 
3333 1900 8000 100 call 
4444 1100 8000 100 call 
5555 1500 8000 100 blind 
8888 3150 8000 50 blind 
total pot: 750 
/inquire 

------------



------------


flop/ 
HEARTS 6 
CLUBS 2 
HEARTS 8 
/flop 

------------



------------


inquire/ 
2222 3100 8000 100 call 
1111 3100 8000 100 call 
6666 2300 6000 100 call 
7777 3100 6000 100 call 
3333 1900 8000 100 call 
4444 1100 8000 100 call 
5555 1500 8000 100 check 
8888 3100 8000 100 call 
total pot: 800 
/inquire 

------------



------------


turn/ 
DIAMONDS A 
/turn 

------------



------------


inquire/ 
2222 3100 8000 100 check 
1111 3100 8000 100 check 
6666 2300 6000 100 check 
7777 3100 6000 100 check 
3333 1900 8000 100 check 
4444 1100 8000 100 check 
5555 1500 8000 100 check 
8888 3100 8000 100 check 
total pot: 800 
/inquire 

------------



------------


river/ 
DIAMONDS 2 
/river 

------------



------------


inquire/ 
2222 3100 8000 100 check 
1111 3100 8000 100 check 
6666 2300 6000 100 check 
7777 3100 6000 100 check 
3333 1900 8000 100 check 
4444 1100 8000 100 check 
5555 1500 8000 100 check 
8888 3100 8000 100 check 
total pot: 800 
/inquire 

------------



------------


showdown/ 
common/ 
HEARTS 6 
CLUBS 2 
HEARTS 8 
DIAMONDS A 
DIAMONDS 2 
/common 
5: 8888 HEARTS Q CLUBS 4 ONE_PAIR 
6: 5555 SPADES 5 DIAMONDS 4 ONE_PAIR 
2: 4444 CLUBS 6 SPADES 7 TWO_PAIR 
6: 3333 DIAMONDS 3 HEARTS 4 ONE_PAIR 
4: 7777 DIAMONDS K DIAMONDS 9 ONE_PAIR 
3: 6666 SPADES 10 SPADES K ONE_PAIR 
1: 1111 CLUBS K SPADES A TWO_PAIR 
2: 2222 HEARTS 3 DIAMONDS 6 TWO_PAIR 
/showdown 

------------



------------


pot-win/ 
1111: 800 
/pot-win 

------------


seat/ 
button: 8888 3100 8000 
small blind: 5555 1500 8000 
big blind: 4444 1100 8000 
3333 1900 8000 
7777 3100 6000 
6666 2300 6000 
1111 3900 8000 
2222 3100 8000 
/seat 

------------


blind/ 
5555: 50 
4444: 100 
/blind 

------------


hold/ 
HEARTS 3 
DIAMONDS 6 
/hold 

------------



------------


inquire/ 
2222 3000 8000 100 call 
1111 3800 8000 100 call 
6666 2200 6000 100 call 
7777 3000 6000 100 call 
3333 1800 8000 100 call 
4444 1000 8000 100 blind 
5555 1450 8000 50 blind 
total pot: 650 
/inquire 

------------



------------


flop/ 
HEARTS 6 
CLUBS 2 
HEARTS 8 
/flop 

------------



------------


inquire/ 
2222 3000 8000 100 check 
1111 3800 8000 100 check 
6666 2200 6000 100 check 
7777 3000 6000 100 check 
3333 1800 8000 100 check 
4444 1000 8000 100 check 
5555 1400 8000 100 check 
8888 3000 8000 100 call 
total pot: 800 
/inquire 

------------



------------


turn/ 
DIAMONDS A 
/turn 

------------



------------


inquire/ 
2222 3000 8000 100 check 
1111 3800 8000 100 check 
6666 2200 6000 100 check 
7777 3000 6000 100 check 
3333 1800 8000 100 check 
4444 1000 8000 100 check 
5555 1400 8000 100 check 
8888 3000 8000 100 check 
total pot: 800 
/inquire 

------------



------------


river/ 
DIAMONDS 2 
/river 

------------



------------


inquire/ 
2222 3000 8000 100 check 
1111 3800 8000 100 check 
6666 2200 6000 100 check 
7777 3000 6000 100 check 
3333 1800 8000 100 check 
4444 1000 8000 100 check 
5555 1400 8000 100 check 
8888 3000 8000 100 check 
total pot: 800 
/inquire 

------------



------------


showdown/ 
common/ 
HEARTS 6 
CLUBS 2 
HEARTS 8 
DIAMONDS A 
DIAMONDS 2 
/common 
5: 5555 HEARTS Q CLUBS 4 ONE_PAIR 
6: 4444 SPADES 5 DIAMONDS 4 ONE_PAIR 
2: 3333 CLUBS 6 SPADES 7 TWO_PAIR 
6: 7777 DIAMONDS 3 HEARTS 4 ONE_PAIR 
4: 6666 DIAMONDS K DIAMONDS 9 ONE_PAIR 
3: 1111 SPADES 10 SPADES K ONE_PAIR 
1: 2222 CLUBS K SPADES A TWO_PAIR 
2: 8888 HEARTS 3 DIAMONDS 6 TWO_PAIR 
/showdown 

------------



------------


pot-win/ 
2222: 800 
/pot-win 

------------


seat/ 
button: 5555 1400 8000 
small blind: 4444 1000 8000 
big blind: 3333 1800 8000 
7777 3000 6000 
6666 2200 6000 
1111 3800 8000 
2222 3800 8000 
8888 3000 8000 
/seat 

------------


blind/ 
4444: 50 
3333: 100 
/blind 

------------


hold/ 
CLUBS K 
SPADES A 
/hold 

------------



------------


inquire/ 
2222 3700 8000 100 call 
1111 3700 8000 100 call 
6666 2100 6000 100 call 
7777 2900 6000 100 call 
3333 1700 8000 100 blind 
4444 950 8000 50 blind 
total pot: 550 
/inquire 

------------



------------


flop/ 
HEARTS 6 
CLUBS 2 
HEARTS 8 
/flop 

------------



------------


inquire/ 
2222 3700 8000 100 check 
1111 3700 8000 100 check 
6666 2100 6000 100 check 
7777 2900 6000 100 check 
3333 1700 8000 100 check 
4444 900 8000 100 check 
5555 1300 8000 100 call 
8888 2900 8000 100 call 
total pot: 800 
/inquire 

------------



------------


turn/ 
DIAMONDS A 
/turn 

------------



------------


inquire/ 
2222 3700 8000 100 check 
1111 3700 8000 100 check 
6666 2100 6000 100 check 
7777 2900 6000 100 check 
3333 1700 8000 100 check 
4444 900 8000 100 check 
5555 1300 8000 100 check 
8888 2900 8000 100 check 
total pot: 800 
/inquire 

------------



------------


river/ 
DIAMONDS 2 
/river 

------------



------------


inquire/ 
2222 3700 8000 100 check 
1111 3700 8000 100 check 
6666 2100 6000 100 check 
7777 2900 6000 100 check 
3333 1700 8000 100 check 
4444 900 8000 100 check 
5555 1300 8000 100 check 
8888 2900 8000 100 check 
total pot: 800 
/inquire 

------------



------------


showdown/ 
common/ 
HEARTS 6 
CLUBS 2 
HEARTS 8 
DIAMONDS A 
DIAMONDS 2 
/common 
5: 4444 HEARTS Q CLUBS 4 ONE_PAIR 
6: 3333 SPADES 5 DIAMONDS 4 ONE_PAIR 
2: 7777 CLUBS 6 SPADES 7 TWO_PAIR 
6: 6666 DIAMONDS 3 HEARTS 4 ONE_PAIR 
4: 1111 DIAMONDS K DIAMONDS 9 ONE_PAIR 
3: 2222 SPADES 10 SPADES K ONE_PAIR 
1: 8888 CLUBS K SPADES A TWO_PAIR 
2: 5555 HEARTS 3 DIAMONDS 6 TWO_PAIR 
/showdown 

------------



------------


pot-win/ 
8888: 800 
/pot-win 

------------


seat/ 
button: 4444 900 8000 
small blind: 3333 1700 8000 
big blind: 7777 2900 6000 
6666 2100 6000 
1111 3700 8000 
2222 3700 8000 
8888 3700 8000 
5555 1300 8000 
/seat 

------------


blind/ 
3333: 50 
7777: 100 
/blind 

------------


hold/ 
DIAMONDS 5 
SPADES 4 
/hold 

------------



------------


inquire/ 
2222 3600 8000 100 call 
1111 3600 8000 100 call 
6666 2000 6000 100 call 
7777 2800 6000 100 blind 
3333 1650 8000 50 blind 
total pot: 450 
/inquire 

------------



------------


flop/ 
SPADES A 
SPADES 7 
DIAMONDS 10 
/flop 

------------



------------


inquire/ 
2222 3600 8000 100 check 
1111 3600 8000 100 check 
6666 2000 6000 100 check 
7777 2800 6000 100 check 
3333 1600 8000 100 check 
4444 800 8000 100 call 
5555 1200 8000 100 call 
8888 3600 8000 100 call 
total pot: 800 
/inquire 

------------



------------


turn/ 
HEARTS 8 
/turn 

------------



------------


inquire/ 
2222 3600 8000 100 check 
1111 3600 8000 100 check 
6666 2000 6000 100 check 
7777 2800 6000 100 check 
3333 1600 8000 100 check 
4444 800 8000 100 check 
5555 1200 8000 100 check 
8888 3600 8000 100 check 
total pot: 800 
/inquire 

------------



------------


river/ 
HEARTS 2 
/river 

------------



------------


inquire/ 
2222 3600 8000 100 check 
1111 3600 8000 100 check 
6666 2000 6000 100 check 
7777 2800 6000 100 check 
3333 1600 8000 100 check 
4444 800 8000 100 check 
5555 1200 8000 100 check 
8888 3600 8000 100 check 
total pot: 800 
/inquire 

------------



------------


showdown/ 
common/ 
SPADES A 
SPADES 7 
DIAMONDS 10 
HEARTS 8 
HEARTS 2 
/common 
3: 3333 DIAMONDS K CLUBS 5 HIGH_CARD 
6: 7777 SPADES 3 DIAMONDS 4 HIGH_CARD 
4: 6666 DIAMONDS 3 DIAMONDS 6 HIGH_CARD 
2: 1111 CLUBS 3 DIAMONDS 7 ONE_PAIR 
4: 2222 CLUBS 4 HEARTS 6 HIGH_CARD 
5: 8888 DIAMONDS 5 SPADES 4 HIGH_CARD 
4: 5555 CLUBS 6 HEARTS 4 HIGH_CARD 
1: 4444 CLUBS 8 HEARTS A TWO_PAIR 
/showdown 

------------



------------


pot-win/ 
4444: 800 
/pot-win 

------------


seat/ 
button: 3333 1600 8000 
small blind: 7777 2800 6000 
big blind: 6666 2000 6000 
1111 3600 8000 
2222 3600 8000 
8888 3600 8000 
5555 1200 8000 
4444 1600 8000 
/seat 

------------


blind/ 
7777: 50 
6666: 100 
/blind 

------------


hold/ 
CLUBS 4 
HEARTS 6 
/hold 

------------



------------


inquire/ 
2222 3500 8000 100 call 
1111 3500 8000 100 call 
6666 1900 6000 100 blind 
7777 2750 6000 50 blind 
total pot: 350 
/inquire 

------------



------------


flop/ 
SPADES A 
SPADES 7 
DIAMONDS 10 
/flop 

------------



------------


inquire/ 
2222 3500 8000 100 check 
1111 3500 8000 100 check 
6666 1900 6000 100 check 
7777 2700 6000 100 check 
3333 1500 8000 100 call 
4444 1500 8000 100 call 
5555 1100 8000 100 call 
8888 3500 8000 100 call 
total pot: 800 
/inquire 

------------



------------


turn/ 
HEARTS 8 
/turn 

------------



------------


inquire/ 
2222 3500 8000 100 check 
1111 3500 8000 100 check 
6666 1900 6000 100 check 
7777 2700 6000 100 check 
3333 1500 8000 100 check 
4444 1500 8000 100 check 
5555 1100 8000 100 check 
8888 3500 8000 100 check 
total pot: 800 
/inquire 

------------



------------


river/ 
HEARTS 2 
/river 

------------



------------


inquire/ 
2222 3500 8000 100 check 
1111 3500 8000 100 check 
6666 1900 6000 100 check 
7777 2700 6000 100 check 
3333 1500 8000 100 check 
4444 1500 8000 100 check 
5555 1100 8000 100 check 
8888 3500 8000 100 check 
total pot: 800 
/inquire 

------------



------------


showdown/ 
common/ 
SPADES A 
SPADES 7 
DIAMONDS 10 
HEARTS 8 
HEARTS 2 
/common 
3: 7777 DIAMONDS K CLUBS 5 HIGH_CARD 
6: 6666 SPADES 3 DIAMONDS 4 HIGH_CARD 
4: 1111 DIAMONDS 3 DIAMONDS 6 HIGH_CARD 
2: 2222 CLUBS 3 DIAMONDS 7 ONE_PAIR 
4: 8888 CLUBS 4 HEARTS 6 HIGH_CARD 
5: 5555 DIAMONDS 5 SPADES 4 HIGH_CARD 
4: 4444 CLUBS 6 HEARTS 4 HIGH_CARD 
1: 3333 CLUBS 8 HEARTS A TWO_PAIR 
/showdown 

------------



------------


pot-win/ 
3333: 800 
/pot-win 

------------


seat/ 
button: 7777 2700 6000 
small blind: 6666 1900 6000 
big blind: 1111 3500 8000 
2222 3500 8000 
8888 3500 8000 
5555 1100 8000 
4444 1500 8000 
3333 2300 8000 
/seat 

------------


blind/ 
6666: 50 
1111: 100 
/blind 

------------


hold/ 
CLUBS 3 
DIAMONDS 7 
/hold 

------------


inquire/ 
2222 3400 8000 100 call 
1111 3400 8000 100 blind 
6666 1850 6000 50 blind 
total pot: 250 
/inquire 

------------



------------


flop/ 
SPADES A 
SPADES 7 
DIAMONDS 10 
/flop 

------------



------------


inquire/ 
2222 3400 8000 100 check 
1111 3400 8000 100 check 
6666 1800 6000 100 check 
7777 2600 6000 100 call 
3333 2200 8000 100 call 
4444 1400 8000 100 call 
5555 1000 8000 100 call 
8888 3400 8000 100 call 
total pot: 800 
/inquire 

------------



------------


turn/ 
HEARTS 8 
/turn 

------------



------------


inquire/ 
2222 3400 8000 100 check 
1111 3400 8000 100 check 
6666 1800 6000 100 check 
7777 2600 6000 100 check 
3333 2200 8000 100 check 
4444 1400 8000 100 check 
5555 1000 8000 100 check 
8888 3400 8000 100 check 
total pot: 800 
/inquire 

------------



------------


river/ 
HEARTS 2 
/river 

------------



------------


inquire/ 
2222 3400 8000 100 check 
1111 3400 8000 100 check 
6666 1800 6000 100 check 
7777 2600 6000 100 check 
3333 2200 8000 100 check 
4444 1400 8000 100 check 
5555 1000 8000 100 check 
8888 3400 8000 100 check 
total pot: 800 
/inquire 

------------



------------


showdown/ 
common/ 
SPADES A 
SPADES 7 
DIAMONDS 10 
HEARTS 8 
HEARTS 2 
/common 
3: 6666 DIAMONDS K CLUBS 5 HIGH_CARD 
6: 1111 SPADES 3 DIAMONDS 4 HIGH_CARD 
4: 2222 DIAMONDS 3 DIAMONDS 6 HIGH_CARD 
2: 8888 CLUBS 3 DIAMONDS 7 ONE_PAIR 
4: 5555 CLUBS 4 HEARTS 6 HIGH_CARD 
5: 4444 DIAMONDS 5 SPADES 4 HIGH_CARD 
4: 3333 CLUBS 6 HEARTS 4 HIGH_CARD 
1: 7777 CLUBS 8 HEARTS A TWO_PAIR 
/showdown 

------------



------------


pot-win/ 
7777: 800 
/pot-win 

------------


seat/ 
button: 6666 1800 6000 
small blind: 1111 3400 8000 
big blind: 2222 3400 8000 
8888 3400 8000 
5555 1000 8000 
4444 1400 8000 
3333 2200 8000 
7777 3400 6000 
/seat 

------------


blind/ 
1111: 50 
2222: 100 
/blind 

------------


hold/ 
DIAMONDS 3 
DIAMONDS 6 
/hold 

------------


inquire/ 
2222 3300 8000 100 blind 
1111 3350 8000 50 blind 
total pot: 150 
/inquire 

------------



------------


flop/ 
SPADES A 
SPADES 7 
DIAMONDS 10 
/flop 

------------



------------


inquire/ 
2222 3300 8000 100 check 
1111 3300 8000 100 check 
6666 1700 6000 100 call 
7777 3300 6000 100 call 
3333 2100 8000 100 call 
4444 1300 8000 100 call 
5555 900 8000 100 call 
8888 3300 8000 100 call 
total pot: 800 
/inquire 

------------



------------


turn/ 
HEARTS 8 
/turn 

------------



------------


inquire/ 
2222 3300 8000 100 check 
1111 3300 8000 100 check 
6666 1700 6000 100 check 
7777 3300 6000 100 check 
3333 2100 8000 100 check 
4444 1300 8000 100 check 
5555 900 8000 100 check 
8888 3300 8000 100 check 
total pot: 800 
/inquire 

------------



------------


river/ 
HEARTS 2 
/river 

------------



------------


inquire/ 
2222 3300 8000 100 check 
1111 3300 8000 100 check 
6666 1700 6000 100 check 
7777 3300 6000 100 check 
3333 2100 8000 100 check 
4444 1300 8000 100 check 
5555 900 8000 100 check 
8888 3300 8000 100 check 
total pot: 800 
/inquire 

------------



------------


showdown/ 
common/ 
SPADES A 
SPADES 7 
DIAMONDS 10 
HEARTS 8 
HEARTS 2 
/common 
3: 1111 DIAMONDS K CLUBS 5 HIGH_CARD 
6: 2222 SPADES 3 DIAMONDS 4 HIGH_CARD 
4: 8888 DIAMONDS 3 DIAMONDS 6 HIGH_CARD 
2: 5555 CLUBS 3 DIAMONDS 7 ONE_PAIR 
4: 4444 CLUBS 4 HEARTS 6 HIGH_CARD 
5: 3333 DIAMONDS 5 SPADES 4 HIGH_CARD 
4: 7777 CLUBS 6 HEARTS 4 HIGH_CARD 
1: 6666 CLUBS 8 HEARTS A TWO_PAIR 
/showdown 

------------



------------


pot-win/ 
6666: 800 
/pot-win 

------------


seat/ 
button: 1111 3300 8000 
small blind: 2222 3300 8000 
big blind: 8888 3300 8000 
5555 900 8000 
4444 1300 8000 
3333 2100 8000 
7777 3300 6000 
6666 2500 6000 
/seat 

------------


blind/ 
2222: 50 
8888: 100 
/blind 

------------


hold/ 
SPADES 3 
DIAMONDS 4 
/hold 

------------



------------


inquire/ 
2222 3200 8000 100 call 
1111 3200 8000 100 call 
6666 2400 6000 100 call 
7777 3200 6000 100 call 
3333 2000 8000 100 call 
4444 1200 8000 100 call 
5555 800 8000 100 call 
8888 3200 8000 100 blind 
total pot: 800 
/inquire 

------------



------------


flop/ 
SPADES A 
SPADES 7 
DIAMONDS 10 
/flop 

------------



------------


inquire/ 
2222 3200 8000 100 check 
1111 3200 8000 100 call 
6666 2400 6000 100 call 
7777 3200 6000 100 call 
3333 2000 8000 100 call 
4444 1200 8000 100 call 
5555 800 8000 100 call 
8888 3200 8000 100 check 
total pot: 800 
/inquire 

------------



------------


turn/ 
HEARTS 8 
/turn 

------------



------------


inquire/ 
2222 3200 8000 100 check 
1111 3200 8000 100 check 
6666 2400 6000 100 check 
7777 3200 6000 100 check 
3333 2000 8000 100 check 
4444 1200 8000 100 check 
5555 800 8000 100 check 
8888 3200 8000 100 check 
total pot: 800 
/inquire 

------------



------------


river/ 
HEARTS 2 
/river 

------------



------------


inquire/ 
2222 3200 8000 100 check 
1111 3200 8000 100 check 
6666 2400 6000 100 check 
7777 3200 6000 100 check 
3333 2000 8000 100 check 
4444 1200 8000 100 check 
5555 800 8000 100 check 
8888 3200 8000 100 check 
total pot: 800 
/inquire 

------------



------------


showdown/ 
common/ 
SPADES A 
SPADES 7 
DIAMONDS 10 
HEARTS 8 
HEARTS 2 
/common 
3: 2222 DIAMONDS K CLUBS 5 HIGH_CARD 
6: 8888 SPADES 3 DIAMONDS 4 HIGH_CARD 
4: 5555 DIAMONDS 3 DIAMONDS 6 HIGH_CARD 
2: 4444 CLUBS 3 DIAMONDS 7 ONE_PAIR 
4: 3333 CLUBS 4 HEARTS 6 HIGH_CARD 
5: 7777 DIAMONDS 5 SPADES 4 HIGH_CARD 
4: 6666 CLUBS 6 HEARTS 4 HIGH_CARD 
1: 1111 CLUBS 8 HEARTS A TWO_PAIR 
/showdown 

------------



------------


pot-win/ 
1111: 800 
/pot-win 

------------


seat/ 
button: 2222 3200 8000 
small blind: 8888 3200 8000 
big blind: 5555 800 8000 
4444 1200 8000 
3333 2000 8000 
7777 3200 6000 
6666 2400 6000 
1111 4000 8000 
/seat 

------------


blind/ 
8888: 50 
5555: 100 
/blind 

------------


hold/ 
DIAMONDS 7 
CLUBS 5 
/hold 

------------



------------


inquire/ 
2222 3100 8000 100 call 
1111 3900 8000 100 call 
6666 2300 6000 100 call 
7777 3100 6000 100 call 
3333 1900 8000 100 call 
4444 1100 8000 100 call 
5555 700 8000 100 blind 
8888 3150 8000 50 blind 
total pot: 750 
/inquire 

------------



------------


flop/ 
HEARTS J 
DIAMONDS 4 
HEARTS 10 
/flop 

------------



------------


inquire/ 
2222 3100 8000 100 call 
1111 3900 8000 100 call 
6666 2300 6000 100 call 
7777 3100 6000 100 call 
3333 1900 8000 100 call 
4444 1100 8000 100 call 
5555 700 8000 100 check 
8888 3100 8000 100 call 
total pot: 800 
/inquire 

------------



------------


turn/ 
CLUBS J 
/turn 

------------



------------


inquire/ 
2222 3100 8000 100 check 
1111 3900 8000 100 check 
6666 2300 6000 100 check 
7777 3100 6000 100 check 
3333 1900 8000 100 check 
4444 1100 8000 100 check 
5555 700 8000 100 check 
8888 3100 8000 100 check 
total pot: 800 
/inquire 

------------



------------


river/ 
HEARTS 3 
/river 

------------



------------


inquire/ 
2222 3100 8000 100 check 
1111 3900 8000 100 check 
6666 2300 6000 100 check 
7777 3100 6000 100 check 
3333 1900 8000 100 check 
4444 1100 8000 100 check 
5555 700 8000 100 check 
8888 3100 8000 100 check 
total pot: 800 
/inquire 

------------



------------


showdown/ 
common/ 
HEARTS J 
DIAMONDS 4 
HEARTS 10 
CLUBS J 
HEARTS 3 
/common 
8: 8888 DIAMONDS 7 CLUBS 5 ONE_PAIR 
1: 5555 HEARTS 7 HEARTS 5 FLUSH 
4: 4444 SPADES 3 CLUBS 6 TWO_PAIR 
7: 3333 SPADES Q HEARTS 2 ONE_PAIR 
2: 7777 HEARTS A SPADES 4 TWO_PAIR 
5: 6666 CLUBS 9 HEARTS K ONE_PAIR 
6: 1111 HEARTS Q CLUBS 7 ONE_PAIR 
3: 2222 SPADES 8 HEARTS 4 TWO_PAIR 
/showdown 

------------



------------


pot-win/ 
5555: 800 
/pot-win 

------------


seat/ 
button: 8888 3100 8000 
small blind: 5555 1500 8000 
big blind: 4444 1100 8000 
3333 1900 8000 
7777 3100 6000 
6666 2300 6000 
1111 3900 8000 
2222 3100 8000 
/seat 

------------


blind/ 
5555: 50 
4444: 100 
/blind 

------------


hold/ 
SPADES 8 
HEARTS 4 
/hold 

------------



------------


inquire/ 
2222 3000 8000 100 call 
1111 3800 8000 100 call 
6666 2200 6000 100 call 
7777 3000 6000 100 call 
3333 1800 8000 100 call 
4444 1000 8000 100 blind 
5555 1450 8000 50 blind 
total pot: 650 
/inquire 

------------



------------


flop/ 
HEARTS J 
DIAMONDS 4 
HEARTS 10 
/flop 

------------



------------


inquire/ 
2222 3000 8000 100 check 
1111 3800 8000 100 check 
6666 2200 6000 100 check 
7777 3000 6000 100 check 
3333 1800 8000 100 check 
4444 1000 8000 100 check 
5555 1400 8000 100 check 
8888 3000 8000 100 call 
total pot: 800 
/inquire 

------------



------------


turn/ 
CLUBS J 
/turn 

------------



------------


inquire/ 
2222 3000 8000 100 check 
1111 3800 8000 100 check 
6666 2200 6000 100 check 
7777 3000 6000 100 check 
3333 1800 8000 100 check 
4444 1000 8000 100 check 
5555 1400 8000 100 check 
8888 3000 8000 100 check 
total pot: 800 
/inquire 

------------



------------


river/ 
HEARTS 3 
/river 

------------



------------


inquire/ 
2222 3000 8000 100 check 
1111 3800 8000 100 check 
6666 2200 6000 100 check 
7777 3000 6000 100 check 
3333 1800 8000 100 check 
4444 1000 8000 100 check 
5555 1400 8000 100 check 
8888 3000 8000 100 check 
total pot: 800 
/inquire 

------------



------------


showdown/ 
common/ 
HEARTS J 
DIAMONDS 4 
HEARTS 10 
CLUBS J 
HEARTS 3 
/common 
8: 5555 DIAMONDS 7 CLUBS 5 ONE_PAIR 
1: 4444 HEARTS 7 HEARTS 5 FLUSH 
4: 3333 SPADES 3 CLUBS 6 TWO_PAIR 
7: 7777 SPADES Q HEARTS 2 ONE_PAIR 
2: 6666 HEARTS A SPADES 4 TWO_PAIR 
5: 1111 CLUBS 9 HEARTS K ONE_PAIR 
6: 2222 HEARTS Q CLUBS 7 ONE_PAIR 
3: 8888 SPADES 8 HEARTS 4 TWO_PAIR 
/showdown 

------------



------------


pot-win/ 
4444: 800 
/pot-win 

------------


seat/ 
button: 5555 1400 8000 
small blind: 4444 1800 8000 
big blind: 3333 1800 8000 
7777 3000 6000 
6666 2200 6000 
1111 3800 8000 
2222 3000 8000 
8888 3000 8000 
/seat 

------------


blind/ 
4444: 50 
3333: 100 
/blind 

------------


hold/ 
HEARTS Q 
CLUBS 7 
/hold 

------------



------------


inquire/ 
2222 2900 8000 100 call 
1111 3700 8000 100 call 
6666 2100 6000 100 call 
7777 2900 6000 100 call 
3333 1700 8000 100 blind 
4444 1750 8000 50 blind 
total pot: 550 
/inquire 

------------



------------


flop/ 
HEARTS J 
DIAMONDS 4 
HEARTS 10 
/flop 

------------



------------


inquire/ 
2222 2900 8000 100 check 
1111 3700 8000 100 check 
6666 2100 6000 100 check 
7777 2900 6000 100 check 
3333 1700 8000 100 check 
4444 1700 8000 100 check 
5555 1300 8000 100 call 
8888 2900 8000 100 call 
total pot: 800 
/inquire 

------------



------------


turn/ 
CLUBS J 
/turn 

------------



------------


inquire/ 
2222 2900 8000 100 check 
1111 3700 8000 100 check 
6666 2100 6000 100 check 
7777 2900 6000 100 check 
3333 1700 8000 100 check 
4444 1700 8000 100 check 
5555 1300 8000 100 check 
8888 2900 8000 100 check 
total pot: 800 
/inquire 

------------



------------


river/ 
HEARTS 3 
/river 

------------



------------


inquire/ 
2222 2900 8000 100 check 
1111 3700 8000 100 check 
6666 2100 6000 100 check 
7777 2900 6000 100 check 
3333 1700 8000 100 check 
4444 1700 8000 100 check 
5555 1300 8000 100 check 
8888 2900 8000 100 check 
total pot: 800 
/inquire 

------------



------------


showdown/ 
common/ 
HEARTS J 
DIAMONDS 4 
HEARTS 10 
CLUBS J 
HEARTS 3 
/common 
8: 4444 DIAMONDS 7 CLUBS 5 ONE_PAIR 
1: 3333 HEARTS 7 HEARTS 5 FLUSH 
4: 7777 SPADES 3 CLUBS 6 TWO_PAIR 
7: 6666 SPADES Q HEARTS 2 ONE_PAIR 
2: 1111 HEARTS A SPADES 4 TWO_PAIR 
5: 2222 CLUBS 9 HEARTS K ONE_PAIR 
6: 8888 HEARTS Q CLUBS 7 ONE_PAIR 
3: 5555 SPADES 8 HEARTS 4 TWO_PAIR 
/showdown 

------------



------------


pot-win/ 
3333: 800 
/pot-win 

------------


seat/ 
button: 4444 1700 8000 
small blind: 3333 2500 8000 
big blind: 7777 2900 6000 
6666 2100 6000 
1111 3700 8000 
2222 2900 8000 
8888 2900 8000 
5555 1300 8000 
/seat 

------------


blind/ 
3333: 50 
7777: 100 
/blind 

------------


hold/ 
CLUBS 9 
HEARTS K 
/hold 

------------



------------


inquire/ 
2222 2800 8000 100 call 
1111 3600 8000 100 call 
6666 2000 6000 100 call 
7777 2800 6000 100 blind 
3333 2450 8000 50 blind 
total pot: 450 
/inquire 

------------



------------


flop/ 
HEARTS J 
DIAMONDS 4 
HEARTS 10 
/flop 

------------



------------


inquire/ 
2222 2800 8000 100 check 
1111 3600 8000 100 check 
6666 2000 6000 100 check 
7777 2800 6000 100 check 
3333 2400 8000 100 check 
4444 1600 8000 100 call 
5555 1200 8000 100 call 
8888 2800 8000 100 call 
total pot: 800 
/inquire 

------------



------------


turn/ 
CLUBS J 
/turn 

------------



------------


inquire/ 
2222 2800 8000 100 check 
1111 3600 8000 100 check 
6666 2000 6000 100 check 
7777 2800 6000 100 check 
3333 2400 8000 100 check 
4444 1600 8000 100 check 
5555 1200 8000 100 check 
8888 2800 8000 100 check 
total pot: 800 
/inquire 

------------



------------


river/ 
HEARTS 3 
/river 

------------



------------


inquire/ 
2222 2800 8000 100 check 
1111 3600 8000 100 check 
6666 2000 6000 100 check 
7777 2800 6000 100 check 
3333 2400 8000 100 check 
4444 1600 8000 100 check 
5555 1200 8000 100 check 
8888 2800 8000 100 check 
total pot: 800 
/inquire 

------------



------------


showdown/ 
common/ 
HEARTS J 
DIAMONDS 4 
HEARTS 10 
CLUBS J 
HEARTS 3 
/common 
8: 3333 DIAMONDS 7 CLUBS 5 ONE_PAIR 
1: 7777 HEARTS 7 HEARTS 5 FLUSH 
4: 6666 SPADES 3 CLUBS 6 TWO_PAIR 
7: 1111 SPADES Q HEARTS 2 ONE_PAIR 
2: 2222 HEARTS A SPADES 4 TWO_PAIR 
5: 8888 CLUBS 9 HEARTS K ONE_PAIR 
6: 5555 HEARTS Q CLUBS 7 ONE_PAIR 
3: 4444 SPADES 8 HEARTS 4 TWO_PAIR 
/showdown 

------------



------------


pot-win/ 
7777: 800 
/pot-win 

------------


seat/ 
button: 3333 2400 8000 
small blind: 7777 3600 6000 
big blind: 6666 2000 6000 
1111 3600 8000 
2222 2800 8000 
8888 2800 8000 
5555 1200 8000 
4444 1600 8000 
/seat 

------------


blind/ 
7777: 50 
6666: 100 
/blind 

------------


hold/ 
HEARTS A 
SPADES 4 
/hold 

------------



------------


inquire/ 
2222 2700 8000 100 call 
1111 3500 8000 100 call 
6666 1900 6000 100 blind 
7777 3550 6000 50 blind 
total pot: 350 
/inquire 

------------



------------


flop/ 
HEARTS J 
DIAMONDS 4 
HEARTS 10 
/flop 

------------



------------


inquire/ 
2222 2700 8000 100 check 
1111 3500 8000 100 check 
6666 1900 6000 100 check 
7777 3500 6000 100 check 
3333 2300 8000 100 call 
4444 1500 8000 100 call 
5555 1100 8000 100 call 
8888 2700 8000 100 call 
total pot: 800 
/inquire 

------------



------------


turn/ 
CLUBS J 
/turn 

------------



------------


inquire/ 
2222 2700 8000 100 check 
1111 3500 8000 100 check 
6666 1900 6000 100 check 
7777 3500 6000 100 check 
3333 2300 8000 100 check 
4444 1500 8000 100 check 
5555 1100 8000 100 check 
8888 2700 8000 100 check 
total pot: 800 
/inquire 

------------



------------


river/ 
HEARTS 3 
/river 

------------



------------


inquire/ 
2222 2700 8000 100 check 
1111 3500 8000 100 check 
6666 1900 6000 100 check 
7777 3500 6000 100 check 
3333 2300 8000 100 check 
4444 1500 8000 100 check 
5555 1100 8000 100 check 
8888 2700 8000 100 check 
total pot: 800 
/inquire 

------------



------------


showdown/ 
common/ 
HEARTS J 
DIAMONDS 4 
HEARTS 10 
CLUBS J 
HEARTS 3 
/common 
8: 7777 DIAMONDS 7 CLUBS 5 ONE_PAIR 
1: 6666 HEARTS 7 HEARTS 5 FLUSH 
4: 1111 SPADES 3 CLUBS 6 TWO_PAIR 
7: 2222 SPADES Q HEARTS 2 ONE_PAIR 
2: 8888 HEARTS A SPADES 4 TWO_PAIR 
5: 5555 CLUBS 9 HEARTS K ONE_PAIR 
6: 4444 HEARTS Q CLUBS 7 ONE_PAIR 
3: 3333 SPADES 8 HEARTS 4 TWO_PAIR 
/showdown 

------------



------------


pot-win/ 
6666: 800 
/pot-win 

------------


seat/ 
button: 7777 3500 6000 
small blind: 6666 2700 6000 
big blind: 1111 3500 8000 
2222 2700 8000 
8888 2700 8000 
5555 1100 8000 
4444 1500 8000 
3333 2300 8000 
/seat 

------------


blind/ 
6666: 50 
1111: 100 
/blind 

------------


hold/ 
SPADES Q 
HEARTS 2 
/hold 

------------



------------


inquire/ 
2222 2600 8000 100 call 
1111 3400 8000 100 blind 
6666 2650 6000 50 blind 
total pot: 250 
/inquire 

------------



------------


flop/ 
HEARTS J 
DIAMONDS 4 
HEARTS 10 
/flop 

------------



------------


inquire/ 
2222 2600 8000 100 check 
1111 3400 8000 100 check 
6666 2600 6000 100 check 
7777 3400 6000 100 call 
3333 2200 8000 100 call 
4444 1400 8000 100 call 
5555 1000 8000 100 call 
8888 2600 8000 100 call 
total pot: 800 
/inquire 

------------



------------


turn/ 
CLUBS J 
/turn 

------------



------------


inquire/ 
2222 2600 8000 100 check 
1111 3400 8000 100 check 
6666 2600 6000 100 check 
7777 3400 6000 100 check 
3333 2200 8000 100 check 
4444 1400 8000 100 check 
5555 1000 8000 100 check 
8888 2600 8000 100 check 
total pot: 800 
/inquire 

------------



------------


river/ 
HEARTS 3 
/river 

------------



------------


inquire/ 
2222 2600 8000 100 check 
1111 3400 8000 100 check 
6666 2600 6000 100 check 
7777 3400 6000 100 check 
3333 2200 8000 100 check 
4444 1400 8000 100 check 
5555 1000 8000 100 check 
8888 2600 8000 100 check 
total pot: 800 
/inquire 

------------



------------


showdown/ 
common/ 
HEARTS J 
DIAMONDS 4 
HEARTS 10 
CLUBS J 
HEARTS 3 
/common 
8: 6666 DIAMONDS 7 CLUBS 5 ONE_PAIR 
1: 1111 HEARTS 7 HEARTS 5 FLUSH 
4: 2222 SPADES 3 CLUBS 6 TWO_PAIR 
7: 8888 SPADES Q HEARTS 2 ONE_PAIR 
2: 5555 HEARTS A SPADES 4 TWO_PAIR 
5: 4444 CLUBS 9 HEARTS K ONE_PAIR 
6: 3333 HEARTS Q CLUBS 7 ONE_PAIR 
3: 7777 SPADES 8 HEARTS 4 TWO_PAIR 
/showdown 

------------



------------


pot-win/ 
1111: 800 
/pot-win 

------------


seat/ 
button: 6666 2600 6000 
small blind: 1111 4200 8000 
big blind: 2222 2600 8000 
8888 2600 8000 
5555 1000 8000 
4444 1400 8000 
3333 2200 8000 
7777 3400 6000 
/seat 

------------


blind/ 
1111: 50 
2222: 100 
/blind 

------------


hold/ 
HEARTS 7 
DIAMONDS 7 
/hold 

------------


inquire/ 
2222 2500 8000 100 blind 
1111 4150 8000 50 blind 
total pot: 150 
/inquire 

------------



------------


flop/ 
CLUBS Q 
DIAMONDS 2 
CLUBS 10 
/flop 

------------



------------


inquire/ 
2222 2500 8000 100 check 
1111 4100 8000 100 check 
6666 2500 6000 100 call 
7777 3300 6000 100 call 
3333 2100 8000 100 call 
4444 1300 8000 100 call 
5555 900 8000 100 call 
8888 2500 8000 100 call 
total pot: 800 
/inquire 

------------



------------


turn/ 
HEARTS 2 
/turn 

------------



------------


inquire/ 
2222 2500 8000 100 check 
1111 4100 8000 100 check 
6666 2500 6000 100 check 
7777 3300 6000 100 check 
3333 2100 8000 100 check 
4444 1300 8000 100 check 
5555 900 8000 100 check 
8888 2500 8000 100 check 
total pot: 800 
/inquire 

------------



------------


river/ 
SPADES 8 
/river 

------------



------------


inquire/ 
2222 2500 8000 100 check 
1111 4100 8000 100 check 
6666 2500 6000 100 check 
7777 3300 6000 100 check 
3333 2100 8000 100 check 
4444 1300 8000 100 check 
5555 900 8000 100 check 
8888 2500 8000 100 check 
total pot: 800 
/inquire 

------------



------------


showdown/ 
common/ 
CLUBS Q 
DIAMONDS 2 
CLUBS 10 
HEARTS 2 
SPADES 8 
/common 
2: 1111 HEARTS 3 HEARTS Q TWO_PAIR 
7: 2222 SPADES J DIAMONDS 5 ONE_PAIR 
5: 8888 HEARTS 7 DIAMONDS 7 TWO_PAIR 
6: 5555 DIAMONDS 6 HEARTS K ONE_PAIR 
1: 4444 CLUBS 2 DIAMONDS Q FULL_HOUSE 
3: 3333 HEARTS 10 HEARTS J TWO_PAIR 
4: 7777 HEARTS 8 HEARTS 9 TWO_PAIR 
8: 6666 DIAMONDS 9 SPADES 6 ONE_PAIR 
/showdown 

------------



------------


pot-win/ 
4444: 800 
/pot-win 

------------


seat/ 
button: 1111 4100 8000 
small blind: 2222 2500 8000 
big blind: 8888 2500 8000 
5555 900 8000 
4444 2100 8000 
3333 2100 8000 
7777 3300 6000 
6666 2500 6000 
/seat 

------------


blind/ 
2222: 50 
8888: 100 
/blind 

------------


hold/ 
SPADES J 
DIAMONDS 5 
/hold 

------------



------------


inquire/ 
2222 2400 8000 100 call 
1111 4000 8000 100 call 
6666 2400 6000 100 call 
7777 3200 6000 100 call 
3333 2000 8000 100 call 
4444 2000 8000 100 call 
5555 800 8000 100 call 
8888 2400 8000 100 blind 
total pot: 800 
/inquire 

------------



------------


flop/ 
CLUBS Q 
DIAMONDS 2 
CLUBS 10 
/flop 

------------



------------


inquire/ 
2222 2400 8000 100 check 
1111 4000 8000 100 call 
6666 2400 6000 100 call 
7777 3200 6000 100 call 
3333 2000 8000 100 call 
4444 2000 8000 100 call 
5555 800 8000 100 call 
8888 2400 8000 100 check 
total pot: 800 
/inquire 

------------



------------


turn/ 
HEARTS 2 
/turn 

------------



------------


inquire/ 
2222 2400 8000 100 check 
1111 4000 8000 100 check 
6666 2400 6000 100 check 
7777 3200 6000 100 check 
3333 2000 8000 100 check 
4444 2000 8000 100 check 
5555 800 8000 100 check 
8888 2400 8000 100 check 
total pot: 800 
/inquire 

------------



------------


river/ 
SPADES 8 
/river 

------------



------------


inquire/ 
2222 2400 8000 100 check 
1111 4000 8000 100 check 
6666 2400 6000 100 check 
7777 3200 6000 100 check 
3333 2000 8000 100 check 
4444 2000 8000 100 check 
5555 800 8000 100 check 
8888 2400 8000 100 check 
total pot: 800 
/inquire 

------------



------------


showdown/ 
common/ 
CLUBS Q 
DIAMONDS 2 
CLUBS 10 
HEARTS 2 
SPADES 8 
/common 
2: 2222 HEARTS 3 HEARTS Q TWO_PAIR 
7: 8888 SPADES J DIAMONDS 5 ONE_PAIR 
5: 5555 HEARTS 7 DIAMONDS 7 TWO_PAIR 
6: 4444 DIAMONDS 6 HEARTS K ONE_PAIR 
1: 3333 CLUBS 2 DIAMONDS Q FULL_HOUSE 
3: 7777 HEARTS 10 HEARTS J TWO_PAIR 
4: 6666 HEARTS 8 HEARTS 9 TWO_PAIR 
8: 1111 DIAMONDS 9 SPADES 6 ONE_PAIR 
/showdown 

------------



------------


pot-win/ 
3333: 800 
/pot-win 

------------


seat/ 
button: 2222 2400 8000 
small blind: 8888 2400 8000 
big blind: 5555 800 8000 
4444 2000 8000 
3333 2800 8000 
7777 3200 6000 
6666 2400 6000 
1111 4000 8000 
/seat 

------------


blind/ 
8888: 50 
5555: 100 
/blind 

------------


hold/ 
HEARTS 3 
HEARTS Q 
/hold 

------------



------------


inquire/ 
2222 2300 8000 100 call 
1111 3900 8000 100 call 
6666 2300 6000 100 call 
7777 3100 6000 100 call 
3333 2700 8000 100 call 
4444 1900 8000 100 call 
5555 700 8000 100 blind 
8888 2350 8000 50 blind 
total pot: 750 
/inquire 

------------



------------


flop/ 
CLUBS Q 
DIAMONDS 2 
CLUBS 10 
/flop 

------------



------------


inquire/ 
2222 2300 8000 100 call 
1111 3900 8000 100 call 
6666 2300 6000 100 call 
7777 3100 6000 100 call 
3333 2700 8000 100 call 
4444 1900 8000 100 call 
5555 700 8000 100 check 
8888 2300 8000 100 call 
total pot: 800 
/inquire 

------------



------------


turn/ 
HEARTS 2 
/turn 

------------



------------


inquire/ 
2222 2300 8000 100 check 
1111 3900 8000 100 check 
6666 2300 6000 100 check 
7777 3100 6000 100 check 
3333 2700 8000 100 check 
4444 1900 8000 100 check 
5555 700 8000 100 check 
8888 2300 8000 100 check 
total pot: 800 
/inquire 

------------



------------


river/ 
SPADES 8 
/river 

------------



------------


inquire/ 
2222 2300 8000 100 check 
1111 3900 8000 100 check 
6666 2300 6000 100 check 
7777 3100 6000 100 check 
3333 2700 8000 100 check 
4444 1900 8000 100 check 
5555 700 8000 100 check 
8888 2300 8000 100 check 
total pot: 800 
/inquire 

------------



------------


showdown/ 
common/ 
CLUBS Q 
DIAMONDS 2 
CLUBS 10 
HEARTS 2 
SPADES 8 
/common 
2: 8888 HEARTS 3 HEARTS Q TWO_PAIR 
7: 5555 SPADES J DIAMONDS 5 ONE_PAIR 
5: 4444 HEARTS 7 DIAMONDS 7 TWO_PAIR 
6: 3333 DIAMONDS 6 HEARTS K ONE_PAIR 
1: 7777 CLUBS 2 DIAMONDS Q FULL_HOUSE 
3: 6666 HEARTS 10 HEARTS J TWO_PAIR 
4: 1111 HEARTS 8 HEARTS 9 TWO_PAIR 
8: 2222 DIAMONDS 9 SPADES 6 ONE_PAIR 
/showdown 

------------



------------


pot-win/ 
7777: 800 
/pot-win 

------------


seat/ 
button: 8888 2300 8000 
small blind: 5555 700 8000 
big blind: 4444 1900 8000 
3333 2700 8000 
7777 3900 6000 
6666 2300 6000 
1111 3900 8000 
2222 2300 8000 
/seat 

------------


blind/ 
5555: 50 
4444: 100 
/blind 

------------


hold/ 
DIAMONDS 9 
SPADES 6 
/hold 

------------



------------


inquire/ 
2222 2200 8000 100 call 
1111 3800 8000 100 call 
6666 2200 6000 100 call 
7777 3800 6000 100 call 
3333 2600 8000 100 call 
4444 1800 8000 100 blind 
5555 650 8000 50 blind 
total pot: 650 
/inquire 

------------



------------


flop/ 
CLUBS Q 
DIAMONDS 2 
CLUBS 10 
/flop 

------------



------------


inquire/ 
2222 2200 8000 100 check 
1111 3800 8000 100 check 
6666 2200 6000 100 check 
7777 3800 6000 100 check 
3333 2600 8000 100 check 
4444 1800 8000 100 check 
5555 600 8000 100 check 
8888 2200 8000 100 call 
total pot: 800 
/inquire 

------------



------------


turn/ 
HEARTS 2 
/turn 

------------



------------


inquire/ 
2222 2200 8000 100 check 
1111 3800 8000 100 check 
6666 2200 6000 100 check 
7777 3800 6000 100 check 
3333 2600 8000 100 check 
4444 1800 8000 100 check 
5555 600 8000 100 check 
8888 2200 8000 100 check 
total pot: 800 
/inquire 

------------



------------


river/ 
SPADES 8 
/river 

------------



------------


inquire/ 
2222 2200 8000 100 check 
1111 3800 8000 100 check 
6666 2200 6000 100 check 
7777 3800 6000 100 check 
3333 2600 8000 100 check 
4444 1800 8000 100 check 
5555 600 8000 100 check 
8888 2200 8000 100 check 
total pot: 800 
/inquire 

------------



------------


showdown/ 
common/ 
CLUBS Q 
DIAMONDS 2 
CLUBS 10 
HEARTS 2 
SPADES 8 
/common 
2: 5555 HEARTS 3 HEARTS Q TWO_PAIR 
7: 4444 SPADES J DIAMONDS 5 ONE_PAIR 
5: 3333 HEARTS 7 DIAMONDS 7 TWO_PAIR 
6: 7777 DIAMONDS 6 HEARTS K ONE_PAIR 
1: 6666 CLUBS 2 DIAMONDS Q FULL_HOUSE 
3: 1111 HEARTS 10 HEARTS J TWO_PAIR 
4: 2222 HEARTS 8 HEARTS 9 TWO_PAIR 
8: 8888 DIAMONDS 9 SPADES 6 ONE_PAIR 
/showdown 

------------



------------


pot-win/ 
6666: 800 
/pot-win 

------------


seat/ 
button: 5555 600 8000 
small blind: 4444 1800 8000 
big blind: 3333 2600 8000 
7777 3800 6000 
6666 3000 6000 
1111 3800 8000 
2222 2200 8000 
8888 2200 8000 
/seat 

------------


blind/ 
4444: 50 
3333: 100 
/blind 

------------


hold/ 
HEARTS 8 
HEARTS 9 
/hold 

------------



------------


inquire/ 
2222 2100 8000 100 call 
1111 3700 8000 100 call 
6666 2900 6000 100 call 
7777 3700 6000 100 call 
3333 2500 8000 100 blind 
4444 1750 8000 50 blind 
total pot: 550 
/inquire 

------------



------------


flop/ 
CLUBS Q 
DIAMONDS 2 
CLUBS 10 
/flop 

------------



------------


inquire/ 
2222 2100 8000 100 check 
1111 3700 8000 100 check 
6666 2900 6000 100 check 
7777 3700 6000 100 check 
3333 2500 8000 100 check 
4444 1700 8000 100 check 
5555 500 8000 100 call 
8888 2100 8000 100 call 
total pot: 800 
/inquire 

------------



------------


turn/ 
HEARTS 2 
/turn 

------------



------------


inquire/ 
2222 2100 8000 100 check 
1111 3700 8000 100 check 
6666 2900 6000 100 check 
7777 3700 6000 100 check 
3333 2500 8000 100 check 
4444 1700 8000 100 check 
5555 500 8000 100 check 
8888 2100 8000 100 check 
total pot: 800 
/inquire 

------------



------------


river/ 
SPADES 8 
/river 

------------



------------


inquire/ 
2222 2100 8000 100 check 
1111 3700 8000 100 check 
6666 2900 6000 100 check 
7777 3700 6000 100 check 
3333 2500 8000 100 check 
4444 1700 8000 100 check 
5555 500 8000 100 check 
8888 2100 8000 100 check 
total pot: 800 
/inquire 

------------



------------


showdown/ 
common/ 
CLUBS Q 
DIAMONDS 2 
CLUBS 10 
HEARTS 2 
SPADES 8 
/common 
2: 4444 HEARTS 3 HEARTS Q TWO_PAIR 
7: 3333 SPADES J DIAMONDS 5 ONE_PAIR 
5: 7777 HEARTS 7 DIAMONDS 7 TWO_PAIR 
6: 6666 DIAMONDS 6 HEARTS K ONE_PAIR 
1: 1111 CLUBS 2 DIAMONDS Q FULL_HOUSE 
3: 2222 HEARTS 10 HEARTS J TWO_PAIR 
4: 8888 HEARTS 8 HEARTS 9 TWO_PAIR 
8: 5555 DIAMONDS 9 SPADES 6 ONE_PAIR 
/showdown 

------------



------------


pot-win/ 
1111: 800 
/pot-win 

------------


seat/ 
button: 4444 1700 8000 
small blind: 3333 2500 8000 
big blind: 7777 3700 6000 
6666 2900 6000 
1111 4500 8000 
2222 2100 8000 
8888 2100 8000 
5555 500 8000 
/seat 

------------


blind/ 
3333: 50 
7777: 100 
/blind 

------------


hold/ 
HEARTS 10 
HEARTS J 
/hold 

------------



------------


inquire/ 
2222 2000 8000 100 call 
1111 4400 8000 100 call 
6666 2800 6000 100 call 
7777 3600 6000 100 blind 
3333 2450 8000 50 blind 
total pot: 450 
/inquire 

------------



------------


flop/ 
CLUBS Q 
DIAMONDS 2 
CLUBS 10 
/flop 

------------



------------


inquire/ 
2222 2000 8000 100 check 
1111 4400 8000 100 check 
6666 2800 6000 100 check 
7777 3600 6000 100 check 
3333 2400 8000 100 check 
4444 1600 8000 100 call 
5555 400 8000 100 call 
8888 2000 8000 100 call 
total pot: 800 
/inquire 

------------



------------


turn/ 
HEARTS 2 
/turn 

------------



------------


inquire/ 
2222 2000 8000 100 check 
1111 4400 8000 100 check 
6666 2800 6000 100 check 
7777 3600 6000 100 check 
3333 2400 8000 100 check 
4444 1600 8000 100 check 
5555 400 8000 100 check 
8888 2000 8000 100 check 
total pot: 800 
/inquire 

------------



------------


river/ 
SPADES 8 
/river 

------------



------------


inquire/ 
2222 2000 8000 100 check 
1111 4400 8000 100 check 
6666 2800 6000 100 check 
7777 3600 6000 100 check 
3333 2400 8000 100 check 
4444 1600 8000 100 check 
5555 400 8000 100 check 
8888 2000 8000 100 check 
total pot: 800 
/inquire 

------------



------------


showdown/ 
common/ 
CLUBS Q 
DIAMONDS 2 
CLUBS 10 
HEARTS 2 
SPADES 8 
/common 
2: 3333 HEARTS 3 HEARTS Q TWO_PAIR 
7: 7777 SPADES J DIAMONDS 5 ONE_PAIR 
5: 6666 HEARTS 7 DIAMONDS 7 TWO_PAIR 
6: 1111 DIAMONDS 6 HEARTS K ONE_PAIR 
1: 2222 CLUBS 2 DIAMONDS Q FULL_HOUSE 
3: 8888 HEARTS 10 HEARTS J TWO_PAIR 
4: 5555 HEARTS 8 HEARTS 9 TWO_PAIR 
8: 4444 DIAMONDS 9 SPADES 6 ONE_PAIR 
/showdown 

------------



------------


pot-win/ 
2222: 800 
/pot-win 

------------


seat/ 
button: 3333 2400 8000 
small blind: 7777 3600 6000 
big blind: 6666 2800 6000 
1111 4400 8000 
2222 2800 8000 
8888 2000 8000 
5555 400 8000 
4444 1600 8000 
/seat 

------------


blind/ 
7777: 50 
6666: 100 
/blind 

------------


hold/ 
SPADES 2 
HEARTS J 
/hold 

------------



------------


inquire/ 
2222 2700 8000 100 call 
1111 4300 8000 100 call 
6666 2700 6000 100 blind 
7777 3550 6000 50 blind 
total pot: 350 
/inquire 

------------



------------


flop/ 
DIAMONDS 4 
DIAMONDS K 
SPADES Q 
/flop 

------------



------------


inquire/ 
2222 2700 8000 100 check 
1111 4300 8000 100 check 
6666 2700 6000 100 check 
7777 3500 6000 100 check 
3333 2300 8000 100 call 
4444 1500 8000 100 call 
5555 300 8000 100 call 
8888 1900 8000 100 call 
total pot: 800 
/inquire 

------------



------------


turn/ 
SPADES K 
/turn 

------------



------------


inquire/ 
2222 2700 8000 100 check 
1111 4300 8000 100 check 
6666 2700 6000 100 check 
7777 3500 6000 100 check 
3333 2300 8000 100 check 
4444 1500 8000 100 check 
5555 300 8000 100 check 
8888 1900 8000 100 check 
total pot: 800 
/inquire 

------------



------------


river/ 
CLUBS 9 
/river 

------------



------------


inquire/ 
2222 2700 8000 100 check 
1111 4300 8000 100 check 
6666 2700 6000 100 check 
7777 3500 6000 100 check 
3333 2300 8000 100 check 
4444 1500 8000 100 check 
5555 300 8000 100 check 
8888 1900 8000 100 check 
total pot: 800 
/inquire 

------------



------------


showdown/ 
common/ 
DIAMONDS 4 
DIAMONDS K 
SPADES Q 
SPADES K 
CLUBS 9 
/common 
5: 7777 DIAMONDS 5 DIAMONDS 10 ONE_PAIR 
4: 6666 SPADES 3 CLUBS J ONE_PAIR 
3: 1111 DIAMONDS 2 CLUBS A ONE_PAIR 
5: 2222 CLUBS 8 SPADES 10 ONE_PAIR 
4: 8888 SPADES 2 HEARTS J ONE_PAIR 
1: 5555 CLUBS 2 HEARTS K THREE_OF_A_KIND 
2: 4444 CLUBS 3 CLUBS 4 TWO_PAIR 
5: 3333 DIAMONDS 6 HEARTS 10 ONE_PAIR 
/showdown 

------------



------------


pot-win/ 
5555: 800 
/pot-win 

------------


seat/ 
button: 7777 3500 6000 
small blind: 6666 2700 6000 
big blind: 1111 4300 8000 
2222 2700 8000 
8888 1900 8000 
5555 1100 8000 
4444 1500 8000 
3333 2300 8000 
/seat 

------------


blind/ 
6666: 50 
1111: 100 
/blind 

------------


hold/ 
CLUBS 8 
SPADES 10 
/hold 

------------


inquire/ 
2222 2600 8000 100 call 
1111 4200 8000 100 blind 
6666 2650 6000 50 blind 
total pot: 250 
/inquire 

------------



------------


flop/ 
DIAMONDS 4 
DIAMONDS K 
SPADES Q 
/flop 

------------



------------


inquire/ 
2222 2600 8000 100 check 
1111 4200 8000 100 check 
6666 2600 6000 100 check 
7777 3400 6000 100 call 
3333 2200 8000 100 call 
4444 1400 8000 100 call 
5555 1000 8000 100 call 
8888 1800 8000 100 call 
total pot: 800 
/inquire 

------------



------------


turn/ 
SPADES K 
/turn 

------------



------------


inquire/ 
2222 2600 8000 100 check 
1111 4200 8000 100 check 
6666 2600 6000 100 check 
7777 3400 6000 100 check 
3333 2200 8000 100 check 
4444 1400 8000 100 check 
5555 1000 8000 100 check 
8888 1800 8000 100 check 
total pot: 800 
/inquire 

------------



------------


river/ 
CLUBS 9 
/river 

------------



------------


inquire/ 
2222 2600 8000 100 check 
1111 4200 8000 100 check 
6666 2600 6000 100 check 
7777 3400 6000 100 check 
3333 2200 8000 100 check 
4444 1400 8000 100 check 
5555 1000 8000 100 check 
8888 1800 8000 100 check 
total pot: 800 
/inquire 

------------



------------


showdown/ 
common/ 
DIAMONDS 4 
DIAMONDS K 
SPADES Q 
SPADES K 
CLUBS 9 
/common 
5: 6666 DIAMONDS 5 DIAMONDS 10 ONE_PAIR 
4: 1111 SPADES 3 CLUBS J ONE_PAIR 
3: 2222 DIAMONDS 2 CLUBS A ONE_PAIR 
5: 8888 CLUBS 8 SPADES 10 ONE_PAIR 
4: 5555 SPADES 2 HEARTS J ONE_PAIR 
1: 4444 CLUBS 2 HEARTS K THREE_OF_A_KIND 
2: 3333 CLUBS 3 CLUBS 4 TWO_PAIR 
5: 7777 DIAMONDS 6 HEARTS 10 ONE_PAIR 
/showdown 

------------



------------


pot-win/ 
4444: 800 
/pot-win 

------------


seat/ 
button: 6666 2600 6000 
small blind: 1111 4200 8000 
big blind: 2222 2600 8000 
8888 1800 8000 
5555 1000 8000 
4444 2200 8000 
3333 2200 8000 
7777 3400 6000 
/seat 

------------


blind/ 
1111: 50 
2222: 100 
/blind 

------------


hold/ 
DIAMONDS 2 
CLUBS A 
/hold 

------------


inquire/ 
2222 2500 8000 100 blind 
1111 4150 8000 50 blind 
total pot: 150 
/inquire 

------------



------------


flop/ 
DIAMONDS 4 
DIAMONDS K 
SPADES Q 
/flop 

------------



------------


inquire/ 
2222 2500 8000 100 check 
1111 4100 8000 100 check 
6666 2500 6000 100 call 
7777 3300 6000 100 call 
3333 2100 8000 100 call 
4444 2100 8000 100 call 
5555 900 8000 100 call 
8888 1700 8000 100 call 
total pot: 800 
/inquire 

------------



------------


turn/ 
SPADES K 
/turn 

------------



------------


inquire/ 
2222 2500 8000 100 check 
1111 4100 8000 100 check 
6666 2500 6000 100 check 
7777 3300 6000 100 check 
3333 2100 8000 100 check 
4444 2100 8000 100 check 
5555 900 8000 100 check 
8888 1700 8000 100 check 
total pot: 800 
/inquire 

------------



------------


river/ 
CLUBS 9 
/river 

------------



------------


inquire/ 
2222 2500 8000 100 check 
1111 4100 8000 100 check 
6666 2500 6000 100 check 
7777 3300 6000 100 check 
3333 2100 8000 100 check 
4444 2100 8000 100 check 
5555 900 8000 100 check 
8888 1700 8000 100 check 
total pot: 800 
/inquire 

------------



------------


showdown/ 
common/ 
DIAMONDS 4 
DIAMONDS K 
SPADES Q 
SPADES K 
CLUBS 9 
/common 
5: 1111 DIAMONDS 5 DIAMONDS 10 ONE_PAIR 
4: 2222 SPADES 3 CLUBS J ONE_PAIR 
3: 8888 DIAMONDS 2 CLUBS A ONE_PAIR 
5: 5555 CLUBS 8 SPADES 10 ONE_PAIR 
4: 4444 SPADES 2 HEARTS J ONE_PAIR 
1: 3333 CLUBS 2 HEARTS K THREE_OF_A_KIND 
2: 7777 CLUBS 3 CLUBS 4 TWO_PAIR 
5: 6666 DIAMONDS 6 HEARTS 10 ONE_PAIR 
/showdown 

------------



------------


pot-win/ 
3333: 800 
/pot-win 

------------


seat/ 
button: 1111 4100 8000 
small blind: 2222 2500 8000 
big blind: 8888 1700 8000 
5555 900 8000 
4444 2100 8000 
3333 2900 8000 
7777 3300 6000 
6666 2500 6000 
/seat 

------------


blind/ 
2222: 50 
8888: 100 
/blind 

------------


hold/ 
SPADES 3 
CLUBS J 
/hold 

------------



------------


inquire/ 
2222 2400 8000 100 call 
1111 4000 8000 100 call 
6666 2400 6000 100 call 
7777 3200 6000 100 call 
3333 2800 8000 100 call 
4444 2000 8000 100 call 
5555 800 8000 100 call 
8888 1600 8000 100 blind 
total pot: 800 
/inquire 

------------



------------


flop/ 
DIAMONDS 4 
DIAMONDS K 
SPADES Q 
/flop 

------------



------------


inquire/ 
2222 2400 8000 100 check 
1111 4000 8000 100 call 
6666 2400 6000 100 call 
7777 3200 6000 100 call 
3333 2800 8000 100 call 
4444 2000 8000 100 call 
5555 800 8000 100 call 
8888 1600 8000 100 check 
total pot: 800 
/inquire 

------------



------------


turn/ 
SPADES K 
/turn 

------------



------------


inquire/ 
2222 2400 8000 100 check 
1111 4000 8000 100 check 
6666 2400 6000 100 check 
7777 3200 6000 100 check 
3333 2800 8000 100 check 
4444 2000 8000 100 check 
5555 800 8000 100 check 
8888 1600 8000 100 check 
total pot: 800 
/inquire 

------------



------------


river/ 
CLUBS 9 
/river 

------------



------------


inquire/ 
2222 2400 8000 100 check 
1111 4000 8000 100 check 
6666 2400 6000 100 check 
7777 3200 6000 100 check 
3333 2800 8000 100 check 
4444 2000 8000 100 check 
5555 800 8000 100 check 
8888 1600 8000 100 check 
total pot: 800 
/inquire 

------------



------------


showdown/ 
common/ 
DIAMONDS 4 
DIAMONDS K 
SPADES Q 
SPADES K 
CLUBS 9 
/common 
5: 2222 DIAMONDS 5 DIAMONDS 10 ONE_PAIR 
4: 8888 SPADES 3 CLUBS J ONE_PAIR 
3: 5555 DIAMONDS 2 CLUBS A ONE_PAIR 
5: 4444 CLUBS 8 SPADES 10 ONE_PAIR 
4: 3333 SPADES 2 HEARTS J ONE_PAIR 
1: 7777 CLUBS 2 HEARTS K THREE_OF_A_KIND 
2: 6666 CLUBS 3 CLUBS 4 TWO_PAIR 
5: 1111 DIAMONDS 6 HEARTS 10 ONE_PAIR 
/showdown 

------------



------------


pot-win/ 
7777: 800 
/pot-win 

------------


seat/ 
button: 2222 2400 8000 
small blind: 8888 1600 8000 
big blind: 5555 800 8000 
4444 2000 8000 
3333 2800 8000 
7777 4000 6000 
6666 2400 6000 
1111 4000 8000 
/seat 

------------


blind/ 
8888: 50 
5555: 100 
/blind 

------------


hold/ 
DIAMONDS 5 
DIAMONDS 10 
/hold 

------------



------------


inquire/ 
2222 2300 8000 100 call 
1111 3900 8000 100 call 
6666 2300 6000 100 call 
7777 3900 6000 100 call 
3333 2700 8000 100 call 
4444 1900 8000 100 call 
5555 700 8000 100 blind 
8888 1550 8000 50 blind 
total pot: 750 
/inquire 

------------



------------


flop/ 
DIAMONDS 4 
DIAMONDS K 
SPADES Q 
/flop 

------------



------------


inquire/ 
2222 2300 8000 100 call 
1111 3900 8000 100 call 
6666 2300 6000 100 call 
7777 3900 6000 100 call 
3333 2700 8000 100 call 
4444 1900 8000 100 call 
5555 700 8000 100 check 
8888 1500 8000 100 call 
total pot: 800 
/inquire 

------------



------------


turn/ 
SPADES K 
/turn 

------------



------------


inquire/ 
2222 2300 8000 100 check 
1111 3900 8000 100 check 
6666 2300 6000 100 check 
7777 3900 6000 100 check 
3333 2700 8000 100 check 
4444 1900 8000 100 check 
5555 700 8000 100 check 
8888 1500 8000 100 check 
total pot: 800 
/inquire 

------------



------------


river/ 
CLUBS 9 
/river 

------------



------------


inquire/ 
2222 2300 8000 100 check 
1111 3900 8000 100 check 
6666 2300 6000 100 check 
7777 3900 6000 100 check 
3333 2700 8000 100 check 
4444 1900 8000 100 check 
5555 700 8000 100 check 
8888 1500 8000 100 check 
total pot: 800 
/inquire 

------------



------------


showdown/ 
common/ 
DIAMONDS 4 
DIAMONDS K 
SPADES Q 
SPADES K 
CLUBS 9 
/common 
5: 8888 DIAMONDS 5 DIAMONDS 10 ONE_PAIR 
4: 5555 SPADES 3 CLUBS J ONE_PAIR 
3: 4444 DIAMONDS 2 CLUBS A ONE_PAIR 
5: 3333 CLUBS 8 SPADES 10 ONE_PAIR 
4: 7777 SPADES 2 HEARTS J ONE_PAIR 
1: 6666 CLUBS 2 HEARTS K THREE_OF_A_KIND 
2: 1111 CLUBS 3 CLUBS 4 TWO_PAIR 
5: 2222 DIAMONDS 6 HEARTS 10 ONE_PAIR 
/showdown 

------------



------------


pot-win/ 
6666: 800 
/pot-win 

------------


seat/ 
button: 8888 1500 8000 
small blind: 5555 700 8000 
big blind: 4444 1900 8000 
3333 2700 8000 
7777 3900 6000 
6666 3100 6000 
1111 3900 8000 
2222 2300 8000 
/seat 

------------


blind/ 
5555: 50 
4444: 100 
/blind 

------------


hold/ 
DIAMONDS 4 
CLUBS J 
/hold 

------------



------------


inquire/ 
2222 2200 8000 100 call 
1111 3800 8000 100 call 
6666 3000 6000 100 call 
7777 3800 6000 100 call 
3333 2600 8000 100 call 
4444 1800 8000 100 blind 
5555 650 8000 50 blind 
total pot: 650 
/inquire 

------------



------------


flop/ 
SPADES 9 
SPADES 2 
CLUBS Q 
/flop 

------------



------------


inquire/ 
2222 2200 8000 100 check 
1111 3800 8000 100 check 
6666 3000 6000 100 check 
7777 3800 6000 100 check 
3333 2600 8000 100 check 
4444 1800 8000 100 check 
5555 600 8000 100 check 
8888 1400 8000 100 call 
total pot: 800 
/inquire 

------------



------------


turn/ 
HEARTS 3 
/turn 

------------



------------


inquire/ 
2222 2200 8000 100 check 
1111 3800 8000 100 check 
6666 3000 6000 100 check 
7777 3800 6000 100 check 
3333 2600 8000 100 check 
4444 1800 8000 100 check 
5555 600 8000 100 check 
8888 1400 8000 100 check 
total pot: 800 
/inquire 

------------



------------


river/ 
HEARTS 9 
/river 

------------



------------


inquire/ 
2222 2200 8000 100 check 
1111 3800 8000 100 check 
6666 3000 6000 100 check 
7777 3800 6000 100 check 
3333 2600 8000 100 check 
4444 1800 8000 100 check 
5555 600 8000 100 check 
8888 1400 8000 100 check 
total pot: 800 
/inquire 

------------



------------


showdown/ 
common/ 
SPADES 9 
SPADES 2 
CLUBS Q 
HEARTS 3 
HEARTS 9 
/common 
2: 5555 CLUBS 7 HEARTS 7 TWO_PAIR 
5: 4444 DIAMONDS 8 DIAMONDS K ONE_PAIR 
4: 3333 HEARTS 10 CLUBS K ONE_PAIR 
3: 7777 HEARTS K SPADES 3 TWO_PAIR 
6: 6666 HEARTS 4 HEARTS J ONE_PAIR 
1: 1111 CLUBS 9 DIAMONDS 3 FULL_HOUSE 
7: 2222 CLUBS 10 DIAMONDS 6 ONE_PAIR 
6: 8888 DIAMONDS 4 CLUBS J ONE_PAIR 
/showdown 

------------



------------


pot-win/ 
1111: 800 
/pot-win 

------------


seat/ 
button: 5555 600 8000 
small blind: 4444 1800 8000 
big blind: 3333 2600 8000 
7777 3800 6000 
6666 3000 6000 
1111 4600 8000 
2222 2200 8000 
8888 1400 8000 
/seat 

------------


blind/ 
4444: 50 
3333: 100 
/blind 

------------


hold/ 
CLUBS 10 
DIAMONDS 6 
/hold 

------------



------------


inquire/ 
2222 2100 8000 100 call 
1111 4500 8000 100 call 
6666 2900 6000 100 call 
7777 3700 6000 100 call 
3333 2500 8000 100 blind 
4444 1750 8000 50 blind 
total pot: 550 
/inquire 

------------



------------


flop/ 
SPADES 9 
SPADES 2 
CLUBS Q 
/flop 

------------



------------


inquire/ 
2222 2100 8000 100 check 
1111 4500 8000 100 check 
6666 2900 6000 100 check 
7777 3700 6000 100 check 
3333 2500 8000 100 check 
4444 1700 8000 100 check 
5555 500 8000 100 call 
8888 1300 8000 100 call 
total pot: 800 
/inquire 

------------



------------


turn/ 
HEARTS 3 
/turn 

------------



------------


inquire/ 
2222 2100 8000 100 check 
1111 4500 8000 100 check 
6666 2900 6000 100 check 
7777 3700 6000 100 check 
3333 2500 8000 100 check 
4444 1700 8000 100 check 
5555 500 8000 100 check 
8888 1300 8000 100 check 
total pot: 800 
/inquire 

------------



------------


river/ 
HEARTS 9 
/river 

------------



------------


inquire/ 
2222 2100 8000 100 check 
1111 4500 8000 100 check 
6666 2900 6000 100 check 
7777 3700 6000 100 check 
3333 2500 8000 100 check 
4444 1700 8000 100 check 
5555 500 8000 100 check 
8888 1300 8000 100 check 
total pot: 800 
/inquire 

------------



------------


showdown/ 
common/ 
SPADES 9 
SPADES 2 
CLUBS Q 
HEARTS 3 
HEARTS 9 
/common 
2: 4444 CLUBS 7 HEARTS 7 TWO_PAIR 
5: 3333 DIAMONDS 8 DIAMONDS K ONE_PAIR 
4: 7777 HEARTS 10 CLUBS K ONE_PAIR 
3: 6666 HEARTS K SPADES 3 TWO_PAIR 
6: 1111 HEARTS 4 HEARTS J ONE_PAIR 
1: 2222 CLUBS 9 DIAMONDS 3 FULL_HOUSE 
7: 8888 CLUBS 10 DIAMONDS 6 ONE_PAIR 
6: 5555 DIAMONDS 4 CLUBS J ONE_PAIR 
/showdown 

------------



------------


pot-win/ 
2222: 800 
/pot-win 

------------


seat/ 
button: 4444 1700 8000 
small blind: 3333 2500 8000 
big blind: 7777 3700 6000 
6666 2900 6000 
1111 4500 8000 
2222 2900 8000 
8888 1300 8000 
5555 500 8000 
/seat 

------------


blind/ 
3333: 50 
7777: 100 
/blind 

------------


hold/ 
CLUBS 9 
DIAMONDS 3 
/hold 

------------



------------


inquire/ 
2222 2800 8000 100 call 
1111 4400 8000 100 call 
6666 2800 6000 100 call 
7777 3600 6000 100 blind 
3333 2450 8000 50 blind 
total pot: 450 
/inquire 

------------



------------


flop/ 
SPADES 9 
SPADES 2 
CLUBS Q 
/flop 

------------



------------


inquire/ 
2222 2800 8000 100 check 
1111 4400 8000 100 check 
6666 2800 6000 100 check 
7777 3600 6000 100 check 
3333 2400 8000 100 check 
4444 1600 8000 100 call 
5555 400 8000 100 call 
8888 1200 8000 100 call 
total pot: 800 
/inquire 

------------



------------


turn/ 
HEARTS 3 
/turn 

------------



------------


inquire/ 
2222 2800 8000 100 check 
1111 4400 8000 100 check 
6666 2800 6000 100 check 
7777 3600 6000 100 check 
3333 2400 8000 100 check 
4444 1600 8000 100 check 
5555 400 8000 100 check 
8888 1200 8000 100 check 
total pot: 800 
/inquire 

------------



------------


river/ 
HEARTS 9 
/river 

------------



------------


inquire/ 
2222 2800 8000 100 check 
1111 4400 8000 100 check 
6666 2800 6000 100 check 
7777 3600 6000 100 check 
3333 2400 8000 100 check 
4444 1600 8000 100 check 
5555 400 8000 100 check 
8888 1200 8000 100 check 
total pot: 800 
/inquire 

------------



------------


showdown/ 
common/ 
SPADES 9 
SPADES 2 
CLUBS Q 
HEARTS 3 
HEARTS 9 
/common 
2: 3333 CLUBS 7 HEARTS 7 TWO_PAIR 
5: 7777 DIAMONDS 8 DIAMONDS K ONE_PAIR 
4: 6666 HEARTS 10 CLUBS K ONE_PAIR 
3: 1111 HEARTS K SPADES 3 TWO_PAIR 
6: 2222 HEARTS 4 HEARTS J ONE_PAIR 
1: 8888 CLUBS 9 DIAMONDS 3 FULL_HOUSE 
7: 5555 CLUBS 10 DIAMONDS 6 ONE_PAIR 
6: 4444 DIAMONDS 4 CLUBS J ONE_PAIR 
/showdown 

------------



------------


pot-win/ 
8888: 800 
/pot-win 

------------


seat/ 
button: 3333 2400 8000 
small blind: 7777 3600 6000 
big blind: 6666 2800 6000 
1111 4400 8000 
2222 2800 8000 
8888 2000 8000 
5555 400 8000 
4444 1600 8000 
/seat 

------------


blind/ 
7777: 50 
6666: 100 
/blind 

------------


hold/ 
HEARTS 4 
HEARTS J 
/hold 

------------



------------


inquire/ 
2222 2700 8000 100 call 
1111 4300 8000 100 call 
6666 2700 6000 100 blind 
7777 3550 6000 50 blind 
total pot: 350 
/inquire 

------------



------------


flop/ 
SPADES 9 
SPADES 2 
CLUBS Q 
/flop 

------------



------------


inquire/ 
2222 2700 8000 100 check 
1111 4300 8000 100 check 
6666 2700 6000 100 check 
7777 3500 6000 100 check 
3333 2300 8000 100 call 
4444 1500 8000 100 call 
5555 300 8000 100 call 
8888 1900 8000 100 call 
total pot: 800 
/inquire 

------------



------------


turn/ 
HEARTS 3 
/turn 

------------



------------


inquire/ 
2222 2700 8000 100 check 
1111 4300 8000 100 check 
6666 2700 6000 100 check 
7777 3500 6000 100 check 
3333 2300 8000 100 check 
4444 1500 8000 100 check 
5555 300 8000 100 check 
8888 1900 8000 100 check 
total pot: 800 
/inquire 

------------



------------


river/ 
HEARTS 9 
/river 

------------



------------


inquire/ 
2222 2700 8000 100 check 
1111 4300 8000 100 check 
6666 2700 6000 100 check 
7777 3500 6000 100 check 
3333 2300 8000 100 check 
4444 1500 8000 100 check 
5555 300 8000 100 check 
8888 1900 8000 100 check 
total pot: 800 
/inquire 

------------



------------


showdown/ 
common/ 
SPADES 9 
SPADES 2 
CLUBS Q 
HEARTS 3 
HEARTS 9 
/common 
2: 7777 CLUBS 7 HEARTS 7 TWO_PAIR 
5: 6666 DIAMONDS 8 DIAMONDS K ONE_PAIR 
4: 1111 HEARTS 10 CLUBS K ONE_PAIR 
3: 2222 HEARTS K SPADES 3 TWO_PAIR 
6: 8888 HEARTS 4 HEARTS J ONE_PAIR 
1: 5555 CLUBS 9 DIAMONDS 3 FULL_HOUSE 
7: 4444 CLUBS 10 DIAMONDS 6 ONE_PAIR 
6: 3333 DIAMONDS 4 CLUBS J ONE_PAIR 
/showdown 

------------



------------


pot-win/ 
5555: 800 
/pot-win 

------------


seat/ 
button: 7777 3500 6000 
small blind: 6666 2700 6000 
big blind: 1111 4300 8000 
2222 2700 8000 
8888 1900 8000 
5555 1100 8000 
4444 1500 8000 
3333 2300 8000 
/seat 

------------


blind/ 
6666: 50 
1111: 100 
/blind 

------------


hold/ 
HEARTS K 
SPADES 3 
/hold 

------------



------------


inquire/ 
2222 2600 8000 100 call 
1111 4200 8000 100 blind 
6666 2650 6000 50 blind 
total pot: 250 
/inquire 

------------



------------


flop/ 
SPADES 9 
SPADES 2 
CLUBS Q 
/flop 

------------



------------


inquire/ 
2222 2600 8000 100 check 
1111 4200 8000 100 check 
6666 2600 6000 100 check 
7777 3400 6000 100 call 
3333 2200 8000 100 call 
4444 1400 8000 100 call 
5555 1000 8000 100 call 
8888 1800 8000 100 call 
total pot: 800 
/inquire 

------------



------------


turn/ 
HEARTS 3 
/turn 

------------



------------


inquire/ 
2222 2600 8000 100 check 
1111 4200 8000 100 check 
6666 2600 6000 100 check 
7777 3400 6000 100 check 
3333 2200 8000 100 check 
4444 1400 8000 100 check 
5555 1000 8000 100 check 
8888 1800 8000 100 check 
total pot: 800 
/inquire 

------------



------------


river/ 
HEARTS 9 
/river 

------------



------------


inquire/ 
2222 2600 8000 100 check 
1111 4200 8000 100 check 
6666 2600 6000 100 check 
7777 3400 6000 100 check 
3333 2200 8000 100 check 
4444 1400 8000 100 check 
5555 1000 8000 100 check 
8888 1800 8000 100 check 
total pot: 800 
/inquire 

------------



------------


showdown/ 
common/ 
SPADES 9 
SPADES 2 
CLUBS Q 
HEARTS 3 
HEARTS 9 
/common 
2: 6666 CLUBS 7 HEARTS 7 TWO_PAIR 
5: 1111 DIAMONDS 8 DIAMONDS K ONE_PAIR 
4: 2222 HEARTS 10 CLUBS K ONE_PAIR 
3: 8888 HEARTS K SPADES 3 TWO_PAIR 
6: 5555 HEARTS 4 HEARTS J ONE_PAIR 
1: 4444 CLUBS 9 DIAMONDS 3 FULL_HOUSE 
7: 3333 CLUBS 10 DIAMONDS 6 ONE_PAIR 
6: 7777 DIAMONDS 4 CLUBS J ONE_PAIR 
/showdown 

------------



------------


pot-win/ 
4444: 800 
/pot-win 

------------


seat/ 
button: 6666 2600 6000 
small blind: 1111 4200 8000 
big blind: 2222 2600 8000 
8888 1800 8000 
5555 1000 8000 
4444 2200 8000 
3333 2200 8000 
7777 3400 6000 
/seat 

------------


blind/ 
1111: 50 
2222: 100 
/blind 

------------


hold/ 
HEARTS 10 
CLUBS K 
/hold 

------------


inquire/ 
2222 2500 8000 100 blind 
1111 4150 8000 50 blind 
total pot: 150 
/inquire 

------------



------------


flop/ 
SPADES 9 
SPADES 2 
CLUBS Q 
/flop 

------------



------------


inquire/ 
2222 2500 8000 100 check 
1111 4100 8000 100 check 
6666 2500 6000 100 call 
7777 3300 6000 100 call 
3333 2100 8000 100 call 
4444 2100 8000 100 call 
5555 900 8000 100 call 
8888 1700 8000 100 call 
total pot: 800 
/inquire 

------------



------------


turn/ 
HEARTS 3 
/turn 

------------



------------


inquire/ 
2222 2500 8000 100 check 
1111 4100 8000 100 check 
6666 2500 6000 100 check 
7777 3300 6000 100 check 
3333 2100 8000 100 check 
4444 2100 8000 100 check 
5555 900 8000 100 check 
8888 1700 8000 100 check 
total pot: 800 
/inquire 

------------



------------


river/ 
HEARTS 9 
/river 

------------



------------


inquire/ 
2222 2500 8000 100 check 
1111 4100 8000 100 check 
6666 2500 6000 100 check 
7777 3300 6000 100 check 
3333 2100 8000 100 check 
4444 2100 8000 100 check 
5555 900 8000 100 check 
8888 1700 8000 100 check 
total pot: 800 
/inquire 

------------



------------


showdown/ 
common/ 
SPADES 9 
SPADES 2 
CLUBS Q 
HEARTS 3 
HEARTS 9 
/common 
2: 1111 CLUBS 7 HEARTS 7 TWO_PAIR 
5: 2222 DIAMONDS 8 DIAMONDS K ONE_PAIR 
4: 8888 HEARTS 10 CLUBS K ONE_PAIR 
3: 5555 HEARTS K SPADES 3 TWO_PAIR 
6: 4444 HEARTS 4 HEARTS J ONE_PAIR 
1: 3333 CLUBS 9 DIAMONDS 3 FULL_HOUSE 
7: 7777 CLUBS 10 DIAMONDS 6 ONE_PAIR 
6: 6666 DIAMONDS 4 CLUBS J ONE_PAIR 
/showdown 

------------



------------


pot-win/ 
3333: 800 
/pot-win 

------------


seat/ 
button: 1111 4100 8000 
small blind: 2222 2500 8000 
big blind: 8888 1700 8000 
5555 900 8000 
4444 2100 8000 
3333 2900 8000 
7777 3300 6000 
6666 2500 6000 
/seat 

------------


blind/ 
2222: 50 
8888: 100 
/blind 

------------


hold/ 
DIAMONDS 5 
CLUBS 7 
/hold 

------------



------------


inquire/ 
2222 2400 8000 100 call 
1111 4000 8000 100 call 
6666 2400 6000 100 call 
7777 3200 6000 100 call 
3333 2800 8000 100 call 
4444 2000 8000 100 call 
5555 800 8000 100 call 
8888 1600 8000 100 blind 
total pot: 800 
/inquire 

------------



------------


flop/ 
DIAMONDS 8 
DIAMONDS 3 
HEARTS 5 
/flop 

------------



------------


inquire/ 
2222 2400 8000 100 check 
1111 4000 8000 100 call 
6666 2400 6000 100 call 
7777 3200 6000 100 call 
3333 2800 8000 100 call 
4444 2000 8000 100 call 
5555 800 8000 100 call 
8888 1600 8000 100 check 
total pot: 800 
/inquire 

------------



------------


turn/ 
SPADES 6 
/turn 

------------



------------


inquire/ 
2222 2400 8000 100 check 
1111 4000 8000 100 check 
6666 2400 6000 100 check 
7777 3200 6000 100 check 
3333 2800 8000 100 check 
4444 2000 8000 100 check 
5555 800 8000 100 check 
8888 1600 8000 100 check 
total pot: 800 
/inquire 

------------



------------


river/ 
HEARTS 8 
/river 

------------



------------


inquire/ 
2222 2400 8000 100 check 
1111 4000 8000 100 check 
6666 2400 6000 100 check 
7777 3200 6000 100 check 
3333 2800 8000 100 check 
4444 2000 8000 100 check 
5555 800 8000 100 check 
8888 1600 8000 100 check 
total pot: 800 
/inquire 

------------



------------


showdown/ 
common/ 
DIAMONDS 8 
DIAMONDS 3 
HEARTS 5 
SPADES 6 
HEARTS 8 
/common 
6: 2222 CLUBS 10 DIAMONDS A ONE_PAIR 
4: 8888 DIAMONDS 5 CLUBS 7 TWO_PAIR 
7: 5555 SPADES K CLUBS 9 ONE_PAIR 
1: 4444 SPADES 8 SPADES 3 FULL_HOUSE 
3: 3333 CLUBS 5 HEARTS 10 TWO_PAIR 
4: 7777 SPADES 5 HEARTS 7 TWO_PAIR 
5: 6666 SPADES 7 HEARTS 3 TWO_PAIR 
2: 1111 DIAMONDS 6 DIAMONDS K TWO_PAIR 
/showdown 

------------



------------


pot-win/ 
4444: 800 
/pot-win 

------------


seat/ 
button: 2222 2400 8000 
small blind: 8888 1600 8000 
big blind: 5555 800 8000 
4444 2800 8000 
3333 2800 8000 
7777 3200 6000 
6666 2400 6000 
1111 4000 8000 
/seat 

------------


blind/ 
8888: 50 
5555: 100 
/blind 

------------


hold/ 
CLUBS 10 
DIAMONDS A 
/hold 

------------



------------


inquire/ 
2222 2300 8000 100 call 
1111 3900 8000 100 call 
6666 2300 6000 100 call 
7777 3100 6000 100 call 
3333 2700 8000 100 call 
4444 2700 8000 100 call 
5555 700 8000 100 blind 
8888 1550 8000 50 blind 
total pot: 750 
/inquire 

------------



------------


flop/ 
DIAMONDS 8 
DIAMONDS 3 
HEARTS 5 
/flop 

------------



------------


inquire/ 
2222 2300 8000 100 call 
1111 3900 8000 100 call 
6666 2300 6000 100 call 
7777 3100 6000 100 call 
3333 2700 8000 100 call 
4444 2700 8000 100 call 
5555 700 8000 100 check 
8888 1500 8000 100 call 
total pot: 800 
/inquire 

------------



------------


turn/ 
SPADES 6 
/turn 

------------



------------


inquire/ 
2222 2300 8000 100 check 
1111 3900 8000 100 check 
6666 2300 6000 100 check 
7777 3100 6000 100 check 
3333 2700 8000 100 check 
4444 2700 8000 100 check 
5555 700 8000 100 check 
8888 1500 8000 100 check 
total pot: 800 
/inquire 

------------



------------


river/ 
HEARTS 8 
/river 

------------



------------


inquire/ 
2222 2300 8000 100 check 
1111 3900 8000 100 check 
6666 2300 6000 100 check 
7777 3100 6000 100 check 
3333 2700 8000 100 check 
4444 2700 8000 100 check 
5555 700 8000 100 check 
8888 1500 8000 100 check 
total pot: 800 
/inquire 

------------



------------


showdown/ 
common/ 
DIAMONDS 8 
DIAMONDS 3 
HEARTS 5 
SPADES 6 
HEARTS 8 
/common 
6: 8888 CLUBS 10 DIAMONDS A ONE_PAIR 
4: 5555 DIAMONDS 5 CLUBS 7 TWO_PAIR 
7: 4444 SPADES K CLUBS 9 ONE_PAIR 
1: 3333 SPADES 8 SPADES 3 FULL_HOUSE 
3: 7777 CLUBS 5 HEARTS 10 TWO_PAIR 
4: 6666 SPADES 5 HEARTS 7 TWO_PAIR 
5: 1111 SPADES 7 HEARTS 3 TWO_PAIR 
2: 2222 DIAMONDS 6 DIAMONDS K TWO_PAIR 
/showdown 

------------



------------


pot-win/ 
3333: 800 
/pot-win 

------------


seat/ 
button: 8888 1500 8000 
small blind: 5555 700 8000 
big blind: 4444 2700 8000 
3333 3500 8000 
7777 3100 6000 
6666 2300 6000 
1111 3900 8000 
2222 2300 8000 
/seat 

------------


blind/ 
5555: 50 
4444: 100 
/blind 

------------


hold/ 
DIAMONDS 6 
DIAMONDS K 
/hold 

------------



------------


inquire/ 
2222 2200 8000 100 call 
1111 3800 8000 100 call 
6666 2200 6000 100 call 
7777 3000 6000 100 call 
3333 3400 8000 100 call 
4444 2600 8000 100 blind 
5555 650 8000 50 blind 
total pot: 650 
/inquire 

------------



------------


flop/ 
DIAMONDS 8 
DIAMONDS 3 
HEARTS 5 
/flop 

------------



------------


inquire/ 
2222 2200 8000 100 check 
1111 3800 8000 100 check 
6666 2200 6000 100 check 
7777 3000 6000 100 check 
3333 3400 8000 100 check 
4444 2600 8000 100 check 
5555 600 8000 100 check 
8888 1400 8000 100 call 
total pot: 800 
/inquire 

------------



------------


turn/ 
SPADES 6 
/turn 

------------



------------


inquire/ 
2222 2200 8000 100 check 
1111 3800 8000 100 check 
6666 2200 6000 100 check 
7777 3000 6000 100 check 
3333 3400 8000 100 check 
4444 2600 8000 100 check 
5555 600 8000 100 check 
8888 1400 8000 100 check 
total pot: 800 
/inquire 

------------



------------


river/ 
HEARTS 8 
/river 

------------



------------


inquire/ 
2222 2200 8000 100 check 
1111 3800 8000 100 check 
6666 2200 6000 100 check 
7777 3000 6000 100 check 
3333 3400 8000 100 check 
4444 2600 8000 100 check 
5555 600 8000 100 check 
8888 1400 8000 100 check 
total pot: 800 
/inquire 

------------



------------


showdown/ 
common/ 
DIAMONDS 8 
DIAMONDS 3 
HEARTS 5 
SPADES 6 
HEARTS 8 
/common 
6: 5555 CLUBS 10 DIAMONDS A ONE_PAIR 
4: 4444 DIAMONDS 5 CLUBS 7 TWO_PAIR 
7: 3333 SPADES K CLUBS 9 ONE_PAIR 
1: 7777 SPADES 8 SPADES 3 FULL_HOUSE 
3: 6666 CLUBS 5 HEARTS 10 TWO_PAIR 
4: 1111 SPADES 5 HEARTS 7 TWO_PAIR 
5: 2222 SPADES 7 HEARTS 3 TWO_PAIR 
2: 8888 DIAMONDS 6 DIAMONDS K TWO_PAIR 
/showdown 

------------



------------


pot-win/ 
7777: 800 
/pot-win 

------------


seat/ 
button: 5555 600 8000 
small blind: 4444 2600 8000 
big blind: 3333 3400 8000 
7777 3800 6000 
6666 2200 6000 
1111 3800 8000 
2222 2200 8000 
8888 1400 8000 
/seat 

------------


blind/ 
4444: 50 
3333: 100 
/blind 

------------


hold/ 
SPADES 7 
HEARTS 3 
/hold 

------------



------------


inquire/ 
2222 2100 8000 100 call 
1111 3700 8000 100 call 
6666 2100 6000 100 call 
7777 3700 6000 100 call 
3333 3300 8000 100 blind 
4444 2550 8000 50 blind 
total pot: 550 
/inquire 

------------



------------


flop/ 
DIAMONDS 8 
DIAMONDS 3 
HEARTS 5 
/flop 

------------



------------


inquire/ 
2222 2100 8000 100 check 
1111 3700 8000 100 check 
6666 2100 6000 100 check 
7777 3700 6000 100 check 
3333 3300 8000 100 check 
4444 2500 8000 100 check 
5555 500 8000 100 call 
8888 1300 8000 100 call 
total pot: 800 
/inquire 

------------



------------


turn/ 
SPADES 6 
/turn 

------------



------------


inquire/ 
2222 2100 8000 100 check 
1111 3700 8000 100 check 
6666 2100 6000 100 check 
7777 3700 6000 100 check 
3333 3300 8000 100 check 
4444 2500 8000 100 check 
5555 500 8000 100 check 
8888 1300 8000 100 check 
total pot: 800 
/inquire 

------------



------------


river/ 
HEARTS 8 
/river 

------------



------------


inquire/ 
2222 2100 8000 100 check 
1111 3700 8000 100 check 
6666 2100 6000 100 check 
7777 3700 6000 100 check 
3333 3300 8000 100 check 
4444 2500 8000 100 check 
5555 500 8000 100 check 
8888 1300 8000 100 check 
total pot: 800 
/inquire 

------------



------------


showdown/ 
common/ 
DIAMONDS 8 
DIAMONDS 3 
HEARTS 5 
SPADES 6 
HEARTS 8 
/common 
6: 4444 CLUBS 10 DIAMONDS A ONE_PAIR 
4: 3333 DIAMONDS 5 CLUBS 7 TWO_PAIR 
7: 7777 SPADES K CLUBS 9 ONE_PAIR 
1: 6666 SPADES 8 SPADES 3 FULL_HOUSE 
3: 1111 CLUBS 5 HEARTS 10 TWO_PAIR 
4: 2222 SPADES 5 HEARTS 7 TWO_PAIR 
5: 8888 SPADES 7 HEARTS 3 TWO_PAIR 
2: 5555 DIAMONDS 6 DIAMONDS K TWO_PAIR 
/showdown 

------------



------------


pot-win/ 
6666: 800 
/pot-win 

------------


seat/ 
button: 4444 2500 8000 
small blind: 3333 3300 8000 
big blind: 7777 3700 6000 
6666 2900 6000 
1111 3700 8000 
2222 2100 8000 
8888 1300 8000 
5555 500 8000 
/seat 

------------


blind/ 
3333: 50 
7777: 100 
/blind 

------------


hold/ 
SPADES 5 
HEARTS 7 
/hold 

------------



------------


inquire/ 
2222 2000 8000 100 call 
1111 3600 8000 100 call 
6666 2800 6000 100 call 
7777 3600 6000 100 blind 
3333 3250 8000 50 blind 
total pot: 450 
/inquire 

------------



------------


flop/ 
DIAMONDS 8 
DIAMONDS 3 
HEARTS 5 
/flop 

------------



------------


inquire/ 
2222 2000 8000 100 check 
1111 3600 8000 100 check 
6666 2800 6000 100 check 
7777 3600 6000 100 check 
3333 3200 8000 100 check 
4444 2400 8000 100 call 
5555 400 8000 100 call 
8888 1200 8000 100 call 
total pot: 800 
/inquire 

------------



------------


turn/ 
SPADES 6 
/turn 

------------



------------


inquire/ 
2222 2000 8000 100 check 
1111 3600 8000 100 check 
6666 2800 6000 100 check 
7777 3600 6000 100 check 
3333 3200 8000 100 check 
4444 2400 8000 100 check 
5555 400 8000 100 check 
8888 1200 8000 100 check 
total pot: 800 
/inquire 

------------



------------


river/ 
HEARTS 8 
/river 

------------



------------


inquire/ 
2222 2000 8000 100 check 
1111 3600 8000 100 check 
6666 2800 6000 100 check 
7777 3600 6000 100 check 
3333 3200 8000 100 check 
4444 2400 8000 100 check 
5555 400 8000 100 check 
8888 1200 8000 100 check 
total pot: 800 
/inquire 

------------



------------


showdown/ 
common/ 
DIAMONDS 8 
DIAMONDS 3 
HEARTS 5 
SPADES 6 
HEARTS 8 
/common 
6: 3333 CLUBS 10 DIAMONDS A ONE_PAIR 
4: 7777 DIAMONDS 5 CLUBS 7 TWO_PAIR 
7: 6666 SPADES K CLUBS 9 ONE_PAIR 
1: 1111 SPADES 8 SPADES 3 FULL_HOUSE 
3: 2222 CLUBS 5 HEARTS 10 TWO_PAIR 
4: 8888 SPADES 5 HEARTS 7 TWO_PAIR 
5: 5555 SPADES 7 HEARTS 3 TWO_PAIR 
2: 4444 DIAMONDS 6 DIAMONDS K TWO_PAIR 
/showdown 

------------



------------


pot-win/ 
1111: 800 
/pot-win 

------------


seat/ 
button: 3333 3200 8000 
small blind: 7777 3600 6000 
big blind: 6666 2800 6000 
1111 4400 8000 
2222 2000 8000 
8888 1200 8000 
5555 400 8000 
4444 2400 8000 
/seat 

------------


blind/ 
7777: 50 
6666: 100 
/blind 

------------


hold/ 
CLUBS 5 
HEARTS 10 
/hold 

------------



------------


inquire/ 
2222 1900 8000 100 call 
1111 4300 8000 100 call 
6666 2700 6000 100 blind 
7777 3550 6000 50 blind 
total pot: 350 
/inquire 

------------



------------


flop/ 
DIAMONDS 8 
DIAMONDS 3 
HEARTS 5 
/flop 

------------



------------


inquire/ 
2222 1900 8000 100 check 
1111 4300 8000 100 check 
6666 2700 6000 100 check 
7777 3500 6000 100 check 
3333 3100 8000 100 call 
4444 2300 8000 100 call 
5555 300 8000 100 call 
8888 1100 8000 100 call 
total pot: 800 
/inquire 

------------



------------


turn/ 
SPADES 6 
/turn 

------------



------------


inquire/ 
2222 1900 8000 100 check 
1111 4300 8000 100 check 
6666 2700 6000 100 check 
7777 3500 6000 100 check 
3333 3100 8000 100 check 
4444 2300 8000 100 check 
5555 300 8000 100 check 
8888 1100 8000 100 check 
total pot: 800 
/inquire 

------------



------------


river/ 
HEARTS 8 
/river 

------------



------------


inquire/ 
2222 1900 8000 100 check 
1111 4300 8000 100 check 
6666 2700 6000 100 check 
7777 3500 6000 100 check 
3333 3100 8000 100 check 
4444 2300 8000 100 check 
5555 300 8000 100 check 
8888 1100 8000 100 check 
total pot: 800 
/inquire 

------------



------------


showdown/ 
common/ 
DIAMONDS 8 
DIAMONDS 3 
HEARTS 5 
SPADES 6 
HEARTS 8 
/common 
6: 7777 CLUBS 10 DIAMONDS A ONE_PAIR 
4: 6666 DIAMONDS 5 CLUBS 7 TWO_PAIR 
7: 1111 SPADES K CLUBS 9 ONE_PAIR 
1: 2222 SPADES 8 SPADES 3 FULL_HOUSE 
3: 8888 CLUBS 5 HEARTS 10 TWO_PAIR 
4: 5555 SPADES 5 HEARTS 7 TWO_PAIR 
5: 4444 SPADES 7 HEARTS 3 TWO_PAIR 
2: 3333 DIAMONDS 6 DIAMONDS K TWO_PAIR 
/showdown 

------------



------------


pot-win/ 
2222: 800 
/pot-win 

------------


seat/ 
button: 7777 3500 6000 
small blind: 6666 2700 6000 
big blind: 1111 4300 8000 
2222 2700 8000 
8888 1100 8000 
5555 300 8000 
4444 2300 8000 
3333 3100 8000 
/seat 

------------


blind/ 
6666: 50 
1111: 100 
/blind 

------------


hold/ 
CLUBS J 
DIAMONDS 5 
/hold 

------------


inquire/ 
2222 2600 8000 100 call 
1111 4200 8000 100 blind 
6666 2650 6000 50 blind 
total pot: 250 
/inquire 

------------



------------


flop/ 
DIAMONDS 8 
SPADES 10 
DIAMONDS 4 
/flop 

------------



------------


inquire/ 
2222 2600 8000 100 check 
1111 4200 8000 100 check 
6666 2600 6000 100 check 
7777 3400 6000 100 call 
3333 3000 8000 100 call 
4444 2200 8000 100 call 
5555 200 8000 100 call 
8888 1000 8000 100 call 
total pot: 800 
/inquire 

------------



------------


turn/ 
CLUBS 7 
/turn 

------------



------------


inquire/ 
2222 2600 8000 100 check 
1111 4200 8000 100 check 
6666 2600 6000 100 check 
7777 3400 6000 100 check 
3333 3000 8000 100 check 
4444 2200 8000 100 check 
5555 200 8000 100 check 
8888 1000 8000 100 check 
total pot: 800 
/inquire 

------------



------------


river/ 
SPADES 6 
/river 

------------



------------


inquire/ 
2222 2600 8000 100 check 
1111 4200 8000 100 check 
6666 2600 6000 100 check 
7777 3400 6000 100 check 
3333 3000 8000 100 check 
4444 2200 8000 100 check 
5555 200 8000 100 check 
8888 1000 8000 100 check 
total pot: 800 
/inquire 

------------



------------


showdown/ 
common/ 
DIAMONDS 8 
SPADES 10 
DIAMONDS 4 
CLUBS 7 
SPADES 6 
/common 
6: 6666 CLUBS 2 DIAMONDS A HIGH_CARD 
7: 1111 CLUBS 3 DIAMONDS K HIGH_CARD 
2: 2222 CLUBS 4 CLUBS 5 STRAIGHT 
2: 8888 CLUBS J DIAMONDS 5 STRAIGHT 
4: 5555 DIAMONDS 6 HEARTS 3 ONE_PAIR 
5: 4444 SPADES A CLUBS K HIGH_CARD 
1: 3333 SPADES 9 HEARTS 9 STRAIGHT 
3: 7777 HEARTS A DIAMONDS 10 ONE_PAIR 
/showdown 

------------



------------


pot-win/ 
3333: 800 
/pot-win 

------------


seat/ 
button: 6666 2600 6000 
small blind: 1111 4200 8000 
big blind: 2222 2600 8000 
8888 1000 8000 
5555 200 8000 
4444 2200 8000 
3333 3800 8000 
7777 3400 6000 
/seat 

------------


blind/ 
1111: 50 
2222: 100 
/blind 

------------


hold/ 
CLUBS 4 
CLUBS 5 
/hold 

------------


inquire/ 
2222 2500 8000 100 blind 
1111 4150 8000 50 blind 
total pot: 150 
/inquire 

------------



------------


flop/ 
DIAMONDS 8 
SPADES 10 
DIAMONDS 4 
/flop 

------------



------------


inquire/ 
2222 2500 8000 100 check 
1111 4100 8000 100 check 
6666 2500 6000 100 call 
7777 3300 6000 100 call 
3333 3700 8000 100 call 
4444 2100 8000 100 call 
5555 100 8000 100 call 
8888 900 8000 100 call 
total pot: 800 
/inquire 

------------



------------


turn/ 
CLUBS 7 
/turn 

------------



------------


inquire/ 
2222 2500 8000 100 check 
1111 4100 8000 100 check 
6666 2500 6000 100 check 
7777 3300 6000 100 check 
3333 3700 8000 100 check 
4444 2100 8000 100 check 
5555 100 8000 100 check 
8888 900 8000 100 check 
total pot: 800 
/inquire 

------------



------------


river/ 
SPADES 6 
/river 

------------



------------


inquire/ 
2222 2500 8000 100 check 
1111 4100 8000 100 check 
6666 2500 6000 100 check 
7777 3300 6000 100 check 
3333 3700 8000 100 check 
4444 2100 8000 100 check 
5555 100 8000 100 check 
8888 900 8000 100 check 
total pot: 800 
/inquire 

------------



------------


showdown/ 
common/ 
DIAMONDS 8 
SPADES 10 
DIAMONDS 4 
CLUBS 7 
SPADES 6 
/common 
6: 1111 CLUBS 2 DIAMONDS A HIGH_CARD 
7: 2222 CLUBS 3 DIAMONDS K HIGH_CARD 
2: 8888 CLUBS 4 CLUBS 5 STRAIGHT 
2: 5555 CLUBS J DIAMONDS 5 STRAIGHT 
4: 4444 DIAMONDS 6 HEARTS 3 ONE_PAIR 
5: 3333 SPADES A CLUBS K HIGH_CARD 
1: 7777 SPADES 9 HEARTS 9 STRAIGHT 
3: 6666 HEARTS A DIAMONDS 10 ONE_PAIR 
/showdown 

------------



------------


pot-win/ 
7777: 800 
/pot-win 

------------


seat/ 
button: 1111 4100 8000 
small blind: 2222 2500 8000 
big blind: 8888 900 8000 
5555 100 8000 
4444 2100 8000 
3333 3700 8000 
7777 4100 6000 
6666 2500 6000 
/seat 

------------


blind/ 
2222: 50 
8888: 100 
/blind 

------------


hold/ 
CLUBS 3 
DIAMONDS K 
/hold 

------------



------------


inquire/ 
2222 2400 8000 100 call 
1111 4000 8000 100 call 
6666 2400 6000 100 call 
7777 4000 6000 100 call 
3333 3600 8000 100 call 
4444 2000 8000 100 call 
5555 0 8000 100 all_in 
8888 800 8000 100 blind 
total pot: 800 
/inquire 

------------



------------


flop/ 
DIAMONDS 8 
SPADES 10 
DIAMONDS 4 
/flop 

------------



------------


inquire/ 
2222 2400 8000 100 check 
1111 4000 8000 100 call 
6666 2400 6000 100 call 
7777 4000 6000 100 call 
3333 3600 8000 100 call 
4444 2000 8000 100 call 
5555 0 8000 100 all_in 
8888 800 8000 100 check 
total pot: 800 
/inquire 

------------



------------


turn/ 
CLUBS 7 
/turn 

------------



------------


inquire/ 
2222 2400 8000 100 check 
1111 4000 8000 100 check 
6666 2400 6000 100 check 
7777 4000 6000 100 check 
3333 3600 8000 100 check 
4444 2000 8000 100 check 
5555 0 8000 100 all_in 
8888 800 8000 100 check 
total pot: 800 
/inquire 

------------



------------


river/ 
SPADES 6 
/river 

------------



------------


inquire/ 
2222 2400 8000 100 check 
1111 4000 8000 100 check 
6666 2400 6000 100 check 
7777 4000 6000 100 check 
3333 3600 8000 100 check 
4444 2000 8000 100 check 
5555 0 8000 100 all_in 
8888 800 8000 100 check 
total pot: 800 
/inquire 

------------



------------


showdown/ 
common/ 
DIAMONDS 8 
SPADES 10 
DIAMONDS 4 
CLUBS 7 
SPADES 6 
/common 
6: 2222 CLUBS 2 DIAMONDS A HIGH_CARD 
7: 8888 CLUBS 3 DIAMONDS K HIGH_CARD 
2: 5555 CLUBS 4 CLUBS 5 STRAIGHT 
2: 4444 CLUBS J DIAMONDS 5 STRAIGHT 
4: 3333 DIAMONDS 6 HEARTS 3 ONE_PAIR 
5: 7777 SPADES A CLUBS K HIGH_CARD 
1: 6666 SPADES 9 HEARTS 9 STRAIGHT 
3: 1111 HEARTS A DIAMONDS 10 ONE_PAIR 
/showdown 

------------



------------


pot-win/ 
6666: 800 
/pot-win 

------------


seat/ 
button: 2222 2400 8000 
small blind: 8888 800 8000 
big blind: 5555 2000 6000 
4444 2000 8000 
3333 3600 8000 
7777 4000 6000 
6666 3200 6000 
1111 4000 8000 
/seat 

------------


blind/ 
8888: 50 
5555: 100 
/blind 

------------


hold/ 
CLUBS 2 
DIAMONDS A 
/hold 

------------



------------


inquire/ 
2222 2300 8000 100 call 
1111 3900 8000 100 call 
6666 3100 6000 100 call 
7777 3900 6000 100 call 
3333 3500 8000 100 call 
4444 1900 8000 100 call 
5555 1900 6000 100 blind 
8888 750 8000 50 blind 
total pot: 750 
/inquire 

------------



------------


flop/ 
DIAMONDS 8 
SPADES 10 
DIAMONDS 4 
/flop 

------------



------------


inquire/ 
2222 2300 8000 100 call 
1111 3900 8000 100 call 
6666 3100 6000 100 call 
7777 3900 6000 100 call 
3333 3500 8000 100 call 
4444 1900 8000 100 call 
5555 1900 6000 100 check 
8888 700 8000 100 call 
total pot: 800 
/inquire 

------------



------------


turn/ 
CLUBS 7 
/turn 

------------



------------


inquire/ 
2222 2300 8000 100 check 
1111 3900 8000 100 check 
6666 3100 6000 100 check 
7777 3900 6000 100 check 
3333 3500 8000 100 check 
4444 1900 8000 100 check 
5555 1900 6000 100 check 
8888 700 8000 100 check 
total pot: 800 
/inquire 

------------



------------


river/ 
SPADES 6 
/river 

------------



------------


inquire/ 
2222 2300 8000 100 check 
1111 3900 8000 100 check 
6666 3100 6000 100 check 
7777 3900 6000 100 check 
3333 3500 8000 100 check 
4444 1900 8000 100 check 
5555 1900 6000 100 check 
8888 700 8000 100 check 
total pot: 800 
/inquire 

------------



------------


showdown/ 
common/ 
DIAMONDS 8 
SPADES 10 
DIAMONDS 4 
CLUBS 7 
SPADES 6 
/common 
6: 8888 CLUBS 2 DIAMONDS A HIGH_CARD 
7: 5555 CLUBS 3 DIAMONDS K HIGH_CARD 
2: 4444 CLUBS 4 CLUBS 5 STRAIGHT 
2: 3333 CLUBS J DIAMONDS 5 STRAIGHT 
4: 7777 DIAMONDS 6 HEARTS 3 ONE_PAIR 
5: 6666 SPADES A CLUBS K HIGH_CARD 
1: 1111 SPADES 9 HEARTS 9 STRAIGHT 
3: 2222 HEARTS A DIAMONDS 10 ONE_PAIR 
/showdown 

------------



------------


pot-win/ 
1111: 800 
/pot-win 

------------


seat/ 
button: 8888 700 8000 
small blind: 5555 1900 6000 
big blind: 4444 1900 8000 
3333 3500 8000 
7777 3900 6000 
6666 3100 6000 
1111 4700 8000 
2222 2300 8000 
/seat 

------------


blind/ 
5555: 50 
4444: 100 
/blind 

------------


hold/ 
HEARTS A 
DIAMONDS 10 
/hold 

------------



------------


inquire/ 
2222 2200 8000 100 call 
1111 4600 8000 100 call 
6666 3000 6000 100 call 
7777 3800 6000 100 call 
3333 3400 8000 100 call 
4444 1800 8000 100 blind 
5555 1850 6000 50 blind 
total pot: 650 
/inquire 

------------



------------


flop/ 
DIAMONDS 8 
SPADES 10 
DIAMONDS 4 
/flop 

------------



------------


inquire/ 
2222 2200 8000 100 check 
1111 4600 8000 100 check 
6666 3000 6000 100 check 
7777 3800 6000 100 check 
3333 3400 8000 100 check 
4444 1800 8000 100 check 
5555 1800 6000 100 check 
8888 600 8000 100 call 
total pot: 800 
/inquire 

------------



------------


turn/ 
CLUBS 7 
/turn 

------------



------------


inquire/ 
2222 2200 8000 100 check 
1111 4600 8000 100 check 
6666 3000 6000 100 check 
7777 3800 6000 100 check 
3333 3400 8000 100 check 
4444 1800 8000 100 check 
5555 1800 6000 100 check 
8888 600 8000 100 check 
total pot: 800 
/inquire 

------------



------------


river/ 
SPADES 6 
/river 

------------



------------


inquire/ 
2222 2200 8000 100 check 
1111 4600 8000 100 check 
6666 3000 6000 100 check 
7777 3800 6000 100 check 
3333 3400 8000 100 check 
4444 1800 8000 100 check 
5555 1800 6000 100 check 
8888 600 8000 100 check 
total pot: 800 
/inquire 

------------



------------


showdown/ 
common/ 
DIAMONDS 8 
SPADES 10 
DIAMONDS 4 
CLUBS 7 
SPADES 6 
/common 
6: 5555 CLUBS 2 DIAMONDS A HIGH_CARD 
7: 4444 CLUBS 3 DIAMONDS K HIGH_CARD 
2: 3333 CLUBS 4 CLUBS 5 STRAIGHT 
2: 7777 CLUBS J DIAMONDS 5 STRAIGHT 
4: 6666 DIAMONDS 6 HEARTS 3 ONE_PAIR 
5: 1111 SPADES A CLUBS K HIGH_CARD 
1: 2222 SPADES 9 HEARTS 9 STRAIGHT 
3: 8888 HEARTS A DIAMONDS 10 ONE_PAIR 
/showdown 

------------



------------


pot-win/ 
2222: 800 
/pot-win 

------------


seat/ 
button: 5555 1800 6000 
small blind: 4444 1800 8000 
big blind: 3333 3400 8000 
7777 3800 6000 
6666 3000 6000 
1111 4600 8000 
2222 3000 8000 
8888 600 8000 
/seat 

------------


blind/ 
4444: 50 
3333: 100 
/blind 

------------


hold/ 
CLUBS 4 
SPADES 8 
/hold 

------------



------------


inquire/ 
2222 2900 8000 100 call 
1111 4500 8000 100 call 
6666 2900 6000 100 call 
7777 3700 6000 100 call 
3333 3300 8000 100 blind 
4444 1750 8000 50 blind 
total pot: 550 
/inquire 

------------



------------


flop/ 
SPADES 10 
DIAMONDS 10 
CLUBS 3 
/flop 

------------



------------


inquire/ 
2222 2900 8000 100 check 
1111 4500 8000 100 check 
6666 2900 6000 100 check 
7777 3700 6000 100 check 
3333 3300 8000 100 check 
4444 1700 8000 100 check 
5555 1700 6000 100 call 
8888 500 8000 100 call 
total pot: 800 
/inquire 

------------



------------


turn/ 
HEARTS J 
/turn 

------------



------------


inquire/ 
2222 2900 8000 100 check 
1111 4500 8000 100 check 
6666 2900 6000 100 check 
7777 3700 6000 100 check 
3333 3300 8000 100 check 
4444 1700 8000 100 check 
5555 1700 6000 100 check 
8888 500 8000 100 check 
total pot: 800 
/inquire 

------------



------------


river/ 
DIAMONDS 9 
/river 

------------



------------


inquire/ 
2222 2900 8000 100 check 
1111 4500 8000 100 check 
6666 2900 6000 100 check 
7777 3700 6000 100 check 
3333 3300 8000 100 check 
4444 1700 8000 100 check 
5555 1700 6000 100 check 
8888 500 8000 100 check 
total pot: 800 
/inquire 

------------



------------


showdown/ 
common/ 
SPADES 10 
DIAMONDS 10 
CLUBS 3 
HEARTS J 
DIAMONDS 9 
/common 
1: 4444 DIAMONDS Q CLUBS 10 THREE_OF_A_KIND 
5: 3333 DIAMONDS 4 HEARTS 4 TWO_PAIR 
4: 7777 SPADES 6 HEARTS 9 TWO_PAIR 
8: 6666 CLUBS 6 CLUBS 5 ONE_PAIR 
2: 1111 CLUBS 8 HEARTS 10 THREE_OF_A_KIND 
3: 2222 SPADES K DIAMONDS K TWO_PAIR 
7: 8888 CLUBS 4 SPADES 8 ONE_PAIR 
6: 5555 HEARTS K DIAMONDS 2 ONE_PAIR 
/showdown 

------------



------------


pot-win/ 
4444: 800 
/pot-win 

------------


seat/ 
button: 4444 2500 8000 
small blind: 3333 3300 8000 
big blind: 7777 3700 6000 
6666 2900 6000 
1111 4500 8000 
2222 2900 8000 
8888 500 8000 
5555 1700 6000 
/seat 

------------


blind/ 
3333: 50 
7777: 100 
/blind 

------------


hold/ 
SPADES K 
DIAMONDS K 
/hold 

------------



------------


inquire/ 
2222 2800 8000 100 call 
1111 4400 8000 100 call 
6666 2800 6000 100 call 
7777 3600 6000 100 blind 
3333 3250 8000 50 blind 
total pot: 450 
/inquire 

------------



------------


flop/ 
SPADES 10 
DIAMONDS 10 
CLUBS 3 
/flop 

------------



------------


inquire/ 
2222 2800 8000 100 check 
1111 4400 8000 100 check 
6666 2800 6000 100 check 
7777 3600 6000 100 check 
3333 3200 8000 100 check 
4444 2400 8000 100 call 
5555 1600 6000 100 call 
8888 400 8000 100 call 
total pot: 800 
/inquire 

------------



------------


turn/ 
HEARTS J 
/turn 

------------



------------


inquire/ 
2222 2800 8000 100 check 
1111 4400 8000 100 check 
6666 2800 6000 100 check 
7777 3600 6000 100 check 
3333 3200 8000 100 check 
4444 2400 8000 100 check 
5555 1600 6000 100 check 
8888 400 8000 100 check 
total pot: 800 
/inquire 

------------



------------


river/ 
DIAMONDS 9 
/river 

------------



------------


inquire/ 
2222 2800 8000 100 check 
1111 4400 8000 100 check 
6666 2800 6000 100 check 
7777 3600 6000 100 check 
3333 3200 8000 100 check 
4444 2400 8000 100 check 
5555 1600 6000 100 check 
8888 400 8000 100 check 
total pot: 800 
/inquire 

------------



------------


showdown/ 
common/ 
SPADES 10 
DIAMONDS 10 
CLUBS 3 
HEARTS J 
DIAMONDS 9 
/common 
1: 3333 DIAMONDS Q CLUBS 10 THREE_OF_A_KIND 
5: 7777 DIAMONDS 4 HEARTS 4 TWO_PAIR 
4: 6666 SPADES 6 HEARTS 9 TWO_PAIR 
8: 1111 CLUBS 6 CLUBS 5 ONE_PAIR 
2: 2222 CLUBS 8 HEARTS 10 THREE_OF_A_KIND 
3: 8888 SPADES K DIAMONDS K TWO_PAIR 
7: 5555 CLUBS 4 SPADES 8 ONE_PAIR 
6: 4444 HEARTS K DIAMONDS 2 ONE_PAIR 
/showdown 

------------



------------


pot-win/ 
3333: 800 
/pot-win 

------------


seat/ 
button: 3333 4000 8000 
small blind: 7777 3600 6000 
big blind: 6666 2800 6000 
1111 4400 8000 
2222 2800 8000 
8888 400 8000 
5555 1600 6000 
4444 2400 8000 
/seat 

------------


blind/ 
7777: 50 
6666: 100 
/blind 

------------


hold/ 
CLUBS 8 
HEARTS 10 
/hold 

------------



------------


inquire/ 
2222 2700 8000 100 call 
1111 4300 8000 100 call 
6666 2700 6000 100 blind 
7777 3550 6000 50 blind 
total pot: 350 
/inquire 

------------



------------


flop/ 
SPADES 10 
DIAMONDS 10 
CLUBS 3 
/flop 

------------



------------


inquire/ 
2222 2700 8000 100 check 
1111 4300 8000 100 check 
6666 2700 6000 100 check 
7777 3500 6000 100 check 
3333 3900 8000 100 call 
4444 2300 8000 100 call 
5555 1500 6000 100 call 
8888 300 8000 100 call 
total pot: 800 
/inquire 

------------



------------


turn/ 
HEARTS J 
/turn 

------------



------------


inquire/ 
2222 2700 8000 100 check 
1111 4300 8000 100 check 
6666 2700 6000 100 check 
7777 3500 6000 100 check 
3333 3900 8000 100 check 
4444 2300 8000 100 check 
5555 1500 6000 100 check 
8888 300 8000 100 check 
total pot: 800 
/inquire 

------------



------------


river/ 
DIAMONDS 9 
/river 

------------



------------


inquire/ 
2222 2700 8000 100 check 
1111 4300 8000 100 check 
6666 2700 6000 100 check 
7777 3500 6000 100 check 
3333 3900 8000 100 check 
4444 2300 8000 100 check 
5555 1500 6000 100 check 
8888 300 8000 100 check 
total pot: 800 
/inquire 

------------



------------


showdown/ 
common/ 
SPADES 10 
DIAMONDS 10 
CLUBS 3 
HEARTS J 
DIAMONDS 9 
/common 
1: 7777 DIAMONDS Q CLUBS 10 THREE_OF_A_KIND 
5: 6666 DIAMONDS 4 HEARTS 4 TWO_PAIR 
4: 1111 SPADES 6 HEARTS 9 TWO_PAIR 
8: 2222 CLUBS 6 CLUBS 5 ONE_PAIR 
2: 8888 CLUBS 8 HEARTS 10 THREE_OF_A_KIND 
3: 5555 SPADES K DIAMONDS K TWO_PAIR 
7: 4444 CLUBS 4 SPADES 8 ONE_PAIR 
6: 3333 HEARTS K DIAMONDS 2 ONE_PAIR 
/showdown 

------------



------------


pot-win/ 
7777: 800 
/pot-win 

------------


seat/ 
button: 7777 4300 6000 
small blind: 6666 2700 6000 
big blind: 1111 4300 8000 
2222 2700 8000 
8888 300 8000 
5555 1500 6000 
4444 2300 8000 
3333 3900 8000 
/seat 

------------


blind/ 
6666: 50 
1111: 100 
/blind 

------------


hold/ 
CLUBS 6 
CLUBS 5 
/hold 

------------



------------


inquire/ 
2222 2600 8000 100 call 
1111 4200 8000 100 blind 
6666 2650 6000 50 blind 
total pot: 250 
/inquire 

------------



------------


flop/ 
SPADES 10 
DIAMONDS 10 
CLUBS 3 
/flop 

------------



------------


inquire/ 
2222 2600 8000 100 check 
1111 4200 8000 100 check 
6666 2600 6000 100 check 
7777 4200 6000 100 call 
3333 3800 8000 100 call 
4444 2200 8000 100 call 
5555 1400 6000 100 call 
8888 200 8000 100 call 
total pot: 800 
/inquire 

------------



------------


turn/ 
HEARTS J 
/turn 

------------



------------


inquire/ 
2222 2600 8000 100 check 
1111 4200 8000 100 check 
6666 2600 6000 100 check 
7777 4200 6000 100 check 
3333 3800 8000 100 check 
4444 2200 8000 100 check 
5555 1400 6000 100 check 
8888 200 8000 100 check 
total pot: 800 
/inquire 

------------



------------


river/ 
DIAMONDS 9 
/river 

------------



------------


inquire/ 
2222 2600 8000 100 check 
1111 4200 8000 100 check 
6666 2600 6000 100 check 
7777 4200 6000 100 check 
3333 3800 8000 100 check 
4444 2200 8000 100 check 
5555 1400 6000 100 check 
8888 200 8000 100 check 
total pot: 800 
/inquire 

------------



------------


showdown/ 
common/ 
SPADES 10 
DIAMONDS 10 
CLUBS 3 
HEARTS J 
DIAMONDS 9 
/common 
1: 6666 DIAMONDS Q CLUBS 10 THREE_OF_A_KIND 
5: 1111 DIAMONDS 4 HEARTS 4 TWO_PAIR 
4: 2222 SPADES 6 HEARTS 9 TWO_PAIR 
8: 8888 CLUBS 6 CLUBS 5 ONE_PAIR 
2: 5555 CLUBS 8 HEARTS 10 THREE_OF_A_KIND 
3: 4444 SPADES K DIAMONDS K TWO_PAIR 
7: 3333 CLUBS 4 SPADES 8 ONE_PAIR 
6: 7777 HEARTS K DIAMONDS 2 ONE_PAIR 
/showdown 

------------



------------


pot-win/ 
6666: 800 
/pot-win 

------------


seat/ 
button: 6666 3400 6000 
small blind: 1111 4200 8000 
big blind: 2222 2600 8000 
8888 200 8000 
5555 1400 6000 
4444 2200 8000 
3333 3800 8000 
7777 4200 6000 
/seat 

------------


blind/ 
1111: 50 
2222: 100 
/blind 

------------


hold/ 
SPADES 6 
HEARTS 9 
/hold 

------------


inquire/ 
2222 2500 8000 100 blind 
1111 4150 8000 50 blind 
total pot: 150 
/inquire 

------------



------------


flop/ 
SPADES 10 
DIAMONDS 10 
CLUBS 3 
/flop 

------------



------------


inquire/ 
2222 2500 8000 100 check 
1111 4100 8000 100 check 
6666 3300 6000 100 call 
7777 4100 6000 100 call 
3333 3700 8000 100 call 
4444 2100 8000 100 call 
5555 1300 6000 100 call 
8888 100 8000 100 call 
total pot: 800 
/inquire 

------------



------------


turn/ 
HEARTS J 
/turn 

------------



------------


inquire/ 
2222 2500 8000 100 check 
1111 4100 8000 100 check 
6666 3300 6000 100 check 
7777 4100 6000 100 check 
3333 3700 8000 100 check 
4444 2100 8000 100 check 
5555 1300 6000 100 check 
8888 100 8000 100 check 
total pot: 800 
/inquire 

------------



------------


river/ 
DIAMONDS 9 
/river 

------------



------------


inquire/ 
2222 2500 8000 100 check 
1111 4100 8000 100 check 
6666 3300 6000 100 check 
7777 4100 6000 100 check 
3333 3700 8000 100 check 
4444 2100 8000 100 check 
5555 1300 6000 100 check 
8888 100 8000 100 check 
total pot: 800 
/inquire 

------------



------------


showdown/ 
common/ 
SPADES 10 
DIAMONDS 10 
CLUBS 3 
HEARTS J 
DIAMONDS 9 
/common 
1: 1111 DIAMONDS Q CLUBS 10 THREE_OF_A_KIND 
5: 2222 DIAMONDS 4 HEARTS 4 TWO_PAIR 
4: 8888 SPADES 6 HEARTS 9 TWO_PAIR 
8: 5555 CLUBS 6 CLUBS 5 ONE_PAIR 
2: 4444 CLUBS 8 HEARTS 10 THREE_OF_A_KIND 
3: 3333 SPADES K DIAMONDS K TWO_PAIR 
7: 7777 CLUBS 4 SPADES 8 ONE_PAIR 
6: 6666 HEARTS K DIAMONDS 2 ONE_PAIR 
/showdown 

------------



------------


pot-win/ 
1111: 800 
/pot-win 

------------


seat/ 
button: 1111 4900 8000 
small blind: 2222 2500 8000 
big blind: 8888 100 8000 
5555 1300 6000 
4444 2100 8000 
3333 3700 8000 
7777 4100 6000 
6666 3300 6000 
/seat 

------------


blind/ 
2222: 50 
8888: 100 
/blind 

------------


hold/ 
DIAMONDS 4 
HEARTS 4 
/hold 

------------



------------


inquire/ 
2222 2400 8000 100 call 
1111 4800 8000 100 call 
6666 3200 6000 100 call 
7777 4000 6000 100 call 
3333 3600 8000 100 call 
4444 2000 8000 100 call 
5555 1200 6000 100 call 
8888 0 8000 100 blind 
total pot: 800 
/inquire 

------------



------------


flop/ 
SPADES 10 
DIAMONDS 10 
CLUBS 3 
/flop 

------------



------------


inquire/ 
2222 2400 8000 100 check 
1111 4800 8000 100 call 
6666 3200 6000 100 call 
7777 4000 6000 100 call 
3333 3600 8000 100 call 
4444 2000 8000 100 call 
5555 1200 6000 100 call 
8888 0 8000 100 check 
total pot: 800 
/inquire 

------------



------------


turn/ 
HEARTS J 
/turn 

------------



------------


inquire/ 
2222 2400 8000 100 check 
1111 4800 8000 100 check 
6666 3200 6000 100 check 
7777 4000 6000 100 check 
3333 3600 8000 100 check 
4444 2000 8000 100 check 
5555 1200 6000 100 check 
8888 0 8000 100 check 
total pot: 800 
/inquire 

------------



------------


river/ 
DIAMONDS 9 
/river 

------------



------------


inquire/ 
2222 2400 8000 100 check 
1111 4800 8000 100 check 
6666 3200 6000 100 check 
7777 4000 6000 100 check 
3333 3600 8000 100 check 
4444 2000 8000 100 check 
5555 1200 6000 100 check 
8888 0 8000 100 check 
total pot: 800 
/inquire 

------------



------------


showdown/ 
common/ 
SPADES 10 
DIAMONDS 10 
CLUBS 3 
HEARTS J 
DIAMONDS 9 
/common 
1: 2222 DIAMONDS Q CLUBS 10 THREE_OF_A_KIND 
5: 8888 DIAMONDS 4 HEARTS 4 TWO_PAIR 
4: 5555 SPADES 6 HEARTS 9 TWO_PAIR 
8: 4444 CLUBS 6 CLUBS 5 ONE_PAIR 
2: 3333 CLUBS 8 HEARTS 10 THREE_OF_A_KIND 
3: 7777 SPADES K DIAMONDS K TWO_PAIR 
7: 6666 CLUBS 4 SPADES 8 ONE_PAIR 
6: 1111 HEARTS K DIAMONDS 2 ONE_PAIR 
/showdown 

------------



------------


pot-win/ 
2222: 800 
/pot-win 

------------


seat/ 
button: 2222 3200 8000 
small blind: 8888 2000 6000 
big blind: 5555 1200 6000 
4444 2000 8000 
3333 3600 8000 
7777 4000 6000 
6666 3200 6000 
1111 4800 8000 
/seat 

------------


blind/ 
8888: 50 
5555: 100 
/blind 

------------


hold/ 
SPADES 8 
DIAMONDS Q 
/hold 

------------



------------


inquire/ 
2222 3100 8000 100 call 
1111 4700 8000 100 call 
6666 3100 6000 100 call 
7777 3900 6000 100 call 
3333 3500 8000 100 call 
4444 1900 8000 100 call 
5555 1100 6000 100 blind 
8888 1950 6000 50 blind 
total pot: 750 
/inquire 

------------



------------


flop/ 
DIAMONDS J 
SPADES 6 
CLUBS J 
/flop 

------------



------------


inquire/ 
2222 3100 8000 100 call 
1111 4700 8000 100 call 
6666 3100 6000 100 call 
7777 3900 6000 100 call 
3333 3500 8000 100 call 
4444 1900 8000 100 call 
5555 1100 6000 100 check 
8888 1900 6000 100 call 
total pot: 800 
/inquire 

------------



------------


turn/ 
DIAMONDS 7 
/turn 

------------



------------


inquire/ 
2222 3100 8000 100 check 
1111 4700 8000 100 check 
6666 3100 6000 100 check 
7777 3900 6000 100 check 
3333 3500 8000 100 check 
4444 1900 8000 100 check 
5555 1100 6000 100 check 
8888 1900 6000 100 check 
total pot: 800 
/inquire 

------------



------------


river/ 
HEARTS A 
/river 

------------



------------


inquire/ 
2222 3100 8000 100 check 
1111 4700 8000 100 check 
6666 3100 6000 100 check 
7777 3900 6000 100 check 
3333 3500 8000 100 check 
4444 1900 8000 100 check 
5555 1100 6000 100 check 
8888 1900 6000 100 check 
total pot: 800 
/inquire 

------------



------------


showdown/ 
common/ 
DIAMONDS J 
SPADES 6 
CLUBS J 
DIAMONDS 7 
HEARTS A 
/common 
6: 8888 SPADES 8 DIAMONDS Q ONE_PAIR 
1: 5555 HEARTS 4 SPADES J THREE_OF_A_KIND 
4: 4444 HEARTS 5 SPADES K ONE_PAIR 
5: 3333 CLUBS 10 CLUBS Q ONE_PAIR 
2: 7777 CLUBS A DIAMONDS 2 TWO_PAIR 
3: 6666 HEARTS 7 CLUBS 4 TWO_PAIR 
8: 1111 SPADES 5 SPADES 2 ONE_PAIR 
7: 2222 HEARTS 9 CLUBS 8 ONE_PAIR 
/showdown 

------------



------------


pot-win/ 
5555: 800 
/pot-win 

------------


seat/ 
button: 8888 1900 6000 
small blind: 5555 1900 6000 
big blind: 4444 1900 8000 
3333 3500 8000 
7777 3900 6000 
6666 3100 6000 
1111 4700 8000 
2222 3100 8000 
/seat 

------------


blind/ 
5555: 50 
4444: 100 
/blind 

------------


hold/ 
HEARTS 9 
CLUBS 8 
/hold 

------------



------------


inquire/ 
2222 3000 8000 100 call 
1111 4600 8000 100 call 
6666 3000 6000 100 call 
7777 3800 6000 100 call 
3333 3400 8000 100 call 
4444 1800 8000 100 blind 
5555 1850 6000 50 blind 
total pot: 650 
/inquire 

------------



------------


flop/ 
DIAMONDS J 
SPADES 6 
CLUBS J 
/flop 

------------



------------


inquire/ 
2222 3000 8000 100 check 
1111 4600 8000 100 check 
6666 3000 6000 100 check 
7777 3800 6000 100 check 
3333 3400 8000 100 check 
4444 1800 8000 100 check 
5555 1800 6000 100 check 
8888 1800 6000 100 call 
total pot: 800 
/inquire 

------------



------------


turn/ 
DIAMONDS 7 
/turn 

------------



------------


inquire/ 
2222 3000 8000 100 check 
1111 4600 8000 100 check 
6666 3000 6000 100 check 
7777 3800 6000 100 check 
3333 3400 8000 100 check 
4444 1800 8000 100 check 
5555 1800 6000 100 check 
8888 1800 6000 100 check 
total pot: 800 
/inquire 

------------



------------


river/ 
HEARTS A 
/river 

------------



------------


inquire/ 
2222 3000 8000 100 check 
1111 4600 8000 100 check 
6666 3000 6000 100 check 
7777 3800 6000 100 check 
3333 3400 8000 100 check 
4444 1800 8000 100 check 
5555 1800 6000 100 check 
8888 1800 6000 100 check 
total pot: 800 
/inquire 

------------



------------


showdown/ 
common/ 
DIAMONDS J 
SPADES 6 
CLUBS J 
DIAMONDS 7 
HEARTS A 
/common 
6: 5555 SPADES 8 DIAMONDS Q ONE_PAIR 
1: 4444 HEARTS 4 SPADES J THREE_OF_A_KIND 
4: 3333 HEARTS 5 SPADES K ONE_PAIR 
5: 7777 CLUBS 10 CLUBS Q ONE_PAIR 
2: 6666 CLUBS A DIAMONDS 2 TWO_PAIR 
3: 1111 HEARTS 7 CLUBS 4 TWO_PAIR 
8: 2222 SPADES 5 SPADES 2 ONE_PAIR 
7: 8888 HEARTS 9 CLUBS 8 ONE_PAIR 
/showdown 

------------



------------


pot-win/ 
4444: 800 
/pot-win 

------------


seat/ 
button: 5555 1800 6000 
small blind: 4444 2600 8000 
big blind: 3333 3400 8000 
7777 3800 6000 
6666 3000 6000 
1111 4600 8000 
2222 3000 8000 
8888 1800 6000 
/seat 

------------


blind/ 
4444: 50 
3333: 100 
/blind 

------------


hold/ 
SPADES 5 
SPADES 2 
/hold 

------------



------------


inquire/ 
2222 2900 8000 100 call 
1111 4500 8000 100 call 
6666 2900 6000 100 call 
7777 3700 6000 100 call 
3333 3300 8000 100 blind 
4444 2550 8000 50 blind 
total pot: 550 
/inquire 

------------



------------


flop/ 
DIAMONDS J 
SPADES 6 
CLUBS J 
/flop 

------------



------------


inquire/ 
2222 2900 8000 100 check 
1111 4500 8000 100 check 
6666 2900 6000 100 check 
7777 3700 6000 100 check 
3333 3300 8000 100 check 
4444 2500 8000 100 check 
5555 1700 6000 100 call 
8888 1700 6000 100 call 
total pot: 800 
/inquire 

------------



------------


turn/ 
DIAMONDS 7 
/turn 

------------



------------


inquire/ 
2222 2900 8000 100 check 
1111 4500 8000 100 check 
6666 2900 6000 100 check 
7777 3700 6000 100 check 
3333 3300 8000 100 check 
4444 2500 8000 100 check 
5555 1700 6000 100 check 
8888 1700 6000 100 check 
total pot: 800 
/inquire 

------------



------------


river/ 
HEARTS A 
/river 

------------



------------


inquire/ 
2222 2900 8000 100 check 
1111 4500 8000 100 check 
6666 2900 6000 100 check 
7777 3700 6000 100 check 
3333 3300 8000 100 check 
4444 2500 8000 100 check 
5555 1700 6000 100 check 
8888 1700 6000 100 check 
total pot: 800 
/inquire 

------------



------------


showdown/ 
common/ 
DIAMONDS J 
SPADES 6 
CLUBS J 
DIAMONDS 7 
HEARTS A 
/common 
6: 4444 SPADES 8 DIAMONDS Q ONE_PAIR 
1: 3333 HEARTS 4 SPADES J THREE_OF_A_KIND 
4: 7777 HEARTS 5 SPADES K ONE_PAIR 
5: 6666 CLUBS 10 CLUBS Q ONE_PAIR 
2: 1111 CLUBS A DIAMONDS 2 TWO_PAIR 
3: 2222 HEARTS 7 CLUBS 4 TWO_PAIR 
8: 8888 SPADES 5 SPADES 2 ONE_PAIR 
7: 5555 HEARTS 9 CLUBS 8 ONE_PAIR 
/showdown 

------------



------------


pot-win/ 
3333: 800 
/pot-win 

------------


seat/ 
button: 4444 2500 8000 
small blind: 3333 4100 8000 
big blind: 7777 3700 6000 
6666 2900 6000 
1111 4500 8000 
2222 2900 8000 
8888 1700 6000 
5555 1700 6000 
/seat 

------------


blind/ 
3333: 50 
7777: 100 
/blind 

------------


hold/ 
HEARTS 7 
CLUBS 4 
/hold 

------------



------------


inquire/ 
2222 2800 8000 100 call 
1111 4400 8000 100 call 
6666 2800 6000 100 call 
7777 3600 6000 100 blind 
3333 4050 8000 50 blind 
total pot: 450 
/inquire 

------------



------------


flop/ 
DIAMONDS J 
SPADES 6 
CLUBS J 
/flop 

------------



------------


inquire/ 
2222 2800 8000 100 check 
1111 4400 8000 100 check 
6666 2800 6000 100 check 
7777 3600 6000 100 check 
3333 4000 8000 100 check 
4444 2400 8000 100 call 
5555 1600 6000 100 call 
8888 1600 6000 100 call 
total pot: 800 
/inquire 

------------



------------


turn/ 
DIAMONDS 7 
/turn 

------------



------------


inquire/ 
2222 2800 8000 100 check 
1111 4400 8000 100 check 
6666 2800 6000 100 check 
7777 3600 6000 100 check 
3333 4000 8000 100 check 
4444 2400 8000 100 check 
5555 1600 6000 100 check 
8888 1600 6000 100 check 
total pot: 800 
/inquire 

------------



------------


river/ 
HEARTS A 
/river 

------------



------------


inquire/ 
2222 2800 8000 100 check 
1111 4400 8000 100 check 
6666 2800 6000 100 check 
7777 3600 6000 100 check 
3333 4000 8000 100 check 
4444 2400 8000 100 check 
5555 1600 6000 100 check 
8888 1600 6000 100 check 
total pot: 800 
/inquire 

------------



------------


showdown/ 
common/ 
DIAMONDS J 
SPADES 6 
CLUBS J 
DIAMONDS 7 
HEARTS A 
/common 
6: 3333 SPADES 8 DIAMONDS Q ONE_PAIR 
1: 7777 HEARTS 4 SPADES J THREE_OF_A_KIND 
4: 6666 HEARTS 5 SPADES K ONE_PAIR 
5: 1111 CLUBS 10 CLUBS Q ONE_PAIR 
2: 2222 CLUBS A DIAMONDS 2 TWO_PAIR 
3: 8888 HEARTS 7 CLUBS 4 TWO_PAIR 
8: 5555 SPADES 5 SPADES 2 ONE_PAIR 
7: 4444 HEARTS 9 CLUBS 8 ONE_PAIR 
/showdown 

------------



------------


pot-win/ 
7777: 800 
/pot-win 

------------


seat/ 
button: 3333 4000 8000 
small blind: 7777 4400 6000 
big blind: 6666 2800 6000 
1111 4400 8000 
2222 2800 8000 
8888 1600 6000 
5555 1600 6000 
4444 2400 8000 
/seat 

------------


blind/ 
7777: 50 
6666: 100 
/blind 

------------


hold/ 
CLUBS A 
DIAMONDS 2 
/hold 

------------



------------


inquire/ 
2222 2700 8000 100 call 
1111 4300 8000 100 call 
6666 2700 6000 100 blind 
7777 4350 6000 50 blind 
total pot: 350 
/inquire 

------------



------------


flop/ 
DIAMONDS J 
SPADES 6 
CLUBS J 
/flop 

------------



------------


inquire/ 
2222 2700 8000 100 check 
1111 4300 8000 100 check 
6666 2700 6000 100 check 
7777 4300 6000 100 check 
3333 3900 8000 100 call 
4444 2300 8000 100 call 
5555 1500 6000 100 call 
8888 1500 6000 100 call 
total pot: 800 
/inquire 

------------



------------


turn/ 
DIAMONDS 7 
/turn 

------------



------------


inquire/ 
2222 2700 8000 100 check 
1111 4300 8000 100 check 
6666 2700 6000 100 check 
7777 4300 6000 100 check 
3333 3900 8000 100 check 
4444 2300 8000 100 check 
5555 1500 6000 100 check 
8888 1500 6000 100 check 
total pot: 800 
/inquire 

------------



------------


river/ 
HEARTS A 
/river 

------------



------------


inquire/ 
2222 2700 8000 100 check 
1111 4300 8000 100 check 
6666 2700 6000 100 check 
7777 4300 6000 100 check 
3333 3900 8000 100 check 
4444 2300 8000 100 check 
5555 1500 6000 100 check 
8888 1500 6000 100 check 
total pot: 800 
/inquire 

------------



------------


showdown/ 
common/ 
DIAMONDS J 
SPADES 6 
CLUBS J 
DIAMONDS 7 
HEARTS A 
/common 
6: 7777 SPADES 8 DIAMONDS Q ONE_PAIR 
1: 6666 HEARTS 4 SPADES J THREE_OF_A_KIND 
4: 1111 HEARTS 5 SPADES K ONE_PAIR 
5: 2222 CLUBS 10 CLUBS Q ONE_PAIR 
2: 8888 CLUBS A DIAMONDS 2 TWO_PAIR 
3: 5555 HEARTS 7 CLUBS 4 TWO_PAIR 
8: 4444 SPADES 5 SPADES 2 ONE_PAIR 
7: 3333 HEARTS 9 CLUBS 8 ONE_PAIR 
/showdown 

------------



------------


pot-win/ 
6666: 800 
/pot-win 

------------


seat/ 
button: 7777 4300 6000 
small blind: 6666 3500 6000 
big blind: 1111 4300 8000 
2222 2700 8000 
8888 1500 6000 
5555 1500 6000 
4444 2300 8000 
3333 3900 8000 
/seat 

------------


blind/ 
6666: 50 
1111: 100 
/blind 

------------


hold/ 
DIAMONDS K 
HEARTS K 
/hold 

------------



------------


inquire/ 
2222 2600 8000 100 call 
1111 4200 8000 100 blind 
6666 3450 6000 50 blind 
total pot: 250 
/inquire 

------------



------------


flop/ 
SPADES 8 
SPADES 3 
SPADES 4 
/flop 

------------



------------


inquire/ 
2222 2600 8000 100 check 
1111 4200 8000 100 check 
6666 3400 6000 100 check 
7777 4200 6000 100 call 
3333 3800 8000 100 call 
4444 2200 8000 100 call 
5555 1400 6000 100 call 
8888 1400 6000 100 call 
total pot: 800 
/inquire 

------------



------------


turn/ 
CLUBS 2 
/turn 

------------



------------


inquire/ 
2222 2600 8000 100 check 
1111 4200 8000 100 check 
6666 3400 6000 100 check 
7777 4200 6000 100 check 
3333 3800 8000 100 check 
4444 2200 8000 100 check 
5555 1400 6000 100 check 
8888 1400 6000 100 check 
total pot: 800 
/inquire 

------------



------------


river/ 
HEARTS 2 
/river 

------------



------------


inquire/ 
2222 2600 8000 100 check 
1111 4200 8000 100 check 
6666 3400 6000 100 check 
7777 4200 6000 100 check 
3333 3800 8000 100 check 
4444 2200 8000 100 check 
5555 1400 6000 100 check 
8888 1400 6000 100 check 
total pot: 800 
/inquire 

------------



------------


showdown/ 
common/ 
SPADES 8 
SPADES 3 
SPADES 4 
CLUBS 2 
HEARTS 2 
/common 
4: 6666 DIAMONDS 10 CLUBS 4 TWO_PAIR 
5: 1111 HEARTS 3 SPADES 7 TWO_PAIR 
3: 2222 CLUBS 8 HEARTS 7 TWO_PAIR 
2: 8888 DIAMONDS K HEARTS K TWO_PAIR 
7: 5555 CLUBS J CLUBS 9 ONE_PAIR 
8: 4444 DIAMONDS 9 CLUBS 7 ONE_PAIR 
6: 3333 SPADES 6 HEARTS A ONE_PAIR 
1: 7777 SPADES 10 DIAMONDS 2 THREE_OF_A_KIND 
/showdown 

------------



------------


pot-win/ 
7777: 800 
/pot-win 

------------


seat/ 
button: 6666 3400 6000 
small blind: 1111 4200 8000 
big blind: 2222 2600 8000 
8888 1400 6000 
5555 1400 6000 
4444 2200 8000 
3333 3800 8000 
7777 5000 6000 
/seat 

------------


blind/ 
1111: 50 
2222: 100 
/blind 

------------


hold/ 
CLUBS 8 
HEARTS 7 
/hold 

------------


inquire/ 
2222 2500 8000 100 blind 
1111 4150 8000 50 blind 
total pot: 150 
/inquire 

------------



------------


flop/ 
SPADES 8 
SPADES 3 
SPADES 4 
/flop 

------------



------------


inquire/ 
2222 2500 8000 100 check 
1111 4100 8000 100 check 
6666 3300 6000 100 call 
7777 4900 6000 100 call 
3333 3700 8000 100 call 
4444 2100 8000 100 call 
5555 1300 6000 100 call 
8888 1300 6000 100 call 
total pot: 800 
/inquire 

------------



------------


turn/ 
CLUBS 2 
/turn 

------------



------------


inquire/ 
2222 2500 8000 100 check 
1111 4100 8000 100 check 
6666 3300 6000 100 check 
7777 4900 6000 100 check 
3333 3700 8000 100 check 
4444 2100 8000 100 check 
5555 1300 6000 100 check 
8888 1300 6000 100 check 
total pot: 800 
/inquire 

------------



------------


river/ 
HEARTS 2 
/river 

------------



------------


inquire/ 
2222 2500 8000 100 check 
1111 4100 8000 100 check 
6666 3300 6000 100 check 
7777 4900 6000 100 check 
3333 3700 8000 100 check 
4444 2100 8000 100 check 
5555 1300 6000 100 check 
8888 1300 6000 100 check 
total pot: 800 
/inquire 

------------



------------


showdown/ 
common/ 
SPADES 8 
SPADES 3 
SPADES 4 
CLUBS 2 
HEARTS 2 
/common 
4: 1111 DIAMONDS 10 CLUBS 4 TWO_PAIR 
5: 2222 HEARTS 3 SPADES 7 TWO_PAIR 
3: 8888 CLUBS 8 HEARTS 7 TWO_PAIR 
2: 5555 DIAMONDS K HEARTS K TWO_PAIR 
7: 4444 CLUBS J CLUBS 9 ONE_PAIR 
8: 3333 DIAMONDS 9 CLUBS 7 ONE_PAIR 
6: 7777 SPADES 6 HEARTS A ONE_PAIR 
1: 6666 SPADES 10 DIAMONDS 2 THREE_OF_A_KIND 
/showdown 

------------



------------


pot-win/ 
6666: 800 
/pot-win 

------------


seat/ 
button: 1111 4100 8000 
small blind: 2222 2500 8000 
big blind: 8888 1300 6000 
5555 1300 6000 
4444 2100 8000 
3333 3700 8000 
7777 4900 6000 
6666 4100 6000 
/seat 

------------


blind/ 
2222: 50 
8888: 100 
/blind 

------------


hold/ 
HEARTS 3 
SPADES 7 
/hold 

------------



------------


inquire/ 
2222 2400 8000 100 call 
1111 4000 8000 100 call 
6666 4000 6000 100 call 
7777 4800 6000 100 call 
3333 3600 8000 100 call 
4444 2000 8000 100 call 
5555 1200 6000 100 call 
8888 1200 6000 100 blind 
total pot: 800 
/inquire 

------------



------------


flop/ 
SPADES 8 
SPADES 3 
SPADES 4 
/flop 

------------



------------


inquire/ 
2222 2400 8000 100 check 
1111 4000 8000 100 call 
6666 4000 6000 100 call 
7777 4800 6000 100 call 
3333 3600 8000 100 call 
4444 2000 8000 100 call 
5555 1200 6000 100 call 
8888 1200 6000 100 check 
total pot: 800 
/inquire 

------------



------------


turn/ 
CLUBS 2 
/turn 

------------



------------


inquire/ 
2222 2400 8000 100 check 
1111 4000 8000 100 check 
6666 4000 6000 100 check 
7777 4800 6000 100 check 
3333 3600 8000 100 check 
4444 2000 8000 100 check 
5555 1200 6000 100 check 
8888 1200 6000 100 check 
total pot: 800 
/inquire 

------------



------------


river/ 
HEARTS 2 
/river 

------------



------------


inquire/ 
2222 2400 8000 100 check 
1111 4000 8000 100 check 
6666 4000 6000 100 check 
7777 4800 6000 100 check 
3333 3600 8000 100 check 
4444 2000 8000 100 check 
5555 1200 6000 100 check 
8888 1200 6000 100 check 
total pot: 800 
/inquire 

------------



------------


showdown/ 
common/ 
SPADES 8 
SPADES 3 
SPADES 4 
CLUBS 2 
HEARTS 2 
/common 
4: 2222 DIAMONDS 10 CLUBS 4 TWO_PAIR 
5: 8888 HEARTS 3 SPADES 7 TWO_PAIR 
3: 5555 CLUBS 8 HEARTS 7 TWO_PAIR 
2: 4444 DIAMONDS K HEARTS K TWO_PAIR 
7: 3333 CLUBS J CLUBS 9 ONE_PAIR 
8: 7777 DIAMONDS 9 CLUBS 7 ONE_PAIR 
6: 6666 SPADES 6 HEARTS A ONE_PAIR 
1: 1111 SPADES 10 DIAMONDS 2 THREE_OF_A_KIND 
/showdown 

------------



------------


pot-win/ 
1111: 800 
/pot-win 

------------


seat/ 
button: 2222 2400 8000 
small blind: 8888 1200 6000 
big blind: 5555 1200 6000 
4444 2000 8000 
3333 3600 8000 
7777 4800 6000 
6666 4000 6000 
1111 4800 8000 
/seat 

------------


blind/ 
8888: 50 
5555: 100 
/blind 

------------


hold/ 
DIAMONDS 10 
CLUBS 4 
/hold 

------------



------------


inquire/ 
2222 2300 8000 100 call 
1111 4700 8000 100 call 
6666 3900 6000 100 call 
7777 4700 6000 100 call 
3333 3500 8000 100 call 
4444 1900 8000 100 call 
5555 1100 6000 100 blind 
8888 1150 6000 50 blind 
total pot: 750 
/inquire 

------------



------------


flop/ 
SPADES 8 
SPADES 3 
SPADES 4 
/flop 

------------



------------


inquire/ 
2222 2300 8000 100 call 
1111 4700 8000 100 call 
6666 3900 6000 100 call 
7777 4700 6000 100 call 
3333 3500 8000 100 call 
4444 1900 8000 100 call 
5555 1100 6000 100 check 
8888 1100 6000 100 call 
total pot: 800 
/inquire 

------------



------------


turn/ 
CLUBS 2 
/turn 

------------



------------


inquire/ 
2222 2300 8000 100 check 
1111 4700 8000 100 check 
6666 3900 6000 100 check 
7777 4700 6000 100 check 
3333 3500 8000 100 check 
4444 1900 8000 100 check 
5555 1100 6000 100 check 
8888 1100 6000 100 check 
total pot: 800 
/inquire 

------------



------------


river/ 
HEARTS 2 
/river 

------------



------------


inquire/ 
2222 2300 8000 100 check 
1111 4700 8000 100 check 
6666 3900 6000 100 check 
7777 4700 6000 100 check 
3333 3500 8000 100 check 
4444 1900 8000 100 check 
5555 1100 6000 100 check 
8888 1100 6000 100 check 
total pot: 800 
/inquire 

------------



------------


showdown/ 
common/ 
SPADES 8 
SPADES 3 
SPADES 4 
CLUBS 2 
HEARTS 2 
/common 
4: 8888 DIAMONDS 10 CLUBS 4 TWO_PAIR 
5: 5555 HEARTS 3 SPADES 7 TWO_PAIR 
3: 4444 CLUBS 8 HEARTS 7 TWO_PAIR 
2: 3333 DIAMONDS K HEARTS K TWO_PAIR 
7: 7777 CLUBS J CLUBS 9 ONE_PAIR 
8: 6666 DIAMONDS 9 CLUBS 7 ONE_PAIR 
6: 1111 SPADES 6 HEARTS A ONE_PAIR 
1: 2222 SPADES 10 DIAMONDS 2 THREE_OF_A_KIND 
/showdown 

------------



------------


pot-win/ 
2222: 800 
/pot-win 

------------


seat/ 
button: 8888 1100 6000 
small blind: 5555 1100 6000 
big blind: 4444 1900 8000 
3333 3500 8000 
7777 4700 6000 
6666 3900 6000 
1111 4700 8000 
2222 3100 8000 
/seat 

------------


blind/ 
5555: 50 
4444: 100 
/blind 

------------


hold/ 
SPADES 10 
DIAMONDS 2 
/hold 

------------



------------


inquire/ 
2222 3000 8000 100 call 
1111 4600 8000 100 call 
6666 3800 6000 100 call 
7777 4600 6000 100 call 
3333 3400 8000 100 call 
4444 1800 8000 100 blind 
5555 1050 6000 50 blind 
total pot: 650 
/inquire 

------------



------------


flop/ 
SPADES 8 
SPADES 3 
SPADES 4 
/flop 

------------



------------


inquire/ 
2222 3000 8000 100 check 
1111 4600 8000 100 check 
6666 3800 6000 100 check 
7777 4600 6000 100 check 
3333 3400 8000 100 check 
4444 1800 8000 100 check 
5555 1000 6000 100 check 
8888 1000 6000 100 call 
total pot: 800 
/inquire 

------------



------------


turn/ 
CLUBS 2 
/turn 

------------



------------


inquire/ 
2222 3000 8000 100 check 
1111 4600 8000 100 check 
6666 3800 6000 100 check 
7777 4600 6000 100 check 
3333 3400 8000 100 check 
4444 1800 8000 100 check 
5555 1000 6000 100 check 
8888 1000 6000 100 check 
total pot: 800 
/inquire 

------------



------------


river/ 
HEARTS 2 
/river 

------------



------------


inquire/ 
2222 3000 8000 100 check 
1111 4600 8000 100 check 
6666 3800 6000 100 check 
7777 4600 6000 100 check 
3333 3400 8000 100 check 
4444 1800 8000 100 check 
5555 1000 6000 100 check 
8888 1000 6000 100 check 
total pot: 800 
/inquire 

------------



------------


showdown/ 
common/ 
SPADES 8 
SPADES 3 
SPADES 4 
CLUBS 2 
HEARTS 2 
/common 
4: 5555 DIAMONDS 10 CLUBS 4 TWO_PAIR 
5: 4444 HEARTS 3 SPADES 7 TWO_PAIR 
3: 3333 CLUBS 8 HEARTS 7 TWO_PAIR 
2: 7777 DIAMONDS K HEARTS K TWO_PAIR 
7: 6666 CLUBS J CLUBS 9 ONE_PAIR 
8: 1111 DIAMONDS 9 CLUBS 7 ONE_PAIR 
6: 2222 SPADES 6 HEARTS A ONE_PAIR 
1: 8888 SPADES 10 DIAMONDS 2 THREE_OF_A_KIND 
/showdown 

------------



------------


pot-win/ 
8888: 800 
/pot-win 

------------


seat/ 
button: 5555 1000 6000 
small blind: 4444 1800 8000 
big blind: 3333 3400 8000 
7777 4600 6000 
6666 3800 6000 
1111 4600 8000 
2222 3000 8000 
8888 1800 6000 
/seat 

------------


blind/ 
4444: 50 
3333: 100 
/blind 

------------


hold/ 
SPADES 6 
HEARTS A 
/hold 

------------



------------


inquire/ 
2222 2900 8000 100 call 
1111 4500 8000 100 call 
6666 3700 6000 100 call 
7777 4500 6000 100 call 
3333 3300 8000 100 blind 
4444 1750 8000 50 blind 
total pot: 550 
/inquire 

------------



------------


flop/ 
SPADES 8 
SPADES 3 
SPADES 4 
/flop 

------------



------------


inquire/ 
2222 2900 8000 100 check 
1111 4500 8000 100 check 
6666 3700 6000 100 check 
7777 4500 6000 100 check 
3333 3300 8000 100 check 
4444 1700 8000 100 check 
5555 900 6000 100 call 
8888 1700 6000 100 call 
total pot: 800 
/inquire 

------------



------------


turn/ 
CLUBS 2 
/turn 

------------



------------


inquire/ 
2222 2900 8000 100 check 
1111 4500 8000 100 check 
6666 3700 6000 100 check 
7777 4500 6000 100 check 
3333 3300 8000 100 check 
4444 1700 8000 100 check 
5555 900 6000 100 check 
8888 1700 6000 100 check 
total pot: 800 
/inquire 

------------



------------


river/ 
HEARTS 2 
/river 

------------



------------


inquire/ 
2222 2900 8000 100 check 
1111 4500 8000 100 check 
6666 3700 6000 100 check 
7777 4500 6000 100 check 
3333 3300 8000 100 check 
4444 1700 8000 100 check 
5555 900 6000 100 check 
8888 1700 6000 100 check 
total pot: 800 
/inquire 

------------



------------


showdown/ 
common/ 
SPADES 8 
SPADES 3 
SPADES 4 
CLUBS 2 
HEARTS 2 
/common 
4: 4444 DIAMONDS 10 CLUBS 4 TWO_PAIR 
5: 3333 HEARTS 3 SPADES 7 TWO_PAIR 
3: 7777 CLUBS 8 HEARTS 7 TWO_PAIR 
2: 6666 DIAMONDS K HEARTS K TWO_PAIR 
7: 1111 CLUBS J CLUBS 9 ONE_PAIR 
8: 2222 DIAMONDS 9 CLUBS 7 ONE_PAIR 
6: 8888 SPADES 6 HEARTS A ONE_PAIR 
1: 5555 SPADES 10 DIAMONDS 2 THREE_OF_A_KIND 
/showdown 

------------



------------


pot-win/ 
5555: 800 
/pot-win 

------------


seat/ 
button: 4444 1700 8000 
small blind: 3333 3300 8000 
big blind: 7777 4500 6000 
6666 3700 6000 
1111 4500 8000 
2222 2900 8000 
8888 1700 6000 
5555 1700 6000 
/seat 

------------


blind/ 
3333: 50 
7777: 100 
/blind 

------------


hold/ 
CLUBS K 
SPADES K 
/hold 

------------



------------


inquire/ 
2222 2800 8000 100 call 
1111 4400 8000 100 call 
6666 3600 6000 100 call 
7777 4400 6000 100 blind 
3333 3250 8000 50 blind 
total pot: 450 
/inquire 

------------



------------


flop/ 
HEARTS 6 
SPADES 7 
CLUBS 6 
/flop 

------------



------------


inquire/ 
2222 2800 8000 100 check 
1111 4400 8000 100 check 
6666 3600 6000 100 check 
7777 4400 6000 100 check 
3333 3200 8000 100 check 
4444 1600 8000 100 call 
5555 1600 6000 100 call 
8888 1600 6000 100 call 
total pot: 800 
/inquire 

------------



------------


turn/ 
SPADES 3 
/turn 

------------



------------


inquire/ 
2222 2800 8000 100 check 
1111 4400 8000 100 check 
6666 3600 6000 100 check 
7777 4400 6000 100 check 
3333 3200 8000 100 check 
4444 1600 8000 100 check 
5555 1600 6000 100 check 
8888 1600 6000 100 check 
total pot: 800 
/inquire 

------------



------------


river/ 
SPADES 6 
/river 

------------



------------


inquire/ 
2222 2800 8000 100 check 
1111 4400 8000 100 check 
6666 3600 6000 100 check 
7777 4400 6000 100 check 
3333 3200 8000 100 check 
4444 1600 8000 100 check 
5555 1600 6000 100 check 
8888 1600 6000 100 check 
total pot: 800 
/inquire 

------------



------------


showdown/ 
common/ 
HEARTS 6 
SPADES 7 
CLUBS 6 
SPADES 3 
SPADES 6 
/common 
8: 3333 CLUBS 9 HEARTS 4 THREE_OF_A_KIND 
5: 7777 HEARTS J HEARTS Q THREE_OF_A_KIND 
1: 6666 DIAMONDS 6 HEARTS K FOUR_OF_A_KIND 
4: 1111 DIAMONDS A HEARTS 5 THREE_OF_A_KIND 
3: 2222 CLUBS 7 CLUBS 8 FULL_HOUSE 
2: 8888 CLUBS K SPADES K FULL_HOUSE 
7: 5555 DIAMONDS 4 SPADES 10 THREE_OF_A_KIND 
6: 4444 SPADES 9 CLUBS 10 THREE_OF_A_KIND 
/showdown 

------------



------------


pot-win/ 
6666: 800 
/pot-win 

------------


seat/ 
button: 3333 3200 8000 
small blind: 7777 4400 6000 
big blind: 6666 4400 6000 
1111 4400 8000 
2222 2800 8000 
8888 1600 6000 
5555 1600 6000 
4444 1600 8000 
/seat 

------------


blind/ 
7777: 50 
6666: 100 
/blind 

------------


hold/ 
CLUBS 7 
CLUBS 8 
/hold 

------------



------------


inquire/ 
2222 2700 8000 100 call 
1111 4300 8000 100 call 
6666 4300 6000 100 blind 
7777 4350 6000 50 blind 
total pot: 350 
/inquire 

------------



------------


flop/ 
HEARTS 6 
SPADES 7 
CLUBS 6 
/flop 

------------



------------


inquire/ 
2222 2700 8000 100 check 
1111 4300 8000 100 check 
6666 4300 6000 100 check 
7777 4300 6000 100 check 
3333 3100 8000 100 call 
4444 1500 8000 100 call 
5555 1500 6000 100 call 
8888 1500 6000 100 call 
total pot: 800 
/inquire 

------------



------------


turn/ 
SPADES 3 
/turn 

------------



------------


inquire/ 
2222 2700 8000 100 check 
1111 4300 8000 100 check 
6666 4300 6000 100 check 
7777 4300 6000 100 check 
3333 3100 8000 100 check 
4444 1500 8000 100 check 
5555 1500 6000 100 check 
8888 1500 6000 100 check 
total pot: 800 
/inquire 

------------



------------


river/ 
SPADES 6 
/river 

------------



------------


inquire/ 
2222 2700 8000 100 check 
1111 4300 8000 100 check 
6666 4300 6000 100 check 
7777 4300 6000 100 check 
3333 3100 8000 100 check 
4444 1500 8000 100 check 
5555 1500 6000 100 check 
8888 1500 6000 100 check 
total pot: 800 
/inquire 

------------



------------


showdown/ 
common/ 
HEARTS 6 
SPADES 7 
CLUBS 6 
SPADES 3 
SPADES 6 
/common 
8: 7777 CLUBS 9 HEARTS 4 THREE_OF_A_KIND 
5: 6666 HEARTS J HEARTS Q THREE_OF_A_KIND 
1: 1111 DIAMONDS 6 HEARTS K FOUR_OF_A_KIND 
4: 2222 DIAMONDS A HEARTS 5 THREE_OF_A_KIND 
3: 8888 CLUBS 7 CLUBS 8 FULL_HOUSE 
2: 5555 CLUBS K SPADES K FULL_HOUSE 
7: 4444 DIAMONDS 4 SPADES 10 THREE_OF_A_KIND 
6: 3333 SPADES 9 CLUBS 10 THREE_OF_A_KIND 
/showdown 

------------



------------


pot-win/ 
1111: 800 
/pot-win 

------------


seat/ 
button: 7777 4300 6000 
small blind: 6666 4300 6000 
big blind: 1111 5100 8000 
2222 2700 8000 
8888 1500 6000 
5555 1500 6000 
4444 1500 8000 
3333 3100 8000 
/seat 

------------


blind/ 
6666: 50 
1111: 100 
/blind 

------------


hold/ 
DIAMONDS A 
HEARTS 5 
/hold 

------------



------------


inquire/ 
2222 2600 8000 100 call 
1111 5000 8000 100 blind 
6666 4250 6000 50 blind 
total pot: 250 
/inquire 

------------



------------


flop/ 
HEARTS 6 
SPADES 7 
CLUBS 6 
/flop 

------------



------------


inquire/ 
2222 2600 8000 100 check 
1111 5000 8000 100 check 
6666 4200 6000 100 check 
7777 4200 6000 100 call 
3333 3000 8000 100 call 
4444 1400 8000 100 call 
5555 1400 6000 100 call 
8888 1400 6000 100 call 
total pot: 800 
/inquire 

------------



------------


turn/ 
SPADES 3 
/turn 

------------



------------


inquire/ 
2222 2600 8000 100 check 
1111 5000 8000 100 check 
6666 4200 6000 100 check 
7777 4200 6000 100 check 
3333 3000 8000 100 check 
4444 1400 8000 100 check 
5555 1400 6000 100 check 
8888 1400 6000 100 check 
total pot: 800 
/inquire 

------------



------------


river/ 
SPADES 6 
/river 

------------



------------


inquire/ 
2222 2600 8000 100 check 
1111 5000 8000 100 check 
6666 4200 6000 100 check 
7777 4200 6000 100 check 
3333 3000 8000 100 check 
4444 1400 8000 100 check 
5555 1400 6000 100 check 
8888 1400 6000 100 check 
total pot: 800 
/inquire 

------------



------------


showdown/ 
common/ 
HEARTS 6 
SPADES 7 
CLUBS 6 
SPADES 3 
SPADES 6 
/common 
8: 6666 CLUBS 9 HEARTS 4 THREE_OF_A_KIND 
5: 1111 HEARTS J HEARTS Q THREE_OF_A_KIND 
1: 2222 DIAMONDS 6 HEARTS K FOUR_OF_A_KIND 
4: 8888 DIAMONDS A HEARTS 5 THREE_OF_A_KIND 
3: 5555 CLUBS 7 CLUBS 8 FULL_HOUSE 
2: 4444 CLUBS K SPADES K FULL_HOUSE 
7: 3333 DIAMONDS 4 SPADES 10 THREE_OF_A_KIND 
6: 7777 SPADES 9 CLUBS 10 THREE_OF_A_KIND 
/showdown 

------------



------------


pot-win/ 
2222: 800 
/pot-win 

------------


seat/ 
button: 6666 4200 6000 
small blind: 1111 5000 8000 
big blind: 2222 3400 8000 
8888 1400 6000 
5555 1400 6000 
4444 1400 8000 
3333 3000 8000 
7777 4200 6000 
/seat 

------------


blind/ 
1111: 50 
2222: 100 
/blind 

------------


hold/ 
DIAMONDS 6 
HEARTS K 
/hold 

------------


inquire/ 
2222 3300 8000 100 blind 
1111 4950 8000 50 blind 
total pot: 150 
/inquire 

------------



------------


flop/ 
HEARTS 6 
SPADES 7 
CLUBS 6 
/flop 

------------



------------


inquire/ 
2222 3300 8000 100 check 
1111 4900 8000 100 check 
6666 4100 6000 100 call 
7777 4100 6000 100 call 
3333 2900 8000 100 call 
4444 1300 8000 100 call 
5555 1300 6000 100 call 
8888 1300 6000 100 call 
total pot: 800 
/inquire 

------------



------------


turn/ 
SPADES 3 
/turn 

------------



------------


inquire/ 
2222 3300 8000 100 check 
1111 4900 8000 100 check 
6666 4100 6000 100 check 
7777 4100 6000 100 check 
3333 2900 8000 100 check 
4444 1300 8000 100 check 
5555 1300 6000 100 check 
8888 1300 6000 100 check 
total pot: 800 
/inquire 

------------



------------


river/ 
SPADES 6 
/river 

------------



------------


inquire/ 
2222 3300 8000 100 check 
1111 4900 8000 100 check 
6666 4100 6000 100 check 
7777 4100 6000 100 check 
3333 2900 8000 100 check 
4444 1300 8000 100 check 
5555 1300 6000 100 check 
8888 1300 6000 100 check 
total pot: 800 
/inquire 

------------



------------


showdown/ 
common/ 
HEARTS 6 
SPADES 7 
CLUBS 6 
SPADES 3 
SPADES 6 
/common 
8: 1111 CLUBS 9 HEARTS 4 THREE_OF_A_KIND 
5: 2222 HEARTS J HEARTS Q THREE_OF_A_KIND 
1: 8888 DIAMONDS 6 HEARTS K FOUR_OF_A_KIND 
4: 5555 DIAMONDS A HEARTS 5 THREE_OF_A_KIND 
3: 4444 CLUBS 7 CLUBS 8 FULL_HOUSE 
2: 3333 CLUBS K SPADES K FULL_HOUSE 
7: 7777 DIAMONDS 4 SPADES 10 THREE_OF_A_KIND 
6: 6666 SPADES 9 CLUBS 10 THREE_OF_A_KIND 
/showdown 

------------



------------


pot-win/ 
8888: 800 
/pot-win 

------------


seat/ 
button: 1111 4900 8000 
small blind: 2222 3300 8000 
big blind: 8888 2100 6000 
5555 1300 6000 
4444 1300 8000 
3333 2900 8000 
7777 4100 6000 
6666 4100 6000 
/seat 

------------


blind/ 
2222: 50 
8888: 100 
/blind 

------------


hold/ 
HEARTS J 
HEARTS Q 
/hold 

------------



------------


inquire/ 
2222 3200 8000 100 call 
1111 4800 8000 100 call 
6666 4000 6000 100 call 
7777 4000 6000 100 call 
3333 2800 8000 100 call 
4444 1200 8000 100 call 
5555 1200 6000 100 call 
8888 2000 6000 100 blind 
total pot: 800 
/inquire 

------------



------------


flop/ 
HEARTS 6 
SPADES 7 
CLUBS 6 
/flop 

------------



------------


inquire/ 
2222 3200 8000 100 check 
1111 4800 8000 100 call 
6666 4000 6000 100 call 
7777 4000 6000 100 call 
3333 2800 8000 100 call 
4444 1200 8000 100 call 
5555 1200 6000 100 call 
8888 2000 6000 100 check 
total pot: 800 
/inquire 

------------



------------


turn/ 
SPADES 3 
/turn 

------------



------------


inquire/ 
2222 3200 8000 100 check 
1111 4800 8000 100 check 
6666 4000 6000 100 check 
7777 4000 6000 100 check 
3333 2800 8000 100 check 
4444 1200 8000 100 check 
5555 1200 6000 100 check 
8888 2000 6000 100 check 
total pot: 800 
/inquire 

------------



------------


river/ 
SPADES 6 
/river 

------------



------------


inquire/ 
2222 3200 8000 100 check 
1111 4800 8000 100 check 
6666 4000 6000 100 check 
7777 4000 6000 100 check 
3333 2800 8000 100 check 
4444 1200 8000 100 check 
5555 1200 6000 100 check 
8888 2000 6000 100 check 
total pot: 800 
/inquire 

------------



------------


showdown/ 
common/ 
HEARTS 6 
SPADES 7 
CLUBS 6 
SPADES 3 
SPADES 6 
/common 
8: 2222 CLUBS 9 HEARTS 4 THREE_OF_A_KIND 
5: 8888 HEARTS J HEARTS Q THREE_OF_A_KIND 
1: 5555 DIAMONDS 6 HEARTS K FOUR_OF_A_KIND 
4: 4444 DIAMONDS A HEARTS 5 THREE_OF_A_KIND 
3: 3333 CLUBS 7 CLUBS 8 FULL_HOUSE 
2: 7777 CLUBS K SPADES K FULL_HOUSE 
7: 6666 DIAMONDS 4 SPADES 10 THREE_OF_A_KIND 
6: 1111 SPADES 9 CLUBS 10 THREE_OF_A_KIND 
/showdown 

------------



------------


pot-win/ 
5555: 800 
/pot-win 

------------


seat/ 
button: 2222 3200 8000 
small blind: 8888 2000 6000 
big blind: 5555 2000 6000 
4444 1200 8000 
3333 2800 8000 
7777 4000 6000 
6666 4000 6000 
1111 4800 8000 
/seat 

------------


blind/ 
8888: 50 
5555: 100 
/blind 

------------


hold/ 
CLUBS 9 
HEARTS 4 
/hold 

------------



------------


inquire/ 
2222 3100 8000 100 call 
1111 4700 8000 100 call 
6666 3900 6000 100 call 
7777 3900 6000 100 call 
3333 2700 8000 100 call 
4444 1100 8000 100 call 
5555 1900 6000 100 blind 
8888 1950 6000 50 blind 
total pot: 750 
/inquire 

------------



------------


flop/ 
HEARTS 6 
SPADES 7 
CLUBS 6 
/flop 

------------



------------


inquire/ 
2222 3100 8000 100 call 
1111 4700 8000 100 call 
6666 3900 6000 100 call 
7777 3900 6000 100 call 
3333 2700 8000 100 call 
4444 1100 8000 100 call 
5555 1900 6000 100 check 
8888 1900 6000 100 call 
total pot: 800 
/inquire 

------------



------------


turn/ 
SPADES 3 
/turn 

------------



------------


inquire/ 
2222 3100 8000 100 check 
1111 4700 8000 100 check 
6666 3900 6000 100 check 
7777 3900 6000 100 check 
3333 2700 8000 100 check 
4444 1100 8000 100 check 
5555 1900 6000 100 check 
8888 1900 6000 100 check 
total pot: 800 
/inquire 

------------



------------


river/ 
SPADES 6 
/river 

------------



------------


inquire/ 
2222 3100 8000 100 check 
1111 4700 8000 100 check 
6666 3900 6000 100 check 
7777 3900 6000 100 check 
3333 2700 8000 100 check 
4444 1100 8000 100 check 
5555 1900 6000 100 check 
8888 1900 6000 100 check 
total pot: 800 
/inquire 

------------



------------


showdown/ 
common/ 
HEARTS 6 
SPADES 7 
CLUBS 6 
SPADES 3 
SPADES 6 
/common 
8: 8888 CLUBS 9 HEARTS 4 THREE_OF_A_KIND 
5: 5555 HEARTS J HEARTS Q THREE_OF_A_KIND 
1: 4444 DIAMONDS 6 HEARTS K FOUR_OF_A_KIND 
4: 3333 DIAMONDS A HEARTS 5 THREE_OF_A_KIND 
3: 7777 CLUBS 7 CLUBS 8 FULL_HOUSE 
2: 6666 CLUBS K SPADES K FULL_HOUSE 
7: 1111 DIAMONDS 4 SPADES 10 THREE_OF_A_KIND 
6: 2222 SPADES 9 CLUBS 10 THREE_OF_A_KIND 
/showdown 

------------



------------


pot-win/ 
4444: 800 
/pot-win 

------------


seat/ 
button: 8888 1900 6000 
small blind: 5555 1900 6000 
big blind: 4444 1900 8000 
3333 2700 8000 
7777 3900 6000 
6666 3900 6000 
1111 4700 8000 
2222 3100 8000 
/seat 

------------


blind/ 
5555: 50 
4444: 100 
/blind 

------------


hold/ 
HEARTS 2 
SPADES 10 
/hold 

------------



------------


inquire/ 
2222 3000 8000 100 call 
1111 4600 8000 100 call 
6666 3800 6000 100 call 
7777 3800 6000 100 call 
3333 2600 8000 100 call 
4444 1800 8000 100 blind 
5555 1850 6000 50 blind 
total pot: 650 
/inquire 

------------



------------


flop/ 
HEARTS K 
CLUBS 10 
DIAMONDS 9 
/flop 

------------



------------


inquire/ 
2222 3000 8000 100 check 
1111 4600 8000 100 check 
6666 3800 6000 100 check 
7777 3800 6000 100 check 
3333 2600 8000 100 check 
4444 1800 8000 100 check 
5555 1800 6000 100 check 
8888 1800 6000 100 call 
total pot: 800 
/inquire 

------------



------------


turn/ 
HEARTS Q 
/turn 

------------



------------


inquire/ 
2222 3000 8000 100 check 
1111 4600 8000 100 check 
6666 3800 6000 100 check 
7777 3800 6000 100 check 
3333 2600 8000 100 check 
4444 1800 8000 100 check 
5555 1800 6000 100 check 
8888 1800 6000 100 check 
total pot: 800 
/inquire 

------------



------------


river/ 
HEARTS 9 
/river 

------------



------------


inquire/ 
2222 3000 8000 100 check 
1111 4600 8000 100 check 
6666 3800 6000 100 check 
7777 3800 6000 100 check 
3333 2600 8000 100 check 
4444 1800 8000 100 check 
5555 1800 6000 100 check 
8888 1800 6000 100 check 
total pot: 800 
/inquire 

------------



------------


showdown/ 
common/ 
HEARTS K 
CLUBS 10 
DIAMONDS 9 
HEARTS Q 
HEARTS 9 
/common 
5: 5555 DIAMONDS 5 SPADES 2 ONE_PAIR 
2: 4444 DIAMONDS 8 SPADES J STRAIGHT 
2: 3333 CLUBS J DIAMONDS 3 STRAIGHT 
3: 7777 CLUBS 7 CLUBS Q TWO_PAIR 
5: 6666 CLUBS 6 SPADES 8 ONE_PAIR 
2: 1111 DIAMONDS J CLUBS 5 STRAIGHT 
1: 2222 SPADES K CLUBS K FULL_HOUSE 
4: 8888 HEARTS 2 SPADES 10 TWO_PAIR 
/showdown 

------------



------------


pot-win/ 
2222: 800 
/pot-win 

------------


seat/ 
button: 5555 1800 6000 
small blind: 4444 1800 8000 
big blind: 3333 2600 8000 
7777 3800 6000 
6666 3800 6000 
1111 4600 8000 
2222 3800 8000 
8888 1800 6000 
/seat 

------------


blind/ 
4444: 50 
3333: 100 
/blind 

------------


hold/ 
SPADES K 
CLUBS K 
/hold 

------------



------------


inquire/ 
2222 3700 8000 100 call 
1111 4500 8000 100 call 
6666 3700 6000 100 call 
7777 3700 6000 100 call 
3333 2500 8000 100 blind 
4444 1750 8000 50 blind 
total pot: 550 
/inquire 

------------



------------


flop/ 
HEARTS K 
CLUBS 10 
DIAMONDS 9 
/flop 

------------



------------


inquire/ 
2222 3700 8000 100 check 
1111 4500 8000 100 check 
6666 3700 6000 100 check 
7777 3700 6000 100 check 
3333 2500 8000 100 check 
4444 1700 8000 100 check 
5555 1700 6000 100 call 
8888 1700 6000 100 call 
total pot: 800 
/inquire 

------------



------------


turn/ 
HEARTS Q 
/turn 

------------



------------


inquire/ 
2222 3700 8000 100 check 
1111 4500 8000 100 check 
6666 3700 6000 100 check 
7777 3700 6000 100 check 
3333 2500 8000 100 check 
4444 1700 8000 100 check 
5555 1700 6000 100 check 
8888 1700 6000 100 check 
total pot: 800 
/inquire 

------------



------------


river/ 
HEARTS 9 
/river 

------------



------------


inquire/ 
2222 3700 8000 100 check 
1111 4500 8000 100 check 
6666 3700 6000 100 check 
7777 3700 6000 100 check 
3333 2500 8000 100 check 
4444 1700 8000 100 check 
5555 1700 6000 100 check 
8888 1700 6000 100 check 
total pot: 800 
/inquire 

------------



------------


showdown/ 
common/ 
HEARTS K 
CLUBS 10 
DIAMONDS 9 
HEARTS Q 
HEARTS 9 
/common 
5: 4444 DIAMONDS 5 SPADES 2 ONE_PAIR 
2: 3333 DIAMONDS 8 SPADES J STRAIGHT 
2: 7777 CLUBS J DIAMONDS 3 STRAIGHT 
3: 6666 CLUBS 7 CLUBS Q TWO_PAIR 
5: 1111 CLUBS 6 SPADES 8 ONE_PAIR 
2: 2222 DIAMONDS J CLUBS 5 STRAIGHT 
1: 8888 SPADES K CLUBS K FULL_HOUSE 
4: 5555 HEARTS 2 SPADES 10 TWO_PAIR 
/showdown 

------------



------------


pot-win/ 
8888: 800 
/pot-win 

------------


seat/ 
button: 4444 1700 8000 
small blind: 3333 2500 8000 
big blind: 7777 3700 6000 
6666 3700 6000 
1111 4500 8000 
2222 3700 8000 
8888 2500 6000 
5555 1700 6000 
/seat 

------------


blind/ 
3333: 50 
7777: 100 
/blind 

------------


hold/ 
DIAMONDS J 
CLUBS 5 
/hold 

------------



------------


inquire/ 
2222 3600 8000 100 call 
1111 4400 8000 100 call 
6666 3600 6000 100 call 
7777 3600 6000 100 blind 
3333 2450 8000 50 blind 
total pot: 450 
/inquire 

------------



------------


flop/ 
HEARTS K 
CLUBS 10 
DIAMONDS 9 
/flop 

------------



------------


inquire/ 
2222 3600 8000 100 check 
1111 4400 8000 100 check 
6666 3600 6000 100 check 
7777 3600 6000 100 check 
3333 2400 8000 100 check 
4444 1600 8000 100 call 
5555 1600 6000 100 call 
8888 2400 6000 100 call 
total pot: 800 
/inquire 

------------



------------


turn/ 
HEARTS Q 
/turn 

------------



------------


inquire/ 
2222 3600 8000 100 check 
1111 4400 8000 100 check 
6666 3600 6000 100 check 
7777 3600 6000 100 check 
3333 2400 8000 100 check 
4444 1600 8000 100 check 
5555 1600 6000 100 check 
8888 2400 6000 100 check 
total pot: 800 
/inquire 

------------



------------


river/ 
HEARTS 9 
/river 

------------



------------


inquire/ 
2222 3600 8000 100 check 
1111 4400 8000 100 check 
6666 3600 6000 100 check 
7777 3600 6000 100 check 
3333 2400 8000 100 check 
4444 1600 8000 100 check 
5555 1600 6000 100 check 
8888 2400 6000 100 check 
total pot: 800 
/inquire 

------------



------------


showdown/ 
common/ 
HEARTS K 
CLUBS 10 
DIAMONDS 9 
HEARTS Q 
HEARTS 9 
/common 
5: 3333 DIAMONDS 5 SPADES 2 ONE_PAIR 
2: 7777 DIAMONDS 8 SPADES J STRAIGHT 
2: 6666 CLUBS J DIAMONDS 3 STRAIGHT 
3: 1111 CLUBS 7 CLUBS Q TWO_PAIR 
5: 2222 CLUBS 6 SPADES 8 ONE_PAIR 
2: 8888 DIAMONDS J CLUBS 5 STRAIGHT 
1: 5555 SPADES K CLUBS K FULL_HOUSE 
4: 4444 HEARTS 2 SPADES 10 TWO_PAIR 
/showdown 

------------



------------


pot-win/ 
5555: 800 
/pot-win 

------------


seat/ 
button: 3333 2400 8000 
small blind: 7777 3600 6000 
big blind: 6666 3600 6000 
1111 4400 8000 
2222 3600 8000 
8888 2400 6000 
5555 2400 6000 
4444 1600 8000 
/seat 

------------


blind/ 
7777: 50 
6666: 100 
/blind 

------------


hold/ 
CLUBS 6 
SPADES 8 
/hold 

------------



------------


inquire/ 
2222 3500 8000 100 call 
1111 4300 8000 100 call 
6666 3500 6000 100 blind 
7777 3550 6000 50 blind 
total pot: 350 
/inquire 

------------



------------


flop/ 
HEARTS K 
CLUBS 10 
DIAMONDS 9 
/flop 

------------



------------


inquire/ 
2222 3500 8000 100 check 
1111 4300 8000 100 check 
6666 3500 6000 100 check 
7777 3500 6000 100 check 
3333 2300 8000 100 call 
4444 1500 8000 100 call 
5555 2300 6000 100 call 
8888 2300 6000 100 call 
total pot: 800 
/inquire 

------------



------------


turn/ 
HEARTS Q 
/turn 

------------



------------


inquire/ 
2222 3500 8000 100 check 
1111 4300 8000 100 check 
6666 3500 6000 100 check 
7777 3500 6000 100 check 
3333 2300 8000 100 check 
4444 1500 8000 100 check 
5555 2300 6000 100 check 
8888 2300 6000 100 check 
total pot: 800 
/inquire 

------------



------------


river/ 
HEARTS 9 
/river 

------------



------------


inquire/ 
2222 3500 8000 100 check 
1111 4300 8000 100 check 
6666 3500 6000 100 check 
7777 3500 6000 100 check 
3333 2300 8000 100 check 
4444 1500 8000 100 check 
5555 2300 6000 100 check 
8888 2300 6000 100 check 
total pot: 800 
/inquire 

------------



------------


showdown/ 
common/ 
HEARTS K 
CLUBS 10 
DIAMONDS 9 
HEARTS Q 
HEARTS 9 
/common 
5: 7777 DIAMONDS 5 SPADES 2 ONE_PAIR 
2: 6666 DIAMONDS 8 SPADES J STRAIGHT 
2: 1111 CLUBS J DIAMONDS 3 STRAIGHT 
3: 2222 CLUBS 7 CLUBS Q TWO_PAIR 
5: 8888 CLUBS 6 SPADES 8 ONE_PAIR 
2: 5555 DIAMONDS J CLUBS 5 STRAIGHT 
1: 4444 SPADES K CLUBS K FULL_HOUSE 
4: 3333 HEARTS 2 SPADES 10 TWO_PAIR 
/showdown 

------------



------------


pot-win/ 
4444: 800 
/pot-win 

------------


seat/ 
button: 7777 3500 6000 
small blind: 6666 3500 6000 
big blind: 1111 4300 8000 
2222 3500 8000 
8888 2300 6000 
5555 2300 6000 
4444 2300 8000 
3333 2300 8000 
/seat 

------------


blind/ 
6666: 50 
1111: 100 
/blind 

------------


hold/ 
CLUBS 7 
CLUBS Q 
/hold 

------------



------------


inquire/ 
2222 3400 8000 100 call 
1111 4200 8000 100 blind 
6666 3450 6000 50 blind 
total pot: 250 
/inquire 

------------



------------


flop/ 
HEARTS K 
CLUBS 10 
DIAMONDS 9 
/flop 

------------



------------


inquire/ 
2222 3400 8000 100 check 
1111 4200 8000 100 check 
6666 3400 6000 100 check 
7777 3400 6000 100 call 
3333 2200 8000 100 call 
4444 2200 8000 100 call 
5555 2200 6000 100 call 
8888 2200 6000 100 call 
total pot: 800 
/inquire 

------------



------------


turn/ 
HEARTS Q 
/turn 

------------



------------


inquire/ 
2222 3400 8000 100 check 
1111 4200 8000 100 check 
6666 3400 6000 100 check 
7777 3400 6000 100 check 
3333 2200 8000 100 check 
4444 2200 8000 100 check 
5555 2200 6000 100 check 
8888 2200 6000 100 check 
total pot: 800 
/inquire 

------------



------------


river/ 
HEARTS 9 
/river 

------------



------------


inquire/ 
2222 3400 8000 100 check 
1111 4200 8000 100 check 
6666 3400 6000 100 check 
7777 3400 6000 100 check 
3333 2200 8000 100 check 
4444 2200 8000 100 check 
5555 2200 6000 100 check 
8888 2200 6000 100 check 
total pot: 800 
/inquire 

------------



------------


showdown/ 
common/ 
HEARTS K 
CLUBS 10 
DIAMONDS 9 
HEARTS Q 
HEARTS 9 
/common 
5: 6666 DIAMONDS 5 SPADES 2 ONE_PAIR 
2: 1111 DIAMONDS 8 SPADES J STRAIGHT 
2: 2222 CLUBS J DIAMONDS 3 STRAIGHT 
3: 8888 CLUBS 7 CLUBS Q TWO_PAIR 
5: 5555 CLUBS 6 SPADES 8 ONE_PAIR 
2: 4444 DIAMONDS J CLUBS 5 STRAIGHT 
1: 3333 SPADES K CLUBS K FULL_HOUSE 
4: 7777 HEARTS 2 SPADES 10 TWO_PAIR 
/showdown 

------------



------------


pot-win/ 
3333: 800 
/pot-win 

------------


seat/ 
button: 6666 3400 6000 
small blind: 1111 4200 8000 
big blind: 2222 3400 8000 
8888 2200 6000 
5555 2200 6000 
4444 2200 8000 
3333 3000 8000 
7777 3400 6000 
/seat 

------------


blind/ 
1111: 50 
2222: 100 
/blind 

------------


hold/ 
SPADES 6 
DIAMONDS 10 
/hold 

------------


inquire/ 
2222 3300 8000 100 blind 
1111 4150 8000 50 blind 
total pot: 150 
/inquire 

------------



------------


flop/ 
CLUBS 6 
DIAMONDS 5 
DIAMONDS 9 
/flop 

------------



------------


inquire/ 
2222 3300 8000 100 check 
1111 4100 8000 100 check 
6666 3300 6000 100 call 
7777 3300 6000 100 call 
3333 2900 8000 100 call 
4444 2100 8000 100 call 
5555 2100 6000 100 call 
8888 2100 6000 100 call 
total pot: 800 
/inquire 

------------



------------


turn/ 
HEARTS Q 
/turn 

------------



------------


inquire/ 
2222 3300 8000 100 check 
1111 4100 8000 100 check 
6666 3300 6000 100 check 
7777 3300 6000 100 check 
3333 2900 8000 100 check 
4444 2100 8000 100 check 
5555 2100 6000 100 check 
8888 2100 6000 100 check 
total pot: 800 
/inquire 

------------



------------


river/ 
HEARTS 9 
/river 

------------



------------


inquire/ 
2222 3300 8000 100 check 
1111 4100 8000 100 check 
6666 3300 6000 100 check 
7777 3300 6000 100 check 
3333 2900 8000 100 check 
4444 2100 8000 100 check 
5555 2100 6000 100 check 
8888 2100 6000 100 check 
total pot: 800 
/inquire 

------------



------------


showdown/ 
common/ 
CLUBS 6 
DIAMONDS 5 
DIAMONDS 9 
HEARTS Q 
HEARTS 9 
/common 
3: 1111 HEARTS 6 DIAMONDS 4 TWO_PAIR 
4: 2222 SPADES 5 HEARTS 10 TWO_PAIR 
3: 8888 SPADES 6 DIAMONDS 10 TWO_PAIR 
7: 5555 CLUBS 3 CLUBS 8 ONE_PAIR 
2: 4444 HEARTS K DIAMONDS 6 TWO_PAIR 
6: 3333 SPADES J DIAMONDS K ONE_PAIR 
5: 7777 SPADES 2 CLUBS 2 TWO_PAIR 
1: 6666 HEARTS 3 SPADES 9 THREE_OF_A_KIND 
/showdown 

------------



------------


pot-win/ 
6666: 800 
/pot-win 

------------


seat/ 
button: 1111 4100 8000 
small blind: 2222 3300 8000 
big blind: 8888 2100 6000 
5555 2100 6000 
4444 2100 8000 
3333 2900 8000 
7777 3300 6000 
6666 4100 6000 
/seat 

------------


blind/ 
2222: 50 
8888: 100 
/blind 

------------


hold/ 
SPADES 5 
HEARTS 10 
/hold 

------------



------------


inquire/ 
2222 3200 8000 100 call 
1111 4000 8000 100 call 
6666 4000 6000 100 call 
7777 3200 6000 100 call 
3333 2800 8000 100 call 
4444 2000 8000 100 call 
5555 2000 6000 100 call 
8888 2000 6000 100 blind 
total pot: 800 
/inquire 

------------



------------


flop/ 
CLUBS 6 
DIAMONDS 5 
DIAMONDS 9 
/flop 

------------



------------


inquire/ 
2222 3200 8000 100 check 
1111 4000 8000 100 call 
6666 4000 6000 100 call 
7777 3200 6000 100 call 
3333 2800 8000 100 call 
4444 2000 8000 100 call 
5555 2000 6000 100 call 
8888 2000 6000 100 check 
total pot: 800 
/inquire 

------------



------------


turn/ 
HEARTS Q 
/turn 

------------



------------


inquire/ 
2222 3200 8000 100 check 
1111 4000 8000 100 check 
6666 4000 6000 100 check 
7777 3200 6000 100 check 
3333 2800 8000 100 check 
4444 2000 8000 100 check 
5555 2000 6000 100 check 
8888 2000 6000 100 check 
total pot: 800 
/inquire 

------------



------------


river/ 
HEARTS 9 
/river 

------------



------------


inquire/ 
2222 3200 8000 100 check 
1111 4000 8000 100 check 
6666 4000 6000 100 check 
7777 3200 6000 100 check 
3333 2800 8000 100 check 
4444 2000 8000 100 check 
5555 2000 6000 100 check 
8888 2000 6000 100 check 
total pot: 800 
/inquire 

------------



------------


showdown/ 
common/ 
CLUBS 6 
DIAMONDS 5 
DIAMONDS 9 
HEARTS Q 
HEARTS 9 
/common 
3: 2222 HEARTS 6 DIAMONDS 4 TWO_PAIR 
4: 8888 SPADES 5 HEARTS 10 TWO_PAIR 
3: 5555 SPADES 6 DIAMONDS 10 TWO_PAIR 
7: 4444 CLUBS 3 CLUBS 8 ONE_PAIR 
2: 3333 HEARTS K DIAMONDS 6 TWO_PAIR 
6: 7777 SPADES J DIAMONDS K ONE_PAIR 
5: 6666 SPADES 2 CLUBS 2 TWO_PAIR 
1: 1111 HEARTS 3 SPADES 9 THREE_OF_A_KIND 
/showdown 

------------



------------


pot-win/ 
1111: 800 
/pot-win 

------------


seat/ 
button: 2222 3200 8000 
small blind: 8888 2000 6000 
big blind: 5555 2000 6000 
4444 2000 8000 
3333 2800 8000 
7777 3200 6000 
6666 4000 6000 
1111 4800 8000 
/seat 

------------


blind/ 
8888: 50 
5555: 100 
/blind 

------------


hold/ 
HEARTS 6 
DIAMONDS 4 
/hold 

------------



------------


inquire/ 
2222 3100 8000 100 call 
1111 4700 8000 100 call 
6666 3900 6000 100 call 
7777 3100 6000 100 call 
3333 2700 8000 100 call 
4444 1900 8000 100 call 
5555 1900 6000 100 blind 
8888 1950 6000 50 blind 
total pot: 750 
/inquire 

------------



------------


flop/ 
CLUBS 6 
DIAMONDS 5 
DIAMONDS 9 
/flop 

------------



------------


inquire/ 
2222 3100 8000 100 call 
1111 4700 8000 100 call 
6666 3900 6000 100 call 
7777 3100 6000 100 call 
3333 2700 8000 100 call 
4444 1900 8000 100 call 
5555 1900 6000 100 check 
8888 1900 6000 100 call 
total pot: 800 
/inquire 

------------



------------


turn/ 
HEARTS Q 
/turn 

------------



------------


inquire/ 
2222 3100 8000 100 check 
1111 4700 8000 100 check 
6666 3900 6000 100 check 
7777 3100 6000 100 check 
3333 2700 8000 100 check 
4444 1900 8000 100 check 
5555 1900 6000 100 check 
8888 1900 6000 100 check 
total pot: 800 
/inquire 

------------



------------


river/ 
HEARTS 9 
/river 

------------



------------


inquire/ 
2222 3100 8000 100 check 
1111 4700 8000 100 check 
6666 3900 6000 100 check 
7777 3100 6000 100 check 
3333 2700 8000 100 check 
4444 1900 8000 100 check 
5555 1900 6000 100 check 
8888 1900 6000 100 check 
total pot: 800 
/inquire 

------------



------------


showdown/ 
common/ 
CLUBS 6 
DIAMONDS 5 
DIAMONDS 9 
HEARTS Q 
HEARTS 9 
/common 
3: 8888 HEARTS 6 DIAMONDS 4 TWO_PAIR 
4: 5555 SPADES 5 HEARTS 10 TWO_PAIR 
3: 4444 SPADES 6 DIAMONDS 10 TWO_PAIR 
7: 3333 CLUBS 3 CLUBS 8 ONE_PAIR 
2: 7777 HEARTS K DIAMONDS 6 TWO_PAIR 
6: 6666 SPADES J DIAMONDS K ONE_PAIR 
5: 1111 SPADES 2 CLUBS 2 TWO_PAIR 
1: 2222 HEARTS 3 SPADES 9 THREE_OF_A_KIND 
/showdown 

------------



------------


pot-win/ 
2222: 800 
/pot-win 

------------


seat/ 
button: 8888 1900 6000 
small blind: 5555 1900 6000 
big blind: 4444 1900 8000 
3333 2700 8000 
7777 3100 6000 
6666 3900 6000 
1111 4700 8000 
2222 3900 8000 
/seat 

------------


blind/ 
5555: 50 
4444: 100 
/blind 

------------


hold/ 
HEARTS 3 
SPADES 9 
/hold 

------------



------------


inquire/ 
2222 3800 8000 100 call 
1111 4600 8000 100 call 
6666 3800 6000 100 call 
7777 3000 6000 100 call 
3333 2600 8000 100 call 
4444 1800 8000 100 blind 
5555 1850 6000 50 blind 
total pot: 650 
/inquire 

------------



------------


flop/ 
CLUBS 6 
DIAMONDS 5 
DIAMONDS 9 
/flop 

------------



------------


inquire/ 
2222 3800 8000 100 check 
1111 4600 8000 100 check 
6666 3800 6000 100 check 
7777 3000 6000 100 check 
3333 2600 8000 100 check 
4444 1800 8000 100 check 
5555 1800 6000 100 check 
8888 1800 6000 100 call 
total pot: 800 
/inquire 

------------



------------


turn/ 
HEARTS Q 
/turn 

------------



------------


inquire/ 
2222 3800 8000 100 check 
1111 4600 8000 100 check 
6666 3800 6000 100 check 
7777 3000 6000 100 check 
3333 2600 8000 100 check 
4444 1800 8000 100 check 
5555 1800 6000 100 check 
8888 1800 6000 100 check 
total pot: 800 
/inquire 

------------



------------


river/ 
HEARTS 9 
/river 

------------



------------


inquire/ 
2222 3800 8000 100 check 
1111 4600 8000 100 check 
6666 3800 6000 100 check 
7777 3000 6000 100 check 
3333 2600 8000 100 check 
4444 1800 8000 100 check 
5555 1800 6000 100 check 
8888 1800 6000 100 check 
total pot: 800 
/inquire 

------------



------------


showdown/ 
common/ 
CLUBS 6 
DIAMONDS 5 
DIAMONDS 9 
HEARTS Q 
HEARTS 9 
/common 
3: 5555 HEARTS 6 DIAMONDS 4 TWO_PAIR 
4: 4444 SPADES 5 HEARTS 10 TWO_PAIR 
3: 3333 SPADES 6 DIAMONDS 10 TWO_PAIR 
7: 7777 CLUBS 3 CLUBS 8 ONE_PAIR 
2: 6666 HEARTS K DIAMONDS 6 TWO_PAIR 
6: 1111 SPADES J DIAMONDS K ONE_PAIR 
5: 2222 SPADES 2 CLUBS 2 TWO_PAIR 
1: 8888 HEARTS 3 SPADES 9 THREE_OF_A_KIND 
/showdown 

------------



------------


pot-win/ 
8888: 800 
/pot-win 

------------


seat/ 
button: 5555 1800 6000 
small blind: 4444 1800 8000 
big blind: 3333 2600 8000 
7777 3000 6000 
6666 3800 6000 
1111 4600 8000 
2222 3800 8000 
8888 2600 6000 
/seat 

------------


blind/ 
4444: 50 
3333: 100 
/blind 

------------


hold/ 
SPADES 2 
CLUBS 2 
/hold 

------------



------------


inquire/ 
2222 3700 8000 100 call 
1111 4500 8000 100 call 
6666 3700 6000 100 call 
7777 2900 6000 100 call 
3333 2500 8000 100 blind 
4444 1750 8000 50 blind 
total pot: 550 
/inquire 

------------



------------


flop/ 
CLUBS 6 
DIAMONDS 5 
DIAMONDS 9 
/flop 

------------



------------


inquire/ 
2222 3700 8000 100 check 
1111 4500 8000 100 check 
6666 3700 6000 100 check 
7777 2900 6000 100 check 
3333 2500 8000 100 check 
4444 1700 8000 100 check 
5555 1700 6000 100 call 
8888 2500 6000 100 call 
total pot: 800 
/inquire 

------------



------------


turn/ 
HEARTS Q 
/turn 

------------



------------


inquire/ 
2222 3700 8000 100 check 
1111 4500 8000 100 check 
6666 3700 6000 100 check 
7777 2900 6000 100 check 
3333 2500 8000 100 check 
4444 1700 8000 100 check 
5555 1700 6000 100 check 
8888 2500 6000 100 check 
total pot: 800 
/inquire 

------------



------------


river/ 
HEARTS 9 
/river 

------------



------------


inquire/ 
2222 3700 8000 100 check 
1111 4500 8000 100 check 
6666 3700 6000 100 check 
7777 2900 6000 100 check 
3333 2500 8000 100 check 
4444 1700 8000 100 check 
5555 1700 6000 100 check 
8888 2500 6000 100 check 
total pot: 800 
/inquire 

------------



------------


showdown/ 
common/ 
CLUBS 6 
DIAMONDS 5 
DIAMONDS 9 
HEARTS Q 
HEARTS 9 
/common 
3: 4444 HEARTS 6 DIAMONDS 4 TWO_PAIR 
4: 3333 SPADES 5 HEARTS 10 TWO_PAIR 
3: 7777 SPADES 6 DIAMONDS 10 TWO_PAIR 
7: 6666 CLUBS 3 CLUBS 8 ONE_PAIR 
2: 1111 HEARTS K DIAMONDS 6 TWO_PAIR 
6: 2222 SPADES J DIAMONDS K ONE_PAIR 
5: 8888 SPADES 2 CLUBS 2 TWO_PAIR 
1: 5555 HEARTS 3 SPADES 9 THREE_OF_A_KIND 
/showdown 

------------



------------


pot-win/ 
5555: 800 
/pot-win 

------------


seat/ 
button: 4444 1700 8000 
small blind: 3333 2500 8000 
big blind: 7777 2900 6000 
6666 3700 6000 
1111 4500 8000 
2222 3700 8000 
8888 2500 6000 
5555 2500 6000 
/seat 

------------


blind/ 
3333: 50 
7777: 100 
/blind 

------------


hold/ 
SPADES J 
DIAMONDS K 
/hold 

------------



------------


inquire/ 
2222 3600 8000 100 call 
1111 4400 8000 100 call 
6666 3600 6000 100 call 
7777 2800 6000 100 blind 
3333 2450 8000 50 blind 
total pot: 450 
/inquire 

------------



------------


flop/ 
CLUBS 6 
DIAMONDS 5 
DIAMONDS 9 
/flop 

------------



------------


inquire/ 
2222 3600 8000 100 check 
1111 4400 8000 100 check 
6666 3600 6000 100 check 
7777 2800 6000 100 check 
3333 2400 8000 100 check 
4444 1600 8000 100 call 
5555 2400 6000 100 call 
8888 2400 6000 100 call 
total pot: 800 
/inquire 

------------



------------


turn/ 
HEARTS Q 
/turn 

------------



------------


inquire/ 
2222 3600 8000 100 check 
1111 4400 8000 100 check 
6666 3600 6000 100 check 
7777 2800 6000 100 check 
3333 2400 8000 100 check 
4444 1600 8000 100 check 
5555 2400 6000 100 check 
8888 2400 6000 100 check 
total pot: 800 
/inquire 

------------



------------


river/ 
HEARTS 9 
/river 

------------



------------


inquire/ 
2222 3600 8000 100 check 
1111 4400 8000 100 check 
6666 3600 6000 100 check 
7777 2800 6000 100 check 
3333 2400 8000 100 check 
4444 1600 8000 100 check 
5555 2400 6000 100 check 
8888 2400 6000 100 check 
total pot: 800 
/inquire 

------------



------------


showdown/ 
common/ 
CLUBS 6 
DIAMONDS 5 
DIAMONDS 9 
HEARTS Q 
HEARTS 9 
/common 
3: 3333 HEARTS 6 DIAMONDS 4 TWO_PAIR 
4: 7777 SPADES 5 HEARTS 10 TWO_PAIR 
3: 6666 SPADES 6 DIAMONDS 10 TWO_PAIR 
7: 1111 CLUBS 3 CLUBS 8 ONE_PAIR 
2: 2222 HEARTS K DIAMONDS 6 TWO_PAIR 
6: 8888 SPADES J DIAMONDS K ONE_PAIR 
5: 5555 SPADES 2 CLUBS 2 TWO_PAIR 
1: 4444 HEARTS 3 SPADES 9 THREE_OF_A_KIND 
/showdown 

------------



------------


pot-win/ 
4444: 800 
/pot-win 

------------


seat/ 
button: 3333 2400 8000 
small blind: 7777 2800 6000 
big blind: 6666 3600 6000 
1111 4400 8000 
2222 3600 8000 
8888 2400 6000 
5555 2400 6000 
4444 2400 8000 
/seat 

------------


blind/ 
7777: 50 
6666: 100 
/blind 

------------


hold/ 
SPADES K 
DIAMONDS 3 
/hold 

------------



------------


inquire/ 
2222 3500 8000 100 call 
1111 4300 8000 100 call 
6666 3500 6000 100 blind 
7777 2750 6000 50 blind 
total pot: 350 
/inquire 

------------



------------


flop/ 
SPADES 6 
DIAMONDS 8 
CLUBS 7 
/flop 

------------



------------


inquire/ 
2222 3500 8000 100 check 
1111 4300 8000 100 check 
6666 3500 6000 100 check 
7777 2700 6000 100 check 
3333 2300 8000 100 call 
4444 2300 8000 100 call 
5555 2300 6000 100 call 
8888 2300 6000 100 call 
total pot: 800 
/inquire 

------------



------------


turn/ 
HEARTS 9 
/turn 

------------



------------


inquire/ 
2222 3500 8000 100 check 
1111 4300 8000 100 check 
6666 3500 6000 100 check 
7777 2700 6000 100 check 
3333 2300 8000 100 check 
4444 2300 8000 100 check 
5555 2300 6000 100 check 
8888 2300 6000 100 check 
total pot: 800 
/inquire 

------------



------------


river/ 
SPADES 7 
/river 

------------



------------


inquire/ 
2222 3500 8000 100 check 
1111 4300 8000 100 check 
6666 3500 6000 100 check 
7777 2700 6000 100 check 
3333 2300 8000 100 check 
4444 2300 8000 100 check 
5555 2300 6000 100 check 
8888 2300 6000 100 check 
total pot: 800 
/inquire 

------------



------------


showdown/ 
common/ 
SPADES 6 
DIAMONDS 8 
CLUBS 7 
HEARTS 9 
SPADES 7 
/common 
6: 7777 HEARTS Q HEARTS J ONE_PAIR 
1: 6666 SPADES 9 HEARTS 7 FULL_HOUSE 
6: 1111 CLUBS Q SPADES J ONE_PAIR 
5: 2222 CLUBS K DIAMONDS 4 ONE_PAIR 
5: 8888 SPADES K DIAMONDS 3 ONE_PAIR 
3: 5555 CLUBS 6 SPADES 4 TWO_PAIR 
2: 4444 HEARTS 10 SPADES 2 STRAIGHT 
4: 3333 DIAMONDS A HEARTS 3 ONE_PAIR 
/showdown 

------------



------------


pot-win/ 
6666: 800 
/pot-win 

------------


seat/ 
button: 7777 2700 6000 
small blind: 6666 4300 6000 
big blind: 1111 4300 8000 
2222 3500 8000 
8888 2300 6000 
5555 2300 6000 
4444 2300 8000 
3333 2300 8000 
/seat 

------------


blind/ 
6666: 50 
1111: 100 
/blind 

------------


hold/ 
CLUBS K 
DIAMONDS 4 
/hold 

------------



------------


inquire/ 
2222 3400 8000 100 call 
1111 4200 8000 100 blind 
6666 4250 6000 50 blind 
total pot: 250 
/inquire 

------------



------------


flop/ 
SPADES 6 
DIAMONDS 8 
CLUBS 7 
/flop 

------------



------------


inquire/ 
2222 3400 8000 100 check 
1111 4200 8000 100 check 
6666 4200 6000 100 check 
7777 2600 6000 100 call 
3333 2200 8000 100 call 
4444 2200 8000 100 call 
5555 2200 6000 100 call 
8888 2200 6000 100 call 
total pot: 800 
/inquire 

------------



------------


turn/ 
HEARTS 9 
/turn 

------------



------------


inquire/ 
2222 3400 8000 100 check 
1111 4200 8000 100 check 
6666 4200 6000 100 check 
7777 2600 6000 100 check 
3333 2200 8000 100 check 
4444 2200 8000 100 check 
5555 2200 6000 100 check 
8888 2200 6000 100 check 
total pot: 800 
/inquire 

------------



------------


river/ 
SPADES 7 
/river 

------------



------------


inquire/ 
2222 3400 8000 100 check 
1111 4200 8000 100 check 
6666 4200 6000 100 check 
7777 2600 6000 100 check 
3333 2200 8000 100 check 
4444 2200 8000 100 check 
5555 2200 6000 100 check 
8888 2200 6000 100 check 
total pot: 800 
/inquire 

------------



------------


showdown/ 
common/ 
SPADES 6 
DIAMONDS 8 
CLUBS 7 
HEARTS 9 
SPADES 7 
/common 
6: 6666 HEARTS Q HEARTS J ONE_PAIR 
1: 1111 SPADES 9 HEARTS 7 FULL_HOUSE 
6: 2222 CLUBS Q SPADES J ONE_PAIR 
5: 8888 CLUBS K DIAMONDS 4 ONE_PAIR 
5: 5555 SPADES K DIAMONDS 3 ONE_PAIR 
3: 4444 CLUBS 6 SPADES 4 TWO_PAIR 
2: 3333 HEARTS 10 SPADES 2 STRAIGHT 
4: 7777 DIAMONDS A HEARTS 3 ONE_PAIR 
/showdown 

------------



------------


pot-win/ 
1111: 800 
/pot-win 

------------


seat/ 
button: 6666 4200 6000 
small blind: 1111 5000 8000 
big blind: 2222 3400 8000 
8888 2200 6000 
5555 2200 6000 
4444 2200 8000 
3333 2200 8000 
7777 2600 6000 
/seat 

------------


blind/ 
1111: 50 
2222: 100 
/blind 

------------


hold/ 
CLUBS Q 
SPADES J 
/hold 

------------


inquire/ 
2222 3300 8000 100 blind 
1111 4950 8000 50 blind 
total pot: 150 
/inquire 

------------



------------


flop/ 
SPADES 6 
DIAMONDS 8 
CLUBS 7 
/flop 

------------



------------


inquire/ 
2222 3300 8000 100 check 
1111 4900 8000 100 check 
6666 4100 6000 100 call 
7777 2500 6000 100 call 
3333 2100 8000 100 call 
4444 2100 8000 100 call 
5555 2100 6000 100 call 
8888 2100 6000 100 call 
total pot: 800 
/inquire 

------------



------------


turn/ 
HEARTS 9 
/turn 

------------



------------


inquire/ 
2222 3300 8000 100 check 
1111 4900 8000 100 check 
6666 4100 6000 100 check 
7777 2500 6000 100 check 
3333 2100 8000 100 check 
4444 2100 8000 100 check 
5555 2100 6000 100 check 
8888 2100 6000 100 check 
total pot: 800 
/inquire 

------------



------------


river/ 
SPADES 7 
/river 

------------



------------


inquire/ 
2222 3300 8000 100 check 
1111 4900 8000 100 check 
6666 4100 6000 100 check 
7777 2500 6000 100 check 
3333 2100 8000 100 check 
4444 2100 8000 100 check 
5555 2100 6000 100 check 
8888 2100 6000 100 check 
total pot: 800 
/inquire 

------------



------------


showdown/ 
common/ 
SPADES 6 
DIAMONDS 8 
CLUBS 7 
HEARTS 9 
SPADES 7 
/common 
6: 1111 HEARTS Q HEARTS J ONE_PAIR 
1: 2222 SPADES 9 HEARTS 7 FULL_HOUSE 
6: 8888 CLUBS Q SPADES J ONE_PAIR 
5: 5555 CLUBS K DIAMONDS 4 ONE_PAIR 
5: 4444 SPADES K DIAMONDS 3 ONE_PAIR 
3: 3333 CLUBS 6 SPADES 4 TWO_PAIR 
2: 7777 HEARTS 10 SPADES 2 STRAIGHT 
4: 6666 DIAMONDS A HEARTS 3 ONE_PAIR 
/showdown 

------------



------------


pot-win/ 
2222: 800 
/pot-win 

------------


seat/ 
button: 1111 4900 8000 
small blind: 2222 4100 8000 
big blind: 8888 2100 6000 
5555 2100 6000 
4444 2100 8000 
3333 2100 8000 
7777 2500 6000 
6666 4100 6000 
/seat 

------------


blind/ 
2222: 50 
8888: 100 
/blind 

------------


hold/ 
SPADES 9 
HEARTS 7 
/hold 

------------



------------


inquire/ 
2222 4000 8000 100 call 
1111 4800 8000 100 call 
6666 4000 6000 100 call 
7777 2400 6000 100 call 
3333 2000 8000 100 call 
4444 2000 8000 100 call 
5555 2000 6000 100 call 
8888 2000 6000 100 blind 
total pot: 800 
/inquire 

------------



------------


flop/ 
SPADES 6 
DIAMONDS 8 
CLUBS 7 
/flop 

------------



------------


inquire/ 
2222 4000 8000 100 check 
1111 4800 8000 100 call 
6666 4000 6000 100 call 
7777 2400 6000 100 call 
3333 2000 8000 100 call 
4444 2000 8000 100 call 
5555 2000 6000 100 call 
8888 2000 6000 100 check 
total pot: 800 
/inquire 

------------



------------


turn/ 
HEARTS 9 
/turn 

------------



------------


inquire/ 
2222 4000 8000 100 check 
1111 4800 8000 100 check 
6666 4000 6000 100 check 
7777 2400 6000 100 check 
3333 2000 8000 100 check 
4444 2000 8000 100 check 
5555 2000 6000 100 check 
8888 2000 6000 100 check 
total pot: 800 
/inquire 

------------



------------


river/ 
SPADES 7 
/river 

------------



------------


inquire/ 
2222 4000 8000 100 check 
1111 4800 8000 100 check 
6666 4000 6000 100 check 
7777 2400 6000 100 check 
3333 2000 8000 100 check 
4444 2000 8000 100 check 
5555 2000 6000 100 check 
8888 2000 6000 100 check 
total pot: 800 
/inquire 

------------



------------


showdown/ 
common/ 
SPADES 6 
DIAMONDS 8 
CLUBS 7 
HEARTS 9 
SPADES 7 
/common 
6: 2222 HEARTS Q HEARTS J ONE_PAIR 
1: 8888 SPADES 9 HEARTS 7 FULL_HOUSE 
6: 5555 CLUBS Q SPADES J ONE_PAIR 
5: 4444 CLUBS K DIAMONDS 4 ONE_PAIR 
5: 3333 SPADES K DIAMONDS 3 ONE_PAIR 
3: 7777 CLUBS 6 SPADES 4 TWO_PAIR 
2: 6666 HEARTS 10 SPADES 2 STRAIGHT 
4: 1111 DIAMONDS A HEARTS 3 ONE_PAIR 
/showdown 

------------



------------


pot-win/ 
8888: 800 
/pot-win 

------------


seat/ 
button: 2222 4000 8000 
small blind: 8888 2800 6000 
big blind: 5555 2000 6000 
4444 2000 8000 
3333 2000 8000 
7777 2400 6000 
6666 4000 6000 
1111 4800 8000 
/seat 

------------


blind/ 
8888: 50 
5555: 100 
/blind 

------------


hold/ 
HEARTS Q 
HEARTS J 
/hold 

------------



------------


inquire/ 
2222 3900 8000 100 call 
1111 4700 8000 100 call 
6666 3900 6000 100 call 
7777 2300 6000 100 call 
3333 1900 8000 100 call 
4444 1900 8000 100 call 
5555 1900 6000 100 blind 
8888 2750 6000 50 blind 
total pot: 750 
/inquire 

------------



------------


flop/ 
SPADES 6 
DIAMONDS 8 
CLUBS 7 
/flop 

------------



------------


inquire/ 
2222 3900 8000 100 call 
1111 4700 8000 100 call 
6666 3900 6000 100 call 
7777 2300 6000 100 call 
3333 1900 8000 100 call 
4444 1900 8000 100 call 
5555 1900 6000 100 check 
8888 2700 6000 100 call 
total pot: 800 
/inquire 

------------



------------


turn/ 
HEARTS 9 
/turn 

------------



------------


inquire/ 
2222 3900 8000 100 check 
1111 4700 8000 100 check 
6666 3900 6000 100 check 
7777 2300 6000 100 check 
3333 1900 8000 100 check 
4444 1900 8000 100 check 
5555 1900 6000 100 check 
8888 2700 6000 100 check 
total pot: 800 
/inquire 

------------



------------


river/ 
SPADES 7 
/river 

------------



------------


inquire/ 
2222 3900 8000 100 check 
1111 4700 8000 100 check 
6666 3900 6000 100 check 
7777 2300 6000 100 check 
3333 1900 8000 100 check 
4444 1900 8000 100 check 
5555 1900 6000 100 check 
8888 2700 6000 100 check 
total pot: 800 
/inquire 

------------



------------


showdown/ 
common/ 
SPADES 6 
DIAMONDS 8 
CLUBS 7 
HEARTS 9 
SPADES 7 
/common 
6: 8888 HEARTS Q HEARTS J ONE_PAIR 
1: 5555 SPADES 9 HEARTS 7 FULL_HOUSE 
6: 4444 CLUBS Q SPADES J ONE_PAIR 
5: 3333 CLUBS K DIAMONDS 4 ONE_PAIR 
5: 7777 SPADES K DIAMONDS 3 ONE_PAIR 
3: 6666 CLUBS 6 SPADES 4 TWO_PAIR 
2: 1111 HEARTS 10 SPADES 2 STRAIGHT 
4: 2222 DIAMONDS A HEARTS 3 ONE_PAIR 
/showdown 

------------



------------


pot-win/ 
5555: 800 
/pot-win 

------------


seat/ 
button: 8888 2700 6000 
small blind: 5555 2700 6000 
big blind: 4444 1900 8000 
3333 1900 8000 
7777 2300 6000 
6666 3900 6000 
1111 4700 8000 
2222 3900 8000 
/seat 

------------


blind/ 
5555: 50 
4444: 100 
/blind 

------------


hold/ 
DIAMONDS Q 
CLUBS 4 
/hold 

------------



------------


inquire/ 
2222 3800 8000 100 call 
1111 4600 8000 100 call 
6666 3800 6000 100 call 
7777 2200 6000 100 call 
3333 1800 8000 100 call 
4444 1800 8000 100 blind 
5555 2650 6000 50 blind 
total pot: 650 
/inquire 

------------



------------


flop/ 
SPADES 2 
HEARTS 2 
HEARTS 3 
/flop 

------------



------------


inquire/ 
2222 3800 8000 100 check 
1111 4600 8000 100 check 
6666 3800 6000 100 check 
7777 2200 6000 100 check 
3333 1800 8000 100 check 
4444 1800 8000 100 check 
5555 2600 6000 100 check 
8888 2600 6000 100 call 
total pot: 800 
/inquire 

------------



------------


turn/ 
HEARTS K 
/turn 

------------



------------


inquire/ 
2222 3800 8000 100 check 
1111 4600 8000 100 check 
6666 3800 6000 100 check 
7777 2200 6000 100 check 
3333 1800 8000 100 check 
4444 1800 8000 100 check 
5555 2600 6000 100 check 
8888 2600 6000 100 check 
total pot: 800 
/inquire 

------------



------------


river/ 
CLUBS 10 
/river 

------------



------------


inquire/ 
2222 3800 8000 100 check 
1111 4600 8000 100 check 
6666 3800 6000 100 check 
7777 2200 6000 100 check 
3333 1800 8000 100 check 
4444 1800 8000 100 check 
5555 2600 6000 100 check 
8888 2600 6000 100 check 
total pot: 800 
/inquire 

------------



------------


showdown/ 
common/ 
SPADES 2 
HEARTS 2 
HEARTS 3 
HEARTS K 
CLUBS 10 
/common 
4: 5555 SPADES 3 DIAMONDS 5 TWO_PAIR 
5: 4444 CLUBS A CLUBS 9 ONE_PAIR 
6: 3333 HEARTS Q SPADES 9 ONE_PAIR 
2: 7777 HEARTS J SPADES J TWO_PAIR 
1: 6666 SPADES Q DIAMONDS K TWO_PAIR 
3: 1111 HEARTS A DIAMONDS 10 TWO_PAIR 
4: 2222 DIAMONDS 6 CLUBS 3 TWO_PAIR 
6: 8888 DIAMONDS Q CLUBS 4 ONE_PAIR 
/showdown 

------------



------------


pot-win/ 
6666: 800 
/pot-win 

------------


seat/ 
button: 5555 2600 6000 
small blind: 4444 1800 8000 
big blind: 3333 1800 8000 
7777 2200 6000 
6666 4600 6000 
1111 4600 8000 
2222 3800 8000 
8888 2600 6000 
/seat 

------------


blind/ 
4444: 50 
3333: 100 
/blind 

------------


hold/ 
DIAMONDS 6 
CLUBS 3 
/hold 

------------



------------


inquire/ 
2222 3700 8000 100 call 
1111 4500 8000 100 call 
6666 4500 6000 100 call 
7777 2100 6000 100 call 
3333 1700 8000 100 blind 
4444 1750 8000 50 blind 
total pot: 550 
/inquire 

------------



------------


flop/ 
SPADES 2 
HEARTS 2 
HEARTS 3 
/flop 

------------



------------


inquire/ 
2222 3700 8000 100 check 
1111 4500 8000 100 check 
6666 4500 6000 100 check 
7777 2100 6000 100 check 
3333 1700 8000 100 check 
4444 1700 8000 100 check 
5555 2500 6000 100 call 
8888 2500 6000 100 call 
total pot: 800 
/inquire 

------------



------------


turn/ 
HEARTS K 
/turn 

------------



------------


inquire/ 
2222 3700 8000 100 check 
1111 4500 8000 100 check 
6666 4500 6000 100 check 
7777 2100 6000 100 check 
3333 1700 8000 100 check 
4444 1700 8000 100 check 
5555 2500 6000 100 check 
8888 2500 6000 100 check 
total pot: 800 
/inquire 

------------



------------


river/ 
CLUBS 10 
/river 

------------



------------


inquire/ 
2222 3700 8000 100 check 
1111 4500 8000 100 check 
6666 4500 6000 100 check 
7777 2100 6000 100 check 
3333 1700 8000 100 check 
4444 1700 8000 100 check 
5555 2500 6000 100 check 
8888 2500 6000 100 check 
total pot: 800 
/inquire 

------------



------------


showdown/ 
common/ 
SPADES 2 
HEARTS 2 
HEARTS 3 
HEARTS K 
CLUBS 10 
/common 
4: 4444 SPADES 3 DIAMONDS 5 TWO_PAIR 
5: 3333 CLUBS A CLUBS 9 ONE_PAIR 
6: 7777 HEARTS Q SPADES 9 ONE_PAIR 
2: 6666 HEARTS J SPADES J TWO_PAIR 
1: 1111 SPADES Q DIAMONDS K TWO_PAIR 
3: 2222 HEARTS A DIAMONDS 10 TWO_PAIR 
4: 8888 DIAMONDS 6 CLUBS 3 TWO_PAIR 
6: 5555 DIAMONDS Q CLUBS 4 ONE_PAIR 
/showdown 

------------



------------


pot-win/ 
1111: 800 
/pot-win 

------------


seat/ 
button: 4444 1700 8000 
small blind: 3333 1700 8000 
big blind: 7777 2100 6000 
6666 4500 6000 
1111 5300 8000 
2222 3700 8000 
8888 2500 6000 
5555 2500 6000 
/seat 

------------


blind/ 
3333: 50 
7777: 100 
/blind 

------------


hold/ 
HEARTS A 
DIAMONDS 10 
/hold 

------------



------------


inquire/ 
2222 3600 8000 100 call 
1111 5200 8000 100 call 
6666 4400 6000 100 call 
7777 2000 6000 100 blind 
3333 1650 8000 50 blind 
total pot: 450 
/inquire 

------------



------------


flop/ 
SPADES 2 
HEARTS 2 
HEARTS 3 
/flop 

------------



------------


inquire/ 
2222 3600 8000 100 check 
1111 5200 8000 100 check 
6666 4400 6000 100 check 
7777 2000 6000 100 check 
3333 1600 8000 100 check 
4444 1600 8000 100 call 
5555 2400 6000 100 call 
8888 2400 6000 100 call 
total pot: 800 
/inquire 

------------



------------


turn/ 
HEARTS K 
/turn 

------------



------------


inquire/ 
2222 3600 8000 100 check 
1111 5200 8000 100 check 
6666 4400 6000 100 check 
7777 2000 6000 100 check 
3333 1600 8000 100 check 
4444 1600 8000 100 check 
5555 2400 6000 100 check 
8888 2400 6000 100 check 
total pot: 800 
/inquire 

------------



------------


river/ 
CLUBS 10 
/river 

------------



------------


inquire/ 
2222 3600 8000 100 check 
1111 5200 8000 100 check 
6666 4400 6000 100 check 
7777 2000 6000 100 check 
3333 1600 8000 100 check 
4444 1600 8000 100 check 
5555 2400 6000 100 check 
8888 2400 6000 100 check 
total pot: 800 
/inquire 

------------



------------


showdown/ 
common/ 
SPADES 2 
HEARTS 2 
HEARTS 3 
HEARTS K 
CLUBS 10 
/common 
4: 3333 SPADES 3 DIAMONDS 5 TWO_PAIR 
5: 7777 CLUBS A CLUBS 9 ONE_PAIR 
6: 6666 HEARTS Q SPADES 9 ONE_PAIR 
2: 1111 HEARTS J SPADES J TWO_PAIR 
1: 2222 SPADES Q DIAMONDS K TWO_PAIR 
3: 8888 HEARTS A DIAMONDS 10 TWO_PAIR 
4: 5555 DIAMONDS 6 CLUBS 3 TWO_PAIR 
6: 4444 DIAMONDS Q CLUBS 4 ONE_PAIR 
/showdown 

------------



------------


pot-win/ 
2222: 800 
/pot-win 

------------


seat/ 
button: 3333 1600 8000 
small blind: 7777 2000 6000 
big blind: 6666 4400 6000 
1111 5200 8000 
2222 4400 8000 
8888 2400 6000 
5555 2400 6000 
4444 1600 8000 
/seat 

------------


blind/ 
7777: 50 
6666: 100 
/blind 

------------


hold/ 
SPADES Q 
DIAMONDS K 
/hold 

------------



------------


inquire/ 
2222 4300 8000 100 call 
1111 5100 8000 100 call 
6666 4300 6000 100 blind 
7777 1950 6000 50 blind 
total pot: 350 
/inquire 

------------



------------


flop/ 
SPADES 2 
HEARTS 2 
HEARTS 3 
/flop 

------------



------------


inquire/ 
2222 4300 8000 100 check 
1111 5100 8000 100 check 
6666 4300 6000 100 check 
7777 1900 6000 100 check 
3333 1500 8000 100 call 
4444 1500 8000 100 call 
5555 2300 6000 100 call 
8888 2300 6000 100 call 
total pot: 800 
/inquire 

------------



------------


turn/ 
HEARTS K 
/turn 

------------



------------


inquire/ 
2222 4300 8000 100 check 
1111 5100 8000 100 check 
6666 4300 6000 100 check 
7777 1900 6000 100 check 
3333 1500 8000 100 check 
4444 1500 8000 100 check 
5555 2300 6000 100 check 
8888 2300 6000 100 check 
total pot: 800 
/inquire 

------------



------------


river/ 
CLUBS 10 
/river 

------------



------------


inquire/ 
2222 4300 8000 100 check 
1111 5100 8000 100 check 
6666 4300 6000 100 check 
7777 1900 6000 100 check 
3333 1500 8000 100 check 
4444 1500 8000 100 check 
5555 2300 6000 100 check 
8888 2300 6000 100 check 
total pot: 800 
/inquire 

------------



------------


showdown/ 
common/ 
SPADES 2 
HEARTS 2 
HEARTS 3 
HEARTS K 
CLUBS 10 
/common 
4: 7777 SPADES 3 DIAMONDS 5 TWO_PAIR 
5: 6666 CLUBS A CLUBS 9 ONE_PAIR 
6: 1111 HEARTS Q SPADES 9 ONE_PAIR 
2: 2222 HEARTS J SPADES J TWO_PAIR 
1: 8888 SPADES Q DIAMONDS K TWO_PAIR 
3: 5555 HEARTS A DIAMONDS 10 TWO_PAIR 
4: 4444 DIAMONDS 6 CLUBS 3 TWO_PAIR 
6: 3333 DIAMONDS Q CLUBS 4 ONE_PAIR 
/showdown 

------------



------------


pot-win/ 
8888: 800 
/pot-win 

------------


seat/ 
button: 7777 1900 6000 
small blind: 6666 4300 6000 
big blind: 1111 5100 8000 
2222 4300 8000 
8888 3100 6000 
5555 2300 6000 
4444 1500 8000 
3333 1500 8000 
/seat 

------------


blind/ 
6666: 50 
1111: 100 
/blind 

------------


hold/ 
HEARTS J 
SPADES J 
/hold 

------------



------------


inquire/ 
2222 4200 8000 100 call 
1111 5000 8000 100 blind 
6666 4250 6000 50 blind 
total pot: 250 
/inquire 

------------



------------


flop/ 
SPADES 2 
HEARTS 2 
HEARTS 3 
/flop 

------------



------------


inquire/ 
2222 4200 8000 100 check 
1111 5000 8000 100 check 
6666 4200 6000 100 check 
7777 1800 6000 100 call 
3333 1400 8000 100 call 
4444 1400 8000 100 call 
5555 2200 6000 100 call 
8888 3000 6000 100 call 
total pot: 800 
/inquire 

------------



------------


turn/ 
HEARTS K 
/turn 

------------



------------


inquire/ 
2222 4200 8000 100 check 
1111 5000 8000 100 check 
6666 4200 6000 100 check 
7777 1800 6000 100 check 
3333 1400 8000 100 check 
4444 1400 8000 100 check 
5555 2200 6000 100 check 
8888 3000 6000 100 check 
total pot: 800 
/inquire 

------------



------------


river/ 
CLUBS 10 
/river 

------------



------------


inquire/ 
2222 4200 8000 100 check 
1111 5000 8000 100 check 
6666 4200 6000 100 check 
7777 1800 6000 100 check 
3333 1400 8000 100 check 
4444 1400 8000 100 check 
5555 2200 6000 100 check 
8888 3000 6000 100 check 
total pot: 800 
/inquire 

------------



------------


showdown/ 
common/ 
SPADES 2 
HEARTS 2 
HEARTS 3 
HEARTS K 
CLUBS 10 
/common 
4: 6666 SPADES 3 DIAMONDS 5 TWO_PAIR 
5: 1111 CLUBS A CLUBS 9 ONE_PAIR 
6: 2222 HEARTS Q SPADES 9 ONE_PAIR 
2: 8888 HEARTS J SPADES J TWO_PAIR 
1: 5555 SPADES Q DIAMONDS K TWO_PAIR 
3: 4444 HEARTS A DIAMONDS 10 TWO_PAIR 
4: 3333 DIAMONDS 6 CLUBS 3 TWO_PAIR 
6: 7777 DIAMONDS Q CLUBS 4 ONE_PAIR 
/showdown 

------------



------------


pot-win/ 
5555: 800 
/pot-win 

------------


seat/ 
button: 6666 4200 6000 
small blind: 1111 5000 8000 
big blind: 2222 4200 8000 
8888 3000 6000 
5555 3000 6000 
4444 1400 8000 
3333 1400 8000 
7777 1800 6000 
/seat 

------------


blind/ 
1111: 50 
2222: 100 
/blind 

------------


hold/ 
HEARTS Q 
SPADES 9 
/hold 

------------


inquire/ 
2222 4100 8000 100 blind 
1111 4950 8000 50 blind 
total pot: 150 
/inquire 

------------



------------


flop/ 
SPADES 2 
HEARTS 2 
HEARTS 3 
/flop 

------------



------------


inquire/ 
2222 4100 8000 100 check 
1111 4900 8000 100 check 
6666 4100 6000 100 call 
7777 1700 6000 100 call 
3333 1300 8000 100 call 
4444 1300 8000 100 call 
5555 2900 6000 100 call 
8888 2900 6000 100 call 
total pot: 800 
/inquire 

------------



------------


turn/ 
HEARTS K 
/turn 

------------



------------


inquire/ 
2222 4100 8000 100 check 
1111 4900 8000 100 check 
6666 4100 6000 100 check 
7777 1700 6000 100 check 
3333 1300 8000 100 check 
4444 1300 8000 100 check 
5555 2900 6000 100 check 
8888 2900 6000 100 check 
total pot: 800 
/inquire 

------------



------------


river/ 
CLUBS 10 
/river 

------------



------------


inquire/ 
2222 4100 8000 100 check 
1111 4900 8000 100 check 
6666 4100 6000 100 check 
7777 1700 6000 100 check 
3333 1300 8000 100 check 
4444 1300 8000 100 check 
5555 2900 6000 100 check 
8888 2900 6000 100 check 
total pot: 800 
/inquire 

------------



------------


showdown/ 
common/ 
SPADES 2 
HEARTS 2 
HEARTS 3 
HEARTS K 
CLUBS 10 
/common 
4: 1111 SPADES 3 DIAMONDS 5 TWO_PAIR 
5: 2222 CLUBS A CLUBS 9 ONE_PAIR 
6: 8888 HEARTS Q SPADES 9 ONE_PAIR 
2: 5555 HEARTS J SPADES J TWO_PAIR 
1: 4444 SPADES Q DIAMONDS K TWO_PAIR 
3: 3333 HEARTS A DIAMONDS 10 TWO_PAIR 
4: 7777 DIAMONDS 6 CLUBS 3 TWO_PAIR 
6: 6666 DIAMONDS Q CLUBS 4 ONE_PAIR 
/showdown 

------------



------------


pot-win/ 
4444: 800 
/pot-win 

------------


seat/ 
button: 1111 4900 8000 
small blind: 2222 4100 8000 
big blind: 8888 2900 6000 
5555 2900 6000 
4444 2100 8000 
3333 1300 8000 
7777 1700 6000 
6666 4100 6000 
/seat 

------------


blind/ 
2222: 50 
8888: 100 
/blind 

------------


hold/ 
DIAMONDS 10 
DIAMONDS 2 
/hold 

------------



------------


inquire/ 
2222 4000 8000 100 call 
1111 4800 8000 100 call 
6666 4000 6000 100 call 
7777 1600 6000 100 call 
3333 1200 8000 100 call 
4444 2000 8000 100 call 
5555 2800 6000 100 call 
8888 2800 6000 100 blind 
total pot: 800 
/inquire 

------------



------------


flop/ 
HEARTS J 
CLUBS 9 
SPADES 3 
/flop 

------------



------------


inquire/ 
2222 4000 8000 100 check 
1111 4800 8000 100 call 
6666 4000 6000 100 call 
7777 1600 6000 100 call 
3333 1200 8000 100 call 
4444 2000 8000 100 call 
5555 2800 6000 100 call 
8888 2800 6000 100 check 
total pot: 800 
/inquire 

------------



------------


turn/ 
CLUBS 4 
/turn 

------------



------------


inquire/ 
2222 4000 8000 100 check 
1111 4800 8000 100 check 
6666 4000 6000 100 check 
7777 1600 6000 100 check 
3333 1200 8000 100 check 
4444 2000 8000 100 check 
5555 2800 6000 100 check 
8888 2800 6000 100 check 
total pot: 800 
/inquire 

------------



------------


river/ 
SPADES A 
/river 

------------



------------


inquire/ 
2222 4000 8000 100 check 
1111 4800 8000 100 check 
6666 4000 6000 100 check 
7777 1600 6000 100 check 
3333 1200 8000 100 check 
4444 2000 8000 100 check 
5555 2800 6000 100 check 
8888 2800 6000 100 check 
total pot: 800 
/inquire 

------------



------------


showdown/ 
common/ 
HEARTS J 
CLUBS 9 
SPADES 3 
CLUBS 4 
SPADES A 
/common 
6: 2222 HEARTS 5 HEARTS 8 HIGH_CARD 
5: 8888 DIAMONDS 10 DIAMONDS 2 HIGH_CARD 
4: 5555 HEARTS 3 SPADES 7 ONE_PAIR 
3: 4444 CLUBS K HEARTS 4 ONE_PAIR 
7: 3333 SPADES 2 CLUBS 7 HIGH_CARD 
2: 7777 HEARTS 9 SPADES K ONE_PAIR 
5: 6666 HEARTS 10 CLUBS 2 HIGH_CARD 
1: 1111 DIAMONDS 3 CLUBS A TWO_PAIR 
/showdown 

------------



------------


pot-win/ 
1111: 800 
/pot-win 

------------


seat/ 
button: 2222 4000 8000 
small blind: 8888 2800 6000 
big blind: 5555 2800 6000 
4444 2000 8000 
3333 1200 8000 
7777 1600 6000 
6666 4000 6000 
1111 5600 8000 
/seat 

------------


blind/ 
8888: 50 
5555: 100 
/blind 

------------


hold/ 
HEARTS 5 
HEARTS 8 
/hold 

------------



------------


inquire/ 
2222 3900 8000 100 call 
1111 5500 8000 100 call 
6666 3900 6000 100 call 
7777 1500 6000 100 call 
3333 1100 8000 100 call 
4444 1900 8000 100 call 
5555 2700 6000 100 blind 
8888 2750 6000 50 blind 
total pot: 750 
/inquire 

------------



------------


flop/ 
HEARTS J 
CLUBS 9 
SPADES 3 
/flop 

------------



------------


inquire/ 
2222 3900 8000 100 call 
1111 5500 8000 100 call 
6666 3900 6000 100 call 
7777 1500 6000 100 call 
3333 1100 8000 100 call 
4444 1900 8000 100 call 
5555 2700 6000 100 check 
8888 2700 6000 100 call 
total pot: 800 
/inquire 

------------



------------


turn/ 
CLUBS 4 
/turn 

------------



------------


inquire/ 
2222 3900 8000 100 check 
1111 5500 8000 100 check 
6666 3900 6000 100 check 
7777 1500 6000 100 check 
3333 1100 8000 100 check 
4444 1900 8000 100 check 
5555 2700 6000 100 check 
8888 2700 6000 100 check 
total pot: 800 
/inquire 

------------



------------


river/ 
SPADES A 
/river 

------------



------------


inquire/ 
2222 3900 8000 100 check 
1111 5500 8000 100 check 
6666 3900 6000 100 check 
7777 1500 6000 100 check 
3333 1100 8000 100 check 
4444 1900 8000 100 check 
5555 2700 6000 100 check 
8888 2700 6000 100 check 
total pot: 800 
/inquire 

------------



------------


showdown/ 
common/ 
HEARTS J 
CLUBS 9 
SPADES 3 
CLUBS 4 
SPADES A 
/common 
6: 8888 HEARTS 5 HEARTS 8 HIGH_CARD 
5: 5555 DIAMONDS 10 DIAMONDS 2 HIGH_CARD 
4: 4444 HEARTS 3 SPADES 7 ONE_PAIR 
3: 3333 CLUBS K HEARTS 4 ONE_PAIR 
7: 7777 SPADES 2 CLUBS 7 HIGH_CARD 
2: 6666 HEARTS 9 SPADES K ONE_PAIR 
5: 1111 HEARTS 10 CLUBS 2 HIGH_CARD 
1: 2222 DIAMONDS 3 CLUBS A TWO_PAIR 
/showdown 

------------



------------


pot-win/ 
2222: 800 
/pot-win 

------------


seat/ 
button: 8888 2700 6000 
small blind: 5555 2700 6000 
big blind: 4444 1900 8000 
3333 1100 8000 
7777 1500 6000 
6666 3900 6000 
1111 5500 8000 
2222 4700 8000 
/seat 

------------


blind/ 
5555: 50 
4444: 100 
/blind 

------------


hold/ 
DIAMONDS 3 
CLUBS A 
/hold 

------------



------------


inquire/ 
2222 4600 8000 100 call 
1111 5400 8000 100 call 
6666 3800 6000 100 call 
7777 1400 6000 100 call 
3333 1000 8000 100 call 
4444 1800 8000 100 blind 
5555 2650 6000 50 blind 
total pot: 650 
/inquire 

------------



------------


flop/ 
HEARTS J 
CLUBS 9 
SPADES 3 
/flop 

------------



------------


inquire/ 
2222 4600 8000 100 check 
1111 5400 8000 100 check 
6666 3800 6000 100 check 
7777 1400 6000 100 check 
3333 1000 8000 100 check 
4444 1800 8000 100 check 
5555 2600 6000 100 check 
8888 2600 6000 100 call 
total pot: 800 
/inquire 

------------



------------


turn/ 
CLUBS 4 
/turn 

------------



------------


inquire/ 
2222 4600 8000 100 check 
1111 5400 8000 100 check 
6666 3800 6000 100 check 
7777 1400 6000 100 check 
3333 1000 8000 100 check 
4444 1800 8000 100 check 
5555 2600 6000 100 check 
8888 2600 6000 100 check 
total pot: 800 
/inquire 

------------



------------


river/ 
SPADES A 
/river 

------------



------------


inquire/ 
2222 4600 8000 100 check 
1111 5400 8000 100 check 
6666 3800 6000 100 check 
7777 1400 6000 100 check 
3333 1000 8000 100 check 
4444 1800 8000 100 check 
5555 2600 6000 100 check 
8888 2600 6000 100 check 
total pot: 800 
/inquire 

------------



------------


showdown/ 
common/ 
HEARTS J 
CLUBS 9 
SPADES 3 
CLUBS 4 
SPADES A 
/common 
6: 5555 HEARTS 5 HEARTS 8 HIGH_CARD 
5: 4444 DIAMONDS 10 DIAMONDS 2 HIGH_CARD 
4: 3333 HEARTS 3 SPADES 7 ONE_PAIR 
3: 7777 CLUBS K HEARTS 4 ONE_PAIR 
7: 6666 SPADES 2 CLUBS 7 HIGH_CARD 
2: 1111 HEARTS 9 SPADES K ONE_PAIR 
5: 2222 HEARTS 10 CLUBS 2 HIGH_CARD 
1: 8888 DIAMONDS 3 CLUBS A TWO_PAIR 
/showdown 

------------



------------


pot-win/ 
8888: 800 
/pot-win 

------------


seat/ 
button: 5555 2600 6000 
small blind: 4444 1800 8000 
big blind: 3333 1000 8000 
7777 1400 6000 
6666 3800 6000 
1111 5400 8000 
2222 4600 8000 
8888 3400 6000 
/seat 

------------


blind/ 
4444: 50 
3333: 100 
/blind 

------------


hold/ 
HEARTS 10 
CLUBS 2 
/hold 

------------



------------


inquire/ 
2222 4500 8000 100 call 
1111 5300 8000 100 call 
6666 3700 6000 100 call 
7777 1300 6000 100 call 
3333 900 8000 100 blind 
4444 1750 8000 50 blind 
total pot: 550 
/inquire 

------------



------------


flop/ 
HEARTS J 
CLUBS 9 
SPADES 3 
/flop 

------------



------------


inquire/ 
2222 4500 8000 100 check 
1111 5300 8000 100 check 
6666 3700 6000 100 check 
7777 1300 6000 100 check 
3333 900 8000 100 check 
4444 1700 8000 100 check 
5555 2500 6000 100 call 
8888 3300 6000 100 call 
total pot: 800 
/inquire 

------------



------------


turn/ 
CLUBS 4 
/turn 

------------



------------


inquire/ 
2222 4500 8000 100 check 
1111 5300 8000 100 check 
6666 3700 6000 100 check 
7777 1300 6000 100 check 
3333 900 8000 100 check 
4444 1700 8000 100 check 
5555 2500 6000 100 check 
8888 3300 6000 100 check 
total pot: 800 
/inquire 

------------



------------


river/ 
SPADES A 
/river 

------------



------------


inquire/ 
2222 4500 8000 100 check 
1111 5300 8000 100 check 
6666 3700 6000 100 check 
7777 1300 6000 100 check 
3333 900 8000 100 check 
4444 1700 8000 100 check 
5555 2500 6000 100 check 
8888 3300 6000 100 check 
total pot: 800 
/inquire 

------------



------------


showdown/ 
common/ 
HEARTS J 
CLUBS 9 
SPADES 3 
CLUBS 4 
SPADES A 
/common 
6: 4444 HEARTS 5 HEARTS 8 HIGH_CARD 
5: 3333 DIAMONDS 10 DIAMONDS 2 HIGH_CARD 
4: 7777 HEARTS 3 SPADES 7 ONE_PAIR 
3: 6666 CLUBS K HEARTS 4 ONE_PAIR 
7: 1111 SPADES 2 CLUBS 7 HIGH_CARD 
2: 2222 HEARTS 9 SPADES K ONE_PAIR 
5: 8888 HEARTS 10 CLUBS 2 HIGH_CARD 
1: 5555 DIAMONDS 3 CLUBS A TWO_PAIR 
/showdown 

------------



------------


pot-win/ 
5555: 800 
/pot-win 

------------


seat/ 
button: 4444 1700 8000 
small blind: 3333 900 8000 
big blind: 7777 1300 6000 
6666 3700 6000 
1111 5300 8000 
2222 4500 8000 
8888 3300 6000 
5555 3300 6000 
/seat 

------------


blind/ 
3333: 50 
7777: 100 
/blind 

------------


hold/ 
HEARTS 9 
SPADES K 
/hold 

------------



------------


inquire/ 
2222 4400 8000 100 call 
1111 5200 8000 100 call 
6666 3600 6000 100 call 
7777 1200 6000 100 blind 
3333 850 8000 50 blind 
total pot: 450 
/inquire 

------------



------------


flop/ 
HEARTS J 
CLUBS 9 
SPADES 3 
/flop 

------------



------------


inquire/ 
2222 4400 8000 100 check 
1111 5200 8000 100 check 
6666 3600 6000 100 check 
7777 1200 6000 100 check 
3333 800 8000 100 check 
4444 1600 8000 100 call 
5555 3200 6000 100 call 
8888 3200 6000 100 call 
total pot: 800 
/inquire 

------------



------------


turn/ 
CLUBS 4 
/turn 

------------



------------


inquire/ 
2222 4400 8000 100 check 
1111 5200 8000 100 check 
6666 3600 6000 100 check 
7777 1200 6000 100 check 
3333 800 8000 100 check 
4444 1600 8000 100 check 
5555 3200 6000 100 check 
8888 3200 6000 100 check 
total pot: 800 
/inquire 

------------



------------


river/ 
SPADES A 
/river 

------------



------------


inquire/ 
2222 4400 8000 100 check 
1111 5200 8000 100 check 
6666 3600 6000 100 check 
7777 1200 6000 100 check 
3333 800 8000 100 check 
4444 1600 8000 100 check 
5555 3200 6000 100 check 
8888 3200 6000 100 check 
total pot: 800 
/inquire 

------------



------------


showdown/ 
common/ 
HEARTS J 
CLUBS 9 
SPADES 3 
CLUBS 4 
SPADES A 
/common 
6: 3333 HEARTS 5 HEARTS 8 HIGH_CARD 
5: 7777 DIAMONDS 10 DIAMONDS 2 HIGH_CARD 
4: 6666 HEARTS 3 SPADES 7 ONE_PAIR 
3: 1111 CLUBS K HEARTS 4 ONE_PAIR 
7: 2222 SPADES 2 CLUBS 7 HIGH_CARD 
2: 8888 HEARTS 9 SPADES K ONE_PAIR 
5: 5555 HEARTS 10 CLUBS 2 HIGH_CARD 
1: 4444 DIAMONDS 3 CLUBS A TWO_PAIR 
/showdown 

------------



------------


pot-win/ 
4444: 800 
/pot-win 

------------


seat/ 
button: 3333 800 8000 
small blind: 7777 1200 6000 
big blind: 6666 3600 6000 
1111 5200 8000 
2222 4400 8000 
8888 3200 6000 
5555 3200 6000 
4444 2400 8000 
/seat 

------------


blind/ 
7777: 50 
6666: 100 
/blind 

------------


hold/ 
SPADES 2 
CLUBS 7 
/hold 

------------



------------


inquire/ 
2222 4300 8000 100 call 
1111 5100 8000 100 call 
6666 3500 6000 100 blind 
7777 1150 6000 50 blind 
total pot: 350 
/inquire 

------------



------------


flop/ 
HEARTS J 
CLUBS 9 
SPADES 3 
/flop 

------------



------------


inquire/ 
2222 4300 8000 100 check 
1111 5100 8000 100 check 
6666 3500 6000 100 check 
7777 1100 6000 100 check 
3333 700 8000 100 call 
4444 2300 8000 100 call 
5555 3100 6000 100 call 
8888 3100 6000 100 call 
total pot: 800 
/inquire 

------------



------------


turn/ 
CLUBS 4 
/turn 

------------



------------


inquire/ 
2222 4300 8000 100 check 
1111 5100 8000 100 check 
6666 3500 6000 100 check 
7777 1100 6000 100 check 
3333 700 8000 100 check 
4444 2300 8000 100 check 
5555 3100 6000 100 check 
8888 3100 6000 100 check 
total pot: 800 
/inquire 

------------



------------


river/ 
SPADES A 
/river 

------------



------------


inquire/ 
2222 4300 8000 100 check 
1111 5100 8000 100 check 
6666 3500 6000 100 check 
7777 1100 6000 100 check 
3333 700 8000 100 check 
4444 2300 8000 100 check 
5555 3100 6000 100 check 
8888 3100 6000 100 check 
total pot: 800 
/inquire 

------------



------------


showdown/ 
common/ 
HEARTS J 
CLUBS 9 
SPADES 3 
CLUBS 4 
SPADES A 
/common 
6: 7777 HEARTS 5 HEARTS 8 HIGH_CARD 
5: 6666 DIAMONDS 10 DIAMONDS 2 HIGH_CARD 
4: 1111 HEARTS 3 SPADES 7 ONE_PAIR 
3: 2222 CLUBS K HEARTS 4 ONE_PAIR 
7: 8888 SPADES 2 CLUBS 7 HIGH_CARD 
2: 5555 HEARTS 9 SPADES K ONE_PAIR 
5: 4444 HEARTS 10 CLUBS 2 HIGH_CARD 
1: 3333 DIAMONDS 3 CLUBS A TWO_PAIR 
/showdown 

------------



------------


pot-win/ 
3333: 800 
/pot-win 

------------


seat/ 
button: 7777 1100 6000 
small blind: 6666 3500 6000 
big blind: 1111 5100 8000 
2222 4300 8000 
8888 3100 6000 
5555 3100 6000 
4444 2300 8000 
3333 1500 8000 
/seat 

------------


blind/ 
6666: 50 
1111: 100 
/blind 

------------


hold/ 
CLUBS J 
CLUBS Q 
/hold 

------------



------------


inquire/ 
2222 4200 8000 100 call 
1111 5000 8000 100 blind 
6666 3450 6000 50 blind 
total pot: 250 
/inquire 

------------



------------


flop/ 
DIAMONDS 10 
HEARTS 5 
CLUBS A 
/flop 

------------



------------


inquire/ 
2222 4200 8000 100 check 
1111 5000 8000 100 check 
6666 3400 6000 100 check 
7777 1000 6000 100 call 
3333 1400 8000 100 call 
4444 2200 8000 100 call 
5555 3000 6000 100 call 
8888 3000 6000 100 call 
total pot: 800 
/inquire 

------------



------------


turn/ 
HEARTS 3 
/turn 

------------



------------


inquire/ 
2222 4200 8000 100 check 
1111 5000 8000 100 check 
6666 3400 6000 100 check 
7777 1000 6000 100 check 
3333 1400 8000 100 check 
4444 2200 8000 100 check 
5555 3000 6000 100 check 
8888 3000 6000 100 check 
total pot: 800 
/inquire 

------------



------------


river/ 
CLUBS 5 
/river 

------------



------------


inquire/ 
2222 4200 8000 100 check 
1111 5000 8000 100 check 
6666 3400 6000 100 check 
7777 1000 6000 100 check 
3333 1400 8000 100 check 
4444 2200 8000 100 check 
5555 3000 6000 100 check 
8888 3000 6000 100 check 
total pot: 800 
/inquire 

------------



------------


showdown/ 
common/ 
DIAMONDS 10 
HEARTS 5 
CLUBS A 
HEARTS 3 
CLUBS 5 
/common 
7: 6666 CLUBS 6 SPADES 7 ONE_PAIR 
6: 1111 DIAMONDS 8 SPADES 2 ONE_PAIR 
5: 2222 HEARTS 4 SPADES Q ONE_PAIR 
4: 8888 CLUBS J CLUBS Q ONE_PAIR 
1: 5555 DIAMONDS 9 DIAMONDS 5 THREE_OF_A_KIND 
1: 4444 SPADES 4 SPADES 5 THREE_OF_A_KIND 
3: 3333 SPADES 3 HEARTS A TWO_PAIR 
2: 7777 DIAMONDS A CLUBS K TWO_PAIR 
/showdown 

------------



------------


pot-win/ 
5555: 400 
4444: 400 
/pot-win 

------------


seat/ 
button: 6666 3400 6000 
small blind: 1111 5000 8000 
big blind: 2222 4200 8000 
8888 3000 6000 
5555 3400 6000 
4444 2600 8000 
3333 1400 8000 
7777 1000 6000 
/seat 

------------


blind/ 
1111: 50 
2222: 100 
/blind 

------------


hold/ 
HEARTS 4 
SPADES Q 
/hold 

------------


inquire/ 
2222 4100 8000 100 blind 
1111 4950 8000 50 blind 
total pot: 150 
/inquire 

------------



------------


flop/ 
DIAMONDS 10 
HEARTS 5 
CLUBS A 
/flop 

------------



------------


inquire/ 
2222 4100 8000 100 check 
1111 4900 8000 100 check 
6666 3300 6000 100 call 
7777 900 6000 100 call 
3333 1300 8000 100 call 
4444 2500 8000 100 call 
5555 3300 6000 100 call 
8888 2900 6000 100 call 
total pot: 800 
/inquire 

------------



------------


turn/ 
HEARTS 3 
/turn 

------------



------------


inquire/ 
2222 4100 8000 100 check 
1111 4900 8000 100 check 
6666 3300 6000 100 check 
7777 900 6000 100 check 
3333 1300 8000 100 check 
4444 2500 8000 100 check 
5555 3300 6000 100 check 
8888 2900 6000 100 check 
total pot: 800 
/inquire 

------------



------------


river/ 
CLUBS 5 
/river 

------------



------------


inquire/ 
2222 4100 8000 100 check 
1111 4900 8000 100 check 
6666 3300 6000 100 check 
7777 900 6000 100 check 
3333 1300 8000 100 check 
4444 2500 8000 100 check 
5555 3300 6000 100 check 
8888 2900 6000 100 check 
total pot: 800 
/inquire 

------------



------------


showdown/ 
common/ 
DIAMONDS 10 
HEARTS 5 
CLUBS A 
HEARTS 3 
CLUBS 5 
/common 
7: 1111 CLUBS 6 SPADES 7 ONE_PAIR 
6: 2222 DIAMONDS 8 SPADES 2 ONE_PAIR 
5: 8888 HEARTS 4 SPADES Q ONE_PAIR 
4: 5555 CLUBS J CLUBS Q ONE_PAIR 
1: 4444 DIAMONDS 9 DIAMONDS 5 THREE_OF_A_KIND 
1: 3333 SPADES 4 SPADES 5 THREE_OF_A_KIND 
3: 7777 SPADES 3 HEARTS A TWO_PAIR 
2: 6666 DIAMONDS A CLUBS K TWO_PAIR 
/showdown 

------------



------------


pot-win/ 
4444: 400 
3333: 400 
/pot-win 

------------


seat/ 
button: 1111 4900 8000 
small blind: 2222 4100 8000 
big blind: 8888 2900 6000 
5555 3300 6000 
4444 2900 8000 
3333 1700 8000 
7777 900 6000 
6666 3300 6000 
/seat 

------------


blind/ 
2222: 50 
8888: 100 
/blind 

------------


hold/ 
DIAMONDS 8 
SPADES 2 
/hold 

------------



------------


inquire/ 
2222 4000 8000 100 call 
1111 4800 8000 100 call 
6666 3200 6000 100 call 
7777 800 6000 100 call 
3333 1600 8000 100 call 
4444 2800 8000 100 call 
5555 3200 6000 100 call 
8888 2800 6000 100 blind 
total pot: 800 
/inquire 

------------



------------


flop/ 
DIAMONDS 10 
HEARTS 5 
CLUBS A 
/flop 

------------



------------


inquire/ 
2222 4000 8000 100 check 
1111 4800 8000 100 call 
6666 3200 6000 100 call 
7777 800 6000 100 call 
3333 1600 8000 100 call 
4444 2800 8000 100 call 
5555 3200 6000 100 call 
8888 2800 6000 100 check 
total pot: 800 
/inquire 

------------



------------


turn/ 
HEARTS 3 
/turn 

------------



------------


inquire/ 
2222 4000 8000 100 check 
1111 4800 8000 100 check 
6666 3200 6000 100 check 
7777 800 6000 100 check 
3333 1600 8000 100 check 
4444 2800 8000 100 check 
5555 3200 6000 100 check 
8888 2800 6000 100 check 
total pot: 800 
/inquire 

------------



------------


river/ 
CLUBS 5 
/river 

------------



------------


inquire/ 
2222 4000 8000 100 check 
1111 4800 8000 100 check 
6666 3200 6000 100 check 
7777 800 6000 100 check 
3333 1600 8000 100 check 
4444 2800 8000 100 check 
5555 3200 6000 100 check 
8888 2800 6000 100 check 
total pot: 800 
/inquire 

------------



------------


showdown/ 
common/ 
DIAMONDS 10 
HEARTS 5 
CLUBS A 
HEARTS 3 
CLUBS 5 
/common 
7: 2222 CLUBS 6 SPADES 7 ONE_PAIR 
6: 8888 DIAMONDS 8 SPADES 2 ONE_PAIR 
5: 5555 HEARTS 4 SPADES Q ONE_PAIR 
4: 4444 CLUBS J CLUBS Q ONE_PAIR 
1: 3333 DIAMONDS 9 DIAMONDS 5 THREE_OF_A_KIND 
1: 7777 SPADES 4 SPADES 5 THREE_OF_A_KIND 
3: 6666 SPADES 3 HEARTS A TWO_PAIR 
2: 1111 DIAMONDS A CLUBS K TWO_PAIR 
/showdown 

------------



------------


pot-win/ 
3333: 400 
7777: 400 
/pot-win 

------------


seat/ 
button: 2222 4000 8000 
small blind: 8888 2800 6000 
big blind: 5555 3200 6000 
4444 2800 8000 
3333 2000 8000 
7777 1200 6000 
6666 3200 6000 
1111 4800 8000 
/seat 

------------


blind/ 
8888: 50 
5555: 100 
/blind 

------------


hold/ 
CLUBS 6 
SPADES 7 
/hold 

------------



------------


inquire/ 
2222 3900 8000 100 call 
1111 4700 8000 100 call 
6666 3100 6000 100 call 
7777 1100 6000 100 call 
3333 1900 8000 100 call 
4444 2700 8000 100 call 
5555 3100 6000 100 blind 
8888 2750 6000 50 blind 
total pot: 750 
/inquire 

------------



------------


flop/ 
DIAMONDS 10 
HEARTS 5 
CLUBS A 
/flop 

------------



------------


inquire/ 
2222 3900 8000 100 call 
1111 4700 8000 100 call 
6666 3100 6000 100 call 
7777 1100 6000 100 call 
3333 1900 8000 100 call 
4444 2700 8000 100 call 
5555 3100 6000 100 check 
8888 2700 6000 100 call 
total pot: 800 
/inquire 

------------



------------


turn/ 
HEARTS 3 
/turn 

------------



------------


inquire/ 
2222 3900 8000 100 check 
1111 4700 8000 100 check 
6666 3100 6000 100 check 
7777 1100 6000 100 check 
3333 1900 8000 100 check 
4444 2700 8000 100 check 
5555 3100 6000 100 check 
8888 2700 6000 100 check 
total pot: 800 
/inquire 

------------



------------


river/ 
CLUBS 5 
/river 

------------



------------


inquire/ 
2222 3900 8000 100 check 
1111 4700 8000 100 check 
6666 3100 6000 100 check 
7777 1100 6000 100 check 
3333 1900 8000 100 check 
4444 2700 8000 100 check 
5555 3100 6000 100 check 
8888 2700 6000 100 check 
total pot: 800 
/inquire 

------------



------------


showdown/ 
common/ 
DIAMONDS 10 
HEARTS 5 
CLUBS A 
HEARTS 3 
CLUBS 5 
/common 
7: 8888 CLUBS 6 SPADES 7 ONE_PAIR 
6: 5555 DIAMONDS 8 SPADES 2 ONE_PAIR 
5: 4444 HEARTS 4 SPADES Q ONE_PAIR 
4: 3333 CLUBS J CLUBS Q ONE_PAIR 
1: 7777 DIAMONDS 9 DIAMONDS 5 THREE_OF_A_KIND 
1: 6666 SPADES 4 SPADES 5 THREE_OF_A_KIND 
3: 1111 SPADES 3 HEARTS A TWO_PAIR 
2: 2222 DIAMONDS A CLUBS K TWO_PAIR 
/showdown 

------------



------------


pot-win/ 
7777: 400 
6666: 400 
/pot-win 

------------


seat/ 
button: 8888 2700 6000 
small blind: 5555 3100 6000 
big blind: 4444 2700 8000 
3333 1900 8000 
7777 1500 6000 
6666 3500 6000 
1111 4700 8000 
2222 3900 8000 
/seat 

------------


blind/ 
5555: 50 
4444: 100 
/blind 

------------


hold/ 
DIAMONDS A 
CLUBS K 
/hold 

------------



------------


inquire/ 
2222 3800 8000 100 call 
1111 4600 8000 100 call 
6666 3400 6000 100 call 
7777 1400 6000 100 call 
3333 1800 8000 100 call 
4444 2600 8000 100 blind 
5555 3050 6000 50 blind 
total pot: 650 
/inquire 

------------



------------


flop/ 
DIAMONDS 10 
HEARTS 5 
CLUBS A 
/flop 

------------



------------


inquire/ 
2222 3800 8000 100 check 
1111 4600 8000 100 check 
6666 3400 6000 100 check 
7777 1400 6000 100 check 
3333 1800 8000 100 check 
4444 2600 8000 100 check 
5555 3000 6000 100 check 
8888 2600 6000 100 call 
total pot: 800 
/inquire 

------------



------------


turn/ 
HEARTS 3 
/turn 

------------



------------


inquire/ 
2222 3800 8000 100 check 
1111 4600 8000 100 check 
6666 3400 6000 100 check 
7777 1400 6000 100 check 
3333 1800 8000 100 check 
4444 2600 8000 100 check 
5555 3000 6000 100 check 
8888 2600 6000 100 check 
total pot: 800 
/inquire 

------------



------------


river/ 
CLUBS 5 
/river 

------------



------------


inquire/ 
2222 3800 8000 100 check 
1111 4600 8000 100 check 
6666 3400 6000 100 check 
7777 1400 6000 100 check 
3333 1800 8000 100 check 
4444 2600 8000 100 check 
5555 3000 6000 100 check 
8888 2600 6000 100 check 
total pot: 800 
/inquire 

------------



------------


showdown/ 
common/ 
DIAMONDS 10 
HEARTS 5 
CLUBS A 
HEARTS 3 
CLUBS 5 
/common 
7: 5555 CLUBS 6 SPADES 7 ONE_PAIR 
6: 4444 DIAMONDS 8 SPADES 2 ONE_PAIR 
5: 3333 HEARTS 4 SPADES Q ONE_PAIR 
4: 7777 CLUBS J CLUBS Q ONE_PAIR 
1: 6666 DIAMONDS 9 DIAMONDS 5 THREE_OF_A_KIND 
1: 1111 SPADES 4 SPADES 5 THREE_OF_A_KIND 
3: 2222 SPADES 3 HEARTS A TWO_PAIR 
2: 8888 DIAMONDS A CLUBS K TWO_PAIR 
/showdown 

------------



------------


pot-win/ 
6666: 400 
1111: 400 
/pot-win 

------------


seat/ 
button: 5555 3000 6000 
small blind: 4444 2600 8000 
big blind: 3333 1800 8000 
7777 1400 6000 
6666 3800 6000 
1111 5000 8000 
2222 3800 8000 
8888 2600 6000 
/seat 

------------


blind/ 
4444: 50 
3333: 100 
/blind 

------------


hold/ 
HEARTS A 
CLUBS 4 
/hold 

------------



------------


inquire/ 
2222 3700 8000 100 call 
1111 4900 8000 100 call 
6666 3700 6000 100 call 
7777 1300 6000 100 call 
3333 1700 8000 100 blind 
4444 2550 8000 50 blind 
total pot: 550 
/inquire 

------------



------------


flop/ 
DIAMONDS J 
SPADES 2 
HEARTS 4 
/flop 

------------



------------


inquire/ 
2222 3700 8000 100 check 
1111 4900 8000 100 check 
6666 3700 6000 100 check 
7777 1300 6000 100 check 
3333 1700 8000 100 check 
4444 2500 8000 100 check 
5555 2900 6000 100 call 
8888 2500 6000 100 call 
total pot: 800 
/inquire 

------------



------------


turn/ 
SPADES 6 
/turn 

------------



------------


inquire/ 
2222 3700 8000 100 check 
1111 4900 8000 100 check 
6666 3700 6000 100 check 
7777 1300 6000 100 check 
3333 1700 8000 100 check 
4444 2500 8000 100 check 
5555 2900 6000 100 check 
8888 2500 6000 100 check 
total pot: 800 
/inquire 

------------



------------


river/ 
SPADES K 
/river 

------------



------------


inquire/ 
2222 3700 8000 100 check 
1111 4900 8000 100 check 
6666 3700 6000 100 check 
7777 1300 6000 100 check 
3333 1700 8000 100 check 
4444 2500 8000 100 check 
5555 2900 6000 100 check 
8888 2500 6000 100 check 
total pot: 800 
/inquire 

------------



------------


showdown/ 
common/ 
DIAMONDS J 
SPADES 2 
HEARTS 4 
SPADES 6 
SPADES K 
/common 
5: 4444 CLUBS 2 DIAMONDS 9 ONE_PAIR 
6: 3333 HEARTS 10 SPADES A HIGH_CARD 
3: 7777 CLUBS 10 SPADES 10 ONE_PAIR 
2: 6666 HEARTS 9 DIAMONDS K ONE_PAIR 
8: 1111 CLUBS Q SPADES 5 HIGH_CARD 
1: 2222 SPADES 3 SPADES 7 FLUSH 
4: 8888 HEARTS A CLUBS 4 ONE_PAIR 
7: 5555 DIAMONDS A CLUBS 5 HIGH_CARD 
/showdown 

------------



------------


pot-win/ 
2222: 800 
/pot-win 

------------


seat/ 
button: 4444 2500 8000 
small blind: 3333 1700 8000 
big blind: 7777 1300 6000 
6666 3700 6000 
1111 4900 8000 
2222 4500 8000 
8888 2500 6000 
5555 2900 6000 
/seat 

------------


blind/ 
3333: 50 
7777: 100 
/blind 

------------


hold/ 
SPADES 3 
SPADES 7 
/hold 

------------



------------


inquire/ 
2222 4400 8000 100 call 
1111 4800 8000 100 call 
6666 3600 6000 100 call 
7777 1200 6000 100 blind 
3333 1650 8000 50 blind 
total pot: 450 
/inquire 

------------



------------


flop/ 
DIAMONDS J 
SPADES 2 
HEARTS 4 
/flop 

------------



------------


inquire/ 
2222 4400 8000 100 check 
1111 4800 8000 100 check 
6666 3600 6000 100 check 
7777 1200 6000 100 check 
3333 1600 8000 100 check 
4444 2400 8000 100 call 
5555 2800 6000 100 call 
8888 2400 6000 100 call 
total pot: 800 
/inquire 

------------



------------


turn/ 
SPADES 6 
/turn 

------------



------------


inquire/ 
2222 4400 8000 100 check 
1111 4800 8000 100 check 
6666 3600 6000 100 check 
7777 1200 6000 100 check 
3333 1600 8000 100 check 
4444 2400 8000 100 check 
5555 2800 6000 100 check 
8888 2400 6000 100 check 
total pot: 800 
/inquire 

------------



------------


river/ 
SPADES K 
/river 

------------



------------


inquire/ 
2222 4400 8000 100 check 
1111 4800 8000 100 check 
6666 3600 6000 100 check 
7777 1200 6000 100 check 
3333 1600 8000 100 check 
4444 2400 8000 100 check 
5555 2800 6000 100 check 
8888 2400 6000 100 check 
total pot: 800 
/inquire 

------------



------------


showdown/ 
common/ 
DIAMONDS J 
SPADES 2 
HEARTS 4 
SPADES 6 
SPADES K 
/common 
5: 3333 CLUBS 2 DIAMONDS 9 ONE_PAIR 
6: 7777 HEARTS 10 SPADES A HIGH_CARD 
3: 6666 CLUBS 10 SPADES 10 ONE_PAIR 
2: 1111 HEARTS 9 DIAMONDS K ONE_PAIR 
8: 2222 CLUBS Q SPADES 5 HIGH_CARD 
1: 8888 SPADES 3 SPADES 7 FLUSH 
4: 5555 HEARTS A CLUBS 4 ONE_PAIR 
7: 4444 DIAMONDS A CLUBS 5 HIGH_CARD 
/showdown 

------------



------------


pot-win/ 
8888: 800 
/pot-win 

------------


seat/ 
button: 3333 1600 8000 
small blind: 7777 1200 6000 
big blind: 6666 3600 6000 
1111 4800 8000 
2222 4400 8000 
8888 3200 6000 
5555 2800 6000 
4444 2400 8000 
/seat 

------------


blind/ 
7777: 50 
6666: 100 
/blind 

------------


hold/ 
CLUBS Q 
SPADES 5 
/hold 

------------



------------


inquire/ 
2222 4300 8000 100 call 
1111 4700 8000 100 call 
6666 3500 6000 100 blind 
7777 1150 6000 50 blind 
total pot: 350 
/inquire 

------------



------------


flop/ 
DIAMONDS J 
SPADES 2 
HEARTS 4 
/flop 

------------



------------


inquire/ 
2222 4300 8000 100 check 
1111 4700 8000 100 check 
6666 3500 6000 100 check 
7777 1100 6000 100 check 
3333 1500 8000 100 call 
4444 2300 8000 100 call 
5555 2700 6000 100 call 
8888 3100 6000 100 call 
total pot: 800 
/inquire 

------------



------------


turn/ 
SPADES 6 
/turn 

------------



------------


inquire/ 
2222 4300 8000 100 check 
1111 4700 8000 100 check 
6666 3500 6000 100 check 
7777 1100 6000 100 check 
3333 1500 8000 100 check 
4444 2300 8000 100 check 
5555 2700 6000 100 check 
8888 3100 6000 100 check 
total pot: 800 
/inquire 

------------



------------


river/ 
SPADES K 
/river 

------------



------------


inquire/ 
2222 4300 8000 100 check 
1111 4700 8000 100 check 
6666 3500 6000 100 check 
7777 1100 6000 100 check 
3333 1500 8000 100 check 
4444 2300 8000 100 check 
5555 2700 6000 100 check 
8888 3100 6000 100 check 
total pot: 800 
/inquire 

------------



------------


showdown/ 
common/ 
DIAMONDS J 
SPADES 2 
HEARTS 4 
SPADES 6 
SPADES K 
/common 
5: 7777 CLUBS 2 DIAMONDS 9 ONE_PAIR 
6: 6666 HEARTS 10 SPADES A HIGH_CARD 
3: 1111 CLUBS 10 SPADES 10 ONE_PAIR 
2: 2222 HEARTS 9 DIAMONDS K ONE_PAIR 
8: 8888 CLUBS Q SPADES 5 HIGH_CARD 
1: 5555 SPADES 3 SPADES 7 FLUSH 
4: 4444 HEARTS A CLUBS 4 ONE_PAIR 
7: 3333 DIAMONDS A CLUBS 5 HIGH_CARD 
/showdown 

------------



------------


pot-win/ 
5555: 800 
/pot-win 

------------


seat/ 
button: 7777 1100 6000 
small blind: 6666 3500 6000 
big blind: 1111 4700 8000 
2222 4300 8000 
8888 3100 6000 
5555 3500 6000 
4444 2300 8000 
3333 1500 8000 
/seat 

------------


blind/ 
6666: 50 
1111: 100 
/blind 

------------


hold/ 
HEARTS 9 
DIAMONDS K 
/hold 

------------



------------


inquire/ 
2222 4200 8000 100 call 
1111 4600 8000 100 blind 
6666 3450 6000 50 blind 
total pot: 250 
/inquire 

------------



------------


flop/ 
DIAMONDS J 
SPADES 2 
HEARTS 4 
/flop 

------------



------------


inquire/ 
2222 4200 8000 100 check 
1111 4600 8000 100 check 
6666 3400 6000 100 check 
7777 1000 6000 100 call 
3333 1400 8000 100 call 
4444 2200 8000 100 call 
5555 3400 6000 100 call 
8888 3000 6000 100 call 
total pot: 800 
/inquire 

------------



------------


turn/ 
SPADES 6 
/turn 

------------



------------


inquire/ 
2222 4200 8000 100 check 
1111 4600 8000 100 check 
6666 3400 6000 100 check 
7777 1000 6000 100 check 
3333 1400 8000 100 check 
4444 2200 8000 100 check 
5555 3400 6000 100 check 
8888 3000 6000 100 check 
total pot: 800 
/inquire 

------------



------------


river/ 
SPADES K 
/river 

------------



------------


inquire/ 
2222 4200 8000 100 check 
1111 4600 8000 100 check 
6666 3400 6000 100 check 
7777 1000 6000 100 check 
3333 1400 8000 100 check 
4444 2200 8000 100 check 
5555 3400 6000 100 check 
8888 3000 6000 100 check 
total pot: 800 
/inquire 

------------



------------


showdown/ 
common/ 
DIAMONDS J 
SPADES 2 
HEARTS 4 
SPADES 6 
SPADES K 
/common 
5: 6666 CLUBS 2 DIAMONDS 9 ONE_PAIR 
6: 1111 HEARTS 10 SPADES A HIGH_CARD 
3: 2222 CLUBS 10 SPADES 10 ONE_PAIR 
2: 8888 HEARTS 9 DIAMONDS K ONE_PAIR 
8: 5555 CLUBS Q SPADES 5 HIGH_CARD 
1: 4444 SPADES 3 SPADES 7 FLUSH 
4: 3333 HEARTS A CLUBS 4 ONE_PAIR 
7: 7777 DIAMONDS A CLUBS 5 HIGH_CARD 
/showdown 

------------



------------


pot-win/ 
4444: 800 
/pot-win 

------------


seat/ 
button: 6666 3400 6000 
small blind: 1111 4600 8000 
big blind: 2222 4200 8000 
8888 3000 6000 
5555 3400 6000 
4444 3000 8000 
3333 1400 8000 
7777 1000 6000 
/seat 

------------


blind/ 
1111: 50 
2222: 100 
/blind 

------------


hold/ 
CLUBS 10 
SPADES 10 
/hold 

------------


inquire/ 
2222 4100 8000 100 blind 
1111 4550 8000 50 blind 
total pot: 150 
/inquire 

------------



------------


flop/ 
DIAMONDS J 
SPADES 2 
HEARTS 4 
/flop 

------------



------------


inquire/ 
2222 4100 8000 100 check 
1111 4500 8000 100 check 
6666 3300 6000 100 call 
7777 900 6000 100 call 
3333 1300 8000 100 call 
4444 2900 8000 100 call 
5555 3300 6000 100 call 
8888 2900 6000 100 call 
total pot: 800 
/inquire 

------------



------------


turn/ 
SPADES 6 
/turn 

------------



------------


inquire/ 
2222 4100 8000 100 check 
1111 4500 8000 100 check 
6666 3300 6000 100 check 
7777 900 6000 100 check 
3333 1300 8000 100 check 
4444 2900 8000 100 check 
5555 3300 6000 100 check 
8888 2900 6000 100 check 
total pot: 800 
/inquire 

------------



------------


river/ 
SPADES K 
/river 

------------



------------


inquire/ 
2222 4100 8000 100 check 
1111 4500 8000 100 check 
6666 3300 6000 100 check 
7777 900 6000 100 check 
3333 1300 8000 100 check 
4444 2900 8000 100 check 
5555 3300 6000 100 check 
8888 2900 6000 100 check 
total pot: 800 
/inquire 

------------



------------


showdown/ 
common/ 
DIAMONDS J 
SPADES 2 
HEARTS 4 
SPADES 6 
SPADES K 
/common 
5: 1111 CLUBS 2 DIAMONDS 9 ONE_PAIR 
6: 2222 HEARTS 10 SPADES A HIGH_CARD 
3: 8888 CLUBS 10 SPADES 10 ONE_PAIR 
2: 5555 HEARTS 9 DIAMONDS K ONE_PAIR 
8: 4444 CLUBS Q SPADES 5 HIGH_CARD 
1: 3333 SPADES 3 SPADES 7 FLUSH 
4: 7777 HEARTS A CLUBS 4 ONE_PAIR 
7: 6666 DIAMONDS A CLUBS 5 HIGH_CARD 
/showdown 

------------



------------


pot-win/ 
3333: 800 
/pot-win 

------------


seat/ 
button: 1111 4500 8000 
small blind: 2222 4100 8000 
big blind: 8888 2900 6000 
5555 3300 6000 
4444 2900 8000 
3333 2100 8000 
7777 900 6000 
6666 3300 6000 
/seat 

------------


blind/ 
2222: 50 
8888: 100 
/blind 

------------


hold/ 
HEARTS 10 
SPADES A 
/hold 

------------



------------


inquire/ 
2222 4000 8000 100 call 
1111 4400 8000 100 call 
6666 3200 6000 100 call 
7777 800 6000 100 call 
3333 2000 8000 100 call 
4444 2800 8000 100 call 
5555 3200 6000 100 call 
8888 2800 6000 100 blind 
total pot: 800 
/inquire 

------------



------------


flop/ 
DIAMONDS J 
SPADES 2 
HEARTS 4 
/flop 

------------



------------


inquire/ 
2222 4000 8000 100 check 
1111 4400 8000 100 call 
6666 3200 6000 100 call 
7777 800 6000 100 call 
3333 2000 8000 100 call 
4444 2800 8000 100 call 
5555 3200 6000 100 call 
8888 2800 6000 100 check 
total pot: 800 
/inquire 

------------



------------


turn/ 
SPADES 6 
/turn 

------------



------------


inquire/ 
2222 4000 8000 100 check 
1111 4400 8000 100 check 
6666 3200 6000 100 check 
7777 800 6000 100 check 
3333 2000 8000 100 check 
4444 2800 8000 100 check 
5555 3200 6000 100 check 
8888 2800 6000 100 check 
total pot: 800 
/inquire 

------------



------------


river/ 
SPADES K 
/river 

------------



------------


inquire/ 
2222 4000 8000 100 check 
1111 4400 8000 100 check 
6666 3200 6000 100 check 
7777 800 6000 100 check 
3333 2000 8000 100 check 
4444 2800 8000 100 check 
5555 3200 6000 100 check 
8888 2800 6000 100 check 
total pot: 800 
/inquire 

------------



------------


showdown/ 
common/ 
DIAMONDS J 
SPADES 2 
HEARTS 4 
SPADES 6 
SPADES K 
/common 
5: 2222 CLUBS 2 DIAMONDS 9 ONE_PAIR 
6: 8888 HEARTS 10 SPADES A HIGH_CARD 
3: 5555 CLUBS 10 SPADES 10 ONE_PAIR 
2: 4444 HEARTS 9 DIAMONDS K ONE_PAIR 
8: 3333 CLUBS Q SPADES 5 HIGH_CARD 
1: 7777 SPADES 3 SPADES 7 FLUSH 
4: 6666 HEARTS A CLUBS 4 ONE_PAIR 
7: 1111 DIAMONDS A CLUBS 5 HIGH_CARD 
/showdown 

------------



------------


pot-win/ 
7777: 800 
/pot-win 

------------


seat/ 
button: 2222 4000 8000 
small blind: 8888 2800 6000 
big blind: 5555 3200 6000 
4444 2800 8000 
3333 2000 8000 
7777 1600 6000 
6666 3200 6000 
1111 4400 8000 
/seat 

------------


blind/ 
8888: 50 
5555: 100 
/blind 

------------


hold/ 
HEARTS 6 
HEARTS A 
/hold 

------------



------------


inquire/ 
2222 3900 8000 100 call 
1111 4300 8000 100 call 
6666 3100 6000 100 call 
7777 1500 6000 100 call 
3333 1900 8000 100 call 
4444 2700 8000 100 call 
5555 3100 6000 100 blind 
8888 2750 6000 50 blind 
total pot: 750 
/inquire 

------------



------------


flop/ 
DIAMONDS 6 
SPADES 4 
HEARTS 10 
/flop 

------------



------------


inquire/ 
2222 3900 8000 100 call 
1111 4300 8000 100 call 
6666 3100 6000 100 call 
7777 1500 6000 100 call 
3333 1900 8000 100 call 
4444 2700 8000 100 call 
5555 3100 6000 100 check 
8888 2700 6000 100 call 
total pot: 800 
/inquire 

------------



------------


turn/ 
HEARTS 4 
/turn 

------------



------------


inquire/ 
2222 3900 8000 100 check 
1111 4300 8000 100 check 
6666 3100 6000 100 check 
7777 1500 6000 100 check 
3333 1900 8000 100 check 
4444 2700 8000 100 check 
5555 3100 6000 100 check 
8888 2700 6000 100 check 
total pot: 800 
/inquire 

------------



------------


river/ 
HEARTS 5 
/river 

------------



------------


inquire/ 
2222 3900 8000 100 check 
1111 4300 8000 100 check 
6666 3100 6000 100 check 
7777 1500 6000 100 check 
3333 1900 8000 100 check 
4444 2700 8000 100 check 
5555 3100 6000 100 check 
8888 2700 6000 100 check 
total pot: 800 
/inquire 

------------



------------


showdown/ 
common/ 
DIAMONDS 6 
SPADES 4 
HEARTS 10 
HEARTS 4 
HEARTS 5 
/common 
1: 8888 HEARTS 6 HEARTS A FLUSH 
3: 5555 DIAMONDS 2 DIAMONDS 10 TWO_PAIR 
5: 4444 CLUBS 9 CLUBS 5 TWO_PAIR 
7: 3333 SPADES 9 CLUBS 7 ONE_PAIR 
2: 7777 SPADES 10 SPADES 5 TWO_PAIR 
5: 6666 HEARTS 9 DIAMONDS 5 TWO_PAIR 
6: 1111 SPADES J DIAMONDS 9 ONE_PAIR 
4: 2222 SPADES 6 DIAMONDS J TWO_PAIR 
/showdown 

------------



------------


pot-win/ 
8888: 800 
/pot-win 

------------


seat/ 
button: 8888 3500 6000 
small blind: 5555 3100 6000 
big blind: 4444 2700 8000 
3333 1900 8000 
7777 1500 6000 
6666 3100 6000 
1111 4300 8000 
2222 3900 8000 
/seat 

------------


blind/ 
5555: 50 
4444: 100 
/blind 

------------


hold/ 
SPADES 6 
DIAMONDS J 
/hold 

------------



------------


inquire/ 
2222 3800 8000 100 call 
1111 4200 8000 100 call 
6666 3000 6000 100 call 
7777 1400 6000 100 call 
3333 1800 8000 100 call 
4444 2600 8000 100 blind 
5555 3050 6000 50 blind 
total pot: 650 
/inquire 

------------



------------


flop/ 
DIAMONDS 6 
SPADES 4 
HEARTS 10 
/flop 

------------



------------


inquire/ 
2222 3800 8000 100 check 
1111 4200 8000 100 check 
6666 3000 6000 100 check 
7777 1400 6000 100 check 
3333 1800 8000 100 check 
4444 2600 8000 100 check 
5555 3000 6000 100 check 
8888 3400 6000 100 call 
total pot: 800 
/inquire 

------------



------------


turn/ 
HEARTS 4 
/turn 

------------



------------


inquire/ 
2222 3800 8000 100 check 
1111 4200 8000 100 check 
6666 3000 6000 100 check 
7777 1400 6000 100 check 
3333 1800 8000 100 check 
4444 2600 8000 100 check 
5555 3000 6000 100 check 
8888 3400 6000 100 check 
total pot: 800 
/inquire 

------------



------------


river/ 
HEARTS 5 
/river 

------------



------------


inquire/ 
2222 3800 8000 100 check 
1111 4200 8000 100 check 
6666 3000 6000 100 check 
7777 1400 6000 100 check 
3333 1800 8000 100 check 
4444 2600 8000 100 check 
5555 3000 6000 100 check 
8888 3400 6000 100 check 
total pot: 800 
/inquire 

------------



------------


showdown/ 
common/ 
DIAMONDS 6 
SPADES 4 
HEARTS 10 
HEARTS 4 
HEARTS 5 
/common 
1: 5555 HEARTS 6 HEARTS A FLUSH 
3: 4444 DIAMONDS 2 DIAMONDS 10 TWO_PAIR 
5: 3333 CLUBS 9 CLUBS 5 TWO_PAIR 
7: 7777 SPADES 9 CLUBS 7 ONE_PAIR 
2: 6666 SPADES 10 SPADES 5 TWO_PAIR 
5: 1111 HEARTS 9 DIAMONDS 5 TWO_PAIR 
6: 2222 SPADES J DIAMONDS 9 ONE_PAIR 
4: 8888 SPADES 6 DIAMONDS J TWO_PAIR 
/showdown 

------------



------------


pot-win/ 
5555: 800 
/pot-win 

------------


seat/ 
button: 5555 3800 6000 
small blind: 4444 2600 8000 
big blind: 3333 1800 8000 
7777 1400 6000 
6666 3000 6000 
1111 4200 8000 
2222 3800 8000 
8888 3400 6000 
/seat 

------------


blind/ 
4444: 50 
3333: 100 
/blind 

------------


hold/ 
SPADES J 
DIAMONDS 9 
/hold 

------------



------------


inquire/ 
2222 3700 8000 100 call 
1111 4100 8000 100 call 
6666 2900 6000 100 call 
7777 1300 6000 100 call 
3333 1700 8000 100 blind 
4444 2550 8000 50 blind 
total pot: 550 
/inquire 

------------



------------


flop/ 
DIAMONDS 6 
SPADES 4 
HEARTS 10 
/flop 

------------



------------


inquire/ 
2222 3700 8000 100 check 
1111 4100 8000 100 check 
6666 2900 6000 100 check 
7777 1300 6000 100 check 
3333 1700 8000 100 check 
4444 2500 8000 100 check 
5555 3700 6000 100 call 
8888 3300 6000 100 call 
total pot: 800 
/inquire 

------------



------------


turn/ 
HEARTS 4 
/turn 

------------



------------


inquire/ 
2222 3700 8000 100 check 
1111 4100 8000 100 check 
6666 2900 6000 100 check 
7777 1300 6000 100 check 
3333 1700 8000 100 check 
4444 2500 8000 100 check 
5555 3700 6000 100 check 
8888 3300 6000 100 check 
total pot: 800 
/inquire 

------------



------------


river/ 
HEARTS 5 
/river 

------------



------------


inquire/ 
2222 3700 8000 100 check 
1111 4100 8000 100 check 
6666 2900 6000 100 check 
7777 1300 6000 100 check 
3333 1700 8000 100 check 
4444 2500 8000 100 check 
5555 3700 6000 100 check 
8888 3300 6000 100 check 
total pot: 800 
/inquire 

------------



------------


showdown/ 
common/ 
DIAMONDS 6 
SPADES 4 
HEARTS 10 
HEARTS 4 
HEARTS 5 
/common 
1: 4444 HEARTS 6 HEARTS A FLUSH 
3: 3333 DIAMONDS 2 DIAMONDS 10 TWO_PAIR 
5: 7777 CLUBS 9 CLUBS 5 TWO_PAIR 
7: 6666 SPADES 9 CLUBS 7 ONE_PAIR 
2: 1111 SPADES 10 SPADES 5 TWO_PAIR 
5: 2222 HEARTS 9 DIAMONDS 5 TWO_PAIR 
6: 8888 SPADES J DIAMONDS 9 ONE_PAIR 
4: 5555 SPADES 6 DIAMONDS J TWO_PAIR 
/showdown 

------------



------------


pot-win/ 
4444: 800 
/pot-win 

------------


seat/ 
button: 4444 3300 8000 
small blind: 3333 1700 8000 
big blind: 7777 1300 6000 
6666 2900 6000 
1111 4100 8000 
2222 3700 8000 
8888 3300 6000 
5555 3700 6000 
/seat 

------------


blind/ 
3333: 50 
7777: 100 
/blind 

------------


hold/ 
HEARTS 9 
DIAMONDS 5 
/hold 

------------



------------


inquire/ 
2222 3600 8000 100 call 
1111 4000 8000 100 call 
6666 2800 6000 100 call 
7777 1200 6000 100 blind 
3333 1650 8000 50 blind 
total pot: 450 
/inquire 

------------



------------


flop/ 
DIAMONDS 6 
SPADES 4 
HEARTS 10 
/flop 

------------



------------


inquire/ 
2222 3600 8000 100 check 
1111 4000 8000 100 check 
6666 2800 6000 100 check 
7777 1200 6000 100 check 
3333 1600 8000 100 check 
4444 3200 8000 100 call 
5555 3600 6000 100 call 
8888 3200 6000 100 call 
total pot: 800 
/inquire 

------------



------------


turn/ 
HEARTS 4 
/turn 

------------



------------


inquire/ 
2222 3600 8000 100 check 
1111 4000 8000 100 check 
6666 2800 6000 100 check 
7777 1200 6000 100 check 
3333 1600 8000 100 check 
4444 3200 8000 100 check 
5555 3600 6000 100 check 
8888 3200 6000 100 check 
total pot: 800 
/inquire 

------------



------------


river/ 
HEARTS 5 
/river 

------------



------------


inquire/ 
2222 3600 8000 100 check 
1111 4000 8000 100 check 
6666 2800 6000 100 check 
7777 1200 6000 100 check 
3333 1600 8000 100 check 
4444 3200 8000 100 check 
5555 3600 6000 100 check 
8888 3200 6000 100 check 
total pot: 800 
/inquire 

------------



------------


showdown/ 
common/ 
DIAMONDS 6 
SPADES 4 
HEARTS 10 
HEARTS 4 
HEARTS 5 
/common 
1: 3333 HEARTS 6 HEARTS A FLUSH 
3: 7777 DIAMONDS 2 DIAMONDS 10 TWO_PAIR 
5: 6666 CLUBS 9 CLUBS 5 TWO_PAIR 
7: 1111 SPADES 9 CLUBS 7 ONE_PAIR 
2: 2222 SPADES 10 SPADES 5 TWO_PAIR 
5: 8888 HEARTS 9 DIAMONDS 5 TWO_PAIR 
6: 5555 SPADES J DIAMONDS 9 ONE_PAIR 
4: 4444 SPADES 6 DIAMONDS J TWO_PAIR 
/showdown 

------------



------------


pot-win/ 
3333: 800 
/pot-win 

------------


seat/ 
button: 3333 2400 8000 
small blind: 7777 1200 6000 
big blind: 6666 2800 6000 
1111 4000 8000 
2222 3600 8000 
8888 3200 6000 
5555 3600 6000 
4444 3200 8000 
/seat 

------------


blind/ 
7777: 50 
6666: 100 
/blind 

------------


hold/ 
SPADES 10 
SPADES 5 
/hold 

------------



------------


inquire/ 
2222 3500 8000 100 call 
1111 3900 8000 100 call 
6666 2700 6000 100 blind 
7777 1150 6000 50 blind 
total pot: 350 
/inquire 

------------



------------


flop/ 
DIAMONDS 6 
SPADES 4 
HEARTS 10 
/flop 

------------



------------


inquire/ 
2222 3500 8000 100 check 
1111 3900 8000 100 check 
6666 2700 6000 100 check 
7777 1100 6000 100 check 
3333 2300 8000 100 call 
4444 3100 8000 100 call 
5555 3500 6000 100 call 
8888 3100 6000 100 call 
total pot: 800 
/inquire 

------------



------------


turn/ 
HEARTS 4 
/turn 

------------



------------


inquire/ 
2222 3500 8000 100 check 
1111 3900 8000 100 check 
6666 2700 6000 100 check 
7777 1100 6000 100 check 
3333 2300 8000 100 check 
4444 3100 8000 100 check 
5555 3500 6000 100 check 
8888 3100 6000 100 check 
total pot: 800 
/inquire 

------------



------------


river/ 
HEARTS 5 
/river 

------------



------------


inquire/ 
2222 3500 8000 100 check 
1111 3900 8000 100 check 
6666 2700 6000 100 check 
7777 1100 6000 100 check 
3333 2300 8000 100 check 
4444 3100 8000 100 check 
5555 3500 6000 100 check 
8888 3100 6000 100 check 
total pot: 800 
/inquire 

------------



------------


showdown/ 
common/ 
DIAMONDS 6 
SPADES 4 
HEARTS 10 
HEARTS 4 
HEARTS 5 
/common 
1: 7777 HEARTS 6 HEARTS A FLUSH 
3: 6666 DIAMONDS 2 DIAMONDS 10 TWO_PAIR 
5: 1111 CLUBS 9 CLUBS 5 TWO_PAIR 
7: 2222 SPADES 9 CLUBS 7 ONE_PAIR 
2: 8888 SPADES 10 SPADES 5 TWO_PAIR 
5: 5555 HEARTS 9 DIAMONDS 5 TWO_PAIR 
6: 4444 SPADES J DIAMONDS 9 ONE_PAIR 
4: 3333 SPADES 6 DIAMONDS J TWO_PAIR 
/showdown 

------------



------------


pot-win/ 
7777: 800 
/pot-win 

------------


seat/ 
button: 7777 1900 6000 
small blind: 6666 2700 6000 
big blind: 1111 3900 8000 
2222 3500 8000 
8888 3100 6000 
5555 3500 6000 
4444 3100 8000 
3333 2300 8000 
/seat 

------------


blind/ 
6666: 50 
1111: 100 
/blind 

------------


hold/ 
CLUBS J 
SPADES 4 
/hold 

------------



------------


inquire/ 
2222 3400 8000 100 call 
1111 3800 8000 100 blind 
6666 2650 6000 50 blind 
total pot: 250 
/inquire 

------------



------------


flop/ 
HEARTS 6 
SPADES J 
SPADES 3 
/flop 

------------



------------


inquire/ 
2222 3400 8000 100 check 
1111 3800 8000 100 check 
6666 2600 6000 100 check 
7777 1800 6000 100 call 
3333 2200 8000 100 call 
4444 3000 8000 100 call 
5555 3400 6000 100 call 
8888 3000 6000 100 call 
total pot: 800 
/inquire 

------------



------------


turn/ 
DIAMONDS 5 
/turn 

------------



------------


inquire/ 
2222 3400 8000 100 check 
1111 3800 8000 100 check 
6666 2600 6000 100 check 
7777 1800 6000 100 check 
3333 2200 8000 100 check 
4444 3000 8000 100 check 
5555 3400 6000 100 check 
8888 3000 6000 100 check 
total pot: 800 
/inquire 

------------



------------


river/ 
SPADES A 
/river 

------------



------------


inquire/ 
2222 3400 8000 100 check 
1111 3800 8000 100 check 
6666 2600 6000 100 check 
7777 1800 6000 100 check 
3333 2200 8000 100 check 
4444 3000 8000 100 check 
5555 3400 6000 100 check 
8888 3000 6000 100 check 
total pot: 800 
/inquire 

------------



------------


showdown/ 
common/ 
HEARTS 6 
SPADES J 
SPADES 3 
DIAMONDS 5 
SPADES A 
/common 
4: 6666 DIAMONDS 8 CLUBS 6 ONE_PAIR 
4: 1111 SPADES 6 CLUBS 8 ONE_PAIR 
2: 2222 SPADES 7 HEARTS A ONE_PAIR 
3: 8888 CLUBS J SPADES 4 ONE_PAIR 
1: 5555 CLUBS A DIAMONDS A THREE_OF_A_KIND 
3: 4444 HEARTS J DIAMONDS 2 ONE_PAIR 
5: 3333 DIAMONDS 3 CLUBS 10 ONE_PAIR 
6: 7777 DIAMONDS 10 CLUBS 2 HIGH_CARD 
/showdown 

------------



------------


pot-win/ 
5555: 800 
/pot-win 

------------


seat/ 
button: 6666 2600 6000 
small blind: 1111 3800 8000 
big blind: 2222 3400 8000 
8888 3000 6000 
5555 4200 6000 
4444 3000 8000 
3333 2200 8000 
7777 1800 6000 
/seat 

------------


blind/ 
1111: 50 
2222: 100 
/blind 

------------


hold/ 
SPADES 7 
HEARTS A 
/hold 

------------


inquire/ 
2222 3300 8000 100 blind 
1111 3750 8000 50 blind 
total pot: 150 
/inquire 

------------



------------


flop/ 
HEARTS 6 
SPADES J 
SPADES 3 
/flop 

------------



------------


inquire/ 
2222 3300 8000 100 check 
1111 3700 8000 100 check 
6666 2500 6000 100 call 
7777 1700 6000 100 call 
3333 2100 8000 100 call 
4444 2900 8000 100 call 
5555 4100 6000 100 call 
8888 2900 6000 100 call 
total pot: 800 
/inquire 

------------



------------


turn/ 
DIAMONDS 5 
/turn 

------------



------------


inquire/ 
2222 3300 8000 100 check 
1111 3700 8000 100 check 
6666 2500 6000 100 check 
7777 1700 6000 100 check 
3333 2100 8000 100 check 
4444 2900 8000 100 check 
5555 4100 6000 100 check 
8888 2900 6000 100 check 
total pot: 800 
/inquire 

------------



------------


river/ 
SPADES A 
/river 

------------



------------


inquire/ 
2222 3300 8000 100 check 
1111 3700 8000 100 check 
6666 2500 6000 100 check 
7777 1700 6000 100 check 
3333 2100 8000 100 check 
4444 2900 8000 100 check 
5555 4100 6000 100 check 
8888 2900 6000 100 check 
total pot: 800 
/inquire 

------------



------------


showdown/ 
common/ 
HEARTS 6 
SPADES J 
SPADES 3 
DIAMONDS 5 
SPADES A 
/common 
4: 1111 DIAMONDS 8 CLUBS 6 ONE_PAIR 
4: 2222 SPADES 6 CLUBS 8 ONE_PAIR 
2: 8888 SPADES 7 HEARTS A ONE_PAIR 
3: 5555 CLUBS J SPADES 4 ONE_PAIR 
1: 4444 CLUBS A DIAMONDS A THREE_OF_A_KIND 
3: 3333 HEARTS J DIAMONDS 2 ONE_PAIR 
5: 7777 DIAMONDS 3 CLUBS 10 ONE_PAIR 
6: 6666 DIAMONDS 10 CLUBS 2 HIGH_CARD 
/showdown 

------------



------------


pot-win/ 
4444: 800 
/pot-win 

------------


seat/ 
button: 1111 3700 8000 
small blind: 2222 3300 8000 
big blind: 8888 2900 6000 
5555 4100 6000 
4444 3700 8000 
3333 2100 8000 
7777 1700 6000 
6666 2500 6000 
/seat 

------------


blind/ 
2222: 50 
8888: 100 
/blind 

------------


hold/ 
SPADES 6 
CLUBS 8 
/hold 

------------



------------


inquire/ 
2222 3200 8000 100 call 
1111 3600 8000 100 call 
6666 2400 6000 100 call 
7777 1600 6000 100 call 
3333 2000 8000 100 call 
4444 3600 8000 100 call 
5555 4000 6000 100 call 
8888 2800 6000 100 blind 
total pot: 800 
/inquire 

------------



------------


flop/ 
HEARTS 6 
SPADES J 
SPADES 3 
/flop 

------------



------------


inquire/ 
2222 3200 8000 100 check 
1111 3600 8000 100 call 
6666 2400 6000 100 call 
7777 1600 6000 100 call 
3333 2000 8000 100 call 
4444 3600 8000 100 call 
5555 4000 6000 100 call 
8888 2800 6000 100 check 
total pot: 800 
/inquire 

------------



------------


turn/ 
DIAMONDS 5 
/turn 

------------



------------


inquire/ 
2222 3200 8000 100 check 
1111 3600 8000 100 check 
6666 2400 6000 100 check 
7777 1600 6000 100 check 
3333 2000 8000 100 check 
4444 3600 8000 100 check 
5555 4000 6000 100 check 
8888 2800 6000 100 check 
total pot: 800 
/inquire 

------------



------------


river/ 
SPADES A 
/river 

------------



------------


inquire/ 
2222 3200 8000 100 check 
1111 3600 8000 100 check 
6666 2400 6000 100 check 
7777 1600 6000 100 check 
3333 2000 8000 100 check 
4444 3600 8000 100 check 
5555 4000 6000 100 check 
8888 2800 6000 100 check 
total pot: 800 
/inquire 

------------



------------


showdown/ 
common/ 
HEARTS 6 
SPADES J 
SPADES 3 
DIAMONDS 5 
SPADES A 
/common 
4: 2222 DIAMONDS 8 CLUBS 6 ONE_PAIR 
4: 8888 SPADES 6 CLUBS 8 ONE_PAIR 
2: 5555 SPADES 7 HEARTS A ONE_PAIR 
3: 4444 CLUBS J SPADES 4 ONE_PAIR 
1: 3333 CLUBS A DIAMONDS A THREE_OF_A_KIND 
3: 7777 HEARTS J DIAMONDS 2 ONE_PAIR 
5: 6666 DIAMONDS 3 CLUBS 10 ONE_PAIR 
6: 1111 DIAMONDS 10 CLUBS 2 HIGH_CARD 
/showdown 

------------



------------


pot-win/ 
3333: 800 
/pot-win 

------------


seat/ 
button: 2222 3200 8000 
small blind: 8888 2800 6000 
big blind: 5555 4000 6000 
4444 3600 8000 
3333 2800 8000 
7777 1600 6000 
6666 2400 6000 
1111 3600 8000 
/seat 

------------


blind/ 
8888: 50 
5555: 100 
/blind 

------------


hold/ 
DIAMONDS 8 
CLUBS 6 
/hold 

------------



------------


inquire/ 
2222 3100 8000 100 call 
1111 3500 8000 100 call 
6666 2300 6000 100 call 
7777 1500 6000 100 call 
3333 2700 8000 100 call 
4444 3500 8000 100 call 
5555 3900 6000 100 blind 
8888 2750 6000 50 blind 
total pot: 750 
/inquire 

------------



------------


flop/ 
HEARTS 6 
SPADES J 
SPADES 3 
/flop 

------------



------------


inquire/ 
2222 3100 8000 100 call 
1111 3500 8000 100 call 
6666 2300 6000 100 call 
7777 1500 6000 100 call 
3333 2700 8000 100 call 
4444 3500 8000 100 call 
5555 3900 6000 100 check 
8888 2700 6000 100 call 
total pot: 800 
/inquire 

------------



------------


turn/ 
DIAMONDS 5 
/turn 

------------



------------


inquire/ 
2222 3100 8000 100 check 
1111 3500 8000 100 check 
6666 2300 6000 100 check 
7777 1500 6000 100 check 
3333 2700 8000 100 check 
4444 3500 8000 100 check 
5555 3900 6000 100 check 
8888 2700 6000 100 check 
total pot: 800 
/inquire 

------------



------------


river/ 
SPADES A 
/river 

------------



------------


inquire/ 
2222 3100 8000 100 check 
1111 3500 8000 100 check 
6666 2300 6000 100 check 
7777 1500 6000 100 check 
3333 2700 8000 100 check 
4444 3500 8000 100 check 
5555 3900 6000 100 check 
8888 2700 6000 100 check 
total pot: 800 
/inquire 

------------



------------


showdown/ 
common/ 
HEARTS 6 
SPADES J 
SPADES 3 
DIAMONDS 5 
SPADES A 
/common 
4: 8888 DIAMONDS 8 CLUBS 6 ONE_PAIR 
4: 5555 SPADES 6 CLUBS 8 ONE_PAIR 
2: 4444 SPADES 7 HEARTS A ONE_PAIR 
3: 3333 CLUBS J SPADES 4 ONE_PAIR 
1: 7777 CLUBS A DIAMONDS A THREE_OF_A_KIND 
3: 6666 HEARTS J DIAMONDS 2 ONE_PAIR 
5: 1111 DIAMONDS 3 CLUBS 10 ONE_PAIR 
6: 2222 DIAMONDS 10 CLUBS 2 HIGH_CARD 
/showdown 

------------



------------


pot-win/ 
7777: 800 
/pot-win 

------------


seat/ 
button: 8888 2700 6000 
small blind: 5555 3900 6000 
big blind: 4444 3500 8000 
3333 2700 8000 
7777 2300 6000 
6666 2300 6000 
1111 3500 8000 
2222 3100 8000 
/seat 

------------


blind/ 
5555: 50 
4444: 100 
/blind 

------------


hold/ 
DIAMONDS 10 
CLUBS 2 
/hold 

------------



------------


inquire/ 
2222 3000 8000 100 call 
1111 3400 8000 100 call 
6666 2200 6000 100 call 
7777 2200 6000 100 call 
3333 2600 8000 100 call 
4444 3400 8000 100 blind 
5555 3850 6000 50 blind 
total pot: 650 
/inquire 

------------



------------


flop/ 
HEARTS 6 
SPADES J 
SPADES 3 
/flop 

------------



------------


inquire/ 
2222 3000 8000 100 check 
1111 3400 8000 100 check 
6666 2200 6000 100 check 
7777 2200 6000 100 check 
3333 2600 8000 100 check 
4444 3400 8000 100 check 
5555 3800 6000 100 check 
8888 2600 6000 100 call 
total pot: 800 
/inquire 

------------



------------


turn/ 
DIAMONDS 5 
/turn 

------------



------------


inquire/ 
2222 3000 8000 100 check 
1111 3400 8000 100 check 
6666 2200 6000 100 check 
7777 2200 6000 100 check 
3333 2600 8000 100 check 
4444 3400 8000 100 check 
5555 3800 6000 100 check 
8888 2600 6000 100 check 
total pot: 800 
/inquire 

------------



------------


river/ 
SPADES A 
/river 

------------



------------


inquire/ 
2222 3000 8000 100 check 
1111 3400 8000 100 check 
6666 2200 6000 100 check 
7777 2200 6000 100 check 
3333 2600 8000 100 check 
4444 3400 8000 100 check 
5555 3800 6000 100 check 
8888 2600 6000 100 check 
total pot: 800 
/inquire 

------------



------------


showdown/ 
common/ 
HEARTS 6 
SPADES J 
SPADES 3 
DIAMONDS 5 
SPADES A 
/common 
4: 5555 DIAMONDS 8 CLUBS 6 ONE_PAIR 
4: 4444 SPADES 6 CLUBS 8 ONE_PAIR 
2: 3333 SPADES 7 HEARTS A ONE_PAIR 
3: 7777 CLUBS J SPADES 4 ONE_PAIR 
1: 6666 CLUBS A DIAMONDS A THREE_OF_A_KIND 
3: 1111 HEARTS J DIAMONDS 2 ONE_PAIR 
5: 2222 DIAMONDS 3 CLUBS 10 ONE_PAIR 
6: 8888 DIAMONDS 10 CLUBS 2 HIGH_CARD 
/showdown 

------------



------------


pot-win/ 
6666: 800 
/pot-win 

------------


seat/ 
button: 5555 3800 6000 
small blind: 4444 3400 8000 
big blind: 3333 2600 8000 
7777 2200 6000 
6666 3000 6000 
1111 3400 8000 
2222 3000 8000 
8888 2600 6000 
/seat 

------------


blind/ 
4444: 50 
3333: 100 
/blind 

------------


hold/ 
DIAMONDS 3 
CLUBS 10 
/hold 

------------



------------


inquire/ 
2222 2900 8000 100 call 
1111 3300 8000 100 call 
6666 2900 6000 100 call 
7777 2100 6000 100 call 
3333 2500 8000 100 blind 
4444 3350 8000 50 blind 
total pot: 550 
/inquire 

------------



------------


flop/ 
HEARTS 6 
SPADES J 
SPADES 3 
/flop 

------------



------------


inquire/ 
2222 2900 8000 100 check 
1111 3300 8000 100 check 
6666 2900 6000 100 check 
7777 2100 6000 100 check 
3333 2500 8000 100 check 
4444 3300 8000 100 check 
5555 3700 6000 100 call 
8888 2500 6000 100 call 
total pot: 800 
/inquire 

------------



------------


turn/ 
DIAMONDS 5 
/turn 

------------



------------


inquire/ 
2222 2900 8000 100 check 
1111 3300 8000 100 check 
6666 2900 6000 100 check 
7777 2100 6000 100 check 
3333 2500 8000 100 check 
4444 3300 8000 100 check 
5555 3700 6000 100 check 
8888 2500 6000 100 check 
total pot: 800 
/inquire 

------------



------------


river/ 
SPADES A 
/river 

------------



------------


inquire/ 
2222 2900 8000 100 check 
1111 3300 8000 100 check 
6666 2900 6000 100 check 
7777 2100 6000 100 check 
3333 2500 8000 100 check 
4444 3300 8000 100 check 
5555 3700 6000 100 check 
8888 2500 6000 100 check 
total pot: 800 
/inquire 

------------



------------


showdown/ 
common/ 
HEARTS 6 
SPADES J 
SPADES 3 
DIAMONDS 5 
SPADES A 
/common 
4: 4444 DIAMONDS 8 CLUBS 6 ONE_PAIR 
4: 3333 SPADES 6 CLUBS 8 ONE_PAIR 
2: 7777 SPADES 7 HEARTS A ONE_PAIR 
3: 6666 CLUBS J SPADES 4 ONE_PAIR 
1: 1111 CLUBS A DIAMONDS A THREE_OF_A_KIND 
3: 2222 HEARTS J DIAMONDS 2 ONE_PAIR 
5: 8888 DIAMONDS 3 CLUBS 10 ONE_PAIR 
6: 5555 DIAMONDS 10 CLUBS 2 HIGH_CARD 
/showdown 

------------



------------


pot-win/ 
1111: 800 
/pot-win 

------------


seat/ 
button: 4444 3300 8000 
small blind: 3333 2500 8000 
big blind: 7777 2100 6000 
6666 2900 6000 
1111 4100 8000 
2222 2900 8000 
8888 2500 6000 
5555 3700 6000 
/seat 

------------


blind/ 
3333: 50 
7777: 100 
/blind 

------------


hold/ 
CLUBS 10 
SPADES A 
/hold 

------------



------------


inquire/ 
2222 2800 8000 100 call 
1111 4000 8000 100 call 
6666 2800 6000 100 call 
7777 2000 6000 100 blind 
3333 2450 8000 50 blind 
total pot: 450 
/inquire 

------------



------------


flop/ 
DIAMONDS K 
HEARTS Q 
HEARTS 5 
/flop 

------------



------------


inquire/ 
2222 2800 8000 100 check 
1111 4000 8000 100 check 
6666 2800 6000 100 check 
7777 2000 6000 100 check 
3333 2400 8000 100 check 
4444 3200 8000 100 call 
5555 3600 6000 100 call 
8888 2400 6000 100 call 
total pot: 800 
/inquire 

------------



------------


turn/ 
CLUBS J 
/turn 

------------



------------


inquire/ 
2222 2800 8000 100 check 
1111 4000 8000 100 check 
6666 2800 6000 100 check 
7777 2000 6000 100 check 
3333 2400 8000 100 check 
4444 3200 8000 100 check 
5555 3600 6000 100 check 
8888 2400 6000 100 check 
total pot: 800 
/inquire 

------------



------------


river/ 
SPADES 10 
/river 

------------



------------


inquire/ 
2222 2800 8000 100 check 
1111 4000 8000 100 check 
6666 2800 6000 100 check 
7777 2000 6000 100 check 
3333 2400 8000 100 check 
4444 3200 8000 100 check 
5555 3600 6000 100 check 
8888 2400 6000 100 check 
total pot: 800 
/inquire 

------------



------------


showdown/ 
common/ 
DIAMONDS K 
HEARTS Q 
HEARTS 5 
CLUBS J 
SPADES 10 
/common 
4: 3333 CLUBS K CLUBS 3 ONE_PAIR 
3: 7777 CLUBS Q CLUBS 5 TWO_PAIR 
5: 6666 DIAMONDS Q DIAMONDS 7 ONE_PAIR 
8: 1111 CLUBS 6 HEARTS 4 HIGH_CARD 
6: 2222 SPADES 5 CLUBS 2 ONE_PAIR 
1: 8888 CLUBS 10 SPADES A STRAIGHT 
7: 5555 CLUBS 8 DIAMONDS 4 HIGH_CARD 
2: 4444 SPADES K SPADES J TWO_PAIR 
/showdown 

------------



------------


pot-win/ 
8888: 800 
/pot-win 

------------


seat/ 
button: 3333 2400 8000 
small blind: 7777 2000 6000 
big blind: 6666 2800 6000 
1111 4000 8000 
2222 2800 8000 
8888 3200 6000 
5555 3600 6000 
4444 3200 8000 
/seat 

------------


blind/ 
7777: 50 
6666: 100 
/blind 

------------


hold/ 
SPADES 5 
CLUBS 2 
/hold 

------------



------------


inquire/ 
2222 2700 8000 100 call 
1111 3900 8000 100 call 
6666 2700 6000 100 blind 
7777 1950 6000 50 blind 
total pot: 350 
/inquire 

------------



------------


flop/ 
DIAMONDS K 
HEARTS Q 
HEARTS 5 
/flop 

------------



------------


inquire/ 
2222 2700 8000 100 check 
1111 3900 8000 100 check 
6666 2700 6000 100 check 
7777 1900 6000 100 check 
3333 2300 8000 100 call 
4444 3100 8000 100 call 
5555 3500 6000 100 call 
8888 3100 6000 100 call 
total pot: 800 
/inquire 

------------



------------


turn/ 
CLUBS J 
/turn 

------------



------------


inquire/ 
2222 2700 8000 100 check 
1111 3900 8000 100 check 
6666 2700 6000 100 check 
7777 1900 6000 100 check 
3333 2300 8000 100 check 
4444 3100 8000 100 check 
5555 3500 6000 100 check 
8888 3100 6000 100 check 
total pot: 800 
/inquire 

------------



------------


river/ 
SPADES 10 
/river 

------------



------------


inquire/ 
2222 2700 8000 100 check 
1111 3900 8000 100 check 
6666 2700 6000 100 check 
7777 1900 6000 100 check 
3333 2300 8000 100 check 
4444 3100 8000 100 check 
5555 3500 6000 100 check 
8888 3100 6000 100 check 
total pot: 800 
/inquire 

------------



------------


showdown/ 
common/ 
DIAMONDS K 
HEARTS Q 
HEARTS 5 
CLUBS J 
SPADES 10 
/common 
4: 7777 CLUBS K CLUBS 3 ONE_PAIR 
3: 6666 CLUBS Q CLUBS 5 TWO_PAIR 
5: 1111 DIAMONDS Q DIAMONDS 7 ONE_PAIR 
8: 2222 CLUBS 6 HEARTS 4 HIGH_CARD 
6: 8888 SPADES 5 CLUBS 2 ONE_PAIR 
1: 5555 CLUBS 10 SPADES A STRAIGHT 
7: 4444 CLUBS 8 DIAMONDS 4 HIGH_CARD 
2: 3333 SPADES K SPADES J TWO_PAIR 
/showdown 

------------



------------


pot-win/ 
5555: 800 
/pot-win 

------------


seat/ 
button: 7777 1900 6000 
small blind: 6666 2700 6000 
big blind: 1111 3900 8000 
2222 2700 8000 
8888 3100 6000 
5555 4300 6000 
4444 3100 8000 
3333 2300 8000 
/seat 

------------


blind/ 
6666: 50 
1111: 100 
/blind 

------------


hold/ 
CLUBS 6 
HEARTS 4 
/hold 

------------



------------


inquire/ 
2222 2600 8000 100 call 
1111 3800 8000 100 blind 
6666 2650 6000 50 blind 
total pot: 250 
/inquire 

------------



------------


flop/ 
DIAMONDS K 
HEARTS Q 
HEARTS 5 
/flop 

------------



------------


inquire/ 
2222 2600 8000 100 check 
1111 3800 8000 100 check 
6666 2600 6000 100 check 
7777 1800 6000 100 call 
3333 2200 8000 100 call 
4444 3000 8000 100 call 
5555 4200 6000 100 call 
8888 3000 6000 100 call 
total pot: 800 
/inquire 

------------



------------


turn/ 
CLUBS J 
/turn 

------------



------------


inquire/ 
2222 2600 8000 100 check 
1111 3800 8000 100 check 
6666 2600 6000 100 check 
7777 1800 6000 100 check 
3333 2200 8000 100 check 
4444 3000 8000 100 check 
5555 4200 6000 100 check 
8888 3000 6000 100 check 
total pot: 800 
/inquire 

------------



------------


river/ 
SPADES 10 
/river 

------------



------------


inquire/ 
2222 2600 8000 100 check 
1111 3800 8000 100 check 
6666 2600 6000 100 check 
7777 1800 6000 100 check 
3333 2200 8000 100 check 
4444 3000 8000 100 check 
5555 4200 6000 100 check 
8888 3000 6000 100 check 
total pot: 800 
/inquire 

------------



------------


showdown/ 
common/ 
DIAMONDS K 
HEARTS Q 
HEARTS 5 
CLUBS J 
SPADES 10 
/common 
4: 6666 CLUBS K CLUBS 3 ONE_PAIR 
3: 1111 CLUBS Q CLUBS 5 TWO_PAIR 
5: 2222 DIAMONDS Q DIAMONDS 7 ONE_PAIR 
8: 8888 CLUBS 6 HEARTS 4 HIGH_CARD 
6: 5555 SPADES 5 CLUBS 2 ONE_PAIR 
1: 4444 CLUBS 10 SPADES A STRAIGHT 
7: 3333 CLUBS 8 DIAMONDS 4 HIGH_CARD 
2: 7777 SPADES K SPADES J TWO_PAIR 
/showdown 

------------



------------


pot-win/ 
4444: 800 
/pot-win 

------------


seat/ 
button: 6666 2600 6000 
small blind: 1111 3800 8000 
big blind: 2222 2600 8000 
8888 3000 6000 
5555 4200 6000 
4444 3800 8000 
3333 2200 8000 
7777 1800 6000 
/seat 

------------


blind/ 
1111: 50 
2222: 100 
/blind 

------------


hold/ 
DIAMONDS Q 
DIAMONDS 7 
/hold 

------------


inquire/ 
2222 2500 8000 100 blind 
1111 3750 8000 50 blind 
total pot: 150 
/inquire 

------------



------------


flop/ 
DIAMONDS K 
HEARTS Q 
HEARTS 5 
/flop 

------------



------------


inquire/ 
2222 2500 8000 100 check 
1111 3700 8000 100 check 
6666 2500 6000 100 call 
7777 1700 6000 100 call 
3333 2100 8000 100 call 
4444 3700 8000 100 call 
5555 4100 6000 100 call 
8888 2900 6000 100 call 
total pot: 800 
/inquire 

------------



------------


turn/ 
CLUBS J 
/turn 

------------



------------


inquire/ 
2222 2500 8000 100 check 
1111 3700 8000 100 check 
6666 2500 6000 100 check 
7777 1700 6000 100 check 
3333 2100 8000 100 check 
4444 3700 8000 100 check 
5555 4100 6000 100 check 
8888 2900 6000 100 check 
total pot: 800 
/inquire 

------------



------------


river/ 
SPADES 10 
/river 

------------



------------


inquire/ 
2222 2500 8000 100 check 
1111 3700 8000 100 check 
6666 2500 6000 100 check 
7777 1700 6000 100 check 
3333 2100 8000 100 check 
4444 3700 8000 100 check 
5555 4100 6000 100 check 
8888 2900 6000 100 check 
total pot: 800 
/inquire 

------------



------------


showdown/ 
common/ 
DIAMONDS K 
HEARTS Q 
HEARTS 5 
CLUBS J 
SPADES 10 
/common 
4: 1111 CLUBS K CLUBS 3 ONE_PAIR 
3: 2222 CLUBS Q CLUBS 5 TWO_PAIR 
5: 8888 DIAMONDS Q DIAMONDS 7 ONE_PAIR 
8: 5555 CLUBS 6 HEARTS 4 HIGH_CARD 
6: 4444 SPADES 5 CLUBS 2 ONE_PAIR 
1: 3333 CLUBS 10 SPADES A STRAIGHT 
7: 7777 CLUBS 8 DIAMONDS 4 HIGH_CARD 
2: 6666 SPADES K SPADES J TWO_PAIR 
/showdown 

------------



------------


pot-win/ 
3333: 800 
/pot-win 

------------


seat/ 
button: 1111 3700 8000 
small blind: 2222 2500 8000 
big blind: 8888 2900 6000 
5555 4100 6000 
4444 3700 8000 
3333 2900 8000 
7777 1700 6000 
6666 2500 6000 
/seat 

------------


blind/ 
2222: 50 
8888: 100 
/blind 

------------


hold/ 
CLUBS Q 
CLUBS 5 
/hold 

------------



------------


inquire/ 
2222 2400 8000 100 call 
1111 3600 8000 100 call 
6666 2400 6000 100 call 
7777 1600 6000 100 call 
3333 2800 8000 100 call 
4444 3600 8000 100 call 
5555 4000 6000 100 call 
8888 2800 6000 100 blind 
total pot: 800 
/inquire 

------------



------------


flop/ 
DIAMONDS K 
HEARTS Q 
HEARTS 5 
/flop 

------------



------------


inquire/ 
2222 2400 8000 100 check 
1111 3600 8000 100 call 
6666 2400 6000 100 call 
7777 1600 6000 100 call 
3333 2800 8000 100 call 
4444 3600 8000 100 call 
5555 4000 6000 100 call 
8888 2800 6000 100 check 
total pot: 800 
/inquire 

------------



------------


turn/ 
CLUBS J 
/turn 

------------



------------


inquire/ 
2222 2400 8000 100 check 
1111 3600 8000 100 check 
6666 2400 6000 100 check 
7777 1600 6000 100 check 
3333 2800 8000 100 check 
4444 3600 8000 100 check 
5555 4000 6000 100 check 
8888 2800 6000 100 check 
total pot: 800 
/inquire 

------------



------------


river/ 
SPADES 10 
/river 

------------



------------


inquire/ 
2222 2400 8000 100 check 
1111 3600 8000 100 check 
6666 2400 6000 100 check 
7777 1600 6000 100 check 
3333 2800 8000 100 check 
4444 3600 8000 100 check 
5555 4000 6000 100 check 
8888 2800 6000 100 check 
total pot: 800 
/inquire 

------------



------------


showdown/ 
common/ 
DIAMONDS K 
HEARTS Q 
HEARTS 5 
CLUBS J 
SPADES 10 
/common 
4: 2222 CLUBS K CLUBS 3 ONE_PAIR 
3: 8888 CLUBS Q CLUBS 5 TWO_PAIR 
5: 5555 DIAMONDS Q DIAMONDS 7 ONE_PAIR 
8: 4444 CLUBS 6 HEARTS 4 HIGH_CARD 
6: 3333 SPADES 5 CLUBS 2 ONE_PAIR 
1: 7777 CLUBS 10 SPADES A STRAIGHT 
7: 6666 CLUBS 8 DIAMONDS 4 HIGH_CARD 
2: 1111 SPADES K SPADES J TWO_PAIR 
/showdown 

------------



------------


pot-win/ 
7777: 800 
/pot-win 

------------


seat/ 
button: 2222 2400 8000 
small blind: 8888 2800 6000 
big blind: 5555 4000 6000 
4444 3600 8000 
3333 2800 8000 
7777 2400 6000 
6666 2400 6000 
1111 3600 8000 
/seat 

------------


blind/ 
8888: 50 
5555: 100 
/blind 

------------


hold/ 
CLUBS K 
CLUBS 3 
/hold 

------------



------------


inquire/ 
2222 2300 8000 100 call 
1111 3500 8000 100 call 
6666 2300 6000 100 call 
7777 2300 6000 100 call 
3333 2700 8000 100 call 
4444 3500 8000 100 call 
5555 3900 6000 100 blind 
8888 2750 6000 50 blind 
total pot: 750 
/inquire 

------------



------------


flop/ 
DIAMONDS K 
HEARTS Q 
HEARTS 5 
/flop 

------------



------------


inquire/ 
2222 2300 8000 100 call 
1111 3500 8000 100 call 
6666 2300 6000 100 call 
7777 2300 6000 100 call 
3333 2700 8000 100 call 
4444 3500 8000 100 call 
5555 3900 6000 100 check 
8888 2700 6000 100 call 
total pot: 800 
/inquire 

------------



------------


turn/ 
CLUBS J 
/turn 

------------



------------


inquire/ 
2222 2300 8000 100 check 
1111 3500 8000 100 check 
6666 2300 6000 100 check 
7777 2300 6000 100 check 
3333 2700 8000 100 check 
4444 3500 8000 100 check 
5555 3900 6000 100 check 
8888 2700 6000 100 check 
total pot: 800 
/inquire 

------------



------------


river/ 
SPADES 10 
/river 

------------



------------


inquire/ 
2222 2300 8000 100 check 
1111 3500 8000 100 check 
6666 2300 6000 100 check 
7777 2300 6000 100 check 
3333 2700 8000 100 check 
4444 3500 8000 100 check 
5555 3900 6000 100 check 
8888 2700 6000 100 check 
total pot: 800 
/inquire 

------------



------------


showdown/ 
common/ 
DIAMONDS K 
HEARTS Q 
HEARTS 5 
CLUBS J 
SPADES 10 
/common 
4: 8888 CLUBS K CLUBS 3 ONE_PAIR 
3: 5555 CLUBS Q CLUBS 5 TWO_PAIR 
5: 4444 DIAMONDS Q DIAMONDS 7 ONE_PAIR 
8: 3333 CLUBS 6 HEARTS 4 HIGH_CARD 
6: 7777 SPADES 5 CLUBS 2 ONE_PAIR 
1: 6666 CLUBS 10 SPADES A STRAIGHT 
7: 1111 CLUBS 8 DIAMONDS 4 HIGH_CARD 
2: 2222 SPADES K SPADES J TWO_PAIR 
/showdown 

------------



------------


pot-win/ 
6666: 800 
/pot-win 

------------


seat/ 
button: 8888 2700 6000 
small blind: 5555 3900 6000 
big blind: 4444 3500 8000 
3333 2700 8000 
7777 2300 6000 
6666 3100 6000 
1111 3500 8000 
2222 2300 8000 
/seat 

------------


blind/ 
5555: 50 
4444: 100 
/blind 

------------


hold/ 
HEARTS J 
HEARTS 10 
/hold 

------------



------------


inquire/ 
2222 2200 8000 100 call 
1111 3400 8000 100 call 
6666 3000 6000 100 call 
7777 2200 6000 100 call 
3333 2600 8000 100 call 
4444 3400 8000 100 blind 
5555 3850 6000 50 blind 
total pot: 650 
/inquire 

------------



------------


flop/ 
CLUBS 3 
CLUBS 8 
SPADES 10 
/flop 

------------



------------


inquire/ 
2222 2200 8000 100 check 
1111 3400 8000 100 check 
6666 3000 6000 100 check 
7777 2200 6000 100 check 
3333 2600 8000 100 check 
4444 3400 8000 100 check 
5555 3800 6000 100 check 
8888 2600 6000 100 call 
total pot: 800 
/inquire 

------------



------------


turn/ 
HEARTS K 
/turn 

------------



------------


inquire/ 
2222 2200 8000 100 check 
1111 3400 8000 100 check 
6666 3000 6000 100 check 
7777 2200 6000 100 check 
3333 2600 8000 100 check 
4444 3400 8000 100 check 
5555 3800 6000 100 check 
8888 2600 6000 100 check 
total pot: 800 
/inquire 

------------



------------


river/ 
DIAMONDS 5 
/river 

------------



------------


inquire/ 
2222 2200 8000 100 check 
1111 3400 8000 100 check 
6666 3000 6000 100 check 
7777 2200 6000 100 check 
3333 2600 8000 100 check 
4444 3400 8000 100 check 
5555 3800 6000 100 check 
8888 2600 6000 100 check 
total pot: 800 
/inquire 

------------



------------


showdown/ 
common/ 
CLUBS 3 
CLUBS 8 
SPADES 10 
HEARTS K 
DIAMONDS 5 
/common 
8: 5555 CLUBS 6 CLUBS 7 HIGH_CARD 
6: 4444 DIAMONDS A DIAMONDS 8 ONE_PAIR 
5: 3333 CLUBS 4 CLUBS 10 ONE_PAIR 
2: 7777 CLUBS Q DIAMONDS Q ONE_PAIR 
7: 6666 HEARTS Q CLUBS 9 HIGH_CARD 
1: 1111 SPADES K HEARTS 3 TWO_PAIR 
3: 2222 CLUBS J DIAMONDS J ONE_PAIR 
4: 8888 HEARTS J HEARTS 10 ONE_PAIR 
/showdown 

------------



------------


pot-win/ 
1111: 800 
/pot-win 

------------


seat/ 
button: 5555 3800 6000 
small blind: 4444 3400 8000 
big blind: 3333 2600 8000 
7777 2200 6000 
6666 3000 6000 
1111 4200 8000 
2222 2200 8000 
8888 2600 6000 
/seat 

------------


blind/ 
4444: 50 
3333: 100 
/blind 

------------


hold/ 
CLUBS J 
DIAMONDS J 
/hold 

------------



------------


inquire/ 
2222 2100 8000 100 call 
1111 4100 8000 100 call 
6666 2900 6000 100 call 
7777 2100 6000 100 call 
3333 2500 8000 100 blind 
4444 3350 8000 50 blind 
total pot: 550 
/inquire 

------------



------------


flop/ 
CLUBS 3 
CLUBS 8 
SPADES 10 
/flop 

------------



------------


inquire/ 
2222 2100 8000 100 check 
1111 4100 8000 100 check 
6666 2900 6000 100 check 
7777 2100 6000 100 check 
3333 2500 8000 100 check 
4444 3300 8000 100 check 
5555 3700 6000 100 call 
8888 2500 6000 100 call 
total pot: 800 
/inquire 

------------



------------


turn/ 
HEARTS K 
/turn 

------------



------------


inquire/ 
2222 2100 8000 100 check 
1111 4100 8000 100 check 
6666 2900 6000 100 check 
7777 2100 6000 100 check 
3333 2500 8000 100 check 
4444 3300 8000 100 check 
5555 3700 6000 100 check 
8888 2500 6000 100 check 
total pot: 800 
/inquire 

------------



------------


river/ 
DIAMONDS 5 
/river 

------------



------------


inquire/ 
2222 2100 8000 100 check 
1111 4100 8000 100 check 
6666 2900 6000 100 check 
7777 2100 6000 100 check 
3333 2500 8000 100 check 
4444 3300 8000 100 check 
5555 3700 6000 100 check 
8888 2500 6000 100 check 
total pot: 800 
/inquire 

------------



------------


showdown/ 
common/ 
CLUBS 3 
CLUBS 8 
SPADES 10 
HEARTS K 
DIAMONDS 5 
/common 
8: 4444 CLUBS 6 CLUBS 7 HIGH_CARD 
6: 3333 DIAMONDS A DIAMONDS 8 ONE_PAIR 
5: 7777 CLUBS 4 CLUBS 10 ONE_PAIR 
2: 6666 CLUBS Q DIAMONDS Q ONE_PAIR 
7: 1111 HEARTS Q CLUBS 9 HIGH_CARD 
1: 2222 SPADES K HEARTS 3 TWO_PAIR 
3: 8888 CLUBS J DIAMONDS J ONE_PAIR 
4: 5555 HEARTS J HEARTS 10 ONE_PAIR 
/showdown 

------------



------------


pot-win/ 
2222: 800 
/pot-win 

------------


seat/ 
button: 4444 3300 8000 
small blind: 3333 2500 8000 
big blind: 7777 2100 6000 
6666 2900 6000 
1111 4100 8000 
2222 2900 8000 
8888 2500 6000 
5555 3700 6000 
/seat 

------------


blind/ 
3333: 50 
7777: 100 
/blind 

------------


hold/ 
SPADES K 
HEARTS 3 
/hold 

------------



------------


inquire/ 
2222 2800 8000 100 call 
1111 4000 8000 100 call 
6666 2800 6000 100 call 
7777 2000 6000 100 blind 
3333 2450 8000 50 blind 
total pot: 450 
/inquire 

------------



------------


flop/ 
CLUBS 3 
CLUBS 8 
SPADES 10 
/flop 

------------



------------


inquire/ 
2222 2800 8000 100 check 
1111 4000 8000 100 check 
6666 2800 6000 100 check 
7777 2000 6000 100 check 
3333 2400 8000 100 check 
4444 3200 8000 100 call 
5555 3600 6000 100 call 
8888 2400 6000 100 call 
total pot: 800 
/inquire 

------------



------------


turn/ 
HEARTS K 
/turn 

------------



------------


inquire/ 
2222 2800 8000 100 check 
1111 4000 8000 100 check 
6666 2800 6000 100 check 
7777 2000 6000 100 check 
3333 2400 8000 100 check 
4444 3200 8000 100 check 
5555 3600 6000 100 check 
8888 2400 6000 100 check 
total pot: 800 
/inquire 

------------



------------


river/ 
DIAMONDS 5 
/river 

------------



------------


inquire/ 
2222 2800 8000 100 check 
1111 4000 8000 100 check 
6666 2800 6000 100 check 
7777 2000 6000 100 check 
3333 2400 8000 100 check 
4444 3200 8000 100 check 
5555 3600 6000 100 check 
8888 2400 6000 100 check 
total pot: 800 
/inquire 

------------



------------


showdown/ 
common/ 
CLUBS 3 
CLUBS 8 
SPADES 10 
HEARTS K 
DIAMONDS 5 
/common 
8: 3333 CLUBS 6 CLUBS 7 HIGH_CARD 
6: 7777 DIAMONDS A DIAMONDS 8 ONE_PAIR 
5: 6666 CLUBS 4 CLUBS 10 ONE_PAIR 
2: 1111 CLUBS Q DIAMONDS Q ONE_PAIR 
7: 2222 HEARTS Q CLUBS 9 HIGH_CARD 
1: 8888 SPADES K HEARTS 3 TWO_PAIR 
3: 5555 CLUBS J DIAMONDS J ONE_PAIR 
4: 4444 HEARTS J HEARTS 10 ONE_PAIR 
/showdown 

------------



------------


pot-win/ 
8888: 800 
/pot-win 

------------


seat/ 
button: 3333 2400 8000 
small blind: 7777 2000 6000 
big blind: 6666 2800 6000 
1111 4000 8000 
2222 2800 8000 
8888 3200 6000 
5555 3600 6000 
4444 3200 8000 
/seat 

------------


blind/ 
7777: 50 
6666: 100 
/blind 

------------


hold/ 
HEARTS Q 
CLUBS 9 
/hold 

------------



------------


inquire/ 
2222 2700 8000 100 call 
1111 3900 8000 100 call 
6666 2700 6000 100 blind 
7777 1950 6000 50 blind 
total pot: 350 
/inquire 

------------



------------


flop/ 
CLUBS 3 
CLUBS 8 
SPADES 10 
/flop 

------------



------------


inquire/ 
2222 2700 8000 100 check 
1111 3900 8000 100 check 
6666 2700 6000 100 check 
7777 1900 6000 100 check 
3333 2300 8000 100 call 
4444 3100 8000 100 call 
5555 3500 6000 100 call 
8888 3100 6000 100 call 
total pot: 800 
/inquire 

------------



------------


turn/ 
HEARTS K 
/turn 

------------



------------


inquire/ 
2222 2700 8000 100 check 
1111 3900 8000 100 check 
6666 2700 6000 100 check 
7777 1900 6000 100 check 
3333 2300 8000 100 check 
4444 3100 8000 100 check 
5555 3500 6000 100 check 
8888 3100 6000 100 check 
total pot: 800 
/inquire 

------------



------------


river/ 
DIAMONDS 5 
/river 

------------



------------


inquire/ 
2222 2700 8000 100 check 
1111 3900 8000 100 check 
6666 2700 6000 100 check 
7777 1900 6000 100 check 
3333 2300 8000 100 check 
4444 3100 8000 100 check 
5555 3500 6000 100 check 
8888 3100 6000 100 check 
total pot: 800 
/inquire 

------------



------------


showdown/ 
common/ 
CLUBS 3 
CLUBS 8 
SPADES 10 
HEARTS K 
DIAMONDS 5 
/common 
8: 7777 CLUBS 6 CLUBS 7 HIGH_CARD 
6: 6666 DIAMONDS A DIAMONDS 8 ONE_PAIR 
5: 1111 CLUBS 4 CLUBS 10 ONE_PAIR 
2: 2222 CLUBS Q DIAMONDS Q ONE_PAIR 
7: 8888 HEARTS Q CLUBS 9 HIGH_CARD 
1: 5555 SPADES K HEARTS 3 TWO_PAIR 
3: 4444 CLUBS J DIAMONDS J ONE_PAIR 
4: 3333 HEARTS J HEARTS 10 ONE_PAIR 
/showdown 

------------



------------


pot-win/ 
5555: 800 
/pot-win 

------------


seat/ 
button: 7777 1900 6000 
small blind: 6666 2700 6000 
big blind: 1111 3900 8000 
2222 2700 8000 
8888 3100 6000 
5555 4300 6000 
4444 3100 8000 
3333 2300 8000 
/seat 

------------


blind/ 
6666: 50 
1111: 100 
/blind 

------------


hold/ 
CLUBS Q 
DIAMONDS Q 
/hold 

------------



------------


inquire/ 
2222 2600 8000 100 call 
1111 3800 8000 100 blind 
6666 2650 6000 50 blind 
total pot: 250 
/inquire 

------------



------------


flop/ 
CLUBS 3 
CLUBS 8 
SPADES 10 
/flop 

------------



------------


inquire/ 
2222 2600 8000 100 check 
1111 3800 8000 100 check 
6666 2600 6000 100 check 
7777 1800 6000 100 call 
3333 2200 8000 100 call 
4444 3000 8000 100 call 
5555 4200 6000 100 call 
8888 3000 6000 100 call 
total pot: 800 
/inquire 

------------



------------


turn/ 
HEARTS K 
/turn 

------------



------------


inquire/ 
2222 2600 8000 100 check 
1111 3800 8000 100 check 
6666 2600 6000 100 check 
7777 1800 6000 100 check 
3333 2200 8000 100 check 
4444 3000 8000 100 check 
5555 4200 6000 100 check 
8888 3000 6000 100 check 
total pot: 800 
/inquire 

------------



------------


river/ 
DIAMONDS 5 
/river 

------------



------------


inquire/ 
2222 2600 8000 100 check 
1111 3800 8000 100 check 
6666 2600 6000 100 check 
7777 1800 6000 100 check 
3333 2200 8000 100 check 
4444 3000 8000 100 check 
5555 4200 6000 100 check 
8888 3000 6000 100 check 
total pot: 800 
/inquire 

------------



------------


showdown/ 
common/ 
CLUBS 3 
CLUBS 8 
SPADES 10 
HEARTS K 
DIAMONDS 5 
/common 
8: 6666 CLUBS 6 CLUBS 7 HIGH_CARD 
6: 1111 DIAMONDS A DIAMONDS 8 ONE_PAIR 
5: 2222 CLUBS 4 CLUBS 10 ONE_PAIR 
2: 8888 CLUBS Q DIAMONDS Q ONE_PAIR 
7: 5555 HEARTS Q CLUBS 9 HIGH_CARD 
1: 4444 SPADES K HEARTS 3 TWO_PAIR 
3: 3333 CLUBS J DIAMONDS J ONE_PAIR 
4: 7777 HEARTS J HEARTS 10 ONE_PAIR 
/showdown 

------------



------------


pot-win/ 
4444: 800 
/pot-win 

------------


seat/ 
button: 6666 2600 6000 
small blind: 1111 3800 8000 
big blind: 2222 2600 8000 
8888 3000 6000 
5555 4200 6000 
4444 3800 8000 
3333 2200 8000 
7777 1800 6000 
/seat 

------------


blind/ 
1111: 50 
2222: 100 
/blind 

------------


hold/ 
SPADES 2 
CLUBS 9 
/hold 

------------


inquire/ 
2222 2500 8000 100 blind 
1111 3750 8000 50 blind 
total pot: 150 
/inquire 

------------



------------


flop/ 
DIAMONDS 3 
HEARTS 4 
SPADES 5 
/flop 

------------



------------


inquire/ 
2222 2500 8000 100 check 
1111 3700 8000 100 check 
6666 2500 6000 100 call 
7777 1700 6000 100 call 
3333 2100 8000 100 call 
4444 3700 8000 100 call 
5555 4100 6000 100 call 
8888 2900 6000 100 call 
total pot: 800 
/inquire 

------------



------------


turn/ 
HEARTS Q 
/turn 

------------



------------


inquire/ 
2222 2500 8000 100 check 
1111 3700 8000 100 check 
6666 2500 6000 100 check 
7777 1700 6000 100 check 
3333 2100 8000 100 check 
4444 3700 8000 100 check 
5555 4100 6000 100 check 
8888 2900 6000 100 check 
total pot: 800 
/inquire 

------------



------------


river/ 
DIAMONDS 10 
/river 

------------



------------


inquire/ 
2222 2500 8000 100 check 
1111 3700 8000 100 check 
6666 2500 6000 100 check 
7777 1700 6000 100 check 
3333 2100 8000 100 check 
4444 3700 8000 100 check 
5555 4100 6000 100 check 
8888 2900 6000 100 check 
total pot: 800 
/inquire 

------------



------------


showdown/ 
common/ 
DIAMONDS 3 
HEARTS 4 
SPADES 5 
HEARTS Q 
DIAMONDS 10 
/common 
1: 1111 DIAMONDS 8 HEARTS 10 ONE_PAIR 
3: 2222 SPADES 4 SPADES J ONE_PAIR 
7: 8888 SPADES 2 CLUBS 9 HIGH_CARD 
7: 5555 DIAMONDS 2 DIAMONDS 9 HIGH_CARD 
4: 4444 CLUBS 3 SPADES A ONE_PAIR 
5: 3333 HEARTS K SPADES 9 HIGH_CARD 
6: 7777 HEARTS 2 DIAMONDS J HIGH_CARD 
2: 6666 DIAMONDS 6 HEARTS 6 ONE_PAIR 
/showdown 

------------



------------


pot-win/ 
1111: 800 
/pot-win 

------------


seat/ 
button: 1111 4500 8000 
small blind: 2222 2500 8000 
big blind: 8888 2900 6000 
5555 4100 6000 
4444 3700 8000 
3333 2100 8000 
7777 1700 6000 
6666 2500 6000 
/seat 

------------


blind/ 
2222: 50 
8888: 100 
/blind 

------------


hold/ 
SPADES 4 
SPADES J 
/hold 

------------



------------


inquire/ 
2222 2400 8000 100 call 
1111 4400 8000 100 call 
6666 2400 6000 100 call 
7777 1600 6000 100 call 
3333 2000 8000 100 call 
4444 3600 8000 100 call 
5555 4000 6000 100 call 
8888 2800 6000 100 blind 
total pot: 800 
/inquire 

------------



------------


flop/ 
DIAMONDS 3 
HEARTS 4 
SPADES 5 
/flop 

------------



------------


inquire/ 
2222 2400 8000 100 check 
1111 4400 8000 100 call 
6666 2400 6000 100 call 
7777 1600 6000 100 call 
3333 2000 8000 100 call 
4444 3600 8000 100 call 
5555 4000 6000 100 call 
8888 2800 6000 100 check 
total pot: 800 
/inquire 

------------



------------


turn/ 
HEARTS Q 
/turn 

------------



------------


inquire/ 
2222 2400 8000 100 check 
1111 4400 8000 100 check 
6666 2400 6000 100 check 
7777 1600 6000 100 check 
3333 2000 8000 100 check 
4444 3600 8000 100 check 
5555 4000 6000 100 check 
8888 2800 6000 100 check 
total pot: 800 
/inquire 

------------



------------


river/ 
DIAMONDS 10 
/river 

------------



------------


inquire/ 
2222 2400 8000 100 check 
1111 4400 8000 100 check 
6666 2400 6000 100 check 
7777 1600 6000 100 check 
3333 2000 8000 100 check 
4444 3600 8000 100 check 
5555 4000 6000 100 check 
8888 2800 6000 100 check 
total pot: 800 
/inquire 

------------



------------


showdown/ 
common/ 
DIAMONDS 3 
HEARTS 4 
SPADES 5 
HEARTS Q 
DIAMONDS 10 
/common 
1: 2222 DIAMONDS 8 HEARTS 10 ONE_PAIR 
3: 8888 SPADES 4 SPADES J ONE_PAIR 
7: 5555 SPADES 2 CLUBS 9 HIGH_CARD 
7: 4444 DIAMONDS 2 DIAMONDS 9 HIGH_CARD 
4: 3333 CLUBS 3 SPADES A ONE_PAIR 
5: 7777 HEARTS K SPADES 9 HIGH_CARD 
6: 6666 HEARTS 2 DIAMONDS J HIGH_CARD 
2: 1111 DIAMONDS 6 HEARTS 6 ONE_PAIR 
/showdown 

------------



------------


pot-win/ 
2222: 800 
/pot-win 

------------


seat/ 
button: 2222 3200 8000 
small blind: 8888 2800 6000 
big blind: 5555 4000 6000 
4444 3600 8000 
3333 2000 8000 
7777 1600 6000 
6666 2400 6000 
1111 4400 8000 
/seat 

------------


blind/ 
8888: 50 
5555: 100 
/blind 

------------


hold/ 
DIAMONDS 8 
HEARTS 10 
/hold 

------------



------------


inquire/ 
2222 3100 8000 100 call 
1111 4300 8000 100 call 
6666 2300 6000 100 call 
7777 1500 6000 100 call 
3333 1900 8000 100 call 
4444 3500 8000 100 call 
5555 3900 6000 100 blind 
8888 2750 6000 50 blind 
total pot: 750 
/inquire 

------------



------------


flop/ 
DIAMONDS 3 
HEARTS 4 
SPADES 5 
/flop 

------------



------------


inquire/ 
2222 3100 8000 100 call 
1111 4300 8000 100 call 
6666 2300 6000 100 call 
7777 1500 6000 100 call 
3333 1900 8000 100 call 
4444 3500 8000 100 call 
5555 3900 6000 100 check 
8888 2700 6000 100 call 
total pot: 800 
/inquire 

------------



------------


turn/ 
HEARTS Q 
/turn 

------------



------------


inquire/ 
2222 3100 8000 100 check 
1111 4300 8000 100 check 
6666 2300 6000 100 check 
7777 1500 6000 100 check 
3333 1900 8000 100 check 
4444 3500 8000 100 check 
5555 3900 6000 100 check 
8888 2700 6000 100 check 
total pot: 800 
/inquire 

------------



------------


river/ 
DIAMONDS 10 
/river 

------------



------------


inquire/ 
2222 3100 8000 100 check 
1111 4300 8000 100 check 
6666 2300 6000 100 check 
7777 1500 6000 100 check 
3333 1900 8000 100 check 
4444 3500 8000 100 check 
5555 3900 6000 100 check 
8888 2700 6000 100 check 
total pot: 800 
/inquire 

------------



------------


showdown/ 
common/ 
DIAMONDS 3 
HEARTS 4 
SPADES 5 
HEARTS Q 
DIAMONDS 10 
/common 
1: 8888 DIAMONDS 8 HEARTS 10 ONE_PAIR 
3: 5555 SPADES 4 SPADES J ONE_PAIR 
7: 4444 SPADES 2 CLUBS 9 HIGH_CARD 
7: 3333 DIAMONDS 2 DIAMONDS 9 HIGH_CARD 
4: 7777 CLUBS 3 SPADES A ONE_PAIR 
5: 6666 HEARTS K SPADES 9 HIGH_CARD 
6: 1111 HEARTS 2 DIAMONDS J HIGH_CARD 
2: 2222 DIAMONDS 6 HEARTS 6 ONE_PAIR 
/showdown 

------------



------------


pot-win/ 
8888: 800 
/pot-win 

------------


seat/ 
button: 8888 3500 6000 
small blind: 5555 3900 6000 
big blind: 4444 3500 8000 
3333 1900 8000 
7777 1500 6000 
6666 2300 6000 
1111 4300 8000 
2222 3100 8000 
/seat 

------------


blind/ 
5555: 50 
4444: 100 
/blind 

------------


hold/ 
DIAMONDS 6 
HEARTS 6 
/hold 

------------



------------


inquire/ 
2222 3000 8000 100 call 
1111 4200 8000 100 call 
6666 2200 6000 100 call 
7777 1400 6000 100 call 
3333 1800 8000 100 call 
4444 3400 8000 100 blind 
5555 3850 6000 50 blind 
total pot: 650 
/inquire 

------------



------------


flop/ 
DIAMONDS 3 
HEARTS 4 
SPADES 5 
/flop 

------------



------------


inquire/ 
2222 3000 8000 100 check 
1111 4200 8000 100 check 
6666 2200 6000 100 check 
7777 1400 6000 100 check 
3333 1800 8000 100 check 
4444 3400 8000 100 check 
5555 3800 6000 100 check 
8888 3400 6000 100 call 
total pot: 800 
/inquire 

------------



------------


turn/ 
HEARTS Q 
/turn 

------------



------------


inquire/ 
2222 3000 8000 100 check 
1111 4200 8000 100 check 
6666 2200 6000 100 check 
7777 1400 6000 100 check 
3333 1800 8000 100 check 
4444 3400 8000 100 check 
5555 3800 6000 100 check 
8888 3400 6000 100 check 
total pot: 800 
/inquire 

------------



------------


river/ 
DIAMONDS 10 
/river 

------------



------------


inquire/ 
2222 3000 8000 100 check 
1111 4200 8000 100 check 
6666 2200 6000 100 check 
7777 1400 6000 100 check 
3333 1800 8000 100 check 
4444 3400 8000 100 check 
5555 3800 6000 100 check 
8888 3400 6000 100 check 
total pot: 800 
/inquire 

------------



------------


showdown/ 
common/ 
DIAMONDS 3 
HEARTS 4 
SPADES 5 
HEARTS Q 
DIAMONDS 10 
/common 
1: 5555 DIAMONDS 8 HEARTS 10 ONE_PAIR 
3: 4444 SPADES 4 SPADES J ONE_PAIR 
7: 3333 SPADES 2 CLUBS 9 HIGH_CARD 
7: 7777 DIAMONDS 2 DIAMONDS 9 HIGH_CARD 
4: 6666 CLUBS 3 SPADES A ONE_PAIR 
5: 1111 HEARTS K SPADES 9 HIGH_CARD 
6: 2222 HEARTS 2 DIAMONDS J HIGH_CARD 
2: 8888 DIAMONDS 6 HEARTS 6 ONE_PAIR 
/showdown 

------------



------------


pot-win/ 
5555: 800 
/pot-win 

------------


seat/ 
button: 5555 4600 6000 
small blind: 4444 3400 8000 
big blind: 3333 1800 8000 
7777 1400 6000 
6666 2200 6000 
1111 4200 8000 
2222 3000 8000 
8888 3400 6000 
/seat 

------------


blind/ 
4444: 50 
3333: 100 
/blind 

------------


hold/ 
HEARTS 2 
DIAMONDS J 
/hold 

------------



------------


inquire/ 
2222 2900 8000 100 call 
1111 4100 8000 100 call 
6666 2100 6000 100 call 
7777 1300 6000 100 call 
3333 1700 8000 100 blind 
4444 3350 8000 50 blind 
total pot: 550 
/inquire 

------------



------------


flop/ 
DIAMONDS 3 
HEARTS 4 
SPADES 5 
/flop 

------------



------------


inquire/ 
2222 2900 8000 100 check 
1111 4100 8000 100 check 
6666 2100 6000 100 check 
7777 1300 6000 100 check 
3333 1700 8000 100 check 
4444 3300 8000 100 check 
5555 4500 6000 100 call 
8888 3300 6000 100 call 
total pot: 800 
/inquire 

------------



------------


turn/ 
HEARTS Q 
/turn 

------------



------------


inquire/ 
2222 2900 8000 100 check 
1111 4100 8000 100 check 
6666 2100 6000 100 check 
7777 1300 6000 100 check 
3333 1700 8000 100 check 
4444 3300 8000 100 check 
5555 4500 6000 100 check 
8888 3300 6000 100 check 
total pot: 800 
/inquire 

------------



------------


river/ 
DIAMONDS 10 
/river 

------------



------------


inquire/ 
2222 2900 8000 100 check 
1111 4100 8000 100 check 
6666 2100 6000 100 check 
7777 1300 6000 100 check 
3333 1700 8000 100 check 
4444 3300 8000 100 check 
5555 4500 6000 100 check 
8888 3300 6000 100 check 
total pot: 800 
/inquire 

------------



------------


showdown/ 
common/ 
DIAMONDS 3 
HEARTS 4 
SPADES 5 
HEARTS Q 
DIAMONDS 10 
/common 
1: 4444 DIAMONDS 8 HEARTS 10 ONE_PAIR 
3: 3333 SPADES 4 SPADES J ONE_PAIR 
7: 7777 SPADES 2 CLUBS 9 HIGH_CARD 
7: 6666 DIAMONDS 2 DIAMONDS 9 HIGH_CARD 
4: 1111 CLUBS 3 SPADES A ONE_PAIR 
5: 2222 HEARTS K SPADES 9 HIGH_CARD 
6: 8888 HEARTS 2 DIAMONDS J HIGH_CARD 
2: 5555 DIAMONDS 6 HEARTS 6 ONE_PAIR 
/showdown 

------------



------------


pot-win/ 
4444: 800 
/pot-win 

------------


seat/ 
button: 4444 4100 8000 
small blind: 3333 1700 8000 
big blind: 7777 1300 6000 
6666 2100 6000 
1111 4100 8000 
2222 2900 8000 
8888 3300 6000 
5555 4500 6000 
/seat 

------------


blind/ 
3333: 50 
7777: 100 
/blind 

------------


hold/ 
HEARTS K 
SPADES 9 
/hold 

------------



------------


inquire/ 
2222 2800 8000 100 call 
1111 4000 8000 100 call 
6666 2000 6000 100 call 
7777 1200 6000 100 blind 
3333 1650 8000 50 blind 
total pot: 450 
/inquire 

------------



------------


flop/ 
DIAMONDS 3 
HEARTS 4 
SPADES 5 
/flop 

------------



------------


inquire/ 
2222 2800 8000 100 check 
1111 4000 8000 100 check 
6666 2000 6000 100 check 
7777 1200 6000 100 check 
3333 1600 8000 100 check 
4444 4000 8000 100 call 
5555 4400 6000 100 call 
8888 3200 6000 100 call 
total pot: 800 
/inquire 

------------



------------


turn/ 
HEARTS Q 
/turn 

------------



------------


inquire/ 
2222 2800 8000 100 check 
1111 4000 8000 100 check 
6666 2000 6000 100 check 
7777 1200 6000 100 check 
3333 1600 8000 100 check 
4444 4000 8000 100 check 
5555 4400 6000 100 check 
8888 3200 6000 100 check 
total pot: 800 
/inquire 

------------



------------


river/ 
DIAMONDS 10 
/river 

------------



------------


inquire/ 
2222 2800 8000 100 check 
1111 4000 8000 100 check 
6666 2000 6000 100 check 
7777 1200 6000 100 check 
3333 1600 8000 100 check 
4444 4000 8000 100 check 
5555 4400 6000 100 check 
8888 3200 6000 100 check 
total pot: 800 
/inquire 

------------



------------


showdown/ 
common/ 
DIAMONDS 3 
HEARTS 4 
SPADES 5 
HEARTS Q 
DIAMONDS 10 
/common 
1: 3333 DIAMONDS 8 HEARTS 10 ONE_PAIR 
3: 7777 SPADES 4 SPADES J ONE_PAIR 
7: 6666 SPADES 2 CLUBS 9 HIGH_CARD 
7: 1111 DIAMONDS 2 DIAMONDS 9 HIGH_CARD 
4: 2222 CLUBS 3 SPADES A ONE_PAIR 
5: 8888 HEARTS K SPADES 9 HIGH_CARD 
6: 5555 HEARTS 2 DIAMONDS J HIGH_CARD 
2: 4444 DIAMONDS 6 HEARTS 6 ONE_PAIR 
/showdown 

------------



------------


pot-win/ 
3333: 800 
/pot-win 

------------


seat/ 
button: 3333 2400 8000 
small blind: 7777 1200 6000 
big blind: 6666 2000 6000 
1111 4000 8000 
2222 2800 8000 
8888 3200 6000 
5555 4400 6000 
4444 4000 8000 
/seat 

------------


blind/ 
7777: 50 
6666: 100 
/blind 

------------


hold/ 
CLUBS 6 
DIAMONDS 6 
/hold 

------------



------------


inquire/ 
2222 2700 8000 100 call 
1111 3900 8000 100 call 
6666 1900 6000 100 blind 
7777 1150 6000 50 blind 
total pot: 350 
/inquire 

------------



------------


flop/ 
CLUBS J 
CLUBS 9 
CLUBS A 
/flop 

------------



------------


inquire/ 
2222 2700 8000 100 check 
1111 3900 8000 100 check 
6666 1900 6000 100 check 
7777 1100 6000 100 check 
3333 2300 8000 100 call 
4444 3900 8000 100 call 
5555 4300 6000 100 call 
8888 3100 6000 100 call 
total pot: 800 
/inquire 

------------



------------


turn/ 
DIAMONDS K 
/turn 

------------



------------


inquire/ 
2222 2700 8000 100 check 
1111 3900 8000 100 check 
6666 1900 6000 100 check 
7777 1100 6000 100 check 
3333 2300 8000 100 check 
4444 3900 8000 100 check 
5555 4300 6000 100 check 
8888 3100 6000 100 check 
total pot: 800 
/inquire 

------------



------------


river/ 
SPADES J 
/river 

------------



------------


inquire/ 
2222 2700 8000 100 check 
1111 3900 8000 100 check 
6666 1900 6000 100 check 
7777 1100 6000 100 check 
3333 2300 8000 100 check 
4444 3900 8000 100 check 
5555 4300 6000 100 check 
8888 3100 6000 100 check 
total pot: 800 
/inquire 

------------



------------


showdown/ 
common/ 
CLUBS J 
CLUBS 9 
CLUBS A 
DIAMONDS K 
SPADES J 
/common 
5: 7777 HEARTS 8 HEARTS 10 ONE_PAIR 
1: 6666 HEARTS J DIAMONDS 10 THREE_OF_A_KIND 
6: 1111 CLUBS 4 HEARTS 3 ONE_PAIR 
6: 2222 HEARTS 2 DIAMONDS 5 ONE_PAIR 
3: 8888 CLUBS 6 DIAMONDS 6 TWO_PAIR 
4: 5555 CLUBS 7 SPADES Q ONE_PAIR 
2: 4444 HEARTS A CLUBS 8 TWO_PAIR 
4: 3333 SPADES 6 CLUBS Q ONE_PAIR 
/showdown 

------------



------------


pot-win/ 
6666: 800 
/pot-win 

------------


seat/ 
button: 7777 1100 6000 
small blind: 6666 2700 6000 
big blind: 1111 3900 8000 
2222 2700 8000 
8888 3100 6000 
5555 4300 6000 
4444 3900 8000 
3333 2300 8000 
/seat 

------------


blind/ 
6666: 50 
1111: 100 
/blind 

------------


hold/ 
HEARTS 2 
DIAMONDS 5 
/hold 

------------



------------


inquire/ 
2222 2600 8000 100 call 
1111 3800 8000 100 blind 
6666 2650 6000 50 blind 
total pot: 250 
/inquire 

------------



------------


flop/ 
CLUBS J 
CLUBS 9 
CLUBS A 
/flop 

------------



------------


inquire/ 
2222 2600 8000 100 check 
1111 3800 8000 100 check 
6666 2600 6000 100 check 
7777 1000 6000 100 call 
3333 2200 8000 100 call 
4444 3800 8000 100 call 
5555 4200 6000 100 call 
8888 3000 6000 100 call 
total pot: 800 
/inquire 

------------



------------


turn/ 
DIAMONDS K 
/turn 

------------



------------


inquire/ 
2222 2600 8000 100 check 
1111 3800 8000 100 check 
6666 2600 6000 100 check 
7777 1000 6000 100 check 
3333 2200 8000 100 check 
4444 3800 8000 100 check 
5555 4200 6000 100 check 
8888 3000 6000 100 check 
total pot: 800 
/inquire 

------------



------------


river/ 
SPADES J 
/river 

------------



------------


inquire/ 
2222 2600 8000 100 check 
1111 3800 8000 100 check 
6666 2600 6000 100 check 
7777 1000 6000 100 check 
3333 2200 8000 100 check 
4444 3800 8000 100 check 
5555 4200 6000 100 check 
8888 3000 6000 100 check 
total pot: 800 
/inquire 

------------



------------


showdown/ 
common/ 
CLUBS J 
CLUBS 9 
CLUBS A 
DIAMONDS K 
SPADES J 
/common 
5: 6666 HEARTS 8 HEARTS 10 ONE_PAIR 
1: 1111 HEARTS J DIAMONDS 10 THREE_OF_A_KIND 
6: 2222 CLUBS 4 HEARTS 3 ONE_PAIR 
6: 8888 HEARTS 2 DIAMONDS 5 ONE_PAIR 
3: 5555 CLUBS 6 DIAMONDS 6 TWO_PAIR 
4: 4444 CLUBS 7 SPADES Q ONE_PAIR 
2: 3333 HEARTS A CLUBS 8 TWO_PAIR 
4: 7777 SPADES 6 CLUBS Q ONE_PAIR 
/showdown 

------------



------------


pot-win/ 
1111: 800 
/pot-win 

------------


seat/ 
button: 6666 2600 6000 
small blind: 1111 4600 8000 
big blind: 2222 2600 8000 
8888 3000 6000 
5555 4200 6000 
4444 3800 8000 
3333 2200 8000 
7777 1000 6000 
/seat 

------------


blind/ 
1111: 50 
2222: 100 
/blind 

------------


hold/ 
CLUBS 4 
HEARTS 3 
/hold 

------------


inquire/ 
2222 2500 8000 100 blind 
1111 4550 8000 50 blind 
total pot: 150 
/inquire 

------------



------------


flop/ 
CLUBS J 
CLUBS 9 
CLUBS A 
/flop 

------------



------------


inquire/ 
2222 2500 8000 100 check 
1111 4500 8000 100 check 
6666 2500 6000 100 call 
7777 900 6000 100 call 
3333 2100 8000 100 call 
4444 3700 8000 100 call 
5555 4100 6000 100 call 
8888 2900 6000 100 call 
total pot: 800 
/inquire 

------------



------------


turn/ 
DIAMONDS K 
/turn 

------------



------------


inquire/ 
2222 2500 8000 100 check 
1111 4500 8000 100 check 
6666 2500 6000 100 check 
7777 900 6000 100 check 
3333 2100 8000 100 check 
4444 3700 8000 100 check 
5555 4100 6000 100 check 
8888 2900 6000 100 check 
total pot: 800 
/inquire 

------------



------------


river/ 
SPADES J 
/river 

------------



------------


inquire/ 
2222 2500 8000 100 check 
1111 4500 8000 100 check 
6666 2500 6000 100 check 
7777 900 6000 100 check 
3333 2100 8000 100 check 
4444 3700 8000 100 check 
5555 4100 6000 100 check 
8888 2900 6000 100 check 
total pot: 800 
/inquire 

------------



------------


showdown/ 
common/ 
CLUBS J 
CLUBS 9 
CLUBS A 
DIAMONDS K 
SPADES J 
/common 
5: 1111 HEARTS 8 HEARTS 10 ONE_PAIR 
1: 2222 HEARTS J DIAMONDS 10 THREE_OF_A_KIND 
6: 8888 CLUBS 4 HEARTS 3 ONE_PAIR 
6: 5555 HEARTS 2 DIAMONDS 5 ONE_PAIR 
3: 4444 CLUBS 6 DIAMONDS 6 TWO_PAIR 
4: 3333 CLUBS 7 SPADES Q ONE_PAIR 
2: 7777 HEARTS A CLUBS 8 TWO_PAIR 
4: 6666 SPADES 6 CLUBS Q ONE_PAIR 
/showdown 

------------



------------


pot-win/ 
2222: 800 
/pot-win 

------------


seat/ 
button: 1111 4500 8000 
small blind: 2222 3300 8000 
big blind: 8888 2900 6000 
5555 4100 6000 
4444 3700 8000 
3333 2100 8000 
7777 900 6000 
6666 2500 6000 
/seat 

------------


blind/ 
2222: 50 
8888: 100 
/blind 

------------


hold/ 
HEARTS J 
DIAMONDS 10 
/hold 

------------



------------


inquire/ 
2222 3200 8000 100 call 
1111 4400 8000 100 call 
6666 2400 6000 100 call 
7777 800 6000 100 call 
3333 2000 8000 100 call 
4444 3600 8000 100 call 
5555 4000 6000 100 call 
8888 2800 6000 100 blind 
total pot: 800 
/inquire 

------------



------------


flop/ 
CLUBS J 
CLUBS 9 
CLUBS A 
/flop 

------------



------------


inquire/ 
2222 3200 8000 100 check 
1111 4400 8000 100 call 
6666 2400 6000 100 call 
7777 800 6000 100 call 
3333 2000 8000 100 call 
4444 3600 8000 100 call 
5555 4000 6000 100 call 
8888 2800 6000 100 check 
total pot: 800 
/inquire 

------------



------------


turn/ 
DIAMONDS K 
/turn 

------------



------------


inquire/ 
2222 3200 8000 100 check 
1111 4400 8000 100 check 
6666 2400 6000 100 check 
7777 800 6000 100 check 
3333 2000 8000 100 check 
4444 3600 8000 100 check 
5555 4000 6000 100 check 
8888 2800 6000 100 check 
total pot: 800 
/inquire 

------------



------------


river/ 
SPADES J 
/river 

------------



------------


inquire/ 
2222 3200 8000 100 check 
1111 4400 8000 100 check 
6666 2400 6000 100 check 
7777 800 6000 100 check 
3333 2000 8000 100 check 
4444 3600 8000 100 check 
5555 4000 6000 100 check 
8888 2800 6000 100 check 
total pot: 800 
/inquire 

------------



------------


showdown/ 
common/ 
CLUBS J 
CLUBS 9 
CLUBS A 
DIAMONDS K 
SPADES J 
/common 
5: 2222 HEARTS 8 HEARTS 10 ONE_PAIR 
1: 8888 HEARTS J DIAMONDS 10 THREE_OF_A_KIND 
6: 5555 CLUBS 4 HEARTS 3 ONE_PAIR 
6: 4444 HEARTS 2 DIAMONDS 5 ONE_PAIR 
3: 3333 CLUBS 6 DIAMONDS 6 TWO_PAIR 
4: 7777 CLUBS 7 SPADES Q ONE_PAIR 
2: 6666 HEARTS A CLUBS 8 TWO_PAIR 
4: 1111 SPADES 6 CLUBS Q ONE_PAIR 
/showdown 

------------



------------


pot-win/ 
8888: 800 
/pot-win 

------------


seat/ 
button: 2222 3200 8000 
small blind: 8888 3600 6000 
big blind: 5555 4000 6000 
4444 3600 8000 
3333 2000 8000 
7777 800 6000 
6666 2400 6000 
1111 4400 8000 
/seat 

------------


blind/ 
8888: 50 
5555: 100 
/blind 

------------


hold/ 
HEARTS 8 
HEARTS 10 
/hold 

------------



------------


inquire/ 
2222 3100 8000 100 call 
1111 4300 8000 100 call 
6666 2300 6000 100 call 
7777 700 6000 100 call 
3333 1900 8000 100 call 
4444 3500 8000 100 call 
5555 3900 6000 100 blind 
8888 3550 6000 50 blind 
total pot: 750 
/inquire 

------------



------------


flop/ 
CLUBS J 
CLUBS 9 
CLUBS A 
/flop 

------------



------------


inquire/ 
2222 3100 8000 100 call 
1111 4300 8000 100 call 
6666 2300 6000 100 call 
7777 700 6000 100 call 
3333 1900 8000 100 call 
4444 3500 8000 100 call 
5555 3900 6000 100 check 
8888 3500 6000 100 call 
total pot: 800 
/inquire 

------------



------------


turn/ 
DIAMONDS K 
/turn 

------------



------------


inquire/ 
2222 3100 8000 100 check 
1111 4300 8000 100 check 
6666 2300 6000 100 check 
7777 700 6000 100 check 
3333 1900 8000 100 check 
4444 3500 8000 100 check 
5555 3900 6000 100 check 
8888 3500 6000 100 check 
total pot: 800 
/inquire 

------------



------------


river/ 
SPADES J 
/river 

------------



------------


inquire/ 
2222 3100 8000 100 check 
1111 4300 8000 100 check 
6666 2300 6000 100 check 
7777 700 6000 100 check 
3333 1900 8000 100 check 
4444 3500 8000 100 check 
5555 3900 6000 100 check 
8888 3500 6000 100 check 
total pot: 800 
/inquire 

------------



------------


showdown/ 
common/ 
CLUBS J 
CLUBS 9 
CLUBS A 
DIAMONDS K 
SPADES J 
/common 
5: 8888 HEARTS 8 HEARTS 10 ONE_PAIR 
1: 5555 HEARTS J DIAMONDS 10 THREE_OF_A_KIND 
6: 4444 CLUBS 4 HEARTS 3 ONE_PAIR 
6: 3333 HEARTS 2 DIAMONDS 5 ONE_PAIR 
3: 7777 CLUBS 6 DIAMONDS 6 TWO_PAIR 
4: 6666 CLUBS 7 SPADES Q ONE_PAIR 
2: 1111 HEARTS A CLUBS 8 TWO_PAIR 
4: 2222 SPADES 6 CLUBS Q ONE_PAIR 
/showdown 

------------



------------


pot-win/ 
5555: 800 
/pot-win 

------------


seat/ 
button: 8888 3500 6000 
small blind: 5555 4700 6000 
big blind: 4444 3500 8000 
3333 1900 8000 
7777 700 6000 
6666 2300 6000 
1111 4300 8000 
2222 3100 8000 
/seat 

------------


blind/ 
5555: 50 
4444: 100 
/blind 

------------


hold/ 
DIAMONDS 5 
SPADES 6 
/hold 

------------



------------


inquire/ 
2222 3000 8000 100 call 
1111 4200 8000 100 call 
6666 2200 6000 100 call 
7777 600 6000 100 call 
3333 1800 8000 100 call 
4444 3400 8000 100 blind 
5555 4650 6000 50 blind 
total pot: 650 
/inquire 

------------



------------


flop/ 
CLUBS Q 
DIAMONDS 7 
HEARTS 4 
/flop 

------------



------------


inquire/ 
2222 3000 8000 100 check 
1111 4200 8000 100 check 
6666 2200 6000 100 check 
7777 600 6000 100 check 
3333 1800 8000 100 check 
4444 3400 8000 100 check 
5555 4600 6000 100 check 
8888 3400 6000 100 call 
total pot: 800 
/inquire 

------------



------------


turn/ 
HEARTS J 
/turn 

------------



------------


inquire/ 
2222 3000 8000 100 check 
1111 4200 8000 100 check 
6666 2200 6000 100 check 
7777 600 6000 100 check 
3333 1800 8000 100 check 
4444 3400 8000 100 check 
5555 4600 6000 100 check 
8888 3400 6000 100 check 
total pot: 800 
/inquire 

------------



------------


river/ 
CLUBS 7 
/river 

------------



------------


inquire/ 
2222 3000 8000 100 check 
1111 4200 8000 100 check 
6666 2200 6000 100 check 
7777 600 6000 100 check 
3333 1800 8000 100 check 
4444 3400 8000 100 check 
5555 4600 6000 100 check 
8888 3400 6000 100 check 
total pot: 800 
/inquire 

------------



------------


showdown/ 
common/ 
CLUBS Q 
DIAMONDS 7 
HEARTS 4 
HEARTS J 
CLUBS 7 
/common 
6: 5555 SPADES 5 CLUBS 10 ONE_PAIR 
6: 4444 HEARTS 8 HEARTS 10 ONE_PAIR 
5: 3333 SPADES 2 SPADES A ONE_PAIR 
3: 7777 CLUBS J HEARTS A TWO_PAIR 
2: 6666 SPADES Q DIAMONDS 8 TWO_PAIR 
1: 1111 DIAMONDS Q CLUBS K TWO_PAIR 
4: 2222 SPADES 8 SPADES 4 TWO_PAIR 
7: 8888 DIAMONDS 5 SPADES 6 ONE_PAIR 
/showdown 

------------



------------


pot-win/ 
1111: 800 
/pot-win 

------------


seat/ 
button: 5555 4600 6000 
small blind: 4444 3400 8000 
big blind: 3333 1800 8000 
7777 600 6000 
6666 2200 6000 
1111 5000 8000 
2222 3000 8000 
8888 3400 6000 
/seat 

------------


blind/ 
4444: 50 
3333: 100 
/blind 

------------


hold/ 
SPADES 8 
SPADES 4 
/hold 

------------



------------


inquire/ 
2222 2900 8000 100 call 
1111 4900 8000 100 call 
6666 2100 6000 100 call 
7777 500 6000 100 call 
3333 1700 8000 100 blind 
4444 3350 8000 50 blind 
total pot: 550 
/inquire 

------------



------------


flop/ 
CLUBS Q 
DIAMONDS 7 
HEARTS 4 
/flop 

------------



------------


inquire/ 
2222 2900 8000 100 check 
1111 4900 8000 100 check 
6666 2100 6000 100 check 
7777 500 6000 100 check 
3333 1700 8000 100 check 
4444 3300 8000 100 check 
5555 4500 6000 100 call 
8888 3300 6000 100 call 
total pot: 800 
/inquire 

------------



------------


turn/ 
HEARTS J 
/turn 

------------



------------


inquire/ 
2222 2900 8000 100 check 
1111 4900 8000 100 check 
6666 2100 6000 100 check 
7777 500 6000 100 check 
3333 1700 8000 100 check 
4444 3300 8000 100 check 
5555 4500 6000 100 check 
8888 3300 6000 100 check 
total pot: 800 
/inquire 

------------



------------


river/ 
CLUBS 7 
/river 

------------



------------


inquire/ 
2222 2900 8000 100 check 
1111 4900 8000 100 check 
6666 2100 6000 100 check 
7777 500 6000 100 check 
3333 1700 8000 100 check 
4444 3300 8000 100 check 
5555 4500 6000 100 check 
8888 3300 6000 100 check 
total pot: 800 
/inquire 

------------



------------


showdown/ 
common/ 
CLUBS Q 
DIAMONDS 7 
HEARTS 4 
HEARTS J 
CLUBS 7 
/common 
6: 4444 SPADES 5 CLUBS 10 ONE_PAIR 
6: 3333 HEARTS 8 HEARTS 10 ONE_PAIR 
5: 7777 SPADES 2 SPADES A ONE_PAIR 
3: 6666 CLUBS J HEARTS A TWO_PAIR 
2: 1111 SPADES Q DIAMONDS 8 TWO_PAIR 
1: 2222 DIAMONDS Q CLUBS K TWO_PAIR 
4: 8888 SPADES 8 SPADES 4 TWO_PAIR 
7: 5555 DIAMONDS 5 SPADES 6 ONE_PAIR 
/showdown 

------------



------------


pot-win/ 
2222: 800 
/pot-win 

------------


seat/ 
button: 4444 3300 8000 
small blind: 3333 1700 8000 
big blind: 7777 500 6000 
6666 2100 6000 
1111 4900 8000 
2222 3700 8000 
8888 3300 6000 
5555 4500 6000 
/seat 

------------


blind/ 
3333: 50 
7777: 100 
/blind 

------------


hold/ 
DIAMONDS Q 
CLUBS K 
/hold 

------------



------------


inquire/ 
2222 3600 8000 100 call 
1111 4800 8000 100 call 
6666 2000 6000 100 call 
7777 400 6000 100 blind 
3333 1650 8000 50 blind 
total pot: 450 
/inquire 

------------



------------


flop/ 
CLUBS Q 
DIAMONDS 7 
HEARTS 4 
/flop 

------------



------------


inquire/ 
2222 3600 8000 100 check 
1111 4800 8000 100 check 
6666 2000 6000 100 check 
7777 400 6000 100 check 
3333 1600 8000 100 check 
4444 3200 8000 100 call 
5555 4400 6000 100 call 
8888 3200 6000 100 call 
total pot: 800 
/inquire 

------------



------------


turn/ 
HEARTS J 
/turn 

------------



------------


inquire/ 
2222 3600 8000 100 check 
1111 4800 8000 100 check 
6666 2000 6000 100 check 
7777 400 6000 100 check 
3333 1600 8000 100 check 
4444 3200 8000 100 check 
5555 4400 6000 100 check 
8888 3200 6000 100 check 
total pot: 800 
/inquire 

------------



------------


river/ 
CLUBS 7 
/river 

------------



------------


inquire/ 
2222 3600 8000 100 check 
1111 4800 8000 100 check 
6666 2000 6000 100 check 
7777 400 6000 100 check 
3333 1600 8000 100 check 
4444 3200 8000 100 check 
5555 4400 6000 100 check 
8888 3200 6000 100 check 
total pot: 800 
/inquire 

------------



------------


showdown/ 
common/ 
CLUBS Q 
DIAMONDS 7 
HEARTS 4 
HEARTS J 
CLUBS 7 
/common 
6: 3333 SPADES 5 CLUBS 10 ONE_PAIR 
6: 7777 HEARTS 8 HEARTS 10 ONE_PAIR 
5: 6666 SPADES 2 SPADES A ONE_PAIR 
3: 1111 CLUBS J HEARTS A TWO_PAIR 
2: 2222 SPADES Q DIAMONDS 8 TWO_PAIR 
1: 8888 DIAMONDS Q CLUBS K TWO_PAIR 
4: 5555 SPADES 8 SPADES 4 TWO_PAIR 
7: 4444 DIAMONDS 5 SPADES 6 ONE_PAIR 
/showdown 

------------



------------


pot-win/ 
8888: 800 
/pot-win 

------------


seat/ 
button: 3333 1600 8000 
small blind: 7777 400 6000 
big blind: 6666 2000 6000 
1111 4800 8000 
2222 3600 8000 
8888 4000 6000 
5555 4400 6000 
4444 3200 8000 
/seat 

------------


blind/ 
7777: 50 
6666: 100 
/blind 

------------


hold/ 
SPADES Q 
DIAMONDS 8 
/hold 

------------



------------


inquire/ 
2222 3500 8000 100 call 
1111 4700 8000 100 call 
6666 1900 6000 100 blind 
7777 350 6000 50 blind 
total pot: 350 
/inquire 

------------



------------


flop/ 
CLUBS Q 
DIAMONDS 7 
HEARTS 4 
/flop 

------------



------------


inquire/ 
2222 3500 8000 100 check 
1111 4700 8000 100 check 
6666 1900 6000 100 check 
7777 300 6000 100 check 
3333 1500 8000 100 call 
4444 3100 8000 100 call 
5555 4300 6000 100 call 
8888 3900 6000 100 call 
total pot: 800 
/inquire 

------------



------------


turn/ 
HEARTS J 
/turn 

------------



------------


inquire/ 
2222 3500 8000 100 check 
1111 4700 8000 100 check 
6666 1900 6000 100 check 
7777 300 6000 100 check 
3333 1500 8000 100 check 
4444 3100 8000 100 check 
5555 4300 6000 100 check 
8888 3900 6000 100 check 
total pot: 800 
/inquire 

------------



------------


river/ 
CLUBS 7 
/river 

------------



------------


inquire/ 
2222 3500 8000 100 check 
1111 4700 8000 100 check 
6666 1900 6000 100 check 
7777 300 6000 100 check 
3333 1500 8000 100 check 
4444 3100 8000 100 check 
5555 4300 6000 100 check 
8888 3900 6000 100 check 
total pot: 800 
/inquire 

------------



------------


showdown/ 
common/ 
CLUBS Q 
DIAMONDS 7 
HEARTS 4 
HEARTS J 
CLUBS 7 
/common 
6: 7777 SPADES 5 CLUBS 10 ONE_PAIR 
6: 6666 HEARTS 8 HEARTS 10 ONE_PAIR 
5: 1111 SPADES 2 SPADES A ONE_PAIR 
3: 2222 CLUBS J HEARTS A TWO_PAIR 
2: 8888 SPADES Q DIAMONDS 8 TWO_PAIR 
1: 5555 DIAMONDS Q CLUBS K TWO_PAIR 
4: 4444 SPADES 8 SPADES 4 TWO_PAIR 
7: 3333 DIAMONDS 5 SPADES 6 ONE_PAIR 
/showdown 

------------



------------


pot-win/ 
5555: 800 
/pot-win 

------------


seat/ 
button: 7777 300 6000 
small blind: 6666 1900 6000 
big blind: 1111 4700 8000 
2222 3500 8000 
8888 3900 6000 
5555 5100 6000 
4444 3100 8000 
3333 1500 8000 
/seat 

------------


blind/ 
6666: 50 
1111: 100 
/blind 

------------


hold/ 
CLUBS J 
HEARTS A 
/hold 

------------



------------


inquire/ 
2222 3400 8000 100 call 
1111 4600 8000 100 blind 
6666 1850 6000 50 blind 
total pot: 250 
/inquire 

------------



------------


flop/ 
CLUBS Q 
DIAMONDS 7 
HEARTS 4 
/flop 

------------



------------


inquire/ 
2222 3400 8000 100 check 
1111 4600 8000 100 check 
6666 1800 6000 100 check 
7777 200 6000 100 call 
3333 1400 8000 100 call 
4444 3000 8000 100 call 
5555 5000 6000 100 call 
8888 3800 6000 100 call 
total pot: 800 
/inquire 

------------



------------


turn/ 
HEARTS J 
/turn 

------------



------------


inquire/ 
2222 3400 8000 100 check 
1111 4600 8000 100 check 
6666 1800 6000 100 check 
7777 200 6000 100 check 
3333 1400 8000 100 check 
4444 3000 8000 100 check 
5555 5000 6000 100 check 
8888 3800 6000 100 check 
total pot: 800 
/inquire 

------------



------------


river/ 
CLUBS 7 
/river 

------------



------------


inquire/ 
2222 3400 8000 100 check 
1111 4600 8000 100 check 
6666 1800 6000 100 check 
7777 200 6000 100 check 
3333 1400 8000 100 check 
4444 3000 8000 100 check 
5555 5000 6000 100 check 
8888 3800 6000 100 check 
total pot: 800 
/inquire 

------------



------------


showdown/ 
common/ 
CLUBS Q 
DIAMONDS 7 
HEARTS 4 
HEARTS J 
CLUBS 7 
/common 
6: 6666 SPADES 5 CLUBS 10 ONE_PAIR 
6: 1111 HEARTS 8 HEARTS 10 ONE_PAIR 
5: 2222 SPADES 2 SPADES A ONE_PAIR 
3: 8888 CLUBS J HEARTS A TWO_PAIR 
2: 5555 SPADES Q DIAMONDS 8 TWO_PAIR 
1: 4444 DIAMONDS Q CLUBS K TWO_PAIR 
4: 3333 SPADES 8 SPADES 4 TWO_PAIR 
7: 7777 DIAMONDS 5 SPADES 6 ONE_PAIR 
/showdown 

------------



------------


pot-win/ 
4444: 800 
/pot-win 

------------


seat/ 
button: 6666 1800 6000 
small blind: 1111 4600 8000 
big blind: 2222 3400 8000 
8888 3800 6000 
5555 5000 6000 
4444 3800 8000 
3333 1400 8000 
7777 200 6000 
/seat 

------------


blind/ 
1111: 50 
2222: 100 
/blind 

------------


hold/ 
SPADES 2 
SPADES A 
/hold 

------------


inquire/ 
2222 3300 8000 100 blind 
1111 4550 8000 50 blind 
total pot: 150 
/inquire 

------------



------------


flop/ 
CLUBS Q 
DIAMONDS 7 
HEARTS 4 
/flop 

------------



------------


inquire/ 
2222 3300 8000 100 check 
1111 4500 8000 100 check 
6666 1700 6000 100 call 
7777 100 6000 100 call 
3333 1300 8000 100 call 
4444 3700 8000 100 call 
5555 4900 6000 100 call 
8888 3700 6000 100 call 
total pot: 800 
/inquire 

------------



------------


turn/ 
HEARTS J 
/turn 

------------



------------


inquire/ 
2222 3300 8000 100 check 
1111 4500 8000 100 check 
6666 1700 6000 100 check 
7777 100 6000 100 check 
3333 1300 8000 100 check 
4444 3700 8000 100 check 
5555 4900 6000 100 check 
8888 3700 6000 100 check 
total pot: 800 
/inquire 

------------



------------


river/ 
CLUBS 7 
/river 

------------



------------


inquire/ 
2222 3300 8000 100 check 
1111 4500 8000 100 check 
6666 1700 6000 100 check 
7777 100 6000 100 check 
3333 1300 8000 100 check 
4444 3700 8000 100 check 
5555 4900 6000 100 check 
8888 3700 6000 100 check 
total pot: 800 
/inquire 

------------



------------


showdown/ 
common/ 
CLUBS Q 
DIAMONDS 7 
HEARTS 4 
HEARTS J 
CLUBS 7 
/common 
6: 1111 SPADES 5 CLUBS 10 ONE_PAIR 
6: 2222 HEARTS 8 HEARTS 10 ONE_PAIR 
5: 8888 SPADES 2 SPADES A ONE_PAIR 
3: 5555 CLUBS J HEARTS A TWO_PAIR 
2: 4444 SPADES Q DIAMONDS 8 TWO_PAIR 
1: 3333 DIAMONDS Q CLUBS K TWO_PAIR 
4: 7777 SPADES 8 SPADES 4 TWO_PAIR 
7: 6666 DIAMONDS 5 SPADES 6 ONE_PAIR 
/showdown 

------------



------------


pot-win/ 
3333: 800 
/pot-win 

------------


seat/ 
button: 1111 4500 8000 
small blind: 2222 3300 8000 
big blind: 8888 3700 6000 
5555 4900 6000 
4444 3700 8000 
3333 2100 8000 
7777 100 6000 
6666 1700 6000 
/seat 

------------


blind/ 
2222: 50 
8888: 100 
/blind 

------------


hold/ 
DIAMONDS 10 
HEARTS 8 
/hold 

------------



------------


inquire/ 
2222 3200 8000 100 call 
1111 4400 8000 100 call 
6666 1600 6000 100 call 
7777 0 6000 100 all_in 
3333 2000 8000 100 call 
4444 3600 8000 100 call 
5555 4800 6000 100 call 
8888 3600 6000 100 blind 
total pot: 800 
/inquire 

------------



------------


flop/ 
DIAMONDS 3 
CLUBS Q 
DIAMONDS 7 
/flop 

------------



------------


inquire/ 
2222 3200 8000 100 check 
1111 4400 8000 100 call 
6666 1600 6000 100 call 
7777 0 6000 100 all_in 
3333 2000 8000 100 call 
4444 3600 8000 100 call 
5555 4800 6000 100 call 
8888 3600 6000 100 check 
total pot: 800 
/inquire 

------------



------------


turn/ 
HEARTS 3 
/turn 

------------



------------


inquire/ 
2222 3200 8000 100 check 
1111 4400 8000 100 check 
6666 1600 6000 100 check 
7777 0 6000 100 all_in 
3333 2000 8000 100 check 
4444 3600 8000 100 check 
5555 4800 6000 100 check 
8888 3600 6000 100 check 
total pot: 800 
/inquire 

------------



------------


river/ 
CLUBS 10 
/river 

------------



------------


inquire/ 
2222 3200 8000 100 check 
1111 4400 8000 100 check 
6666 1600 6000 100 check 
7777 0 6000 100 all_in 
3333 2000 8000 100 check 
4444 3600 8000 100 check 
5555 4800 6000 100 check 
8888 3600 6000 100 check 
total pot: 800 
/inquire 

------------



------------


showdown/ 
common/ 
DIAMONDS 3 
CLUBS Q 
DIAMONDS 7 
HEARTS 3 
CLUBS 10 
/common 
3: 2222 CLUBS 9 HEARTS A ONE_PAIR 
2: 8888 DIAMONDS 10 HEARTS 8 TWO_PAIR 
1: 5555 HEARTS K SPADES Q TWO_PAIR 
3: 4444 SPADES 2 DIAMONDS A ONE_PAIR 
4: 3333 SPADES K SPADES J ONE_PAIR 
5: 7777 DIAMONDS 9 DIAMONDS K ONE_PAIR 
5: 6666 DIAMONDS 2 CLUBS K ONE_PAIR 
6: 1111 HEARTS 4 CLUBS 5 ONE_PAIR 
/showdown 

------------



------------


pot-win/ 
5555: 800 
/pot-win 

------------


seat/ 
button: 2222 3200 8000 
small blind: 8888 3600 6000 
big blind: 5555 5600 6000 
4444 3600 8000 
3333 2000 8000 
7777 2000 4000 
6666 1600 6000 
1111 4400 8000 
/seat 

------------


blind/ 
8888: 50 
5555: 100 
/blind 

------------


hold/ 
CLUBS 9 
HEARTS A 
/hold 

------------



------------


inquire/ 
2222 3100 8000 100 call 
1111 4300 8000 100 call 
6666 1500 6000 100 call 
7777 1900 4000 100 call 
3333 1900 8000 100 call 
4444 3500 8000 100 call 
5555 5500 6000 100 blind 
8888 3550 6000 50 blind 
total pot: 750 
/inquire 

------------



------------


flop/ 
DIAMONDS 3 
CLUBS Q 
DIAMONDS 7 
/flop 

------------



------------


inquire/ 
2222 3100 8000 100 call 
1111 4300 8000 100 call 
6666 1500 6000 100 call 
7777 1900 4000 100 call 
3333 1900 8000 100 call 
4444 3500 8000 100 call 
5555 5500 6000 100 check 
8888 3500 6000 100 call 
total pot: 800 
/inquire 

------------



------------


turn/ 
HEARTS 3 
/turn 

------------



------------


inquire/ 
2222 3100 8000 100 check 
1111 4300 8000 100 check 
6666 1500 6000 100 check 
7777 1900 4000 100 check 
3333 1900 8000 100 check 
4444 3500 8000 100 check 
5555 5500 6000 100 check 
8888 3500 6000 100 check 
total pot: 800 
/inquire 

------------



------------


river/ 
CLUBS 10 
/river 

------------



------------


inquire/ 
2222 3100 8000 100 check 
1111 4300 8000 100 check 
6666 1500 6000 100 check 
7777 1900 4000 100 check 
3333 1900 8000 100 check 
4444 3500 8000 100 check 
5555 5500 6000 100 check 
8888 3500 6000 100 check 
total pot: 800 
/inquire 

------------



------------


showdown/ 
common/ 
DIAMONDS 3 
CLUBS Q 
DIAMONDS 7 
HEARTS 3 
CLUBS 10 
/common 
3: 8888 CLUBS 9 HEARTS A ONE_PAIR 
2: 5555 DIAMONDS 10 HEARTS 8 TWO_PAIR 
1: 4444 HEARTS K SPADES Q TWO_PAIR 
3: 3333 SPADES 2 DIAMONDS A ONE_PAIR 
4: 7777 SPADES K SPADES J ONE_PAIR 
5: 6666 DIAMONDS 9 DIAMONDS K ONE_PAIR 
5: 1111 DIAMONDS 2 CLUBS K ONE_PAIR 
6: 2222 HEARTS 4 CLUBS 5 ONE_PAIR 
/showdown 

------------



------------


pot-win/ 
4444: 800 
/pot-win 

------------


seat/ 
button: 8888 3500 6000 
small blind: 5555 5500 6000 
big blind: 4444 4300 8000 
3333 1900 8000 
7777 1900 4000 
6666 1500 6000 
1111 4300 8000 
2222 3100 8000 
/seat 

------------


blind/ 
5555: 50 
4444: 100 
/blind 

------------


hold/ 
HEARTS 4 
CLUBS 5 
/hold 

------------



------------


inquire/ 
2222 3000 8000 100 call 
1111 4200 8000 100 call 
6666 1400 6000 100 call 
7777 1800 4000 100 call 
3333 1800 8000 100 call 
4444 4200 8000 100 blind 
5555 5450 6000 50 blind 
total pot: 650 
/inquire 

------------



------------


flop/ 
DIAMONDS 3 
CLUBS Q 
DIAMONDS 7 
/flop 

------------



------------


inquire/ 
2222 3000 8000 100 check 
1111 4200 8000 100 check 
6666 1400 6000 100 check 
7777 1800 4000 100 check 
3333 1800 8000 100 check 
4444 4200 8000 100 check 
5555 5400 6000 100 check 
8888 3400 6000 100 call 
total pot: 800 
/inquire 

------------



------------


turn/ 
HEARTS 3 
/turn 

------------



------------


inquire/ 
2222 3000 8000 100 check 
1111 4200 8000 100 check 
6666 1400 6000 100 check 
7777 1800 4000 100 check 
3333 1800 8000 100 check 
4444 4200 8000 100 check 
5555 5400 6000 100 check 
8888 3400 6000 100 check 
total pot: 800 
/inquire 

------------



------------


river/ 
CLUBS 10 
/river 

------------



------------


inquire/ 
2222 3000 8000 100 check 
1111 4200 8000 100 check 
6666 1400 6000 100 check 
7777 1800 4000 100 check 
3333 1800 8000 100 check 
4444 4200 8000 100 check 
5555 5400 6000 100 check 
8888 3400 6000 100 check 
total pot: 800 
/inquire 

------------



------------


showdown/ 
common/ 
DIAMONDS 3 
CLUBS Q 
DIAMONDS 7 
HEARTS 3 
CLUBS 10 
/common 
3: 5555 CLUBS 9 HEARTS A ONE_PAIR 
2: 4444 DIAMONDS 10 HEARTS 8 TWO_PAIR 
1: 3333 HEARTS K SPADES Q TWO_PAIR 
3: 7777 SPADES 2 DIAMONDS A ONE_PAIR 
4: 6666 SPADES K SPADES J ONE_PAIR 
5: 1111 DIAMONDS 9 DIAMONDS K ONE_PAIR 
5: 2222 DIAMONDS 2 CLUBS K ONE_PAIR 
6: 8888 HEARTS 4 CLUBS 5 ONE_PAIR 
/showdown 

------------



------------


pot-win/ 
3333: 800 
/pot-win 

------------


seat/ 
button: 5555 5400 6000 
small blind: 4444 4200 8000 
big blind: 3333 2600 8000 
7777 1800 4000 
6666 1400 6000 
1111 4200 8000 
2222 3000 8000 
8888 3400 6000 
/seat 

------------


blind/ 
4444: 50 
3333: 100 
/blind 

------------


hold/ 
DIAMONDS 2 
CLUBS K 
/hold 

------------



------------


inquire/ 
2222 2900 8000 100 call 
1111 4100 8000 100 call 
6666 1300 6000 100 call 
7777 1700 4000 100 call 
3333 2500 8000 100 blind 
4444 4150 8000 50 blind 
total pot: 550 
/inquire 

------------



------------


flop/ 
DIAMONDS 3 
CLUBS Q 
DIAMONDS 7 
/flop 

------------



------------


inquire/ 
2222 2900 8000 100 check 
1111 4100 8000 100 check 
6666 1300 6000 100 check 
7777 1700 4000 100 check 
3333 2500 8000 100 check 
4444 4100 8000 100 check 
5555 5300 6000 100 call 
8888 3300 6000 100 call 
total pot: 800 
/inquire 

------------



------------


turn/ 
HEARTS 3 
/turn 

------------



------------


inquire/ 
2222 2900 8000 100 check 
1111 4100 8000 100 check 
6666 1300 6000 100 check 
7777 1700 4000 100 check 
3333 2500 8000 100 check 
4444 4100 8000 100 check 
5555 5300 6000 100 check 
8888 3300 6000 100 check 
total pot: 800 
/inquire 

------------



------------


river/ 
CLUBS 10 
/river 

------------



------------


inquire/ 
2222 2900 8000 100 check 
1111 4100 8000 100 check 
6666 1300 6000 100 check 
7777 1700 4000 100 check 
3333 2500 8000 100 check 
4444 4100 8000 100 check 
5555 5300 6000 100 check 
8888 3300 6000 100 check 
total pot: 800 
/inquire 

------------



------------


showdown/ 
common/ 
DIAMONDS 3 
CLUBS Q 
DIAMONDS 7 
HEARTS 3 
CLUBS 10 
/common 
3: 4444 CLUBS 9 HEARTS A ONE_PAIR 
2: 3333 DIAMONDS 10 HEARTS 8 TWO_PAIR 
1: 7777 HEARTS K SPADES Q TWO_PAIR 
3: 6666 SPADES 2 DIAMONDS A ONE_PAIR 
4: 1111 SPADES K SPADES J ONE_PAIR 
5: 2222 DIAMONDS 9 DIAMONDS K ONE_PAIR 
5: 8888 DIAMONDS 2 CLUBS K ONE_PAIR 
6: 5555 HEARTS 4 CLUBS 5 ONE_PAIR 
/showdown 

------------



------------


pot-win/ 
7777: 800 
/pot-win 

------------


seat/ 
button: 4444 4100 8000 
small blind: 3333 2500 8000 
big blind: 7777 2500 4000 
6666 1300 6000 
1111 4100 8000 
2222 2900 8000 
8888 3300 6000 
5555 5300 6000 
/seat 

------------


blind/ 
3333: 50 
7777: 100 
/blind 

------------


hold/ 
DIAMONDS 9 
DIAMONDS K 
/hold 

------------



------------


inquire/ 
2222 2800 8000 100 call 
1111 4000 8000 100 call 
6666 1200 6000 100 call 
7777 2400 4000 100 blind 
3333 2450 8000 50 blind 
total pot: 450 
/inquire 

------------



------------


flop/ 
DIAMONDS 3 
CLUBS Q 
DIAMONDS 7 
/flop 

------------



------------


inquire/ 
2222 2800 8000 100 check 
1111 4000 8000 100 check 
6666 1200 6000 100 check 
7777 2400 4000 100 check 
3333 2400 8000 100 check 
4444 4000 8000 100 call 
5555 5200 6000 100 call 
8888 3200 6000 100 call 
total pot: 800 
/inquire 

------------



------------


turn/ 
HEARTS 3 
/turn 

------------



------------


inquire/ 
2222 2800 8000 100 check 
1111 4000 8000 100 check 
6666 1200 6000 100 check 
7777 2400 4000 100 check 
3333 2400 8000 100 check 
4444 4000 8000 100 check 
5555 5200 6000 100 check 
8888 3200 6000 100 check 
total pot: 800 
/inquire 

------------



------------


river/ 
CLUBS 10 
/river 

------------



------------


inquire/ 
2222 2800 8000 100 check 
1111 4000 8000 100 check 
6666 1200 6000 100 check 
7777 2400 4000 100 check 
3333 2400 8000 100 check 
4444 4000 8000 100 check 
5555 5200 6000 100 check 
8888 3200 6000 100 check 
total pot: 800 
/inquire 

------------



------------


showdown/ 
common/ 
DIAMONDS 3 
CLUBS Q 
DIAMONDS 7 
HEARTS 3 
CLUBS 10 
/common 
3: 3333 CLUBS 9 HEARTS A ONE_PAIR 
2: 7777 DIAMONDS 10 HEARTS 8 TWO_PAIR 
1: 6666 HEARTS K SPADES Q TWO_PAIR 
3: 1111 SPADES 2 DIAMONDS A ONE_PAIR 
4: 2222 SPADES K SPADES J ONE_PAIR 
5: 8888 DIAMONDS 9 DIAMONDS K ONE_PAIR 
5: 5555 DIAMONDS 2 CLUBS K ONE_PAIR 
6: 4444 HEARTS 4 CLUBS 5 ONE_PAIR 
/showdown 

------------



------------


pot-win/ 
6666: 800 
/pot-win 

------------


seat/ 
button: 3333 2400 8000 
small blind: 7777 2400 4000 
big blind: 6666 2000 6000 
1111 4000 8000 
2222 2800 8000 
8888 3200 6000 
5555 5200 6000 
4444 4000 8000 
/seat 

------------


blind/ 
7777: 50 
6666: 100 
/blind 

------------


hold/ 
SPADES K 
SPADES J 
/hold 

------------



------------


inquire/ 
2222 2700 8000 100 call 
1111 3900 8000 100 call 
6666 1900 6000 100 blind 
7777 2350 4000 50 blind 
total pot: 350 
/inquire 

------------



------------


flop/ 
DIAMONDS 3 
CLUBS Q 
DIAMONDS 7 
/flop 

------------



------------


inquire/ 
2222 2700 8000 100 check 
1111 3900 8000 100 check 
6666 1900 6000 100 check 
7777 2300 4000 100 check 
3333 2300 8000 100 call 
4444 3900 8000 100 call 
5555 5100 6000 100 call 
8888 3100 6000 100 call 
total pot: 800 
/inquire 

------------



------------


turn/ 
HEARTS 3 
/turn 

------------



------------


inquire/ 
2222 2700 8000 100 check 
1111 3900 8000 100 check 
6666 1900 6000 100 check 
7777 2300 4000 100 check 
3333 2300 8000 100 check 
4444 3900 8000 100 check 
5555 5100 6000 100 check 
8888 3100 6000 100 check 
total pot: 800 
/inquire 

------------



------------


river/ 
CLUBS 10 
/river 

------------



------------


inquire/ 
2222 2700 8000 100 check 
1111 3900 8000 100 check 
6666 1900 6000 100 check 
7777 2300 4000 100 check 
3333 2300 8000 100 check 
4444 3900 8000 100 check 
5555 5100 6000 100 check 
8888 3100 6000 100 check 
total pot: 800 
/inquire 

------------



------------


showdown/ 
common/ 
DIAMONDS 3 
CLUBS Q 
DIAMONDS 7 
HEARTS 3 
CLUBS 10 
/common 
3: 7777 CLUBS 9 HEARTS A ONE_PAIR 
2: 6666 DIAMONDS 10 HEARTS 8 TWO_PAIR 
1: 1111 HEARTS K SPADES Q TWO_PAIR 
3: 2222 SPADES 2 DIAMONDS A ONE_PAIR 
4: 8888 SPADES K SPADES J ONE_PAIR 
5: 5555 DIAMONDS 9 DIAMONDS K ONE_PAIR 
5: 4444 DIAMONDS 2 CLUBS K ONE_PAIR 
6: 3333 HEARTS 4 CLUBS 5 ONE_PAIR 
/showdown 

------------



------------


pot-win/ 
1111: 800 
/pot-win 

------------


seat/ 
button: 7777 2300 4000 
small blind: 6666 1900 6000 
big blind: 1111 4700 8000 
2222 2700 8000 
8888 3100 6000 
5555 5100 6000 
4444 3900 8000 
3333 2300 8000 
/seat 

------------


blind/ 
6666: 50 
1111: 100 
/blind 

------------


hold/ 
DIAMONDS Q 
CLUBS 4 
/hold 

------------



------------


inquire/ 
2222 2600 8000 100 call 
1111 4600 8000 100 blind 
6666 1850 6000 50 blind 
total pot: 250 
/inquire 

------------



------------


flop/ 
DIAMONDS 4 
CLUBS 3 
SPADES 8 
/flop 

------------



------------


inquire/ 
2222 2600 8000 100 check 
1111 4600 8000 100 check 
6666 1800 6000 100 check 
7777 2200 4000 100 call 
3333 2200 8000 100 call 
4444 3800 8000 100 call 
5555 5000 6000 100 call 
8888 3000 6000 100 call 
total pot: 800 
/inquire 

------------



------------


turn/ 
SPADES Q 
/turn 

------------



------------


inquire/ 
2222 2600 8000 100 check 
1111 4600 8000 100 check 
6666 1800 6000 100 check 
7777 2200 4000 100 check 
3333 2200 8000 100 check 
4444 3800 8000 100 check 
5555 5000 6000 100 check 
8888 3000 6000 100 check 
total pot: 800 
/inquire 

------------



------------


river/ 
HEARTS Q 
/river 

------------



------------


inquire/ 
2222 2600 8000 100 check 
1111 4600 8000 100 check 
6666 1800 6000 100 check 
7777 2200 4000 100 check 
3333 2200 8000 100 check 
4444 3800 8000 100 check 
5555 5000 6000 100 check 
8888 3000 6000 100 check 
total pot: 800 
/inquire 

------------



------------


showdown/ 
common/ 
DIAMONDS 4 
CLUBS 3 
SPADES 8 
SPADES Q 
HEARTS Q 
/common 
2: 6666 CLUBS K CLUBS Q THREE_OF_A_KIND 
5: 1111 SPADES A CLUBS J ONE_PAIR 
3: 2222 HEARTS 8 CLUBS A TWO_PAIR 
1: 8888 DIAMONDS Q CLUBS 4 FULL_HOUSE 
8: 5555 HEARTS 6 CLUBS 2 ONE_PAIR 
6: 4444 HEARTS A DIAMONDS 10 ONE_PAIR 
7: 3333 SPADES 6 DIAMONDS 7 ONE_PAIR 
4: 7777 DIAMONDS 3 CLUBS 5 TWO_PAIR 
/showdown 

------------



------------


pot-win/ 
8888: 800 
/pot-win 

------------


seat/ 
button: 6666 1800 6000 
small blind: 1111 4600 8000 
big blind: 2222 2600 8000 
8888 3800 6000 
5555 5000 6000 
4444 3800 8000 
3333 2200 8000 
7777 2200 4000 
/seat 

------------


blind/ 
1111: 50 
2222: 100 
/blind 

------------


hold/ 
HEARTS 8 
CLUBS A 
/hold 

------------


inquire/ 
2222 2500 8000 100 blind 
1111 4550 8000 50 blind 
total pot: 150 
/inquire 

------------



------------


flop/ 
DIAMONDS 4 
CLUBS 3 
SPADES 8 
/flop 

------------



------------


inquire/ 
2222 2500 8000 100 check 
1111 4500 8000 100 check 
6666 1700 6000 100 call 
7777 2100 4000 100 call 
3333 2100 8000 100 call 
4444 3700 8000 100 call 
5555 4900 6000 100 call 
8888 3700 6000 100 call 
total pot: 800 
/inquire 

------------



------------


turn/ 
SPADES Q 
/turn 

------------



------------


inquire/ 
2222 2500 8000 100 check 
1111 4500 8000 100 check 
6666 1700 6000 100 check 
7777 2100 4000 100 check 
3333 2100 8000 100 check 
4444 3700 8000 100 check 
5555 4900 6000 100 check 
8888 3700 6000 100 check 
total pot: 800 
/inquire 

------------



------------


river/ 
HEARTS Q 
/river 

------------



------------


inquire/ 
2222 2500 8000 100 check 
1111 4500 8000 100 check 
6666 1700 6000 100 check 
7777 2100 4000 100 check 
3333 2100 8000 100 check 
4444 3700 8000 100 check 
5555 4900 6000 100 check 
8888 3700 6000 100 check 
total pot: 800 
/inquire 

------------



------------


showdown/ 
common/ 
DIAMONDS 4 
CLUBS 3 
SPADES 8 
SPADES Q 
HEARTS Q 
/common 
2: 1111 CLUBS K CLUBS Q THREE_OF_A_KIND 
5: 2222 SPADES A CLUBS J ONE_PAIR 
3: 8888 HEARTS 8 CLUBS A TWO_PAIR 
1: 5555 DIAMONDS Q CLUBS 4 FULL_HOUSE 
8: 4444 HEARTS 6 CLUBS 2 ONE_PAIR 
6: 3333 HEARTS A DIAMONDS 10 ONE_PAIR 
7: 7777 SPADES 6 DIAMONDS 7 ONE_PAIR 
4: 6666 DIAMONDS 3 CLUBS 5 TWO_PAIR 
/showdown 

------------



------------


pot-win/ 
5555: 800 
/pot-win 

------------


seat/ 
button: 1111 4500 8000 
small blind: 2222 2500 8000 
big blind: 8888 3700 6000 
5555 5700 6000 
4444 3700 8000 
3333 2100 8000 
7777 2100 4000 
6666 1700 6000 
/seat 

------------


blind/ 
2222: 50 
8888: 100 
/blind 

------------


hold/ 
SPADES A 
CLUBS J 
/hold 

------------



------------


inquire/ 
2222 2400 8000 100 call 
1111 4400 8000 100 call 
6666 1600 6000 100 call 
7777 2000 4000 100 call 
3333 2000 8000 100 call 
4444 3600 8000 100 call 
5555 5600 6000 100 call 
8888 3600 6000 100 blind 
total pot: 800 
/inquire 

------------



------------


flop/ 
DIAMONDS 4 
CLUBS 3 
SPADES 8 
/flop 

------------



------------


inquire/ 
2222 2400 8000 100 check 
1111 4400 8000 100 call 
6666 1600 6000 100 call 
7777 2000 4000 100 call 
3333 2000 8000 100 call 
4444 3600 8000 100 call 
5555 5600 6000 100 call 
8888 3600 6000 100 check 
total pot: 800 
/inquire 

------------



------------


turn/ 
SPADES Q 
/turn 

------------



------------


inquire/ 
2222 2400 8000 100 check 
1111 4400 8000 100 check 
6666 1600 6000 100 check 
7777 2000 4000 100 check 
3333 2000 8000 100 check 
4444 3600 8000 100 check 
5555 5600 6000 100 check 
8888 3600 6000 100 check 
total pot: 800 
/inquire 

------------



------------


river/ 
HEARTS Q 
/river 

------------



------------


inquire/ 
2222 2400 8000 100 check 
1111 4400 8000 100 check 
6666 1600 6000 100 check 
7777 2000 4000 100 check 
3333 2000 8000 100 check 
4444 3600 8000 100 check 
5555 5600 6000 100 check 
8888 3600 6000 100 check 
total pot: 800 
/inquire 

------------



------------


showdown/ 
common/ 
DIAMONDS 4 
CLUBS 3 
SPADES 8 
SPADES Q 
HEARTS Q 
/common 
2: 2222 CLUBS K CLUBS Q THREE_OF_A_KIND 
5: 8888 SPADES A CLUBS J ONE_PAIR 
3: 5555 HEARTS 8 CLUBS A TWO_PAIR 
1: 4444 DIAMONDS Q CLUBS 4 FULL_HOUSE 
8: 3333 HEARTS 6 CLUBS 2 ONE_PAIR 
6: 7777 HEARTS A DIAMONDS 10 ONE_PAIR 
7: 6666 SPADES 6 DIAMONDS 7 ONE_PAIR 
4: 1111 DIAMONDS 3 CLUBS 5 TWO_PAIR 
/showdown 

------------



------------


pot-win/ 
4444: 800 
/pot-win 

------------


seat/ 
button: 2222 2400 8000 
small blind: 8888 3600 6000 
big blind: 5555 5600 6000 
4444 4400 8000 
3333 2000 8000 
7777 2000 4000 
6666 1600 6000 
1111 4400 8000 
/seat 

------------


blind/ 
8888: 50 
5555: 100 
/blind 

------------


hold/ 
CLUBS K 
CLUBS Q 
/hold 

------------



------------


inquire/ 
2222 2300 8000 100 call 
1111 4300 8000 100 call 
6666 1500 6000 100 call 
7777 1900 4000 100 call 
3333 1900 8000 100 call 
4444 4300 8000 100 call 
5555 5500 6000 100 blind 
8888 3550 6000 50 blind 
total pot: 750 
/inquire 

------------



------------


flop/ 
DIAMONDS 4 
CLUBS 3 
SPADES 8 
/flop 

------------



------------


inquire/ 
2222 2300 8000 100 call 
1111 4300 8000 100 call 
6666 1500 6000 100 call 
7777 1900 4000 100 call 
3333 1900 8000 100 call 
4444 4300 8000 100 call 
5555 5500 6000 100 check 
8888 3500 6000 100 call 
total pot: 800 
/inquire 

------------



------------


turn/ 
SPADES Q 
/turn 

------------



------------


inquire/ 
2222 2300 8000 100 check 
1111 4300 8000 100 check 
6666 1500 6000 100 check 
7777 1900 4000 100 check 
3333 1900 8000 100 check 
4444 4300 8000 100 check 
5555 5500 6000 100 check 
8888 3500 6000 100 check 
total pot: 800 
/inquire 

------------



------------


river/ 
HEARTS Q 
/river 

------------



------------


inquire/ 
2222 2300 8000 100 check 
1111 4300 8000 100 check 
6666 1500 6000 100 check 
7777 1900 4000 100 check 
3333 1900 8000 100 check 
4444 4300 8000 100 check 
5555 5500 6000 100 check 
8888 3500 6000 100 check 
total pot: 800 
/inquire 

------------



------------


showdown/ 
common/ 
DIAMONDS 4 
CLUBS 3 
SPADES 8 
SPADES Q 
HEARTS Q 
/common 
2: 8888 CLUBS K CLUBS Q THREE_OF_A_KIND 
5: 5555 SPADES A CLUBS J ONE_PAIR 
3: 4444 HEARTS 8 CLUBS A TWO_PAIR 
1: 3333 DIAMONDS Q CLUBS 4 FULL_HOUSE 
8: 7777 HEARTS 6 CLUBS 2 ONE_PAIR 
6: 6666 HEARTS A DIAMONDS 10 ONE_PAIR 
7: 1111 SPADES 6 DIAMONDS 7 ONE_PAIR 
4: 2222 DIAMONDS 3 CLUBS 5 TWO_PAIR 
/showdown 

------------



------------


pot-win/ 
3333: 800 
/pot-win 

------------


seat/ 
button: 8888 3500 6000 
small blind: 5555 5500 6000 
big blind: 4444 4300 8000 
3333 2700 8000 
7777 1900 4000 
6666 1500 6000 
1111 4300 8000 
2222 2300 8000 
/seat 

------------


blind/ 
5555: 50 
4444: 100 
/blind 

------------


hold/ 
DIAMONDS 3 
CLUBS 5 
/hold 

------------



------------


inquire/ 
2222 2200 8000 100 call 
1111 4200 8000 100 call 
6666 1400 6000 100 call 
7777 1800 4000 100 call 
3333 2600 8000 100 call 
4444 4200 8000 100 blind 
5555 5450 6000 50 blind 
total pot: 650 
/inquire 

------------



------------


flop/ 
DIAMONDS 4 
CLUBS 3 
SPADES 8 
/flop 

------------



------------


inquire/ 
2222 2200 8000 100 check 
1111 4200 8000 100 check 
6666 1400 6000 100 check 
7777 1800 4000 100 check 
3333 2600 8000 100 check 
4444 4200 8000 100 check 
5555 5400 6000 100 check 
8888 3400 6000 100 call 
total pot: 800 
/inquire 

------------



------------


turn/ 
SPADES Q 
/turn 

------------



------------


inquire/ 
2222 2200 8000 100 check 
1111 4200 8000 100 check 
6666 1400 6000 100 check 
7777 1800 4000 100 check 
3333 2600 8000 100 check 
4444 4200 8000 100 check 
5555 5400 6000 100 check 
8888 3400 6000 100 check 
total pot: 800 
/inquire 

------------



------------


river/ 
HEARTS Q 
/river 

------------



------------


inquire/ 
2222 2200 8000 100 check 
1111 4200 8000 100 check 
6666 1400 6000 100 check 
7777 1800 4000 100 check 
3333 2600 8000 100 check 
4444 4200 8000 100 check 
5555 5400 6000 100 check 
8888 3400 6000 100 check 
total pot: 800 
/inquire 

------------



------------


showdown/ 
common/ 
DIAMONDS 4 
CLUBS 3 
SPADES 8 
SPADES Q 
HEARTS Q 
/common 
2: 5555 CLUBS K CLUBS Q THREE_OF_A_KIND 
5: 4444 SPADES A CLUBS J ONE_PAIR 
3: 3333 HEARTS 8 CLUBS A TWO_PAIR 
1: 7777 DIAMONDS Q CLUBS 4 FULL_HOUSE 
8: 6666 HEARTS 6 CLUBS 2 ONE_PAIR 
6: 1111 HEARTS A DIAMONDS 10 ONE_PAIR 
7: 2222 SPADES 6 DIAMONDS 7 ONE_PAIR 
4: 8888 DIAMONDS 3 CLUBS 5 TWO_PAIR 
/showdown 

------------



------------


pot-win/ 
7777: 800 
/pot-win 

------------


seat/ 
button: 5555 5400 6000 
small blind: 4444 4200 8000 
big blind: 3333 2600 8000 
7777 2600 4000 
6666 1400 6000 
1111 4200 8000 
2222 2200 8000 
8888 3400 6000 
/seat 

------------


blind/ 
4444: 50 
3333: 100 
/blind 

------------


hold/ 
DIAMONDS 3 
SPADES 2 
/hold 

------------



------------


inquire/ 
2222 2100 8000 100 call 
1111 4100 8000 100 call 
6666 1300 6000 100 call 
7777 2500 4000 100 call 
3333 2500 8000 100 blind 
4444 4150 8000 50 blind 
total pot: 550 
/inquire 

------------



------------


flop/ 
HEARTS 6 
HEARTS 10 
DIAMONDS 5 
/flop 

------------



------------


inquire/ 
2222 2100 8000 100 check 
1111 4100 8000 100 check 
6666 1300 6000 100 check 
7777 2500 4000 100 check 
3333 2500 8000 100 check 
4444 4100 8000 100 check 
5555 5300 6000 100 call 
8888 3300 6000 100 call 
total pot: 800 
/inquire 

------------



------------


turn/ 
SPADES 4 
/turn 

------------



------------


inquire/ 
2222 2100 8000 100 check 
1111 4100 8000 100 check 
6666 1300 6000 100 check 
7777 2500 4000 100 check 
3333 2500 8000 100 check 
4444 4100 8000 100 check 
5555 5300 6000 100 check 
8888 3300 6000 100 check 
total pot: 800 
/inquire 

------------



------------


river/ 
SPADES 5 
/river 

------------



------------


inquire/ 
2222 2100 8000 100 check 
1111 4100 8000 100 check 
6666 1300 6000 100 check 
7777 2500 4000 100 check 
3333 2500 8000 100 check 
4444 4100 8000 100 check 
5555 5300 6000 100 check 
8888 3300 6000 100 check 
total pot: 800 
/inquire 

------------



------------


showdown/ 
common/ 
HEARTS 6 
HEARTS 10 
DIAMONDS 5 
SPADES 4 
SPADES 5 
/common 
6: 4444 CLUBS 8 CLUBS J ONE_PAIR 
3: 3333 SPADES Q DIAMONDS 10 TWO_PAIR 
7: 7777 HEARTS 9 CLUBS 7 ONE_PAIR 
2: 6666 HEARTS 5 SPADES A THREE_OF_A_KIND 
4: 1111 DIAMONDS 4 DIAMONDS Q TWO_PAIR 
5: 2222 SPADES K DIAMONDS 2 ONE_PAIR 
1: 8888 DIAMONDS 3 SPADES 2 STRAIGHT 
1: 5555 CLUBS 2 SPADES 3 STRAIGHT 
/showdown 

------------



------------


pot-win/ 
8888: 400 
5555: 400 
/pot-win 

------------


seat/ 
button: 4444 4100 8000 
small blind: 3333 2500 8000 
big blind: 7777 2500 4000 
6666 1300 6000 
1111 4100 8000 
2222 2100 8000 
8888 3700 6000 
5555 5700 6000 
/seat 

------------


blind/ 
3333: 50 
7777: 100 
/blind 

------------


hold/ 
SPADES K 
DIAMONDS 2 
/hold 

------------



------------


inquire/ 
2222 2000 8000 100 call 
1111 4000 8000 100 call 
6666 1200 6000 100 call 
7777 2400 4000 100 blind 
3333 2450 8000 50 blind 
total pot: 450 
/inquire 

------------



------------


flop/ 
HEARTS 6 
HEARTS 10 
DIAMONDS 5 
/flop 

------------



------------


inquire/ 
2222 2000 8000 100 check 
1111 4000 8000 100 check 
6666 1200 6000 100 check 
7777 2400 4000 100 check 
3333 2400 8000 100 check 
4444 4000 8000 100 call 
5555 5600 6000 100 call 
8888 3600 6000 100 call 
total pot: 800 
/inquire 

------------



------------


turn/ 
SPADES 4 
/turn 

------------



------------


inquire/ 
2222 2000 8000 100 check 
1111 4000 8000 100 check 
6666 1200 6000 100 check 
7777 2400 4000 100 check 
3333 2400 8000 100 check 
4444 4000 8000 100 check 
5555 5600 6000 100 check 
8888 3600 6000 100 check 
total pot: 800 
/inquire 

------------



------------


river/ 
SPADES 5 
/river 

------------



------------


inquire/ 
2222 2000 8000 100 check 
1111 4000 8000 100 check 
6666 1200 6000 100 check 
7777 2400 4000 100 check 
3333 2400 8000 100 check 
4444 4000 8000 100 check 
5555 5600 6000 100 check 
8888 3600 6000 100 check 
total pot: 800 
/inquire 

------------



------------


showdown/ 
common/ 
HEARTS 6 
HEARTS 10 
DIAMONDS 5 
SPADES 4 
SPADES 5 
/common 
6: 3333 CLUBS 8 CLUBS J ONE_PAIR 
3: 7777 SPADES Q DIAMONDS 10 TWO_PAIR 
7: 6666 HEARTS 9 CLUBS 7 ONE_PAIR 
2: 1111 HEARTS 5 SPADES A THREE_OF_A_KIND 
4: 2222 DIAMONDS 4 DIAMONDS Q TWO_PAIR 
5: 8888 SPADES K DIAMONDS 2 ONE_PAIR 
1: 5555 DIAMONDS 3 SPADES 2 STRAIGHT 
1: 4444 CLUBS 2 SPADES 3 STRAIGHT 
/showdown 

------------



------------


pot-win/ 
5555: 400 
4444: 400 
/pot-win 

------------


seat/ 
button: 3333 2400 8000 
small blind: 7777 2400 4000 
big blind: 6666 1200 6000 
1111 4000 8000 
2222 2000 8000 
8888 3600 6000 
5555 6000 6000 
4444 4400 8000 
/seat 

------------


blind/ 
7777: 50 
6666: 100 
/blind 

------------


hold/ 
DIAMONDS 4 
DIAMONDS Q 
/hold 

------------



------------


inquire/ 
2222 1900 8000 100 call 
1111 3900 8000 100 call 
6666 1100 6000 100 blind 
7777 2350 4000 50 blind 
total pot: 350 
/inquire 

------------



------------


flop/ 
HEARTS 6 
HEARTS 10 
DIAMONDS 5 
/flop 

------------



------------


inquire/ 
2222 1900 8000 100 check 
1111 3900 8000 100 check 
6666 1100 6000 100 check 
7777 2300 4000 100 check 
3333 2300 8000 100 call 
4444 4300 8000 100 call 
5555 5900 6000 100 call 
8888 3500 6000 100 call 
total pot: 800 
/inquire 

------------



------------


turn/ 
SPADES 4 
/turn 

------------



------------


inquire/ 
2222 1900 8000 100 check 
1111 3900 8000 100 check 
6666 1100 6000 100 check 
7777 2300 4000 100 check 
3333 2300 8000 100 check 
4444 4300 8000 100 check 
5555 5900 6000 100 check 
8888 3500 6000 100 check 
total pot: 800 
/inquire 

------------



------------


river/ 
SPADES 5 
/river 

------------



------------


inquire/ 
2222 1900 8000 100 check 
1111 3900 8000 100 check 
6666 1100 6000 100 check 
7777 2300 4000 100 check 
3333 2300 8000 100 check 
4444 4300 8000 100 check 
5555 5900 6000 100 check 
8888 3500 6000 100 check 
total pot: 800 
/inquire 

------------



------------


showdown/ 
common/ 
HEARTS 6 
HEARTS 10 
DIAMONDS 5 
SPADES 4 
SPADES 5 
/common 
6: 7777 CLUBS 8 CLUBS J ONE_PAIR 
3: 6666 SPADES Q DIAMONDS 10 TWO_PAIR 
7: 1111 HEARTS 9 CLUBS 7 ONE_PAIR 
2: 2222 HEARTS 5 SPADES A THREE_OF_A_KIND 
4: 8888 DIAMONDS 4 DIAMONDS Q TWO_PAIR 
5: 5555 SPADES K DIAMONDS 2 ONE_PAIR 
1: 4444 DIAMONDS 3 SPADES 2 STRAIGHT 
1: 3333 CLUBS 2 SPADES 3 STRAIGHT 
/showdown 

------------



------------


pot-win/ 
4444: 400 
3333: 400 
/pot-win 

------------


seat/ 
button: 7777 2300 4000 
small blind: 6666 1100 6000 
big blind: 1111 3900 8000 
2222 1900 8000 
8888 3500 6000 
5555 5900 6000 
4444 4700 8000 
3333 2700 8000 
/seat 

------------


blind/ 
6666: 50 
1111: 100 
/blind 

------------


hold/ 
HEARTS 5 
SPADES A 
/hold 

------------



------------


inquire/ 
2222 1800 8000 100 call 
1111 3800 8000 100 blind 
6666 1050 6000 50 blind 
total pot: 250 
/inquire 

------------



------------


flop/ 
HEARTS 6 
HEARTS 10 
DIAMONDS 5 
/flop 

------------



------------


inquire/ 
2222 1800 8000 100 check 
1111 3800 8000 100 check 
6666 1000 6000 100 check 
7777 2200 4000 100 call 
3333 2600 8000 100 call 
4444 4600 8000 100 call 
5555 5800 6000 100 call 
8888 3400 6000 100 call 
total pot: 800 
/inquire 

------------



------------


turn/ 
SPADES 4 
/turn 

------------



------------


inquire/ 
2222 1800 8000 100 check 
1111 3800 8000 100 check 
6666 1000 6000 100 check 
7777 2200 4000 100 check 
3333 2600 8000 100 check 
4444 4600 8000 100 check 
5555 5800 6000 100 check 
8888 3400 6000 100 check 
total pot: 800 
/inquire 

------------



------------


river/ 
SPADES 5 
/river 

------------



------------


inquire/ 
2222 1800 8000 100 check 
1111 3800 8000 100 check 
6666 1000 6000 100 check 
7777 2200 4000 100 check 
3333 2600 8000 100 check 
4444 4600 8000 100 check 
5555 5800 6000 100 check 
8888 3400 6000 100 check 
total pot: 800 
/inquire 

------------



------------


showdown/ 
common/ 
HEARTS 6 
HEARTS 10 
DIAMONDS 5 
SPADES 4 
SPADES 5 
/common 
6: 6666 CLUBS 8 CLUBS J ONE_PAIR 
3: 1111 SPADES Q DIAMONDS 10 TWO_PAIR 
7: 2222 HEARTS 9 CLUBS 7 ONE_PAIR 
2: 8888 HEARTS 5 SPADES A THREE_OF_A_KIND 
4: 5555 DIAMONDS 4 DIAMONDS Q TWO_PAIR 
5: 4444 SPADES K DIAMONDS 2 ONE_PAIR 
1: 3333 DIAMONDS 3 SPADES 2 STRAIGHT 
1: 7777 CLUBS 2 SPADES 3 STRAIGHT 
/showdown 

------------



------------


pot-win/ 
3333: 400 
7777: 400 
/pot-win 

------------


seat/ 
button: 6666 1000 6000 
small blind: 1111 3800 8000 
big blind: 2222 1800 8000 
8888 3400 6000 
5555 5800 6000 
4444 4600 8000 
3333 3000 8000 
7777 2600 4000 
/seat 

------------


blind/ 
1111: 50 
2222: 100 
/blind 

------------


hold/ 
HEARTS 9 
CLUBS 7 
/hold 

------------


inquire/ 
2222 1700 8000 100 blind 
1111 3750 8000 50 blind 
total pot: 150 
/inquire 

------------



------------


flop/ 
HEARTS 6 
HEARTS 10 
DIAMONDS 5 
/flop 

------------



------------


inquire/ 
2222 1700 8000 100 check 
1111 3700 8000 100 check 
6666 900 6000 100 call 
7777 2500 4000 100 call 
3333 2900 8000 100 call 
4444 4500 8000 100 call 
5555 5700 6000 100 call 
8888 3300 6000 100 call 
total pot: 800 
/inquire 

------------



------------


turn/ 
SPADES 4 
/turn 

------------



------------


inquire/ 
2222 1700 8000 100 check 
1111 3700 8000 100 check 
6666 900 6000 100 check 
7777 2500 4000 100 check 
3333 2900 8000 100 check 
4444 4500 8000 100 check 
5555 5700 6000 100 check 
8888 3300 6000 100 check 
total pot: 800 
/inquire 

------------



------------


river/ 
SPADES 5 
/river 

------------



------------


inquire/ 
2222 1700 8000 100 check 
1111 3700 8000 100 check 
6666 900 6000 100 check 
7777 2500 4000 100 check 
3333 2900 8000 100 check 
4444 4500 8000 100 check 
5555 5700 6000 100 check 
8888 3300 6000 100 check 
total pot: 800 
/inquire 

------------



------------


showdown/ 
common/ 
HEARTS 6 
HEARTS 10 
DIAMONDS 5 
SPADES 4 
SPADES 5 
/common 
6: 1111 CLUBS 8 CLUBS J ONE_PAIR 
3: 2222 SPADES Q DIAMONDS 10 TWO_PAIR 
7: 8888 HEARTS 9 CLUBS 7 ONE_PAIR 
2: 5555 HEARTS 5 SPADES A THREE_OF_A_KIND 
4: 4444 DIAMONDS 4 DIAMONDS Q TWO_PAIR 
5: 3333 SPADES K DIAMONDS 2 ONE_PAIR 
1: 7777 DIAMONDS 3 SPADES 2 STRAIGHT 
1: 6666 CLUBS 2 SPADES 3 STRAIGHT 
/showdown 

------------



------------


pot-win/ 
7777: 400 
6666: 400 
/pot-win 

------------


seat/ 
button: 1111 3700 8000 
small blind: 2222 1700 8000 
big blind: 8888 3300 6000 
5555 5700 6000 
4444 4500 8000 
3333 2900 8000 
7777 2900 4000 
6666 1300 6000 
/seat 

------------


blind/ 
2222: 50 
8888: 100 
/blind 

------------


hold/ 
SPADES Q 
DIAMONDS 10 
/hold 

------------



------------


inquire/ 
2222 1600 8000 100 call 
1111 3600 8000 100 call 
6666 1200 6000 100 call 
7777 2800 4000 100 call 
3333 2800 8000 100 call 
4444 4400 8000 100 call 
5555 5600 6000 100 call 
8888 3200 6000 100 blind 
total pot: 800 
/inquire 

------------



------------


flop/ 
HEARTS 6 
HEARTS 10 
DIAMONDS 5 
/flop 

------------



------------


inquire/ 
2222 1600 8000 100 check 
1111 3600 8000 100 call 
6666 1200 6000 100 call 
7777 2800 4000 100 call 
3333 2800 8000 100 call 
4444 4400 8000 100 call 
5555 5600 6000 100 call 
8888 3200 6000 100 check 
total pot: 800 
/inquire 

------------



------------


turn/ 
SPADES 4 
/turn 

------------



------------


inquire/ 
2222 1600 8000 100 check 
1111 3600 8000 100 check 
6666 1200 6000 100 check 
7777 2800 4000 100 check 
3333 2800 8000 100 check 
4444 4400 8000 100 check 
5555 5600 6000 100 check 
8888 3200 6000 100 check 
total pot: 800 
/inquire 

------------



------------


river/ 
SPADES 5 
/river 

------------



------------


inquire/ 
2222 1600 8000 100 check 
1111 3600 8000 100 check 
6666 1200 6000 100 check 
7777 2800 4000 100 check 
3333 2800 8000 100 check 
4444 4400 8000 100 check 
5555 5600 6000 100 check 
8888 3200 6000 100 check 
total pot: 800 
/inquire 

------------



------------


showdown/ 
common/ 
HEARTS 6 
HEARTS 10 
DIAMONDS 5 
SPADES 4 
SPADES 5 
/common 
6: 2222 CLUBS 8 CLUBS J ONE_PAIR 
3: 8888 SPADES Q DIAMONDS 10 TWO_PAIR 
7: 5555 HEARTS 9 CLUBS 7 ONE_PAIR 
2: 4444 HEARTS 5 SPADES A THREE_OF_A_KIND 
4: 3333 DIAMONDS 4 DIAMONDS Q TWO_PAIR 
5: 7777 SPADES K DIAMONDS 2 ONE_PAIR 
1: 6666 DIAMONDS 3 SPADES 2 STRAIGHT 
1: 1111 CLUBS 2 SPADES 3 STRAIGHT 
/showdown 

------------



------------


pot-win/ 
6666: 400 
1111: 400 
/pot-win 

------------


seat/ 
button: 2222 1600 8000 
small blind: 8888 3200 6000 
big blind: 5555 5600 6000 
4444 4400 8000 
3333 2800 8000 
7777 2800 4000 
6666 1600 6000 
1111 4000 8000 
/seat 

------------


blind/ 
8888: 50 
5555: 100 
/blind 

------------


hold/ 
SPADES 5 
CLUBS 9 
/hold 

------------



------------


inquire/ 
2222 1500 8000 100 call 
1111 3900 8000 100 call 
6666 1500 6000 100 call 
7777 2700 4000 100 call 
3333 2700 8000 100 call 
4444 4300 8000 100 call 
5555 5500 6000 100 blind 
8888 3150 6000 50 blind 
total pot: 750 
/inquire 

------------



------------


flop/ 
CLUBS A 
HEARTS 5 
DIAMONDS 3 
/flop 

------------



------------


inquire/ 
2222 1500 8000 100 call 
1111 3900 8000 100 call 
6666 1500 6000 100 call 
7777 2700 4000 100 call 
3333 2700 8000 100 call 
4444 4300 8000 100 call 
5555 5500 6000 100 check 
8888 3100 6000 100 call 
total pot: 800 
/inquire 

------------



------------


turn/ 
HEARTS 3 
/turn 

------------



------------


inquire/ 
2222 1500 8000 100 check 
1111 3900 8000 100 check 
6666 1500 6000 100 check 
7777 2700 4000 100 check 
3333 2700 8000 100 check 
4444 4300 8000 100 check 
5555 5500 6000 100 check 
8888 3100 6000 100 check 
total pot: 800 
/inquire 

------------



------------


river/ 
SPADES 10 
/river 

------------



------------


inquire/ 
2222 1500 8000 100 check 
1111 3900 8000 100 check 
6666 1500 6000 100 check 
7777 2700 4000 100 check 
3333 2700 8000 100 check 
4444 4300 8000 100 check 
5555 5500 6000 100 check 
8888 3100 6000 100 check 
total pot: 800 
/inquire 

------------



------------


showdown/ 
common/ 
CLUBS A 
HEARTS 5 
DIAMONDS 3 
HEARTS 3 
SPADES 10 
/common 
4: 8888 SPADES 5 CLUBS 9 TWO_PAIR 
2: 5555 SPADES Q CLUBS Q TWO_PAIR 
3: 4444 CLUBS 10 SPADES 8 TWO_PAIR 
7: 3333 CLUBS 8 SPADES 9 ONE_PAIR 
1: 7777 HEARTS Q CLUBS 3 THREE_OF_A_KIND 
6: 6666 CLUBS J DIAMONDS 7 ONE_PAIR 
8: 1111 HEARTS 2 SPADES 7 ONE_PAIR 
5: 2222 DIAMONDS Q CLUBS 7 ONE_PAIR 
/showdown 

------------



------------


pot-win/ 
7777: 800 
/pot-win 

------------


seat/ 
button: 8888 3100 6000 
small blind: 5555 5500 6000 
big blind: 4444 4300 8000 
3333 2700 8000 
7777 3500 4000 
6666 1500 6000 
1111 3900 8000 
2222 1500 8000 
/seat 

------------


blind/ 
5555: 50 
4444: 100 
/blind 

------------


hold/ 
DIAMONDS Q 
CLUBS 7 
/hold 

------------



------------


inquire/ 
2222 1400 8000 100 call 
1111 3800 8000 100 call 
6666 1400 6000 100 call 
7777 3400 4000 100 call 
3333 2600 8000 100 call 
4444 4200 8000 100 blind 
5555 5450 6000 50 blind 
total pot: 650 
/inquire 

------------



------------


flop/ 
CLUBS A 
HEARTS 5 
DIAMONDS 3 
/flop 

------------



------------


inquire/ 
2222 1400 8000 100 check 
1111 3800 8000 100 check 
6666 1400 6000 100 check 
7777 3400 4000 100 check 
3333 2600 8000 100 check 
4444 4200 8000 100 check 
5555 5400 6000 100 check 
8888 3000 6000 100 call 
total pot: 800 
/inquire 

------------



------------


turn/ 
HEARTS 3 
/turn 

------------



------------


inquire/ 
2222 1400 8000 100 check 
1111 3800 8000 100 check 
6666 1400 6000 100 check 
7777 3400 4000 100 check 
3333 2600 8000 100 check 
4444 4200 8000 100 check 
5555 5400 6000 100 check 
8888 3000 6000 100 check 
total pot: 800 
/inquire 

------------



------------


river/ 
SPADES 10 
/river 

------------



------------


inquire/ 
2222 1400 8000 100 check 
1111 3800 8000 100 check 
6666 1400 6000 100 check 
7777 3400 4000 100 check 
3333 2600 8000 100 check 
4444 4200 8000 100 check 
5555 5400 6000 100 check 
8888 3000 6000 100 check 
total pot: 800 
/inquire 

------------



------------


showdown/ 
common/ 
CLUBS A 
HEARTS 5 
DIAMONDS 3 
HEARTS 3 
SPADES 10 
/common 
4: 5555 SPADES 5 CLUBS 9 TWO_PAIR 
2: 4444 SPADES Q CLUBS Q TWO_PAIR 
3: 3333 CLUBS 10 SPADES 8 TWO_PAIR 
7: 7777 CLUBS 8 SPADES 9 ONE_PAIR 
1: 6666 HEARTS Q CLUBS 3 THREE_OF_A_KIND 
6: 1111 CLUBS J DIAMONDS 7 ONE_PAIR 
8: 2222 HEARTS 2 SPADES 7 ONE_PAIR 
5: 8888 DIAMONDS Q CLUBS 7 ONE_PAIR 
/showdown 

------------



------------


pot-win/ 
6666: 800 
/pot-win 

------------


seat/ 
button: 5555 5400 6000 
small blind: 4444 4200 8000 
big blind: 3333 2600 8000 
7777 3400 4000 
6666 2200 6000 
1111 3800 8000 
2222 1400 8000 
8888 3000 6000 
/seat 

------------


blind/ 
4444: 50 
3333: 100 
/blind 

------------


hold/ 
HEARTS 2 
SPADES 7 
/hold 

------------



------------


inquire/ 
2222 1300 8000 100 call 
1111 3700 8000 100 call 
6666 2100 6000 100 call 
7777 3300 4000 100 call 
3333 2500 8000 100 blind 
4444 4150 8000 50 blind 
total pot: 550 
/inquire 

------------



------------


flop/ 
CLUBS A 
HEARTS 5 
DIAMONDS 3 
/flop 

------------



------------


inquire/ 
2222 1300 8000 100 check 
1111 3700 8000 100 check 
6666 2100 6000 100 check 
7777 3300 4000 100 check 
3333 2500 8000 100 check 
4444 4100 8000 100 check 
5555 5300 6000 100 call 
8888 2900 6000 100 call 
total pot: 800 
/inquire 

------------



------------


turn/ 
HEARTS 3 
/turn 

------------



------------


inquire/ 
2222 1300 8000 100 check 
1111 3700 8000 100 check 
6666 2100 6000 100 check 
7777 3300 4000 100 check 
3333 2500 8000 100 check 
4444 4100 8000 100 check 
5555 5300 6000 100 check 
8888 2900 6000 100 check 
total pot: 800 
/inquire 

------------



------------


river/ 
SPADES 10 
/river 

------------



------------


inquire/ 
2222 1300 8000 100 check 
1111 3700 8000 100 check 
6666 2100 6000 100 check 
7777 3300 4000 100 check 
3333 2500 8000 100 check 
4444 4100 8000 100 check 
5555 5300 6000 100 check 
8888 2900 6000 100 check 
total pot: 800 
/inquire 

------------



------------


showdown/ 
common/ 
CLUBS A 
HEARTS 5 
DIAMONDS 3 
HEARTS 3 
SPADES 10 
/common 
4: 4444 SPADES 5 CLUBS 9 TWO_PAIR 
2: 3333 SPADES Q CLUBS Q TWO_PAIR 
3: 7777 CLUBS 10 SPADES 8 TWO_PAIR 
7: 6666 CLUBS 8 SPADES 9 ONE_PAIR 
1: 1111 HEARTS Q CLUBS 3 THREE_OF_A_KIND 
6: 2222 CLUBS J DIAMONDS 7 ONE_PAIR 
8: 8888 HEARTS 2 SPADES 7 ONE_PAIR 
5: 5555 DIAMONDS Q CLUBS 7 ONE_PAIR 
/showdown 

------------



------------


pot-win/ 
1111: 800 
/pot-win 

------------


seat/ 
button: 4444 4100 8000 
small blind: 3333 2500 8000 
big blind: 7777 3300 4000 
6666 2100 6000 
1111 4500 8000 
2222 1300 8000 
8888 2900 6000 
5555 5300 6000 
/seat 

------------


blind/ 
3333: 50 
7777: 100 
/blind 

------------


hold/ 
CLUBS J 
DIAMONDS 7 
/hold 

------------



------------


inquire/ 
2222 1200 8000 100 call 
1111 4400 8000 100 call 
6666 2000 6000 100 call 
7777 3200 4000 100 blind 
3333 2450 8000 50 blind 
total pot: 450 
/inquire 

------------



------------


flop/ 
CLUBS A 
HEARTS 5 
DIAMONDS 3 
/flop 

------------



------------


inquire/ 
2222 1200 8000 100 check 
1111 4400 8000 100 check 
6666 2000 6000 100 check 
7777 3200 4000 100 check 
3333 2400 8000 100 check 
4444 4000 8000 100 call 
5555 5200 6000 100 call 
8888 2800 6000 100 call 
total pot: 800 
/inquire 

------------



------------


turn/ 
HEARTS 3 
/turn 

------------



------------


inquire/ 
2222 1200 8000 100 check 
1111 4400 8000 100 check 
6666 2000 6000 100 check 
7777 3200 4000 100 check 
3333 2400 8000 100 check 
4444 4000 8000 100 check 
5555 5200 6000 100 check 
8888 2800 6000 100 check 
total pot: 800 
/inquire 

------------



------------


river/ 
SPADES 10 
/river 

------------



------------


inquire/ 
2222 1200 8000 100 check 
1111 4400 8000 100 check 
6666 2000 6000 100 check 
7777 3200 4000 100 check 
3333 2400 8000 100 check 
4444 4000 8000 100 check 
5555 5200 6000 100 check 
8888 2800 6000 100 check 
total pot: 800 
/inquire 

------------



------------


showdown/ 
common/ 
CLUBS A 
HEARTS 5 
DIAMONDS 3 
HEARTS 3 
SPADES 10 
/common 
4: 3333 SPADES 5 CLUBS 9 TWO_PAIR 
2: 7777 SPADES Q CLUBS Q TWO_PAIR 
3: 6666 CLUBS 10 SPADES 8 TWO_PAIR 
7: 1111 CLUBS 8 SPADES 9 ONE_PAIR 
1: 2222 HEARTS Q CLUBS 3 THREE_OF_A_KIND 
6: 8888 CLUBS J DIAMONDS 7 ONE_PAIR 
8: 5555 HEARTS 2 SPADES 7 ONE_PAIR 
5: 4444 DIAMONDS Q CLUBS 7 ONE_PAIR 
/showdown 

------------



------------


pot-win/ 
2222: 800 
/pot-win 

------------


seat/ 
button: 3333 2400 8000 
small blind: 7777 3200 4000 
big blind: 6666 2000 6000 
1111 4400 8000 
2222 2000 8000 
8888 2800 6000 
5555 5200 6000 
4444 4000 8000 
/seat 

------------


blind/ 
7777: 50 
6666: 100 
/blind 

------------


hold/ 
HEARTS Q 
CLUBS 3 
/hold 

------------



------------


inquire/ 
2222 1900 8000 100 call 
1111 4300 8000 100 call 
6666 1900 6000 100 blind 
7777 3150 4000 50 blind 
total pot: 350 
/inquire 

------------



------------


flop/ 
CLUBS A 
HEARTS 5 
DIAMONDS 3 
/flop 

------------



------------


inquire/ 
2222 1900 8000 100 check 
1111 4300 8000 100 check 
6666 1900 6000 100 check 
7777 3100 4000 100 check 
3333 2300 8000 100 call 
4444 3900 8000 100 call 
5555 5100 6000 100 call 
8888 2700 6000 100 call 
total pot: 800 
/inquire 

------------



------------


turn/ 
HEARTS 3 
/turn 

------------



------------


inquire/ 
2222 1900 8000 100 check 
1111 4300 8000 100 check 
6666 1900 6000 100 check 
7777 3100 4000 100 check 
3333 2300 8000 100 check 
4444 3900 8000 100 check 
5555 5100 6000 100 check 
8888 2700 6000 100 check 
total pot: 800 
/inquire 

------------



------------


river/ 
SPADES 10 
/river 

------------



------------


inquire/ 
2222 1900 8000 100 check 
1111 4300 8000 100 check 
6666 1900 6000 100 check 
7777 3100 4000 100 check 
3333 2300 8000 100 check 
4444 3900 8000 100 check 
5555 5100 6000 100 check 
8888 2700 6000 100 check 
total pot: 800 
/inquire 

------------



------------


showdown/ 
common/ 
CLUBS A 
HEARTS 5 
DIAMONDS 3 
HEARTS 3 
SPADES 10 
/common 
4: 7777 SPADES 5 CLUBS 9 TWO_PAIR 
2: 6666 SPADES Q CLUBS Q TWO_PAIR 
3: 1111 CLUBS 10 SPADES 8 TWO_PAIR 
7: 2222 CLUBS 8 SPADES 9 ONE_PAIR 
1: 8888 HEARTS Q CLUBS 3 THREE_OF_A_KIND 
6: 5555 CLUBS J DIAMONDS 7 ONE_PAIR 
8: 4444 HEARTS 2 SPADES 7 ONE_PAIR 
5: 3333 DIAMONDS Q CLUBS 7 ONE_PAIR 
/showdown 

------------



------------


pot-win/ 
8888: 800 
/pot-win 

------------


seat/ 
button: 7777 3100 4000 
small blind: 6666 1900 6000 
big blind: 1111 4300 8000 
2222 1900 8000 
8888 3500 6000 
5555 5100 6000 
4444 3900 8000 
3333 2300 8000 
/seat 

------------


blind/ 
6666: 50 
1111: 100 
/blind 

------------


hold/ 
CLUBS 8 
SPADES 9 
/hold 

------------



------------


inquire/ 
2222 1800 8000 100 call 
1111 4200 8000 100 blind 
6666 1850 6000 50 blind 
total pot: 250 
/inquire 

------------



------------


flop/ 
CLUBS A 
HEARTS 5 
DIAMONDS 3 
/flop 

------------



------------


inquire/ 
2222 1800 8000 100 check 
1111 4200 8000 100 check 
6666 1800 6000 100 check 
7777 3000 4000 100 call 
3333 2200 8000 100 call 
4444 3800 8000 100 call 
5555 5000 6000 100 call 
8888 3400 6000 100 call 
total pot: 800 
/inquire 

------------



------------


turn/ 
HEARTS 3 
/turn 

------------



------------


inquire/ 
2222 1800 8000 100 check 
1111 4200 8000 100 check 
6666 1800 6000 100 check 
7777 3000 4000 100 check 
3333 2200 8000 100 check 
4444 3800 8000 100 check 
5555 5000 6000 100 check 
8888 3400 6000 100 check 
total pot: 800 
/inquire 

------------



------------


river/ 
SPADES 10 
/river 

------------



------------


inquire/ 
2222 1800 8000 100 check 
1111 4200 8000 100 check 
6666 1800 6000 100 check 
7777 3000 4000 100 check 
3333 2200 8000 100 check 
4444 3800 8000 100 check 
5555 5000 6000 100 check 
8888 3400 6000 100 check 
total pot: 800 
/inquire 

------------



------------


showdown/ 
common/ 
CLUBS A 
HEARTS 5 
DIAMONDS 3 
HEARTS 3 
SPADES 10 
/common 
4: 6666 SPADES 5 CLUBS 9 TWO_PAIR 
2: 1111 SPADES Q CLUBS Q TWO_PAIR 
3: 2222 CLUBS 10 SPADES 8 TWO_PAIR 
7: 8888 CLUBS 8 SPADES 9 ONE_PAIR 
1: 5555 HEARTS Q CLUBS 3 THREE_OF_A_KIND 
6: 4444 CLUBS J DIAMONDS 7 ONE_PAIR 
8: 3333 HEARTS 2 SPADES 7 ONE_PAIR 
5: 7777 DIAMONDS Q CLUBS 7 ONE_PAIR 
/showdown 

------------



------------


pot-win/ 
5555: 800 
/pot-win 

------------


seat/ 
button: 6666 1800 6000 
small blind: 1111 4200 8000 
big blind: 2222 1800 8000 
8888 3400 6000 
5555 5800 6000 
4444 3800 8000 
3333 2200 8000 
7777 3000 4000 
/seat 

------------


blind/ 
1111: 50 
2222: 100 
/blind 

------------


hold/ 
CLUBS 10 
CLUBS 5 
/hold 

------------


inquire/ 
2222 1700 8000 100 blind 
1111 4150 8000 50 blind 
total pot: 150 
/inquire 

------------



------------


flop/ 
DIAMONDS 6 
CLUBS 8 
CLUBS 9 
/flop 

------------



------------


inquire/ 
2222 1700 8000 100 check 
1111 4100 8000 100 check 
6666 1700 6000 100 call 
7777 2900 4000 100 call 
3333 2100 8000 100 call 
4444 3700 8000 100 call 
5555 5700 6000 100 call 
8888 3300 6000 100 call 
total pot: 800 
/inquire 

------------



------------


turn/ 
DIAMONDS K 
/turn 

------------



------------


inquire/ 
2222 1700 8000 100 check 
1111 4100 8000 100 check 
6666 1700 6000 100 check 
7777 2900 4000 100 check 
3333 2100 8000 100 check 
4444 3700 8000 100 check 
5555 5700 6000 100 check 
8888 3300 6000 100 check 
total pot: 800 
/inquire 

------------



------------


river/ 
SPADES 8 
/river 

------------



------------


inquire/ 
2222 1700 8000 100 check 
1111 4100 8000 100 check 
6666 1700 6000 100 check 
7777 2900 4000 100 check 
3333 2100 8000 100 check 
4444 3700 8000 100 check 
5555 5700 6000 100 check 
8888 3300 6000 100 check 
total pot: 800 
/inquire 

------------



------------


showdown/ 
common/ 
DIAMONDS 6 
CLUBS 8 
CLUBS 9 
DIAMONDS K 
SPADES 8 
/common 
5: 1111 DIAMONDS 2 SPADES 10 ONE_PAIR 
6: 2222 SPADES 5 HEARTS 2 ONE_PAIR 
5: 8888 CLUBS 10 CLUBS 5 ONE_PAIR 
4: 5555 CLUBS Q CLUBS 3 ONE_PAIR 
1: 4444 SPADES 3 DIAMONDS 8 THREE_OF_A_KIND 
5: 3333 SPADES 4 HEARTS 10 ONE_PAIR 
3: 7777 DIAMONDS J HEARTS Q ONE_PAIR 
2: 6666 SPADES 9 SPADES J TWO_PAIR 
/showdown 

------------



------------


pot-win/ 
4444: 800 
/pot-win 

------------


seat/ 
button: 1111 4100 8000 
small blind: 2222 1700 8000 
big blind: 8888 3300 6000 
5555 5700 6000 
4444 4500 8000 
3333 2100 8000 
7777 2900 4000 
6666 1700 6000 
/seat 

------------


blind/ 
2222: 50 
8888: 100 
/blind 

------------


hold/ 
SPADES 5 
HEARTS 2 
/hold 

------------



------------


inquire/ 
2222 1600 8000 100 call 
1111 4000 8000 100 call 
6666 1600 6000 100 call 
7777 2800 4000 100 call 
3333 2000 8000 100 call 
4444 4400 8000 100 call 
5555 5600 6000 100 call 
8888 3200 6000 100 blind 
total pot: 800 
/inquire 

------------



------------


flop/ 
DIAMONDS 6 
CLUBS 8 
CLUBS 9 
/flop 

------------



------------


inquire/ 
2222 1600 8000 100 check 
1111 4000 8000 100 call 
6666 1600 6000 100 call 
7777 2800 4000 100 call 
3333 2000 8000 100 call 
4444 4400 8000 100 call 
5555 5600 6000 100 call 
8888 3200 6000 100 check 
total pot: 800 
/inquire 

------------



------------


turn/ 
DIAMONDS K 
/turn 

------------



------------


inquire/ 
2222 1600 8000 100 check 
1111 4000 8000 100 check 
6666 1600 6000 100 check 
7777 2800 4000 100 check 
3333 2000 8000 100 check 
4444 4400 8000 100 check 
5555 5600 6000 100 check 
8888 3200 6000 100 check 
total pot: 800 
/inquire 

------------



------------


river/ 
SPADES 8 
/river 

------------



------------


inquire/ 
2222 1600 8000 100 check 
1111 4000 8000 100 check 
6666 1600 6000 100 check 
7777 2800 4000 100 check 
3333 2000 8000 100 check 
4444 4400 8000 100 check 
5555 5600 6000 100 check 
8888 3200 6000 100 check 
total pot: 800 
/inquire 

------------



------------


showdown/ 
common/ 
DIAMONDS 6 
CLUBS 8 
CLUBS 9 
DIAMONDS K 
SPADES 8 
/common 
5: 2222 DIAMONDS 2 SPADES 10 ONE_PAIR 
6: 8888 SPADES 5 HEARTS 2 ONE_PAIR 
5: 5555 CLUBS 10 CLUBS 5 ONE_PAIR 
4: 4444 CLUBS Q CLUBS 3 ONE_PAIR 
1: 3333 SPADES 3 DIAMONDS 8 THREE_OF_A_KIND 
5: 7777 SPADES 4 HEARTS 10 ONE_PAIR 
3: 6666 DIAMONDS J HEARTS Q ONE_PAIR 
2: 1111 SPADES 9 SPADES J TWO_PAIR 
/showdown 

------------



------------


pot-win/ 
3333: 800 
/pot-win 

------------


seat/ 
button: 2222 1600 8000 
small blind: 8888 3200 6000 
big blind: 5555 5600 6000 
4444 4400 8000 
3333 2800 8000 
7777 2800 4000 
6666 1600 6000 
1111 4000 8000 
/seat 

------------


blind/ 
8888: 50 
5555: 100 
/blind 

------------


hold/ 
DIAMONDS 2 
SPADES 10 
/hold 

------------



------------


inquire/ 
2222 1500 8000 100 call 
1111 3900 8000 100 call 
6666 1500 6000 100 call 
7777 2700 4000 100 call 
3333 2700 8000 100 call 
4444 4300 8000 100 call 
5555 5500 6000 100 blind 
8888 3150 6000 50 blind 
total pot: 750 
/inquire 

------------



------------


flop/ 
DIAMONDS 6 
CLUBS 8 
CLUBS 9 
/flop 

------------



------------


inquire/ 
2222 1500 8000 100 call 
1111 3900 8000 100 call 
6666 1500 6000 100 call 
7777 2700 4000 100 call 
3333 2700 8000 100 call 
4444 4300 8000 100 call 
5555 5500 6000 100 check 
8888 3100 6000 100 call 
total pot: 800 
/inquire 

------------



------------


turn/ 
DIAMONDS K 
/turn 

------------



------------


inquire/ 
2222 1500 8000 100 check 
1111 3900 8000 100 check 
6666 1500 6000 100 check 
7777 2700 4000 100 check 
3333 2700 8000 100 check 
4444 4300 8000 100 check 
5555 5500 6000 100 check 
8888 3100 6000 100 check 
total pot: 800 
/inquire 

------------



------------


river/ 
SPADES 8 
/river 

------------



------------


inquire/ 
2222 1500 8000 100 check 
1111 3900 8000 100 check 
6666 1500 6000 100 check 
7777 2700 4000 100 check 
3333 2700 8000 100 check 
4444 4300 8000 100 check 
5555 5500 6000 100 check 
8888 3100 6000 100 check 
total pot: 800 
/inquire 

------------



------------


showdown/ 
common/ 
DIAMONDS 6 
CLUBS 8 
CLUBS 9 
DIAMONDS K 
SPADES 8 
/common 
5: 8888 DIAMONDS 2 SPADES 10 ONE_PAIR 
6: 5555 SPADES 5 HEARTS 2 ONE_PAIR 
5: 4444 CLUBS 10 CLUBS 5 ONE_PAIR 
4: 3333 CLUBS Q CLUBS 3 ONE_PAIR 
1: 7777 SPADES 3 DIAMONDS 8 THREE_OF_A_KIND 
5: 6666 SPADES 4 HEARTS 10 ONE_PAIR 
3: 1111 DIAMONDS J HEARTS Q ONE_PAIR 
2: 2222 SPADES 9 SPADES J TWO_PAIR 
/showdown 

------------



------------


pot-win/ 
7777: 800 
/pot-win 

------------


seat/ 
button: 8888 3100 6000 
small blind: 5555 5500 6000 
big blind: 4444 4300 8000 
3333 2700 8000 
7777 3500 4000 
6666 1500 6000 
1111 3900 8000 
2222 1500 8000 
/seat 

------------


blind/ 
5555: 50 
4444: 100 
/blind 

------------


hold/ 
SPADES 9 
SPADES J 
/hold 

------------



------------


inquire/ 
2222 1400 8000 100 call 
1111 3800 8000 100 call 
6666 1400 6000 100 call 
7777 3400 4000 100 call 
3333 2600 8000 100 call 
4444 4200 8000 100 blind 
5555 5450 6000 50 blind 
total pot: 650 
/inquire 

------------



------------


flop/ 
DIAMONDS 6 
CLUBS 8 
CLUBS 9 
/flop 

------------



------------


inquire/ 
2222 1400 8000 100 check 
1111 3800 8000 100 check 
6666 1400 6000 100 check 
7777 3400 4000 100 check 
3333 2600 8000 100 check 
4444 4200 8000 100 check 
5555 5400 6000 100 check 
8888 3000 6000 100 call 
total pot: 800 
/inquire 

------------



------------


turn/ 
DIAMONDS K 
/turn 

------------



------------


inquire/ 
2222 1400 8000 100 check 
1111 3800 8000 100 check 
6666 1400 6000 100 check 
7777 3400 4000 100 check 
3333 2600 8000 100 check 
4444 4200 8000 100 check 
5555 5400 6000 100 check 
8888 3000 6000 100 check 
total pot: 800 
/inquire 

------------



------------


river/ 
SPADES 8 
/river 

------------



------------


inquire/ 
2222 1400 8000 100 check 
1111 3800 8000 100 check 
6666 1400 6000 100 check 
7777 3400 4000 100 check 
3333 2600 8000 100 check 
4444 4200 8000 100 check 
5555 5400 6000 100 check 
8888 3000 6000 100 check 
total pot: 800 
/inquire 

------------



------------


showdown/ 
common/ 
DIAMONDS 6 
CLUBS 8 
CLUBS 9 
DIAMONDS K 
SPADES 8 
/common 
5: 5555 DIAMONDS 2 SPADES 10 ONE_PAIR 
6: 4444 SPADES 5 HEARTS 2 ONE_PAIR 
5: 3333 CLUBS 10 CLUBS 5 ONE_PAIR 
4: 7777 CLUBS Q CLUBS 3 ONE_PAIR 
1: 6666 SPADES 3 DIAMONDS 8 THREE_OF_A_KIND 
5: 1111 SPADES 4 HEARTS 10 ONE_PAIR 
3: 2222 DIAMONDS J HEARTS Q ONE_PAIR 
2: 8888 SPADES 9 SPADES J TWO_PAIR 
/showdown 

------------



------------


pot-win/ 
6666: 800 
/pot-win 

------------


seat/ 
button: 5555 5400 6000 
small blind: 4444 4200 8000 
big blind: 3333 2600 8000 
7777 3400 4000 
6666 2200 6000 
1111 3800 8000 
2222 1400 8000 
8888 3000 6000 
/seat 

------------


blind/ 
4444: 50 
3333: 100 
/blind 

------------


hold/ 
DIAMONDS J 
HEARTS Q 
/hold 

------------



------------


inquire/ 
2222 1300 8000 100 call 
1111 3700 8000 100 call 
6666 2100 6000 100 call 
7777 3300 4000 100 call 
3333 2500 8000 100 blind 
4444 4150 8000 50 blind 
total pot: 550 
/inquire 

------------



------------


flop/ 
DIAMONDS 6 
CLUBS 8 
CLUBS 9 
/flop 

------------



------------


inquire/ 
2222 1300 8000 100 check 
1111 3700 8000 100 check 
6666 2100 6000 100 check 
7777 3300 4000 100 check 
3333 2500 8000 100 check 
4444 4100 8000 100 check 
5555 5300 6000 100 call 
8888 2900 6000 100 call 
total pot: 800 
/inquire 

------------



------------


turn/ 
DIAMONDS K 
/turn 

------------



------------


inquire/ 
2222 1300 8000 100 check 
1111 3700 8000 100 check 
6666 2100 6000 100 check 
7777 3300 4000 100 check 
3333 2500 8000 100 check 
4444 4100 8000 100 check 
5555 5300 6000 100 check 
8888 2900 6000 100 check 
total pot: 800 
/inquire 

------------



------------


river/ 
SPADES 8 
/river 

------------



------------


inquire/ 
2222 1300 8000 100 check 
1111 3700 8000 100 check 
6666 2100 6000 100 check 
7777 3300 4000 100 check 
3333 2500 8000 100 check 
4444 4100 8000 100 check 
5555 5300 6000 100 check 
8888 2900 6000 100 check 
total pot: 800 
/inquire 

------------



------------


showdown/ 
common/ 
DIAMONDS 6 
CLUBS 8 
CLUBS 9 
DIAMONDS K 
SPADES 8 
/common 
5: 4444 DIAMONDS 2 SPADES 10 ONE_PAIR 
6: 3333 SPADES 5 HEARTS 2 ONE_PAIR 
5: 7777 CLUBS 10 CLUBS 5 ONE_PAIR 
4: 6666 CLUBS Q CLUBS 3 ONE_PAIR 
1: 1111 SPADES 3 DIAMONDS 8 THREE_OF_A_KIND 
5: 2222 SPADES 4 HEARTS 10 ONE_PAIR 
3: 8888 DIAMONDS J HEARTS Q ONE_PAIR 
2: 5555 SPADES 9 SPADES J TWO_PAIR 
/showdown 

------------



------------


pot-win/ 
1111: 800 
/pot-win 

------------


seat/ 
button: 4444 4100 8000 
small blind: 3333 2500 8000 
big blind: 7777 3300 4000 
6666 2100 6000 
1111 4500 8000 
2222 1300 8000 
8888 2900 6000 
5555 5300 6000 
/seat 

------------


blind/ 
3333: 50 
7777: 100 
/blind 

------------


hold/ 
CLUBS 6 
CLUBS 7 
/hold 

------------



------------


inquire/ 
2222 1200 8000 100 call 
1111 4400 8000 100 call 
6666 2000 6000 100 call 
7777 3200 4000 100 blind 
3333 2450 8000 50 blind 
total pot: 450 
/inquire 

------------



------------


flop/ 
DIAMONDS 6 
SPADES K 
CLUBS K 
/flop 

------------



------------


inquire/ 
2222 1200 8000 100 check 
1111 4400 8000 100 check 
6666 2000 6000 100 check 
7777 3200 4000 100 check 
3333 2400 8000 100 check 
4444 4000 8000 100 call 
5555 5200 6000 100 call 
8888 2800 6000 100 call 
total pot: 800 
/inquire 

------------



------------


turn/ 
CLUBS 4 
/turn 

------------



------------


inquire/ 
2222 1200 8000 100 check 
1111 4400 8000 100 check 
6666 2000 6000 100 check 
7777 3200 4000 100 check 
3333 2400 8000 100 check 
4444 4000 8000 100 check 
5555 5200 6000 100 check 
8888 2800 6000 100 check 
total pot: 800 
/inquire 

------------



------------


river/ 
SPADES 4 
/river 

------------



------------


inquire/ 
2222 1200 8000 100 check 
1111 4400 8000 100 check 
6666 2000 6000 100 check 
7777 3200 4000 100 check 
3333 2400 8000 100 check 
4444 4000 8000 100 check 
5555 5200 6000 100 check 
8888 2800 6000 100 check 
total pot: 800 
/inquire 

------------



------------


showdown/ 
common/ 
DIAMONDS 6 
SPADES K 
CLUBS K 
CLUBS 4 
SPADES 4 
/common 
3: 3333 SPADES Q CLUBS 2 TWO_PAIR 
4: 7777 SPADES J HEARTS 3 TWO_PAIR 
3: 6666 CLUBS Q SPADES 2 TWO_PAIR 
2: 1111 HEARTS 5 CLUBS 5 TWO_PAIR 
5: 2222 HEARTS 8 DIAMONDS 5 TWO_PAIR 
1: 8888 CLUBS 6 CLUBS 7 TWO_PAIR 
6: 5555 CLUBS 3 HEARTS 2 TWO_PAIR 
4: 4444 SPADES 3 CLUBS J TWO_PAIR 
/showdown 

------------



------------


pot-win/ 
8888: 800 
/pot-win 

------------


seat/ 
button: 3333 2400 8000 
small blind: 7777 3200 4000 
big blind: 6666 2000 6000 
1111 4400 8000 
2222 1200 8000 
8888 3600 6000 
5555 5200 6000 
4444 4000 8000 
/seat 

------------


blind/ 
7777: 50 
6666: 100 
/blind 

------------


hold/ 
HEARTS 8 
DIAMONDS 5 
/hold 

------------



------------


inquire/ 
2222 1100 8000 100 call 
1111 4300 8000 100 call 
6666 1900 6000 100 blind 
7777 3150 4000 50 blind 
total pot: 350 
/inquire 

------------



------------


flop/ 
DIAMONDS 6 
SPADES K 
CLUBS K 
/flop 

------------



------------


inquire/ 
2222 1100 8000 100 check 
1111 4300 8000 100 check 
6666 1900 6000 100 check 
7777 3100 4000 100 check 
3333 2300 8000 100 call 
4444 3900 8000 100 call 
5555 5100 6000 100 call 
8888 3500 6000 100 call 
total pot: 800 
/inquire 

------------



------------


turn/ 
CLUBS 4 
/turn 

------------



------------


inquire/ 
2222 1100 8000 100 check 
1111 4300 8000 100 check 
6666 1900 6000 100 check 
7777 3100 4000 100 check 
3333 2300 8000 100 check 
4444 3900 8000 100 check 
5555 5100 6000 100 check 
8888 3500 6000 100 check 
total pot: 800 
/inquire 

------------



------------


river/ 
SPADES 4 
/river 

------------



------------


inquire/ 
2222 1100 8000 100 check 
1111 4300 8000 100 check 
6666 1900 6000 100 check 
7777 3100 4000 100 check 
3333 2300 8000 100 check 
4444 3900 8000 100 check 
5555 5100 6000 100 check 
8888 3500 6000 100 check 
total pot: 800 
/inquire 

------------



------------


showdown/ 
common/ 
DIAMONDS 6 
SPADES K 
CLUBS K 
CLUBS 4 
SPADES 4 
/common 
3: 7777 SPADES Q CLUBS 2 TWO_PAIR 
4: 6666 SPADES J HEARTS 3 TWO_PAIR 
3: 1111 CLUBS Q SPADES 2 TWO_PAIR 
2: 2222 HEARTS 5 CLUBS 5 TWO_PAIR 
5: 8888 HEARTS 8 DIAMONDS 5 TWO_PAIR 
1: 5555 CLUBS 6 CLUBS 7 TWO_PAIR 
6: 4444 CLUBS 3 HEARTS 2 TWO_PAIR 
4: 3333 SPADES 3 CLUBS J TWO_PAIR 
/showdown 

------------



------------


pot-win/ 
5555: 800 
/pot-win 

------------


seat/ 
button: 7777 3100 4000 
small blind: 6666 1900 6000 
big blind: 1111 4300 8000 
2222 1100 8000 
8888 3500 6000 
5555 5900 6000 
4444 3900 8000 
3333 2300 8000 
/seat 

------------


blind/ 
6666: 50 
1111: 100 
/blind 

------------


hold/ 
HEARTS 5 
CLUBS 5 
/hold 

------------



------------


inquire/ 
2222 1000 8000 100 call 
1111 4200 8000 100 blind 
6666 1850 6000 50 blind 
total pot: 250 
/inquire 

------------



------------


flop/ 
DIAMONDS 6 
SPADES K 
CLUBS K 
/flop 

------------



------------


inquire/ 
2222 1000 8000 100 check 
1111 4200 8000 100 check 
6666 1800 6000 100 check 
7777 3000 4000 100 call 
3333 2200 8000 100 call 
4444 3800 8000 100 call 
5555 5800 6000 100 call 
8888 3400 6000 100 call 
total pot: 800 
/inquire 

------------



------------


turn/ 
CLUBS 4 
/turn 

------------



------------


inquire/ 
2222 1000 8000 100 check 
1111 4200 8000 100 check 
6666 1800 6000 100 check 
7777 3000 4000 100 check 
3333 2200 8000 100 check 
4444 3800 8000 100 check 
5555 5800 6000 100 check 
8888 3400 6000 100 check 
total pot: 800 
/inquire 

------------



------------


river/ 
SPADES 4 
/river 

------------



------------


inquire/ 
2222 1000 8000 100 check 
1111 4200 8000 100 check 
6666 1800 6000 100 check 
7777 3000 4000 100 check 
3333 2200 8000 100 check 
4444 3800 8000 100 check 
5555 5800 6000 100 check 
8888 3400 6000 100 check 
total pot: 800 
/inquire 

------------



------------


showdown/ 
common/ 
DIAMONDS 6 
SPADES K 
CLUBS K 
CLUBS 4 
SPADES 4 
/common 
3: 6666 SPADES Q CLUBS 2 TWO_PAIR 
4: 1111 SPADES J HEARTS 3 TWO_PAIR 
3: 2222 CLUBS Q SPADES 2 TWO_PAIR 
2: 8888 HEARTS 5 CLUBS 5 TWO_PAIR 
5: 5555 HEARTS 8 DIAMONDS 5 TWO_PAIR 
1: 4444 CLUBS 6 CLUBS 7 TWO_PAIR 
6: 3333 CLUBS 3 HEARTS 2 TWO_PAIR 
4: 7777 SPADES 3 CLUBS J TWO_PAIR 
/showdown 

------------



------------


pot-win/ 
4444: 800 
/pot-win 

------------


seat/ 
button: 6666 1800 6000 
small blind: 1111 4200 8000 
big blind: 2222 1000 8000 
8888 3400 6000 
5555 5800 6000 
4444 4600 8000 
3333 2200 8000 
7777 3000 4000 
/seat 

------------


blind/ 
1111: 50 
2222: 100 
/blind 

------------


hold/ 
CLUBS Q 
SPADES 2 
/hold 

------------


inquire/ 
2222 900 8000 100 blind 
1111 4150 8000 50 blind 
total pot: 150 
/inquire 

------------



------------


flop/ 
DIAMONDS 6 
SPADES K 
CLUBS K 
/flop 

------------



------------


inquire/ 
2222 900 8000 100 check 
1111 4100 8000 100 check 
6666 1700 6000 100 call 
7777 2900 4000 100 call 
3333 2100 8000 100 call 
4444 4500 8000 100 call 
5555 5700 6000 100 call 
8888 3300 6000 100 call 
total pot: 800 
/inquire 

------------



------------


turn/ 
CLUBS 4 
/turn 

------------



------------


inquire/ 
2222 900 8000 100 check 
1111 4100 8000 100 check 
6666 1700 6000 100 check 
7777 2900 4000 100 check 
3333 2100 8000 100 check 
4444 4500 8000 100 check 
5555 5700 6000 100 check 
8888 3300 6000 100 check 
total pot: 800 
/inquire 

------------



------------


river/ 
SPADES 4 
/river 

------------



------------


inquire/ 
2222 900 8000 100 check 
1111 4100 8000 100 check 
6666 1700 6000 100 check 
7777 2900 4000 100 check 
3333 2100 8000 100 check 
4444 4500 8000 100 check 
5555 5700 6000 100 check 
8888 3300 6000 100 check 
total pot: 800 
/inquire 

------------



------------


showdown/ 
common/ 
DIAMONDS 6 
SPADES K 
CLUBS K 
CLUBS 4 
SPADES 4 
/common 
3: 1111 SPADES Q CLUBS 2 TWO_PAIR 
4: 2222 SPADES J HEARTS 3 TWO_PAIR 
3: 8888 CLUBS Q SPADES 2 TWO_PAIR 
2: 5555 HEARTS 5 CLUBS 5 TWO_PAIR 
5: 4444 HEARTS 8 DIAMONDS 5 TWO_PAIR 
1: 3333 CLUBS 6 CLUBS 7 TWO_PAIR 
6: 7777 CLUBS 3 HEARTS 2 TWO_PAIR 
4: 6666 SPADES 3 CLUBS J TWO_PAIR 
/showdown 

------------



------------


pot-win/ 
3333: 800 
/pot-win 

------------


seat/ 
button: 1111 4100 8000 
small blind: 2222 900 8000 
big blind: 8888 3300 6000 
5555 5700 6000 
4444 4500 8000 
3333 2900 8000 
7777 2900 4000 
6666 1700 6000 
/seat 

------------


blind/ 
2222: 50 
8888: 100 
/blind 

------------


hold/ 
SPADES J 
HEARTS 3 
/hold 

------------



------------


inquire/ 
2222 800 8000 100 call 
1111 4000 8000 100 call 
6666 1600 6000 100 call 
7777 2800 4000 100 call 
3333 2800 8000 100 call 
4444 4400 8000 100 call 
5555 5600 6000 100 call 
8888 3200 6000 100 blind 
total pot: 800 
/inquire 

------------



------------


flop/ 
DIAMONDS 6 
SPADES K 
CLUBS K 
/flop 

------------



------------


inquire/ 
2222 800 8000 100 check 
1111 4000 8000 100 call 
6666 1600 6000 100 call 
7777 2800 4000 100 call 
3333 2800 8000 100 call 
4444 4400 8000 100 call 
5555 5600 6000 100 call 
8888 3200 6000 100 check 
total pot: 800 
/inquire 

------------



------------


turn/ 
CLUBS 4 
/turn 

------------



------------


inquire/ 
2222 800 8000 100 check 
1111 4000 8000 100 check 
6666 1600 6000 100 check 
7777 2800 4000 100 check 
3333 2800 8000 100 check 
4444 4400 8000 100 check 
5555 5600 6000 100 check 
8888 3200 6000 100 check 
total pot: 800 
/inquire 

------------



------------


river/ 
SPADES 4 
/river 

------------



------------


inquire/ 
2222 800 8000 100 check 
1111 4000 8000 100 check 
6666 1600 6000 100 check 
7777 2800 4000 100 check 
3333 2800 8000 100 check 
4444 4400 8000 100 check 
5555 5600 6000 100 check 
8888 3200 6000 100 check 
total pot: 800 
/inquire 

------------



------------


showdown/ 
common/ 
DIAMONDS 6 
SPADES K 
CLUBS K 
CLUBS 4 
SPADES 4 
/common 
3: 2222 SPADES Q CLUBS 2 TWO_PAIR 
4: 8888 SPADES J HEARTS 3 TWO_PAIR 
3: 5555 CLUBS Q SPADES 2 TWO_PAIR 
2: 4444 HEARTS 5 CLUBS 5 TWO_PAIR 
5: 3333 HEARTS 8 DIAMONDS 5 TWO_PAIR 
1: 7777 CLUBS 6 CLUBS 7 TWO_PAIR 
6: 6666 CLUBS 3 HEARTS 2 TWO_PAIR 
4: 1111 SPADES 3 CLUBS J TWO_PAIR 
/showdown 

------------



------------


pot-win/ 
7777: 800 
/pot-win 

------------


seat/ 
button: 2222 800 8000 
small blind: 8888 3200 6000 
big blind: 5555 5600 6000 
4444 4400 8000 
3333 2800 8000 
7777 3600 4000 
6666 1600 6000 
1111 4000 8000 
/seat 

------------


blind/ 
8888: 50 
5555: 100 
/blind 

------------


hold/ 
SPADES Q 
CLUBS 2 
/hold 

------------



------------


inquire/ 
2222 700 8000 100 call 
1111 3900 8000 100 call 
6666 1500 6000 100 call 
7777 3500 4000 100 call 
3333 2700 8000 100 call 
4444 4300 8000 100 call 
5555 5500 6000 100 blind 
8888 3150 6000 50 blind 
total pot: 750 
/inquire 

------------



------------


flop/ 
DIAMONDS 6 
SPADES K 
CLUBS K 
/flop 

------------



------------


inquire/ 
2222 700 8000 100 call 
1111 3900 8000 100 call 
6666 1500 6000 100 call 
7777 3500 4000 100 call 
3333 2700 8000 100 call 
4444 4300 8000 100 call 
5555 5500 6000 100 check 
8888 3100 6000 100 call 
total pot: 800 
/inquire 

------------



------------


turn/ 
CLUBS 4 
/turn 

------------



------------


inquire/ 
2222 700 8000 100 check 
1111 3900 8000 100 check 
6666 1500 6000 100 check 
7777 3500 4000 100 check 
3333 2700 8000 100 check 
4444 4300 8000 100 check 
5555 5500 6000 100 check 
8888 3100 6000 100 check 
total pot: 800 
/inquire 

------------



------------


river/ 
SPADES 4 
/river 

------------



------------


inquire/ 
2222 700 8000 100 check 
1111 3900 8000 100 check 
6666 1500 6000 100 check 
7777 3500 4000 100 check 
3333 2700 8000 100 check 
4444 4300 8000 100 check 
5555 5500 6000 100 check 
8888 3100 6000 100 check 
total pot: 800 
/inquire 

------------



------------


showdown/ 
common/ 
DIAMONDS 6 
SPADES K 
CLUBS K 
CLUBS 4 
SPADES 4 
/common 
3: 8888 SPADES Q CLUBS 2 TWO_PAIR 
4: 5555 SPADES J HEARTS 3 TWO_PAIR 
3: 4444 CLUBS Q SPADES 2 TWO_PAIR 
2: 3333 HEARTS 5 CLUBS 5 TWO_PAIR 
5: 7777 HEARTS 8 DIAMONDS 5 TWO_PAIR 
1: 6666 CLUBS 6 CLUBS 7 TWO_PAIR 
6: 1111 CLUBS 3 HEARTS 2 TWO_PAIR 
4: 2222 SPADES 3 CLUBS J TWO_PAIR 
/showdown 

------------



------------


pot-win/ 
6666: 800 
/pot-win 

------------


seat/ 
button: 8888 3100 6000 
small blind: 5555 5500 6000 
big blind: 4444 4300 8000 
3333 2700 8000 
7777 3500 4000 
6666 2300 6000 
1111 3900 8000 
2222 700 8000 
/seat 

------------


blind/ 
5555: 50 
4444: 100 
/blind 

------------


hold/ 
HEARTS 2 
HEARTS K 
/hold 

------------



------------


inquire/ 
2222 600 8000 100 call 
1111 3800 8000 100 call 
6666 2200 6000 100 call 
7777 3400 4000 100 call 
3333 2600 8000 100 call 
4444 4200 8000 100 blind 
5555 5450 6000 50 blind 
total pot: 650 
/inquire 

------------



------------


flop/ 
DIAMONDS 10 
CLUBS 3 
DIAMONDS J 
/flop 

------------



------------


inquire/ 
2222 600 8000 100 check 
1111 3800 8000 100 check 
6666 2200 6000 100 check 
7777 3400 4000 100 check 
3333 2600 8000 100 check 
4444 4200 8000 100 check 
5555 5400 6000 100 check 
8888 3000 6000 100 call 
total pot: 800 
/inquire 

------------



------------


turn/ 
CLUBS 10 
/turn 

------------



------------


inquire/ 
2222 600 8000 100 check 
1111 3800 8000 100 check 
6666 2200 6000 100 check 
7777 3400 4000 100 check 
3333 2600 8000 100 check 
4444 4200 8000 100 check 
5555 5400 6000 100 check 
8888 3000 6000 100 check 
total pot: 800 
/inquire 

------------



------------


river/ 
SPADES 3 
/river 

------------



------------


inquire/ 
2222 600 8000 100 check 
1111 3800 8000 100 check 
6666 2200 6000 100 check 
7777 3400 4000 100 check 
3333 2600 8000 100 check 
4444 4200 8000 100 check 
5555 5400 6000 100 check 
8888 3000 6000 100 check 
total pot: 800 
/inquire 

------------



------------


showdown/ 
common/ 
DIAMONDS 10 
CLUBS 3 
DIAMONDS J 
CLUBS 10 
SPADES 3 
/common 
4: 5555 DIAMONDS 8 CLUBS A TWO_PAIR 
1: 4444 HEARTS J HEARTS 10 FULL_HOUSE 
7: 3333 SPADES 2 CLUBS 4 TWO_PAIR 
6: 7777 SPADES Q DIAMONDS 9 TWO_PAIR 
2: 6666 HEARTS 9 DIAMONDS 3 FULL_HOUSE 
6: 1111 HEARTS 8 HEARTS Q TWO_PAIR 
3: 2222 DIAMONDS 7 SPADES J TWO_PAIR 
5: 8888 HEARTS 2 HEARTS K TWO_PAIR 
/showdown 

------------



------------


pot-win/ 
4444: 800 
/pot-win 

------------


seat/ 
button: 5555 5400 6000 
small blind: 4444 5000 8000 
big blind: 3333 2600 8000 
7777 3400 4000 
6666 2200 6000 
1111 3800 8000 
2222 600 8000 
8888 3000 6000 
/seat 

------------


blind/ 
4444: 50 
3333: 100 
/blind 

------------


hold/ 
DIAMONDS 7 
SPADES J 
/hold 

------------



------------


inquire/ 
2222 500 8000 100 call 
1111 3700 8000 100 call 
6666 2100 6000 100 call 
7777 3300 4000 100 call 
3333 2500 8000 100 blind 
4444 4950 8000 50 blind 
total pot: 550 
/inquire 

------------



------------


flop/ 
DIAMONDS 10 
CLUBS 3 
DIAMONDS J 
/flop 

------------



------------


inquire/ 
2222 500 8000 100 check 
1111 3700 8000 100 check 
6666 2100 6000 100 check 
7777 3300 4000 100 check 
3333 2500 8000 100 check 
4444 4900 8000 100 check 
5555 5300 6000 100 call 
8888 2900 6000 100 call 
total pot: 800 
/inquire 

------------



------------


turn/ 
CLUBS 10 
/turn 

------------



------------


inquire/ 
2222 500 8000 100 check 
1111 3700 8000 100 check 
6666 2100 6000 100 check 
7777 3300 4000 100 check 
3333 2500 8000 100 check 
4444 4900 8000 100 check 
5555 5300 6000 100 check 
8888 2900 6000 100 check 
total pot: 800 
/inquire 

------------



------------


river/ 
SPADES 3 
/river 

------------



------------


inquire/ 
2222 500 8000 100 check 
1111 3700 8000 100 check 
6666 2100 6000 100 check 
7777 3300 4000 100 check 
3333 2500 8000 100 check 
4444 4900 8000 100 check 
5555 5300 6000 100 check 
8888 2900 6000 100 check 
total pot: 800 
/inquire 

------------



------------


showdown/ 
common/ 
DIAMONDS 10 
CLUBS 3 
DIAMONDS J 
CLUBS 10 
SPADES 3 
/common 
4: 4444 DIAMONDS 8 CLUBS A TWO_PAIR 
1: 3333 HEARTS J HEARTS 10 FULL_HOUSE 
7: 7777 SPADES 2 CLUBS 4 TWO_PAIR 
6: 6666 SPADES Q DIAMONDS 9 TWO_PAIR 
2: 1111 HEARTS 9 DIAMONDS 3 FULL_HOUSE 
6: 2222 HEARTS 8 HEARTS Q TWO_PAIR 
3: 8888 DIAMONDS 7 SPADES J TWO_PAIR 
5: 5555 HEARTS 2 HEARTS K TWO_PAIR 
/showdown 

------------



------------


pot-win/ 
3333: 800 
/pot-win 

------------


seat/ 
button: 4444 4900 8000 
small blind: 3333 3300 8000 
big blind: 7777 3300 4000 
6666 2100 6000 
1111 3700 8000 
2222 500 8000 
8888 2900 6000 
5555 5300 6000 
/seat 

------------


blind/ 
3333: 50 
7777: 100 
/blind 

------------


hold/ 
HEARTS 8 
HEARTS Q 
/hold 

------------



------------


inquire/ 
2222 400 8000 100 call 
1111 3600 8000 100 call 
6666 2000 6000 100 call 
7777 3200 4000 100 blind 
3333 3250 8000 50 blind 
total pot: 450 
/inquire 

------------



------------


flop/ 
DIAMONDS 10 
CLUBS 3 
DIAMONDS J 
/flop 

------------



------------


inquire/ 
2222 400 8000 100 check 
1111 3600 8000 100 check 
6666 2000 6000 100 check 
7777 3200 4000 100 check 
3333 3200 8000 100 check 
4444 4800 8000 100 call 
5555 5200 6000 100 call 
8888 2800 6000 100 call 
total pot: 800 
/inquire 

------------



------------


turn/ 
CLUBS 10 
/turn 

------------



------------


inquire/ 
2222 400 8000 100 check 
1111 3600 8000 100 check 
6666 2000 6000 100 check 
7777 3200 4000 100 check 
3333 3200 8000 100 check 
4444 4800 8000 100 check 
5555 5200 6000 100 check 
8888 2800 6000 100 check 
total pot: 800 
/inquire 

------------



------------


river/ 
SPADES 3 
/river 

------------



------------


inquire/ 
2222 400 8000 100 check 
1111 3600 8000 100 check 
6666 2000 6000 100 check 
7777 3200 4000 100 check 
3333 3200 8000 100 check 
4444 4800 8000 100 check 
5555 5200 6000 100 check 
8888 2800 6000 100 check 
total pot: 800 
/inquire 

------------



------------


showdown/ 
common/ 
DIAMONDS 10 
CLUBS 3 
DIAMONDS J 
CLUBS 10 
SPADES 3 
/common 
4: 3333 DIAMONDS 8 CLUBS A TWO_PAIR 
1: 7777 HEARTS J HEARTS 10 FULL_HOUSE 
7: 6666 SPADES 2 CLUBS 4 TWO_PAIR 
6: 1111 SPADES Q DIAMONDS 9 TWO_PAIR 
2: 2222 HEARTS 9 DIAMONDS 3 FULL_HOUSE 
6: 8888 HEARTS 8 HEARTS Q TWO_PAIR 
3: 5555 DIAMONDS 7 SPADES J TWO_PAIR 
5: 4444 HEARTS 2 HEARTS K TWO_PAIR 
/showdown 

------------



------------


pot-win/ 
7777: 800 
/pot-win 

------------


seat/ 
button: 3333 3200 8000 
small blind: 7777 4000 4000 
big blind: 6666 2000 6000 
1111 3600 8000 
2222 400 8000 
8888 2800 6000 
5555 5200 6000 
4444 4800 8000 
/seat 

------------


blind/ 
7777: 50 
6666: 100 
/blind 

------------


hold/ 
HEARTS 9 
DIAMONDS 3 
/hold 

------------



------------


inquire/ 
2222 300 8000 100 call 
1111 3500 8000 100 call 
6666 1900 6000 100 blind 
7777 3950 4000 50 blind 
total pot: 350 
/inquire 

------------



------------


flop/ 
DIAMONDS 10 
CLUBS 3 
DIAMONDS J 
/flop 

------------



------------


inquire/ 
2222 300 8000 100 check 
1111 3500 8000 100 check 
6666 1900 6000 100 check 
7777 3900 4000 100 check 
3333 3100 8000 100 call 
4444 4700 8000 100 call 
5555 5100 6000 100 call 
8888 2700 6000 100 call 
total pot: 800 
/inquire 

------------



------------


turn/ 
CLUBS 10 
/turn 

------------



------------


inquire/ 
2222 300 8000 100 check 
1111 3500 8000 100 check 
6666 1900 6000 100 check 
7777 3900 4000 100 check 
3333 3100 8000 100 check 
4444 4700 8000 100 check 
5555 5100 6000 100 check 
8888 2700 6000 100 check 
total pot: 800 
/inquire 

------------



------------


river/ 
SPADES 3 
/river 

------------



------------


inquire/ 
2222 300 8000 100 check 
1111 3500 8000 100 check 
6666 1900 6000 100 check 
7777 3900 4000 100 check 
3333 3100 8000 100 check 
4444 4700 8000 100 check 
5555 5100 6000 100 check 
8888 2700 6000 100 check 
total pot: 800 
/inquire 

------------



------------


showdown/ 
common/ 
DIAMONDS 10 
CLUBS 3 
DIAMONDS J 
CLUBS 10 
SPADES 3 
/common 
4: 7777 DIAMONDS 8 CLUBS A TWO_PAIR 
1: 6666 HEARTS J HEARTS 10 FULL_HOUSE 
7: 1111 SPADES 2 CLUBS 4 TWO_PAIR 
6: 2222 SPADES Q DIAMONDS 9 TWO_PAIR 
2: 8888 HEARTS 9 DIAMONDS 3 FULL_HOUSE 
6: 5555 HEARTS 8 HEARTS Q TWO_PAIR 
3: 4444 DIAMONDS 7 SPADES J TWO_PAIR 
5: 3333 HEARTS 2 HEARTS K TWO_PAIR 
/showdown 

------------



------------


pot-win/ 
6666: 800 
/pot-win 

------------


seat/ 
button: 7777 3900 4000 
small blind: 6666 2700 6000 
big blind: 1111 3500 8000 
2222 300 8000 
8888 2700 6000 
5555 5100 6000 
4444 4700 8000 
3333 3100 8000 
/seat 

------------


blind/ 
6666: 50 
1111: 100 
/blind 

------------


hold/ 
SPADES Q 
DIAMONDS 9 
/hold 

------------



------------


inquire/ 
2222 200 8000 100 call 
1111 3400 8000 100 blind 
6666 2650 6000 50 blind 
total pot: 250 
/inquire 

------------



------------


flop/ 
DIAMONDS 10 
CLUBS 3 
DIAMONDS J 
/flop 

------------



------------


inquire/ 
2222 200 8000 100 check 
1111 3400 8000 100 check 
6666 2600 6000 100 check 
7777 3800 4000 100 call 
3333 3000 8000 100 call 
4444 4600 8000 100 call 
5555 5000 6000 100 call 
8888 2600 6000 100 call 
total pot: 800 
/inquire 

------------



------------


turn/ 
CLUBS 10 
/turn 

------------



------------


inquire/ 
2222 200 8000 100 check 
1111 3400 8000 100 check 
6666 2600 6000 100 check 
7777 3800 4000 100 check 
3333 3000 8000 100 check 
4444 4600 8000 100 check 
5555 5000 6000 100 check 
8888 2600 6000 100 check 
total pot: 800 
/inquire 

------------



------------


river/ 
SPADES 3 
/river 

------------



------------


inquire/ 
2222 200 8000 100 check 
1111 3400 8000 100 check 
6666 2600 6000 100 check 
7777 3800 4000 100 check 
3333 3000 8000 100 check 
4444 4600 8000 100 check 
5555 5000 6000 100 check 
8888 2600 6000 100 check 
total pot: 800 
/inquire 

------------



------------


showdown/ 
common/ 
DIAMONDS 10 
CLUBS 3 
DIAMONDS J 
CLUBS 10 
SPADES 3 
/common 
4: 6666 DIAMONDS 8 CLUBS A TWO_PAIR 
1: 1111 HEARTS J HEARTS 10 FULL_HOUSE 
7: 2222 SPADES 2 CLUBS 4 TWO_PAIR 
6: 8888 SPADES Q DIAMONDS 9 TWO_PAIR 
2: 5555 HEARTS 9 DIAMONDS 3 FULL_HOUSE 
6: 4444 HEARTS 8 HEARTS Q TWO_PAIR 
3: 3333 DIAMONDS 7 SPADES J TWO_PAIR 
5: 7777 HEARTS 2 HEARTS K TWO_PAIR 
/showdown 

------------



------------


pot-win/ 
1111: 800 
/pot-win 

------------


seat/ 
button: 6666 2600 6000 
small blind: 1111 4200 8000 
big blind: 2222 200 8000 
8888 2600 6000 
5555 5000 6000 
4444 4600 8000 
3333 3000 8000 
7777 3800 4000 
/seat 

------------


blind/ 
1111: 50 
2222: 100 
/blind 

------------


hold/ 
DIAMONDS A 
DIAMONDS 7 
/hold 

------------


inquire/ 
2222 100 8000 100 blind 
1111 4150 8000 50 blind 
total pot: 150 
/inquire 

------------



------------


flop/ 
CLUBS 7 
HEARTS 4 
HEARTS K 
/flop 

------------



------------


inquire/ 
2222 100 8000 100 check 
1111 4100 8000 100 check 
6666 2500 6000 100 call 
7777 3700 4000 100 call 
3333 2900 8000 100 call 
4444 4500 8000 100 call 
5555 4900 6000 100 call 
8888 2500 6000 100 call 
total pot: 800 
/inquire 

------------



------------


turn/ 
HEARTS 3 
/turn 

------------



------------


inquire/ 
2222 100 8000 100 check 
1111 4100 8000 100 check 
6666 2500 6000 100 check 
7777 3700 4000 100 check 
3333 2900 8000 100 check 
4444 4500 8000 100 check 
5555 4900 6000 100 check 
8888 2500 6000 100 check 
total pot: 800 
/inquire 

------------



------------


river/ 
SPADES 10 
/river 

------------



------------


inquire/ 
2222 100 8000 100 check 
1111 4100 8000 100 check 
6666 2500 6000 100 check 
7777 3700 4000 100 check 
3333 2900 8000 100 check 
4444 4500 8000 100 check 
5555 4900 6000 100 check 
8888 2500 6000 100 check 
total pot: 800 
/inquire 

------------



------------


showdown/ 
common/ 
CLUBS 7 
HEARTS 4 
HEARTS K 
HEARTS 3 
SPADES 10 
/common 
7: 1111 SPADES 8 DIAMONDS 2 HIGH_CARD 
1: 2222 CLUBS K DIAMONDS 3 TWO_PAIR 
3: 8888 DIAMONDS A DIAMONDS 7 ONE_PAIR 
4: 5555 SPADES A CLUBS Q HIGH_CARD 
8: 4444 SPADES 2 CLUBS 6 HIGH_CARD 
5: 3333 SPADES 6 SPADES Q HIGH_CARD 
6: 7777 HEARTS 9 DIAMONDS 8 HIGH_CARD 
2: 6666 CLUBS J SPADES K ONE_PAIR 
/showdown 

------------



------------


pot-win/ 
2222: 800 
/pot-win 

------------


seat/ 
button: 1111 4100 8000 
small blind: 2222 900 8000 
big blind: 8888 2500 6000 
5555 4900 6000 
4444 4500 8000 
3333 2900 8000 
7777 3700 4000 
6666 2500 6000 
/seat 

------------


blind/ 
2222: 50 
8888: 100 
/blind 

------------


hold/ 
CLUBS K 
DIAMONDS 3 
/hold 

------------



------------


inquire/ 
2222 800 8000 100 call 
1111 4000 8000 100 call 
6666 2400 6000 100 call 
7777 3600 4000 100 call 
3333 2800 8000 100 call 
4444 4400 8000 100 call 
5555 4800 6000 100 call 
8888 2400 6000 100 blind 
total pot: 800 
/inquire 

------------



------------


flop/ 
CLUBS 7 
HEARTS 4 
HEARTS K 
/flop 

------------



------------


inquire/ 
2222 800 8000 100 check 
1111 4000 8000 100 call 
6666 2400 6000 100 call 
7777 3600 4000 100 call 
3333 2800 8000 100 call 
4444 4400 8000 100 call 
5555 4800 6000 100 call 
8888 2400 6000 100 check 
total pot: 800 
/inquire 

------------



------------


turn/ 
HEARTS 3 
/turn 

------------



------------


inquire/ 
2222 800 8000 100 check 
1111 4000 8000 100 check 
6666 2400 6000 100 check 
7777 3600 4000 100 check 
3333 2800 8000 100 check 
4444 4400 8000 100 check 
5555 4800 6000 100 check 
8888 2400 6000 100 check 
total pot: 800 
/inquire 

------------



------------


river/ 
SPADES 10 
/river 

------------



------------


inquire/ 
2222 800 8000 100 check 
1111 4000 8000 100 check 
6666 2400 6000 100 check 
7777 3600 4000 100 check 
3333 2800 8000 100 check 
4444 4400 8000 100 check 
5555 4800 6000 100 check 
8888 2400 6000 100 check 
total pot: 800 
/inquire 

------------



------------


showdown/ 
common/ 
CLUBS 7 
HEARTS 4 
HEARTS K 
HEARTS 3 
SPADES 10 
/common 
7: 2222 SPADES 8 DIAMONDS 2 HIGH_CARD 
1: 8888 CLUBS K DIAMONDS 3 TWO_PAIR 
3: 5555 DIAMONDS A DIAMONDS 7 ONE_PAIR 
4: 4444 SPADES A CLUBS Q HIGH_CARD 
8: 3333 SPADES 2 CLUBS 6 HIGH_CARD 
5: 7777 SPADES 6 SPADES Q HIGH_CARD 
6: 6666 HEARTS 9 DIAMONDS 8 HIGH_CARD 
2: 1111 CLUBS J SPADES K ONE_PAIR 
/showdown 

------------



------------


pot-win/ 
8888: 800 
/pot-win 

------------


seat/ 
button: 2222 800 8000 
small blind: 8888 3200 6000 
big blind: 5555 4800 6000 
4444 4400 8000 
3333 2800 8000 
7777 3600 4000 
6666 2400 6000 
1111 4000 8000 
/seat 

------------


blind/ 
8888: 50 
5555: 100 
/blind 

------------


hold/ 
SPADES 8 
DIAMONDS 2 
/hold 

------------



------------


inquire/ 
2222 700 8000 100 call 
1111 3900 8000 100 call 
6666 2300 6000 100 call 
7777 3500 4000 100 call 
3333 2700 8000 100 call 
4444 4300 8000 100 call 
5555 4700 6000 100 blind 
8888 3150 6000 50 blind 
total pot: 750 
/inquire 

------------



------------


flop/ 
CLUBS 7 
HEARTS 4 
HEARTS K 
/flop 

------------



------------


inquire/ 
2222 700 8000 100 call 
1111 3900 8000 100 call 
6666 2300 6000 100 call 
7777 3500 4000 100 call 
3333 2700 8000 100 call 
4444 4300 8000 100 call 
5555 4700 6000 100 check 
8888 3100 6000 100 call 
total pot: 800 
/inquire 

------------



------------


turn/ 
HEARTS 3 
/turn 

------------



------------


inquire/ 
2222 700 8000 100 check 
1111 3900 8000 100 check 
6666 2300 6000 100 check 
7777 3500 4000 100 check 
3333 2700 8000 100 check 
4444 4300 8000 100 check 
5555 4700 6000 100 check 
8888 3100 6000 100 check 
total pot: 800 
/inquire 

------------



------------


river/ 
SPADES 10 
/river 

------------



------------


inquire/ 
2222 700 8000 100 check 
1111 3900 8000 100 check 
6666 2300 6000 100 check 
7777 3500 4000 100 check 
3333 2700 8000 100 check 
4444 4300 8000 100 check 
5555 4700 6000 100 check 
8888 3100 6000 100 check 
total pot: 800 
/inquire 

------------



------------


showdown/ 
common/ 
CLUBS 7 
HEARTS 4 
HEARTS K 
HEARTS 3 
SPADES 10 
/common 
7: 8888 SPADES 8 DIAMONDS 2 HIGH_CARD 
1: 5555 CLUBS K DIAMONDS 3 TWO_PAIR 
3: 4444 DIAMONDS A DIAMONDS 7 ONE_PAIR 
4: 3333 SPADES A CLUBS Q HIGH_CARD 
8: 7777 SPADES 2 CLUBS 6 HIGH_CARD 
5: 6666 SPADES 6 SPADES Q HIGH_CARD 
6: 1111 HEARTS 9 DIAMONDS 8 HIGH_CARD 
2: 2222 CLUBS J SPADES K ONE_PAIR 
/showdown 

------------



------------


pot-win/ 
5555: 800 
/pot-win 

------------


seat/ 
button: 8888 3100 6000 
small blind: 5555 5500 6000 
big blind: 4444 4300 8000 
3333 2700 8000 
7777 3500 4000 
6666 2300 6000 
1111 3900 8000 
2222 700 8000 
/seat 

------------


blind/ 
5555: 50 
4444: 100 
/blind 

------------


hold/ 
CLUBS J 
SPADES K 
/hold 

------------



------------


inquire/ 
2222 600 8000 100 call 
1111 3800 8000 100 call 
6666 2200 6000 100 call 
7777 3400 4000 100 call 
3333 2600 8000 100 call 
4444 4200 8000 100 blind 
5555 5450 6000 50 blind 
total pot: 650 
/inquire 

------------



------------


flop/ 
CLUBS 7 
HEARTS 4 
HEARTS K 
/flop 

------------



------------


inquire/ 
2222 600 8000 100 check 
1111 3800 8000 100 check 
6666 2200 6000 100 check 
7777 3400 4000 100 check 
3333 2600 8000 100 check 
4444 4200 8000 100 check 
5555 5400 6000 100 check 
8888 3000 6000 100 call 
total pot: 800 
/inquire 

------------



------------


turn/ 
HEARTS 3 
/turn 

------------



------------


inquire/ 
2222 600 8000 100 check 
1111 3800 8000 100 check 
6666 2200 6000 100 check 
7777 3400 4000 100 check 
3333 2600 8000 100 check 
4444 4200 8000 100 check 
5555 5400 6000 100 check 
8888 3000 6000 100 check 
total pot: 800 
/inquire 

------------



------------


river/ 
SPADES 10 
/river 

------------



------------


inquire/ 
2222 600 8000 100 check 
1111 3800 8000 100 check 
6666 2200 6000 100 check 
7777 3400 4000 100 check 
3333 2600 8000 100 check 
4444 4200 8000 100 check 
5555 5400 6000 100 check 
8888 3000 6000 100 check 
total pot: 800 
/inquire 

------------



------------


showdown/ 
common/ 
CLUBS 7 
HEARTS 4 
HEARTS K 
HEARTS 3 
SPADES 10 
/common 
7: 5555 SPADES 8 DIAMONDS 2 HIGH_CARD 
1: 4444 CLUBS K DIAMONDS 3 TWO_PAIR 
3: 3333 DIAMONDS A DIAMONDS 7 ONE_PAIR 
4: 7777 SPADES A CLUBS Q HIGH_CARD 
8: 6666 SPADES 2 CLUBS 6 HIGH_CARD 
5: 1111 SPADES 6 SPADES Q HIGH_CARD 
6: 2222 HEARTS 9 DIAMONDS 8 HIGH_CARD 
2: 8888 CLUBS J SPADES K ONE_PAIR 
/showdown 

------------



------------


pot-win/ 
4444: 800 
/pot-win 

------------


seat/ 
button: 5555 5400 6000 
small blind: 4444 5000 8000 
big blind: 3333 2600 8000 
7777 3400 4000 
6666 2200 6000 
1111 3800 8000 
2222 600 8000 
8888 3000 6000 
/seat 

------------


blind/ 
4444: 50 
3333: 100 
/blind 

------------


hold/ 
HEARTS 9 
DIAMONDS 8 
/hold 

------------



------------


inquire/ 
2222 500 8000 100 call 
1111 3700 8000 100 call 
6666 2100 6000 100 call 
7777 3300 4000 100 call 
3333 2500 8000 100 blind 
4444 4950 8000 50 blind 
total pot: 550 
/inquire 

------------



------------


flop/ 
CLUBS 7 
HEARTS 4 
HEARTS K 
/flop 

------------



------------


inquire/ 
2222 500 8000 100 check 
1111 3700 8000 100 check 
6666 2100 6000 100 check 
7777 3300 4000 100 check 
3333 2500 8000 100 check 
4444 4900 8000 100 check 
5555 5300 6000 100 call 
8888 2900 6000 100 call 
total pot: 800 
/inquire 

------------



------------


turn/ 
HEARTS 3 
/turn 

------------



------------


inquire/ 
2222 500 8000 100 check 
1111 3700 8000 100 check 
6666 2100 6000 100 check 
7777 3300 4000 100 check 
3333 2500 8000 100 check 
4444 4900 8000 100 check 
5555 5300 6000 100 check 
8888 2900 6000 100 check 
total pot: 800 
/inquire 

------------



------------


river/ 
SPADES 10 
/river 

------------



------------


inquire/ 
2222 500 8000 100 check 
1111 3700 8000 100 check 
6666 2100 6000 100 check 
7777 3300 4000 100 check 
3333 2500 8000 100 check 
4444 4900 8000 100 check 
5555 5300 6000 100 check 
8888 2900 6000 100 check 
total pot: 800 
/inquire 

------------



------------


showdown/ 
common/ 
CLUBS 7 
HEARTS 4 
HEARTS K 
HEARTS 3 
SPADES 10 
/common 
7: 4444 SPADES 8 DIAMONDS 2 HIGH_CARD 
1: 3333 CLUBS K DIAMONDS 3 TWO_PAIR 
3: 7777 DIAMONDS A DIAMONDS 7 ONE_PAIR 
4: 6666 SPADES A CLUBS Q HIGH_CARD 
8: 1111 SPADES 2 CLUBS 6 HIGH_CARD 
5: 2222 SPADES 6 SPADES Q HIGH_CARD 
6: 8888 HEARTS 9 DIAMONDS 8 HIGH_CARD 
2: 5555 CLUBS J SPADES K ONE_PAIR 
/showdown 

------------



------------


pot-win/ 
3333: 800 
/pot-win 

------------


seat/ 
button: 4444 4900 8000 
small blind: 3333 3300 8000 
big blind: 7777 3300 4000 
6666 2100 6000 
1111 3700 8000 
2222 500 8000 
8888 2900 6000 
5555 5300 6000 
/seat 

------------


blind/ 
3333: 50 
7777: 100 
/blind 

------------


hold/ 
SPADES 6 
SPADES Q 
/hold 

------------



------------


inquire/ 
2222 400 8000 100 call 
1111 3600 8000 100 call 
6666 2000 6000 100 call 
7777 3200 4000 100 blind 
3333 3250 8000 50 blind 
total pot: 450 
/inquire 

------------



------------


flop/ 
CLUBS 7 
HEARTS 4 
HEARTS K 
/flop 

------------



------------


inquire/ 
2222 400 8000 100 check 
1111 3600 8000 100 check 
6666 2000 6000 100 check 
7777 3200 4000 100 check 
3333 3200 8000 100 check 
4444 4800 8000 100 call 
5555 5200 6000 100 call 
8888 2800 6000 100 call 
total pot: 800 
/inquire 

------------



------------


turn/ 
HEARTS 3 
/turn 

------------



------------


inquire/ 
2222 400 8000 100 check 
1111 3600 8000 100 check 
6666 2000 6000 100 check 
7777 3200 4000 100 check 
3333 3200 8000 100 check 
4444 4800 8000 100 check 
5555 5200 6000 100 check 
8888 2800 6000 100 check 
total pot: 800 
/inquire 

------------



------------


river/ 
SPADES 10 
/river 

------------



------------


inquire/ 
2222 400 8000 100 check 
1111 3600 8000 100 check 
6666 2000 6000 100 check 
7777 3200 4000 100 check 
3333 3200 8000 100 check 
4444 4800 8000 100 check 
5555 5200 6000 100 check 
8888 2800 6000 100 check 
total pot: 800 
/inquire 

------------



------------


showdown/ 
common/ 
CLUBS 7 
HEARTS 4 
HEARTS K 
HEARTS 3 
SPADES 10 
/common 
7: 3333 SPADES 8 DIAMONDS 2 HIGH_CARD 
1: 7777 CLUBS K DIAMONDS 3 TWO_PAIR 
3: 6666 DIAMONDS A DIAMONDS 7 ONE_PAIR 
4: 1111 SPADES A CLUBS Q HIGH_CARD 
8: 2222 SPADES 2 CLUBS 6 HIGH_CARD 
5: 8888 SPADES 6 SPADES Q HIGH_CARD 
6: 5555 HEARTS 9 DIAMONDS 8 HIGH_CARD 
2: 4444 CLUBS J SPADES K ONE_PAIR 
/showdown 

------------



------------


pot-win/ 
7777: 800 
/pot-win 

------------


seat/ 
button: 3333 3200 8000 
small blind: 7777 4000 4000 
big blind: 6666 2000 6000 
1111 3600 8000 
2222 400 8000 
8888 2800 6000 
5555 5200 6000 
4444 4800 8000 
/seat 

------------


blind/ 
7777: 50 
6666: 100 
/blind 

------------


hold/ 
HEARTS A 
HEARTS 8 
/hold 

------------



------------


inquire/ 
2222 300 8000 100 call 
1111 3500 8000 100 call 
6666 1900 6000 100 blind 
7777 3950 4000 50 blind 
total pot: 350 
/inquire 

------------



------------


flop/ 
DIAMONDS 9 
SPADES K 
CLUBS 6 
/flop 

------------



------------


inquire/ 
2222 300 8000 100 check 
1111 3500 8000 100 check 
6666 1900 6000 100 check 
7777 3900 4000 100 check 
3333 3100 8000 100 call 
4444 4700 8000 100 call 
5555 5100 6000 100 call 
8888 2700 6000 100 call 
total pot: 800 
/inquire 

------------



------------


turn/ 
DIAMONDS 5 
/turn 

------------



------------


inquire/ 
2222 300 8000 100 check 
1111 3500 8000 100 check 
6666 1900 6000 100 check 
7777 3900 4000 100 check 
3333 3100 8000 100 check 
4444 4700 8000 100 check 
5555 5100 6000 100 check 
8888 2700 6000 100 check 
total pot: 800 
/inquire 

------------



------------


river/ 
CLUBS 2 
/river 

------------



------------


inquire/ 
2222 300 8000 100 check 
1111 3500 8000 100 check 
6666 1900 6000 100 check 
7777 3900 4000 100 check 
3333 3100 8000 100 check 
4444 4700 8000 100 check 
5555 5100 6000 100 check 
8888 2700 6000 100 check 
total pot: 800 
/inquire 

------------



------------


showdown/ 
common/ 
DIAMONDS 9 
SPADES K 
CLUBS 6 
DIAMONDS 5 
CLUBS 2 
/common 
6: 7777 SPADES 2 HEARTS 7 ONE_PAIR 
5: 6666 SPADES 5 SPADES 10 ONE_PAIR 
3: 1111 DIAMONDS 10 SPADES 9 ONE_PAIR 
2: 2222 HEARTS J CLUBS J ONE_PAIR 
7: 8888 HEARTS A HEARTS 8 HIGH_CARD 
4: 5555 SPADES 7 DIAMONDS 6 ONE_PAIR 
1: 4444 SPADES Q DIAMONDS K ONE_PAIR 
6: 3333 DIAMONDS 2 DIAMONDS 7 ONE_PAIR 
/showdown 

------------



------------


pot-win/ 
4444: 800 
/pot-win 

------------


seat/ 
button: 7777 3900 4000 
small blind: 6666 1900 6000 
big blind: 1111 3500 8000 
2222 300 8000 
8888 2700 6000 
5555 5100 6000 
4444 5500 8000 
3333 3100 8000 
/seat 

------------


blind/ 
6666: 50 
1111: 100 
/blind 

------------


hold/ 
HEARTS J 
CLUBS J 
/hold 

------------



------------


inquire/ 
2222 200 8000 100 call 
1111 3400 8000 100 blind 
6666 1850 6000 50 blind 
total pot: 250 
/inquire 

------------



------------


flop/ 
DIAMONDS 9 
SPADES K 
CLUBS 6 
/flop 

------------



------------


inquire/ 
2222 200 8000 100 check 
1111 3400 8000 100 check 
6666 1800 6000 100 check 
7777 3800 4000 100 call 
3333 3000 8000 100 call 
4444 5400 8000 100 call 
5555 5000 6000 100 call 
8888 2600 6000 100 call 
total pot: 800 
/inquire 

------------



------------


turn/ 
DIAMONDS 5 
/turn 

------------



------------


inquire/ 
2222 200 8000 100 check 
1111 3400 8000 100 check 
6666 1800 6000 100 check 
7777 3800 4000 100 check 
3333 3000 8000 100 check 
4444 5400 8000 100 check 
5555 5000 6000 100 check 
8888 2600 6000 100 check 
total pot: 800 
/inquire 

------------



------------


river/ 
CLUBS 2 
/river 

------------



------------


inquire/ 
2222 200 8000 100 check 
1111 3400 8000 100 check 
6666 1800 6000 100 check 
7777 3800 4000 100 check 
3333 3000 8000 100 check 
4444 5400 8000 100 check 
5555 5000 6000 100 check 
8888 2600 6000 100 check 
total pot: 800 
/inquire 

------------



------------


showdown/ 
common/ 
DIAMONDS 9 
SPADES K 
CLUBS 6 
DIAMONDS 5 
CLUBS 2 
/common 
6: 6666 SPADES 2 HEARTS 7 ONE_PAIR 
5: 1111 SPADES 5 SPADES 10 ONE_PAIR 
3: 2222 DIAMONDS 10 SPADES 9 ONE_PAIR 
2: 8888 HEARTS J CLUBS J ONE_PAIR 
7: 5555 HEARTS A HEARTS 8 HIGH_CARD 
4: 4444 SPADES 7 DIAMONDS 6 ONE_PAIR 
1: 3333 SPADES Q DIAMONDS K ONE_PAIR 
6: 7777 DIAMONDS 2 DIAMONDS 7 ONE_PAIR 
/showdown 

------------



------------


pot-win/ 
3333: 800 
/pot-win 

------------


seat/ 
button: 6666 1800 6000 
small blind: 1111 3400 8000 
big blind: 2222 200 8000 
8888 2600 6000 
5555 5000 6000 
4444 5400 8000 
3333 3800 8000 
7777 3800 4000 
/seat 

------------


blind/ 
1111: 50 
2222: 100 
/blind 

------------


hold/ 
DIAMONDS 10 
SPADES 9 
/hold 

------------


inquire/ 
2222 100 8000 100 blind 
1111 3350 8000 50 blind 
total pot: 150 
/inquire 

------------



------------


flop/ 
DIAMONDS 9 
SPADES K 
CLUBS 6 
/flop 

------------



------------


inquire/ 
2222 100 8000 100 check 
1111 3300 8000 100 check 
6666 1700 6000 100 call 
7777 3700 4000 100 call 
3333 3700 8000 100 call 
4444 5300 8000 100 call 
5555 4900 6000 100 call 
8888 2500 6000 100 call 
total pot: 800 
/inquire 

------------



------------


turn/ 
DIAMONDS 5 
/turn 

------------



------------


inquire/ 
2222 100 8000 100 check 
1111 3300 8000 100 check 
6666 1700 6000 100 check 
7777 3700 4000 100 check 
3333 3700 8000 100 check 
4444 5300 8000 100 check 
5555 4900 6000 100 check 
8888 2500 6000 100 check 
total pot: 800 
/inquire 

------------



------------


river/ 
CLUBS 2 
/river 

------------



------------


inquire/ 
2222 100 8000 100 check 
1111 3300 8000 100 check 
6666 1700 6000 100 check 
7777 3700 4000 100 check 
3333 3700 8000 100 check 
4444 5300 8000 100 check 
5555 4900 6000 100 check 
8888 2500 6000 100 check 
total pot: 800 
/inquire 

------------



------------


showdown/ 
common/ 
DIAMONDS 9 
SPADES K 
CLUBS 6 
DIAMONDS 5 
CLUBS 2 
/common 
6: 1111 SPADES 2 HEARTS 7 ONE_PAIR 
5: 2222 SPADES 5 SPADES 10 ONE_PAIR 
3: 8888 DIAMONDS 10 SPADES 9 ONE_PAIR 
2: 5555 HEARTS J CLUBS J ONE_PAIR 
7: 4444 HEARTS A HEARTS 8 HIGH_CARD 
4: 3333 SPADES 7 DIAMONDS 6 ONE_PAIR 
1: 7777 SPADES Q DIAMONDS K ONE_PAIR 
6: 6666 DIAMONDS 2 DIAMONDS 7 ONE_PAIR 
/showdown 

------------



------------


pot-win/ 
7777: 800 
/pot-win 

------------


seat/ 
button: 1111 3300 8000 
small blind: 2222 100 8000 
big blind: 8888 2500 6000 
5555 4900 6000 
4444 5300 8000 
3333 3700 8000 
7777 4500 4000 
6666 1700 6000 
/seat 

------------


blind/ 
2222: 50 
8888: 100 
/blind 

------------


hold/ 
SPADES 5 
SPADES 10 
/hold 

------------



------------


inquire/ 
2222 0 8000 100 all_in 
1111 3200 8000 100 call 
6666 1600 6000 100 call 
7777 4400 4000 100 call 
3333 3600 8000 100 call 
4444 5200 8000 100 call 
5555 4800 6000 100 call 
8888 2400 6000 100 blind 
total pot: 800 
/inquire 

------------



------------


flop/ 
DIAMONDS 9 
SPADES K 
CLUBS 6 
/flop 

------------



------------


inquire/ 
2222 0 8000 100 all_in 
1111 3200 8000 100 call 
6666 1600 6000 100 call 
7777 4400 4000 100 call 
3333 3600 8000 100 call 
4444 5200 8000 100 call 
5555 4800 6000 100 call 
8888 2400 6000 100 check 
total pot: 800 
/inquire 

------------



------------


turn/ 
DIAMONDS 5 
/turn 

------------



------------


inquire/ 
2222 0 8000 100 all_in 
1111 3200 8000 100 check 
6666 1600 6000 100 check 
7777 4400 4000 100 check 
3333 3600 8000 100 check 
4444 5200 8000 100 check 
5555 4800 6000 100 check 
8888 2400 6000 100 check 
total pot: 800 
/inquire 

------------



------------


river/ 
CLUBS 2 
/river 

------------



------------


inquire/ 
2222 0 8000 100 all_in 
1111 3200 8000 100 check 
6666 1600 6000 100 check 
7777 4400 4000 100 check 
3333 3600 8000 100 check 
4444 5200 8000 100 check 
5555 4800 6000 100 check 
8888 2400 6000 100 check 
total pot: 800 
/inquire 

------------



------------


showdown/ 
common/ 
DIAMONDS 9 
SPADES K 
CLUBS 6 
DIAMONDS 5 
CLUBS 2 
/common 
6: 2222 SPADES 2 HEARTS 7 ONE_PAIR 
5: 8888 SPADES 5 SPADES 10 ONE_PAIR 
3: 5555 DIAMONDS 10 SPADES 9 ONE_PAIR 
2: 4444 HEARTS J CLUBS J ONE_PAIR 
7: 3333 HEARTS A HEARTS 8 HIGH_CARD 
4: 7777 SPADES 7 DIAMONDS 6 ONE_PAIR 
1: 6666 SPADES Q DIAMONDS K ONE_PAIR 
6: 1111 DIAMONDS 2 DIAMONDS 7 ONE_PAIR 
/showdown 

------------



------------


pot-win/ 
6666: 800 
/pot-win 

------------


seat/ 
button: 2222 2000 6000 
small blind: 8888 2400 6000 
big blind: 5555 4800 6000 
4444 5200 8000 
3333 3600 8000 
7777 4400 4000 
6666 2400 6000 
1111 3200 8000 
/seat 

------------


blind/ 
8888: 50 
5555: 100 
/blind 

------------


hold/ 
SPADES 2 
HEARTS 7 
/hold 

------------



------------


inquire/ 
2222 1900 6000 100 call 
1111 3100 8000 100 call 
6666 2300 6000 100 call 
7777 4300 4000 100 call 
3333 3500 8000 100 call 
4444 5100 8000 100 call 
5555 4700 6000 100 blind 
8888 2350 6000 50 blind 
total pot: 750 
/inquire 

------------



------------


flop/ 
DIAMONDS 9 
SPADES K 
CLUBS 6 
/flop 

------------



------------


inquire/ 
2222 1900 6000 100 call 
1111 3100 8000 100 call 
6666 2300 6000 100 call 
7777 4300 4000 100 call 
3333 3500 8000 100 call 
4444 5100 8000 100 call 
5555 4700 6000 100 check 
8888 2300 6000 100 call 
total pot: 800 
/inquire 

------------



------------


turn/ 
DIAMONDS 5 
/turn 

------------



------------


inquire/ 
2222 1900 6000 100 check 
1111 3100 8000 100 check 
6666 2300 6000 100 check 
7777 4300 4000 100 check 
3333 3500 8000 100 check 
4444 5100 8000 100 check 
5555 4700 6000 100 check 
8888 2300 6000 100 check 
total pot: 800 
/inquire 

------------



------------


river/ 
CLUBS 2 
/river 

------------



------------


inquire/ 
2222 1900 6000 100 check 
1111 3100 8000 100 check 
6666 2300 6000 100 check 
7777 4300 4000 100 check 
3333 3500 8000 100 check 
4444 5100 8000 100 check 
5555 4700 6000 100 check 
8888 2300 6000 100 check 
total pot: 800 
/inquire 

------------



------------


showdown/ 
common/ 
DIAMONDS 9 
SPADES K 
CLUBS 6 
DIAMONDS 5 
CLUBS 2 
/common 
6: 8888 SPADES 2 HEARTS 7 ONE_PAIR 
5: 5555 SPADES 5 SPADES 10 ONE_PAIR 
3: 4444 DIAMONDS 10 SPADES 9 ONE_PAIR 
2: 3333 HEARTS J CLUBS J ONE_PAIR 
7: 7777 HEARTS A HEARTS 8 HIGH_CARD 
4: 6666 SPADES 7 DIAMONDS 6 ONE_PAIR 
1: 1111 SPADES Q DIAMONDS K ONE_PAIR 
6: 2222 DIAMONDS 2 DIAMONDS 7 ONE_PAIR 
/showdown 

------------



------------


pot-win/ 
1111: 800 
/pot-win 

------------


seat/ 
button: 8888 2300 6000 
small blind: 5555 4700 6000 
big blind: 4444 5100 8000 
3333 3500 8000 
7777 4300 4000 
6666 2300 6000 
1111 3900 8000 
2222 1900 6000 
/seat 

------------


blind/ 
5555: 50 
4444: 100 
/blind 

------------


hold/ 
DIAMONDS 2 
DIAMONDS 7 
/hold 

------------



------------


inquire/ 
2222 1800 6000 100 call 
1111 3800 8000 100 call 
6666 2200 6000 100 call 
7777 4200 4000 100 call 
3333 3400 8000 100 call 
4444 5000 8000 100 blind 
5555 4650 6000 50 blind 
total pot: 650 
/inquire 

------------



------------


flop/ 
DIAMONDS 9 
SPADES K 
CLUBS 6 
/flop 

------------



------------


inquire/ 
2222 1800 6000 100 check 
1111 3800 8000 100 check 
6666 2200 6000 100 check 
7777 4200 4000 100 check 
3333 3400 8000 100 check 
4444 5000 8000 100 check 
5555 4600 6000 100 check 
8888 2200 6000 100 call 
total pot: 800 
/inquire 

------------



------------


turn/ 
DIAMONDS 5 
/turn 

------------



------------


inquire/ 
2222 1800 6000 100 check 
1111 3800 8000 100 check 
6666 2200 6000 100 check 
7777 4200 4000 100 check 
3333 3400 8000 100 check 
4444 5000 8000 100 check 
5555 4600 6000 100 check 
8888 2200 6000 100 check 
total pot: 800 
/inquire 

------------



------------


river/ 
CLUBS 2 
/river 

------------



------------


inquire/ 
2222 1800 6000 100 check 
1111 3800 8000 100 check 
6666 2200 6000 100 check 
7777 4200 4000 100 check 
3333 3400 8000 100 check 
4444 5000 8000 100 check 
5555 4600 6000 100 check 
8888 2200 6000 100 check 
total pot: 800 
/inquire 

------------



------------


showdown/ 
common/ 
DIAMONDS 9 
SPADES K 
CLUBS 6 
DIAMONDS 5 
CLUBS 2 
/common 
6: 5555 SPADES 2 HEARTS 7 ONE_PAIR 
5: 4444 SPADES 5 SPADES 10 ONE_PAIR 
3: 3333 DIAMONDS 10 SPADES 9 ONE_PAIR 
2: 7777 HEARTS J CLUBS J ONE_PAIR 
7: 6666 HEARTS A HEARTS 8 HIGH_CARD 
4: 1111 SPADES 7 DIAMONDS 6 ONE_PAIR 
1: 2222 SPADES Q DIAMONDS K ONE_PAIR 
6: 8888 DIAMONDS 2 DIAMONDS 7 ONE_PAIR 
/showdown 

------------



------------


pot-win/ 
2222: 800 
/pot-win 

------------


seat/ 
button: 5555 4600 6000 
small blind: 4444 5000 8000 
big blind: 3333 3400 8000 
7777 4200 4000 
6666 2200 6000 
1111 3800 8000 
2222 2600 6000 
8888 2200 6000 
/seat 

------------


blind/ 
4444: 50 
3333: 100 
/blind 

------------


hold/ 
HEARTS 3 
HEARTS 5 
/hold 

------------



------------


inquire/ 
2222 2500 6000 100 call 
1111 3700 8000 100 call 
6666 2100 6000 100 call 
7777 4100 4000 100 call 
3333 3300 8000 100 blind 
4444 4950 8000 50 blind 
total pot: 550 
/inquire 

------------



------------


flop/ 
CLUBS A 
HEARTS 9 
CLUBS K 
/flop 

------------



------------


inquire/ 
2222 2500 6000 100 check 
1111 3700 8000 100 check 
6666 2100 6000 100 check 
7777 4100 4000 100 check 
3333 3300 8000 100 check 
4444 4900 8000 100 check 
5555 4500 6000 100 call 
8888 2100 6000 100 call 
total pot: 800 
/inquire 

------------



------------


turn/ 
CLUBS J 
/turn 

------------



------------


inquire/ 
2222 2500 6000 100 check 
1111 3700 8000 100 check 
6666 2100 6000 100 check 
7777 4100 4000 100 check 
3333 3300 8000 100 check 
4444 4900 8000 100 check 
5555 4500 6000 100 check 
8888 2100 6000 100 check 
total pot: 800 
/inquire 

------------



------------


river/ 
CLUBS 9 
/river 

------------



------------


inquire/ 
2222 2500 6000 100 check 
1111 3700 8000 100 check 
6666 2100 6000 100 check 
7777 4100 4000 100 check 
3333 3300 8000 100 check 
4444 4900 8000 100 check 
5555 4500 6000 100 check 
8888 2100 6000 100 check 
total pot: 800 
/inquire 

------------



------------


showdown/ 
common/ 
CLUBS A 
HEARTS 9 
CLUBS K 
CLUBS J 
CLUBS 9 
/common 
6: 4444 DIAMONDS 2 SPADES 7 ONE_PAIR 
4: 3333 DIAMONDS 6 SPADES 9 THREE_OF_A_KIND 
3: 7777 SPADES 5 CLUBS 2 FLUSH 
1: 6666 CLUBS 10 DIAMONDS 10 FLUSH 
5: 1111 HEARTS Q DIAMONDS J TWO_PAIR 
5: 2222 SPADES J DIAMONDS 5 TWO_PAIR 
6: 8888 HEARTS 3 HEARTS 5 ONE_PAIR 
2: 5555 CLUBS 3 DIAMONDS 8 FLUSH 
/showdown 

------------



------------


pot-win/ 
6666: 800 
/pot-win 

------------


seat/ 
button: 4444 4900 8000 
small blind: 3333 3300 8000 
big blind: 7777 4100 4000 
6666 2900 6000 
1111 3700 8000 
2222 2500 6000 
8888 2100 6000 
5555 4500 6000 
/seat 

------------


blind/ 
3333: 50 
7777: 100 
/blind 

------------


hold/ 
SPADES J 
DIAMONDS 5 
/hold 

------------



------------


inquire/ 
2222 2400 6000 100 call 
1111 3600 8000 100 call 
6666 2800 6000 100 call 
7777 4000 4000 100 blind 
3333 3250 8000 50 blind 
total pot: 450 
/inquire 

------------



------------


flop/ 
CLUBS A 
HEARTS 9 
CLUBS K 
/flop 

------------



------------


inquire/ 
2222 2400 6000 100 check 
1111 3600 8000 100 check 
6666 2800 6000 100 check 
7777 4000 4000 100 check 
3333 3200 8000 100 check 
4444 4800 8000 100 call 
5555 4400 6000 100 call 
8888 2000 6000 100 call 
total pot: 800 
/inquire 

------------



------------


turn/ 
CLUBS J 
/turn 

------------



------------


inquire/ 
2222 2400 6000 100 check 
1111 3600 8000 100 check 
6666 2800 6000 100 check 
7777 4000 4000 100 check 
3333 3200 8000 100 check 
4444 4800 8000 100 check 
5555 4400 6000 100 check 
8888 2000 6000 100 check 
total pot: 800 
/inquire 

------------



------------


river/ 
CLUBS 9 
/river 

------------



------------


inquire/ 
2222 2400 6000 100 check 
1111 3600 8000 100 check 
6666 2800 6000 100 check 
7777 4000 4000 100 check 
3333 3200 8000 100 check 
4444 4800 8000 100 check 
5555 4400 6000 100 check 
8888 2000 6000 100 check 
total pot: 800 
/inquire 

------------



------------


showdown/ 
common/ 
CLUBS A 
HEARTS 9 
CLUBS K 
CLUBS J 
CLUBS 9 
/common 
6: 3333 DIAMONDS 2 SPADES 7 ONE_PAIR 
4: 7777 DIAMONDS 6 SPADES 9 THREE_OF_A_KIND 
3: 6666 SPADES 5 CLUBS 2 FLUSH 
1: 1111 CLUBS 10 DIAMONDS 10 FLUSH 
5: 2222 HEARTS Q DIAMONDS J TWO_PAIR 
5: 8888 SPADES J DIAMONDS 5 TWO_PAIR 
6: 5555 HEARTS 3 HEARTS 5 ONE_PAIR 
2: 4444 CLUBS 3 DIAMONDS 8 FLUSH 
/showdown 

------------



------------


pot-win/ 
1111: 800 
/pot-win 

------------


seat/ 
button: 3333 3200 8000 
small blind: 7777 4000 4000 
big blind: 6666 2800 6000 
1111 4400 8000 
2222 2400 6000 
8888 2000 6000 
5555 4400 6000 
4444 4800 8000 
/seat 

------------


blind/ 
7777: 50 
6666: 100 
/blind 

------------


hold/ 
HEARTS Q 
DIAMONDS J 
/hold 

------------



------------


inquire/ 
2222 2300 6000 100 call 
1111 4300 8000 100 call 
6666 2700 6000 100 blind 
7777 3950 4000 50 blind 
total pot: 350 
/inquire 

------------



------------


flop/ 
CLUBS A 
HEARTS 9 
CLUBS K 
/flop 

------------



------------


inquire/ 
2222 2300 6000 100 check 
1111 4300 8000 100 check 
6666 2700 6000 100 check 
7777 3900 4000 100 check 
3333 3100 8000 100 call 
4444 4700 8000 100 call 
5555 4300 6000 100 call 
8888 1900 6000 100 call 
total pot: 800 
/inquire 

------------



------------


turn/ 
CLUBS J 
/turn 

------------



------------


inquire/ 
2222 2300 6000 100 check 
1111 4300 8000 100 check 
6666 2700 6000 100 check 
7777 3900 4000 100 check 
3333 3100 8000 100 check 
4444 4700 8000 100 check 
5555 4300 6000 100 check 
8888 1900 6000 100 check 
total pot: 800 
/inquire 

------------



------------


river/ 
CLUBS 9 
/river 

------------



------------


inquire/ 
2222 2300 6000 100 check 
1111 4300 8000 100 check 
6666 2700 6000 100 check 
7777 3900 4000 100 check 
3333 3100 8000 100 check 
4444 4700 8000 100 check 
5555 4300 6000 100 check 
8888 1900 6000 100 check 
total pot: 800 
/inquire 

------------



------------


showdown/ 
common/ 
CLUBS A 
HEARTS 9 
CLUBS K 
CLUBS J 
CLUBS 9 
/common 
6: 7777 DIAMONDS 2 SPADES 7 ONE_PAIR 
4: 6666 DIAMONDS 6 SPADES 9 THREE_OF_A_KIND 
3: 1111 SPADES 5 CLUBS 2 FLUSH 
1: 2222 CLUBS 10 DIAMONDS 10 FLUSH 
5: 8888 HEARTS Q DIAMONDS J TWO_PAIR 
5: 5555 SPADES J DIAMONDS 5 TWO_PAIR 
6: 4444 HEARTS 3 HEARTS 5 ONE_PAIR 
2: 3333 CLUBS 3 DIAMONDS 8 FLUSH 
/showdown 

------------



------------


pot-win/ 
2222: 800 
/pot-win 

------------


seat/ 
button: 7777 3900 4000 
small blind: 6666 2700 6000 
big blind: 1111 4300 8000 
2222 3100 6000 
8888 1900 6000 
5555 4300 6000 
4444 4700 8000 
3333 3100 8000 
/seat 

------------


blind/ 
6666: 50 
1111: 100 
/blind 

------------


hold/ 
CLUBS 10 
DIAMONDS 10 
/hold 

------------



------------


inquire/ 
2222 3000 6000 100 call 
1111 4200 8000 100 blind 
6666 2650 6000 50 blind 
total pot: 250 
/inquire 

------------



------------


flop/ 
CLUBS A 
HEARTS 9 
CLUBS K 
/flop 

------------



------------


inquire/ 
2222 3000 6000 100 check 
1111 4200 8000 100 check 
6666 2600 6000 100 check 
7777 3800 4000 100 call 
3333 3000 8000 100 call 
4444 4600 8000 100 call 
5555 4200 6000 100 call 
8888 1800 6000 100 call 
total pot: 800 
/inquire 

------------



------------


turn/ 
CLUBS J 
/turn 

------------



------------


inquire/ 
2222 3000 6000 100 check 
1111 4200 8000 100 check 
6666 2600 6000 100 check 
7777 3800 4000 100 check 
3333 3000 8000 100 check 
4444 4600 8000 100 check 
5555 4200 6000 100 check 
8888 1800 6000 100 check 
total pot: 800 
/inquire 

------------



------------


river/ 
CLUBS 9 
/river 

------------



------------


inquire/ 
2222 3000 6000 100 check 
1111 4200 8000 100 check 
6666 2600 6000 100 check 
7777 3800 4000 100 check 
3333 3000 8000 100 check 
4444 4600 8000 100 check 
5555 4200 6000 100 check 
8888 1800 6000 100 check 
total pot: 800 
/inquire 

------------



------------


showdown/ 
common/ 
CLUBS A 
HEARTS 9 
CLUBS K 
CLUBS J 
CLUBS 9 
/common 
6: 6666 DIAMONDS 2 SPADES 7 ONE_PAIR 
4: 1111 DIAMONDS 6 SPADES 9 THREE_OF_A_KIND 
3: 2222 SPADES 5 CLUBS 2 FLUSH 
1: 8888 CLUBS 10 DIAMONDS 10 FLUSH 
5: 5555 HEARTS Q DIAMONDS J TWO_PAIR 
5: 4444 SPADES J DIAMONDS 5 TWO_PAIR 
6: 3333 HEARTS 3 HEARTS 5 ONE_PAIR 
2: 7777 CLUBS 3 DIAMONDS 8 FLUSH 
/showdown 

------------



------------


pot-win/ 
8888: 800 
/pot-win 

------------


seat/ 
button: 6666 2600 6000 
small blind: 1111 4200 8000 
big blind: 2222 3000 6000 
8888 2600 6000 
5555 4200 6000 
4444 4600 8000 
3333 3000 8000 
7777 3800 4000 
/seat 

------------


blind/ 
1111: 50 
2222: 100 
/blind 

------------


hold/ 
SPADES 5 
CLUBS 2 
/hold 

------------


inquire/ 
2222 2900 6000 100 blind 
1111 4150 8000 50 blind 
total pot: 150 
/inquire 

------------



------------


flop/ 
CLUBS A 
HEARTS 9 
CLUBS K 
/flop 

------------



------------


inquire/ 
2222 2900 6000 100 check 
1111 4100 8000 100 check 
6666 2500 6000 100 call 
7777 3700 4000 100 call 
3333 2900 8000 100 call 
4444 4500 8000 100 call 
5555 4100 6000 100 call 
8888 2500 6000 100 call 
total pot: 800 
/inquire 

------------



------------


turn/ 
CLUBS J 
/turn 

------------



------------


inquire/ 
2222 2900 6000 100 check 
1111 4100 8000 100 check 
6666 2500 6000 100 check 
7777 3700 4000 100 check 
3333 2900 8000 100 check 
4444 4500 8000 100 check 
5555 4100 6000 100 check 
8888 2500 6000 100 check 
total pot: 800 
/inquire 

------------



------------


river/ 
CLUBS 9 
/river 

------------



------------


inquire/ 
2222 2900 6000 100 check 
1111 4100 8000 100 check 
6666 2500 6000 100 check 
7777 3700 4000 100 check 
3333 2900 8000 100 check 
4444 4500 8000 100 check 
5555 4100 6000 100 check 
8888 2500 6000 100 check 
total pot: 800 
/inquire 

------------



------------


showdown/ 
common/ 
CLUBS A 
HEARTS 9 
CLUBS K 
CLUBS J 
CLUBS 9 
/common 
6: 1111 DIAMONDS 2 SPADES 7 ONE_PAIR 
4: 2222 DIAMONDS 6 SPADES 9 THREE_OF_A_KIND 
3: 8888 SPADES 5 CLUBS 2 FLUSH 
1: 5555 CLUBS 10 DIAMONDS 10 FLUSH 
5: 4444 HEARTS Q DIAMONDS J TWO_PAIR 
5: 3333 SPADES J DIAMONDS 5 TWO_PAIR 
6: 7777 HEARTS 3 HEARTS 5 ONE_PAIR 
2: 6666 CLUBS 3 DIAMONDS 8 FLUSH 
/showdown 

------------



------------


pot-win/ 
5555: 800 
/pot-win 

------------


seat/ 
button: 1111 4100 8000 
small blind: 2222 2900 6000 
big blind: 8888 2500 6000 
5555 4900 6000 
4444 4500 8000 
3333 2900 8000 
7777 3700 4000 
6666 2500 6000 
/seat 

------------


blind/ 
2222: 50 
8888: 100 
/blind 

------------


hold/ 
CLUBS K 
DIAMONDS Q 
/hold 

------------



------------


inquire/ 
2222 2800 6000 100 call 
1111 4000 8000 100 call 
6666 2400 6000 100 call 
7777 3600 4000 100 call 
3333 2800 8000 100 call 
4444 4400 8000 100 call 
5555 4800 6000 100 call 
8888 2400 6000 100 blind 
total pot: 800 
/inquire 

------------



------------


flop/ 
DIAMONDS 10 
CLUBS 9 
CLUBS 8 
/flop 

------------



------------


inquire/ 
2222 2800 6000 100 check 
1111 4000 8000 100 call 
6666 2400 6000 100 call 
7777 3600 4000 100 call 
3333 2800 8000 100 call 
4444 4400 8000 100 call 
5555 4800 6000 100 call 
8888 2400 6000 100 check 
total pot: 800 
/inquire 

------------



------------


turn/ 
DIAMONDS 5 
/turn 

------------



------------


inquire/ 
2222 2800 6000 100 check 
1111 4000 8000 100 check 
6666 2400 6000 100 check 
7777 3600 4000 100 check 
3333 2800 8000 100 check 
4444 4400 8000 100 check 
5555 4800 6000 100 check 
8888 2400 6000 100 check 
total pot: 800 
/inquire 

------------



------------


river/ 
CLUBS 5 
/river 

------------



------------


inquire/ 
2222 2800 6000 100 check 
1111 4000 8000 100 check 
6666 2400 6000 100 check 
7777 3600 4000 100 check 
3333 2800 8000 100 check 
4444 4400 8000 100 check 
5555 4800 6000 100 check 
8888 2400 6000 100 check 
total pot: 800 
/inquire 

------------



------------


showdown/ 
common/ 
DIAMONDS 10 
CLUBS 9 
CLUBS 8 
DIAMONDS 5 
CLUBS 5 
/common 
3: 2222 DIAMONDS 8 HEARTS J TWO_PAIR 
5: 8888 CLUBS K DIAMONDS Q ONE_PAIR 
4: 5555 CLUBS A DIAMONDS 3 ONE_PAIR 
1: 4444 SPADES 6 CLUBS 7 STRAIGHT 
7: 3333 SPADES 2 DIAMONDS 6 ONE_PAIR 
7: 7777 CLUBS 6 SPADES 4 ONE_PAIR 
2: 6666 SPADES 10 DIAMONDS 7 TWO_PAIR 
6: 1111 HEARTS 3 CLUBS Q ONE_PAIR 
/showdown 

------------



------------


pot-win/ 
4444: 800 
/pot-win 

------------


seat/ 
button: 2222 2800 6000 
small blind: 8888 2400 6000 
big blind: 5555 4800 6000 
4444 5200 8000 
3333 2800 8000 
7777 3600 4000 
6666 2400 6000 
1111 4000 8000 
/seat 

------------


blind/ 
8888: 50 
5555: 100 
/blind 

------------


hold/ 
DIAMONDS 8 
HEARTS J 
/hold 

------------



------------


inquire/ 
2222 2700 6000 100 call 
1111 3900 8000 100 call 
6666 2300 6000 100 call 
7777 3500 4000 100 call 
3333 2700 8000 100 call 
4444 5100 8000 100 call 
5555 4700 6000 100 blind 
8888 2350 6000 50 blind 
total pot: 750 
/inquire 

------------



------------


flop/ 
DIAMONDS 10 
CLUBS 9 
CLUBS 8 
/flop 

------------



------------


inquire/ 
2222 2700 6000 100 call 
1111 3900 8000 100 call 
6666 2300 6000 100 call 
7777 3500 4000 100 call 
3333 2700 8000 100 call 
4444 5100 8000 100 call 
5555 4700 6000 100 check 
8888 2300 6000 100 call 
total pot: 800 
/inquire 

------------



------------


turn/ 
DIAMONDS 5 
/turn 

------------



------------


inquire/ 
2222 2700 6000 100 check 
1111 3900 8000 100 check 
6666 2300 6000 100 check 
7777 3500 4000 100 check 
3333 2700 8000 100 check 
4444 5100 8000 100 check 
5555 4700 6000 100 check 
8888 2300 6000 100 check 
total pot: 800 
/inquire 

------------



------------


river/ 
CLUBS 5 
/river 

------------



------------


inquire/ 
2222 2700 6000 100 check 
1111 3900 8000 100 check 
6666 2300 6000 100 check 
7777 3500 4000 100 check 
3333 2700 8000 100 check 
4444 5100 8000 100 check 
5555 4700 6000 100 check 
8888 2300 6000 100 check 
total pot: 800 
/inquire 

------------



------------


showdown/ 
common/ 
DIAMONDS 10 
CLUBS 9 
CLUBS 8 
DIAMONDS 5 
CLUBS 5 
/common 
3: 8888 DIAMONDS 8 HEARTS J TWO_PAIR 
5: 5555 CLUBS K DIAMONDS Q ONE_PAIR 
4: 4444 CLUBS A DIAMONDS 3 ONE_PAIR 
1: 3333 SPADES 6 CLUBS 7 STRAIGHT 
7: 7777 SPADES 2 DIAMONDS 6 ONE_PAIR 
7: 6666 CLUBS 6 SPADES 4 ONE_PAIR 
2: 1111 SPADES 10 DIAMONDS 7 TWO_PAIR 
6: 2222 HEARTS 3 CLUBS Q ONE_PAIR 
/showdown 

------------



------------


pot-win/ 
3333: 800 
/pot-win 

------------


seat/ 
button: 8888 2300 6000 
small blind: 5555 4700 6000 
big blind: 4444 5100 8000 
3333 3500 8000 
7777 3500 4000 
6666 2300 6000 
1111 3900 8000 
2222 2700 6000 
/seat 

------------


blind/ 
5555: 50 
4444: 100 
/blind 

------------


hold/ 
HEARTS 3 
CLUBS Q 
/hold 

------------



------------


inquire/ 
2222 2600 6000 100 call 
1111 3800 8000 100 call 
6666 2200 6000 100 call 
7777 3400 4000 100 call 
3333 3400 8000 100 call 
4444 5000 8000 100 blind 
5555 4650 6000 50 blind 
total pot: 650 
/inquire 

------------



------------


flop/ 
DIAMONDS 10 
CLUBS 9 
CLUBS 8 
/flop 

------------



------------


inquire/ 
2222 2600 6000 100 check 
1111 3800 8000 100 check 
6666 2200 6000 100 check 
7777 3400 4000 100 check 
3333 3400 8000 100 check 
4444 5000 8000 100 check 
5555 4600 6000 100 check 
8888 2200 6000 100 call 
total pot: 800 
/inquire 

------------



------------


turn/ 
DIAMONDS 5 
/turn 

------------



------------


inquire/ 
2222 2600 6000 100 check 
1111 3800 8000 100 check 
6666 2200 6000 100 check 
7777 3400 4000 100 check 
3333 3400 8000 100 check 
4444 5000 8000 100 check 
5555 4600 6000 100 check 
8888 2200 6000 100 check 
total pot: 800 
/inquire 

------------



------------


river/ 
CLUBS 5 
/river 

------------



------------


inquire/ 
2222 2600 6000 100 check 
1111 3800 8000 100 check 
6666 2200 6000 100 check 
7777 3400 4000 100 check 
3333 3400 8000 100 check 
4444 5000 8000 100 check 
5555 4600 6000 100 check 
8888 2200 6000 100 check 
total pot: 800 
/inquire 

------------



------------


showdown/ 
common/ 
DIAMONDS 10 
CLUBS 9 
CLUBS 8 
DIAMONDS 5 
CLUBS 5 
/common 
3: 5555 DIAMONDS 8 HEARTS J TWO_PAIR 
5: 4444 CLUBS K DIAMONDS Q ONE_PAIR 
4: 3333 CLUBS A DIAMONDS 3 ONE_PAIR 
1: 7777 SPADES 6 CLUBS 7 STRAIGHT 
7: 6666 SPADES 2 DIAMONDS 6 ONE_PAIR 
7: 1111 CLUBS 6 SPADES 4 ONE_PAIR 
2: 2222 SPADES 10 DIAMONDS 7 TWO_PAIR 
6: 8888 HEARTS 3 CLUBS Q ONE_PAIR 
/showdown 

------------



------------


pot-win/ 
7777: 800 
/pot-win 

------------


seat/ 
button: 5555 4600 6000 
small blind: 4444 5000 8000 
big blind: 3333 3400 8000 
7777 4200 4000 
6666 2200 6000 
1111 3800 8000 
2222 2600 6000 
8888 2200 6000 
/seat 

------------


blind/ 
4444: 50 
3333: 100 
/blind 

------------


hold/ 
SPADES 10 
DIAMONDS 7 
/hold 

------------



------------


inquire/ 
2222 2500 6000 100 call 
1111 3700 8000 100 call 
6666 2100 6000 100 call 
7777 4100 4000 100 call 
3333 3300 8000 100 blind 
4444 4950 8000 50 blind 
total pot: 550 
/inquire 

------------



------------


flop/ 
DIAMONDS 10 
CLUBS 9 
CLUBS 8 
/flop 

------------



------------


inquire/ 
2222 2500 6000 100 check 
1111 3700 8000 100 check 
6666 2100 6000 100 check 
7777 4100 4000 100 check 
3333 3300 8000 100 check 
4444 4900 8000 100 check 
5555 4500 6000 100 call 
8888 2100 6000 100 call 
total pot: 800 
/inquire 

------------



------------


turn/ 
DIAMONDS 5 
/turn 

------------



------------


inquire/ 
2222 2500 6000 100 check 
1111 3700 8000 100 check 
6666 2100 6000 100 check 
7777 4100 4000 100 check 
3333 3300 8000 100 check 
4444 4900 8000 100 check 
5555 4500 6000 100 check 
8888 2100 6000 100 check 
total pot: 800 
/inquire 

------------



------------


river/ 
CLUBS 5 
/river 

------------



------------


inquire/ 
2222 2500 6000 100 check 
1111 3700 8000 100 check 
6666 2100 6000 100 check 
7777 4100 4000 100 check 
3333 3300 8000 100 check 
4444 4900 8000 100 check 
5555 4500 6000 100 check 
8888 2100 6000 100 check 
total pot: 800 
/inquire 

------------



------------


showdown/ 
common/ 
DIAMONDS 10 
CLUBS 9 
CLUBS 8 
DIAMONDS 5 
CLUBS 5 
/common 
3: 4444 DIAMONDS 8 HEARTS J TWO_PAIR 
5: 3333 CLUBS K DIAMONDS Q ONE_PAIR 
4: 7777 CLUBS A DIAMONDS 3 ONE_PAIR 
1: 6666 SPADES 6 CLUBS 7 STRAIGHT 
7: 1111 SPADES 2 DIAMONDS 6 ONE_PAIR 
7: 2222 CLUBS 6 SPADES 4 ONE_PAIR 
2: 8888 SPADES 10 DIAMONDS 7 TWO_PAIR 
6: 5555 HEARTS 3 CLUBS Q ONE_PAIR 
/showdown 

------------



------------


pot-win/ 
6666: 800 
/pot-win 

------------


seat/ 
button: 4444 4900 8000 
small blind: 3333 3300 8000 
big blind: 7777 4100 4000 
6666 2900 6000 
1111 3700 8000 
2222 2500 6000 
8888 2100 6000 
5555 4500 6000 
/seat 

------------


blind/ 
3333: 50 
7777: 100 
/blind 

------------


hold/ 
CLUBS 6 
SPADES 4 
/hold 

------------



------------


inquire/ 
2222 2400 6000 100 call 
1111 3600 8000 100 call 
6666 2800 6000 100 call 
7777 4000 4000 100 blind 
3333 3250 8000 50 blind 
total pot: 450 
/inquire 

------------



------------


flop/ 
DIAMONDS 10 
CLUBS 9 
CLUBS 8 
/flop 

------------



------------


inquire/ 
2222 2400 6000 100 check 
1111 3600 8000 100 check 
6666 2800 6000 100 check 
7777 4000 4000 100 check 
3333 3200 8000 100 check 
4444 4800 8000 100 call 
5555 4400 6000 100 call 
8888 2000 6000 100 call 
total pot: 800 
/inquire 

------------



------------


turn/ 
DIAMONDS 5 
/turn 

------------



------------


inquire/ 
2222 2400 6000 100 check 
1111 3600 8000 100 check 
6666 2800 6000 100 check 
7777 4000 4000 100 check 
3333 3200 8000 100 check 
4444 4800 8000 100 check 
5555 4400 6000 100 check 
8888 2000 6000 100 check 
total pot: 800 
/inquire 

------------



------------


river/ 
CLUBS 5 
/river 

------------



------------


inquire/ 
2222 2400 6000 100 check 
1111 3600 8000 100 check 
6666 2800 6000 100 check 
7777 4000 4000 100 check 
3333 3200 8000 100 check 
4444 4800 8000 100 check 
5555 4400 6000 100 check 
8888 2000 6000 100 check 
total pot: 800 
/inquire 

------------



------------


showdown/ 
common/ 
DIAMONDS 10 
CLUBS 9 
CLUBS 8 
DIAMONDS 5 
CLUBS 5 
/common 
3: 3333 DIAMONDS 8 HEARTS J TWO_PAIR 
5: 7777 CLUBS K DIAMONDS Q ONE_PAIR 
4: 6666 CLUBS A DIAMONDS 3 ONE_PAIR 
1: 1111 SPADES 6 CLUBS 7 STRAIGHT 
7: 2222 SPADES 2 DIAMONDS 6 ONE_PAIR 
7: 8888 CLUBS 6 SPADES 4 ONE_PAIR 
2: 5555 SPADES 10 DIAMONDS 7 TWO_PAIR 
6: 4444 HEARTS 3 CLUBS Q ONE_PAIR 
/showdown 

------------



------------


pot-win/ 
1111: 800 
/pot-win 

------------


seat/ 
button: 3333 3200 8000 
small blind: 7777 4000 4000 
big blind: 6666 2800 6000 
1111 4400 8000 
2222 2400 6000 
8888 2000 6000 
5555 4400 6000 
4444 4800 8000 
/seat 

------------


blind/ 
7777: 50 
6666: 100 
/blind 

------------


hold/ 
SPADES 2 
DIAMONDS 6 
/hold 

------------


inquire/ 
2222 2300 6000 100 call 
1111 4300 8000 100 call 
6666 2700 6000 100 blind 
7777 3950 4000 50 blind 
total pot: 350 
/inquire 

------------



------------


flop/ 
DIAMONDS 10 
CLUBS 9 
CLUBS 8 
/flop 

------------



------------


inquire/ 
2222 2300 6000 100 check 
1111 4300 8000 100 check 
6666 2700 6000 100 check 
7777 3900 4000 100 check 
3333 3100 8000 100 call 
4444 4700 8000 100 call 
5555 4300 6000 100 call 
8888 1900 6000 100 call 
total pot: 800 
/inquire 

------------



------------


turn/ 
DIAMONDS 5 
/turn 

------------



------------


inquire/ 
2222 2300 6000 100 check 
1111 4300 8000 100 check 
6666 2700 6000 100 check 
7777 3900 4000 100 check 
3333 3100 8000 100 check 
4444 4700 8000 100 check 
5555 4300 6000 100 check 
8888 1900 6000 100 check 
total pot: 800 
/inquire 

------------



------------


river/ 
CLUBS 5 
/river 

------------



------------


inquire/ 
2222 2300 6000 100 check 
1111 4300 8000 100 check 
6666 2700 6000 100 check 
7777 3900 4000 100 check 
3333 3100 8000 100 check 
4444 4700 8000 100 check 
5555 4300 6000 100 check 
8888 1900 6000 100 check 
total pot: 800 
/inquire 

------------



------------


showdown/ 
common/ 
DIAMONDS 10 
CLUBS 9 
CLUBS 8 
DIAMONDS 5 
CLUBS 5 
/common 
3: 7777 DIAMONDS 8 HEARTS J TWO_PAIR 
5: 6666 CLUBS K DIAMONDS Q ONE_PAIR 
4: 1111 CLUBS A DIAMONDS 3 ONE_PAIR 
1: 2222 SPADES 6 CLUBS 7 STRAIGHT 
7: 8888 SPADES 2 DIAMONDS 6 ONE_PAIR 
7: 5555 CLUBS 6 SPADES 4 ONE_PAIR 
2: 4444 SPADES 10 DIAMONDS 7 TWO_PAIR 
6: 3333 HEARTS 3 CLUBS Q ONE_PAIR 
/showdown 

------------



------------


pot-win/ 
2222: 800 
/pot-win 

------------


seat/ 
button: 7777 3900 4000 
small blind: 6666 2700 6000 
big blind: 1111 4300 8000 
2222 3100 6000 
8888 1900 6000 
5555 4300 6000 
4444 4700 8000 
3333 3100 8000 
/seat 

------------


blind/ 
6666: 50 
1111: 100 
/blind 

------------


hold/ 
CLUBS 8 
SPADES 7 
/hold 

------------



------------


inquire/ 
2222 3000 6000 100 call 
1111 4200 8000 100 blind 
6666 2650 6000 50 blind 
total pot: 250 
/inquire 

------------



------------


flop/ 
DIAMONDS 9 
DIAMONDS 10 
HEARTS 3 
/flop 

------------



------------


inquire/ 
2222 3000 6000 100 check 
1111 4200 8000 100 check 
6666 2600 6000 100 check 
7777 3800 4000 100 call 
3333 3000 8000 100 call 
4444 4600 8000 100 call 
5555 4200 6000 100 call 
8888 1800 6000 100 call 
total pot: 800 
/inquire 

------------



------------


turn/ 
CLUBS J 
/turn 

------------



------------


inquire/ 
2222 3000 6000 100 check 
1111 4200 8000 100 check 
6666 2600 6000 100 check 
7777 3800 4000 100 check 
3333 3000 8000 100 check 
4444 4600 8000 100 check 
5555 4200 6000 100 check 
8888 1800 6000 100 check 
total pot: 800 
/inquire 

------------



------------


river/ 
HEARTS Q 
/river 

------------



------------


inquire/ 
2222 3000 6000 100 check 
1111 4200 8000 100 check 
6666 2600 6000 100 check 
7777 3800 4000 100 check 
3333 3000 8000 100 check 
4444 4600 8000 100 check 
5555 4200 6000 100 check 
8888 1800 6000 100 check 
total pot: 800 
/inquire 

------------



------------


showdown/ 
common/ 
DIAMONDS 9 
DIAMONDS 10 
HEARTS 3 
CLUBS J 
HEARTS Q 
/common 
3: 6666 SPADES 3 HEARTS 10 TWO_PAIR 
2: 1111 HEARTS 8 SPADES 2 STRAIGHT 
1: 2222 DIAMONDS 5 DIAMONDS K STRAIGHT 
2: 8888 CLUBS 8 SPADES 7 STRAIGHT 
6: 5555 HEARTS 6 CLUBS A HIGH_CARD 
4: 4444 SPADES 5 SPADES Q ONE_PAIR 
5: 3333 SPADES 10 HEARTS 7 ONE_PAIR 
2: 7777 DIAMONDS 8 CLUBS 10 STRAIGHT 
/showdown 

------------



------------


pot-win/ 
2222: 800 
/pot-win 

------------


seat/ 
button: 6666 2600 6000 
small blind: 1111 4200 8000 
big blind: 2222 3800 6000 
8888 1800 6000 
5555 4200 6000 
4444 4600 8000 
3333 3000 8000 
7777 3800 4000 
/seat 

------------


blind/ 
1111: 50 
2222: 100 
/blind 

------------


hold/ 
DIAMONDS 5 
DIAMONDS K 
/hold 

------------


inquire/ 
2222 3700 6000 100 blind 
1111 4150 8000 50 blind 
total pot: 150 
/inquire 

------------



------------


flop/ 
DIAMONDS 9 
DIAMONDS 10 
HEARTS 3 
/flop 

------------



------------


inquire/ 
2222 3700 6000 100 check 
1111 4100 8000 100 check 
6666 2500 6000 100 call 
7777 3700 4000 100 call 
3333 2900 8000 100 call 
4444 4500 8000 100 call 
5555 4100 6000 100 call 
8888 1700 6000 100 call 
total pot: 800 
/inquire 

------------



------------


turn/ 
CLUBS J 
/turn 

------------



------------


inquire/ 
2222 3700 6000 100 check 
1111 4100 8000 100 check 
6666 2500 6000 100 check 
7777 3700 4000 100 check 
3333 2900 8000 100 check 
4444 4500 8000 100 check 
5555 4100 6000 100 check 
8888 1700 6000 100 check 
total pot: 800 
/inquire 

------------



------------


river/ 
HEARTS Q 
/river 

------------



------------


inquire/ 
2222 3700 6000 100 check 
1111 4100 8000 100 check 
6666 2500 6000 100 check 
7777 3700 4000 100 check 
3333 2900 8000 100 check 
4444 4500 8000 100 check 
5555 4100 6000 100 check 
8888 1700 6000 100 check 
total pot: 800 
/inquire 

------------



------------


showdown/ 
common/ 
DIAMONDS 9 
DIAMONDS 10 
HEARTS 3 
CLUBS J 
HEARTS Q 
/common 
3: 1111 SPADES 3 HEARTS 10 TWO_PAIR 
2: 2222 HEARTS 8 SPADES 2 STRAIGHT 
1: 8888 DIAMONDS 5 DIAMONDS K STRAIGHT 
2: 5555 CLUBS 8 SPADES 7 STRAIGHT 
6: 4444 HEARTS 6 CLUBS A HIGH_CARD 
4: 3333 SPADES 5 SPADES Q ONE_PAIR 
5: 7777 SPADES 10 HEARTS 7 ONE_PAIR 
2: 6666 DIAMONDS 8 CLUBS 10 STRAIGHT 
/showdown 

------------



------------


pot-win/ 
8888: 800 
/pot-win 

------------


seat/ 
button: 1111 4100 8000 
small blind: 2222 3700 6000 
big blind: 8888 2500 6000 
5555 4100 6000 
4444 4500 8000 
3333 2900 8000 
7777 3700 4000 
6666 2500 6000 
/seat 

------------


blind/ 
2222: 50 
8888: 100 
/blind 

------------


hold/ 
HEARTS 8 
SPADES 2 
/hold 

------------



------------


inquire/ 
2222 3600 6000 100 call 
1111 4000 8000 100 call 
6666 2400 6000 100 call 
7777 3600 4000 100 call 
3333 2800 8000 100 call 
4444 4400 8000 100 call 
5555 4000 6000 100 call 
8888 2400 6000 100 blind 
total pot: 800 
/inquire 

------------



------------


flop/ 
DIAMONDS 9 
DIAMONDS 10 
HEARTS 3 
/flop 

------------



------------


inquire/ 
2222 3600 6000 100 check 
1111 4000 8000 100 call 
6666 2400 6000 100 call 
7777 3600 4000 100 call 
3333 2800 8000 100 call 
4444 4400 8000 100 call 
5555 4000 6000 100 call 
8888 2400 6000 100 check 
total pot: 800 
/inquire 

------------



------------


turn/ 
CLUBS J 
/turn 

------------



------------


inquire/ 
2222 3600 6000 100 check 
1111 4000 8000 100 check 
6666 2400 6000 100 check 
7777 3600 4000 100 check 
3333 2800 8000 100 check 
4444 4400 8000 100 check 
5555 4000 6000 100 check 
8888 2400 6000 100 check 
total pot: 800 
/inquire 

------------



------------


river/ 
HEARTS Q 
/river 

------------



------------


inquire/ 
2222 3600 6000 100 check 
1111 4000 8000 100 check 
6666 2400 6000 100 check 
7777 3600 4000 100 check 
3333 2800 8000 100 check 
4444 4400 8000 100 check 
5555 4000 6000 100 check 
8888 2400 6000 100 check 
total pot: 800 
/inquire 

------------



------------


showdown/ 
common/ 
DIAMONDS 9 
DIAMONDS 10 
HEARTS 3 
CLUBS J 
HEARTS Q 
/common 
3: 2222 SPADES 3 HEARTS 10 TWO_PAIR 
2: 8888 HEARTS 8 SPADES 2 STRAIGHT 
1: 5555 DIAMONDS 5 DIAMONDS K STRAIGHT 
2: 4444 CLUBS 8 SPADES 7 STRAIGHT 
6: 3333 HEARTS 6 CLUBS A HIGH_CARD 
4: 7777 SPADES 5 SPADES Q ONE_PAIR 
5: 6666 SPADES 10 HEARTS 7 ONE_PAIR 
2: 1111 DIAMONDS 8 CLUBS 10 STRAIGHT 
/showdown 

------------



------------


pot-win/ 
5555: 800 
/pot-win 

------------


seat/ 
button: 2222 3600 6000 
small blind: 8888 2400 6000 
big blind: 5555 4800 6000 
4444 4400 8000 
3333 2800 8000 
7777 3600 4000 
6666 2400 6000 
1111 4000 8000 
/seat 

------------


blind/ 
8888: 50 
5555: 100 
/blind 

------------


hold/ 
SPADES 3 
HEARTS 10 
/hold 

------------



------------


inquire/ 
2222 3500 6000 100 call 
1111 3900 8000 100 call 
6666 2300 6000 100 call 
7777 3500 4000 100 call 
3333 2700 8000 100 call 
4444 4300 8000 100 call 
5555 4700 6000 100 blind 
8888 2350 6000 50 blind 
total pot: 750 
/inquire 

------------



------------


flop/ 
DIAMONDS 9 
DIAMONDS 10 
HEARTS 3 
/flop 

------------



------------


inquire/ 
2222 3500 6000 100 call 
1111 3900 8000 100 call 
6666 2300 6000 100 call 
7777 3500 4000 100 call 
3333 2700 8000 100 call 
4444 4300 8000 100 call 
5555 4700 6000 100 check 
8888 2300 6000 100 call 
total pot: 800 
/inquire 

------------



------------


turn/ 
CLUBS J 
/turn 

------------



------------


inquire/ 
2222 3500 6000 100 check 
1111 3900 8000 100 check 
6666 2300 6000 100 check 
7777 3500 4000 100 check 
3333 2700 8000 100 check 
4444 4300 8000 100 check 
5555 4700 6000 100 check 
8888 2300 6000 100 check 
total pot: 800 
/inquire 

------------



------------


river/ 
HEARTS Q 
/river 

------------



------------


inquire/ 
2222 3500 6000 100 check 
1111 3900 8000 100 check 
6666 2300 6000 100 check 
7777 3500 4000 100 check 
3333 2700 8000 100 check 
4444 4300 8000 100 check 
5555 4700 6000 100 check 
8888 2300 6000 100 check 
total pot: 800 
/inquire 

------------



------------


showdown/ 
common/ 
DIAMONDS 9 
DIAMONDS 10 
HEARTS 3 
CLUBS J 
HEARTS Q 
/common 
3: 8888 SPADES 3 HEARTS 10 TWO_PAIR 
2: 5555 HEARTS 8 SPADES 2 STRAIGHT 
1: 4444 DIAMONDS 5 DIAMONDS K STRAIGHT 
2: 3333 CLUBS 8 SPADES 7 STRAIGHT 
6: 7777 HEARTS 6 CLUBS A HIGH_CARD 
4: 6666 SPADES 5 SPADES Q ONE_PAIR 
5: 1111 SPADES 10 HEARTS 7 ONE_PAIR 
2: 2222 DIAMONDS 8 CLUBS 10 STRAIGHT 
/showdown 

------------



------------


pot-win/ 
4444: 800 
/pot-win 

------------


seat/ 
button: 8888 2300 6000 
small blind: 5555 4700 6000 
big blind: 4444 5100 8000 
3333 2700 8000 
7777 3500 4000 
6666 2300 6000 
1111 3900 8000 
2222 3500 6000 
/seat 

------------


blind/ 
5555: 50 
4444: 100 
/blind 

------------


hold/ 
DIAMONDS 8 
CLUBS 10 
/hold 

------------



------------


inquire/ 
2222 3400 6000 100 call 
1111 3800 8000 100 call 
6666 2200 6000 100 call 
7777 3400 4000 100 call 
3333 2600 8000 100 call 
4444 5000 8000 100 blind 
5555 4650 6000 50 blind 
total pot: 650 
/inquire 

------------



------------


flop/ 
DIAMONDS 9 
DIAMONDS 10 
HEARTS 3 
/flop 

------------



------------


inquire/ 
2222 3400 6000 100 check 
1111 3800 8000 100 check 
6666 2200 6000 100 check 
7777 3400 4000 100 check 
3333 2600 8000 100 check 
4444 5000 8000 100 check 
5555 4600 6000 100 check 
8888 2200 6000 100 call 
total pot: 800 
/inquire 

------------



------------


turn/ 
CLUBS J 
/turn 

------------



------------


inquire/ 
2222 3400 6000 100 check 
1111 3800 8000 100 check 
6666 2200 6000 100 check 
7777 3400 4000 100 check 
3333 2600 8000 100 check 
4444 5000 8000 100 check 
5555 4600 6000 100 check 
8888 2200 6000 100 check 
total pot: 800 
/inquire 

------------



------------


river/ 
HEARTS Q 
/river 

------------



------------


inquire/ 
2222 3400 6000 100 check 
1111 3800 8000 100 check 
6666 2200 6000 100 check 
7777 3400 4000 100 check 
3333 2600 8000 100 check 
4444 5000 8000 100 check 
5555 4600 6000 100 check 
8888 2200 6000 100 check 
total pot: 800 
/inquire 

------------



------------


showdown/ 
common/ 
DIAMONDS 9 
DIAMONDS 10 
HEARTS 3 
CLUBS J 
HEARTS Q 
/common 
3: 5555 SPADES 3 HEARTS 10 TWO_PAIR 
2: 4444 HEARTS 8 SPADES 2 STRAIGHT 
1: 3333 DIAMONDS 5 DIAMONDS K STRAIGHT 
2: 7777 CLUBS 8 SPADES 7 STRAIGHT 
6: 6666 HEARTS 6 CLUBS A HIGH_CARD 
4: 1111 SPADES 5 SPADES Q ONE_PAIR 
5: 2222 SPADES 10 HEARTS 7 ONE_PAIR 
2: 8888 DIAMONDS 8 CLUBS 10 STRAIGHT 
/showdown 

------------



------------


pot-win/ 
3333: 800 
/pot-win 

------------


seat/ 
button: 5555 4600 6000 
small blind: 4444 5000 8000 
big blind: 3333 3400 8000 
7777 3400 4000 
6666 2200 6000 
1111 3800 8000 
2222 3400 6000 
8888 2200 6000 
/seat 

------------


blind/ 
4444: 50 
3333: 100 
/blind 

------------


hold/ 
SPADES A 
HEARTS 3 
/hold 

------------



------------


inquire/ 
2222 3300 6000 100 call 
1111 3700 8000 100 call 
6666 2100 6000 100 call 
7777 3300 4000 100 call 
3333 3300 8000 100 blind 
4444 4950 8000 50 blind 
total pot: 550 
/inquire 

------------



------------


flop/ 
SPADES 6 
CLUBS 3 
DIAMONDS J 
/flop 

------------



------------


inquire/ 
2222 3300 6000 100 check 
1111 3700 8000 100 check 
6666 2100 6000 100 check 
7777 3300 4000 100 check 
3333 3300 8000 100 check 
4444 4900 8000 100 check 
5555 4500 6000 100 call 
8888 2100 6000 100 call 
total pot: 800 
/inquire 

------------



------------


turn/ 
DIAMONDS 6 
/turn 

------------



------------


inquire/ 
2222 3300 6000 100 check 
1111 3700 8000 100 check 
6666 2100 6000 100 check 
7777 3300 4000 100 check 
3333 3300 8000 100 check 
4444 4900 8000 100 check 
5555 4500 6000 100 check 
8888 2100 6000 100 check 
total pot: 800 
/inquire 

------------



------------


river/ 
DIAMONDS 4 
/river 

------------



------------


inquire/ 
2222 3300 6000 100 check 
1111 3700 8000 100 check 
6666 2100 6000 100 check 
7777 3300 4000 100 check 
3333 3300 8000 100 check 
4444 4900 8000 100 check 
5555 4500 6000 100 check 
8888 2100 6000 100 check 
total pot: 800 
/inquire 

------------



------------


showdown/ 
common/ 
SPADES 6 
CLUBS 3 
DIAMONDS J 
DIAMONDS 6 
DIAMONDS 4 
/common 
6: 4444 HEARTS K CLUBS 9 ONE_PAIR 
8: 3333 HEARTS 9 DIAMONDS 7 ONE_PAIR 
1: 7777 SPADES J CLUBS 6 FULL_HOUSE 
3: 6666 DIAMONDS A CLUBS J TWO_PAIR 
7: 1111 HEARTS 2 CLUBS K ONE_PAIR 
5: 2222 DIAMONDS 2 HEARTS A ONE_PAIR 
4: 8888 SPADES A HEARTS 3 TWO_PAIR 
2: 5555 DIAMONDS K DIAMONDS Q FLUSH 
/showdown 

------------



------------


pot-win/ 
7777: 800 
/pot-win 

------------


seat/ 
button: 4444 4900 8000 
small blind: 3333 3300 8000 
big blind: 7777 4100 4000 
6666 2100 6000 
1111 3700 8000 
2222 3300 6000 
8888 2100 6000 
5555 4500 6000 
/seat 

------------


blind/ 
3333: 50 
7777: 100 
/blind 

------------


hold/ 
DIAMONDS 2 
HEARTS A 
/hold 

------------



------------


inquire/ 
2222 3200 6000 100 call 
1111 3600 8000 100 call 
6666 2000 6000 100 call 
7777 4000 4000 100 blind 
3333 3250 8000 50 blind 
total pot: 450 
/inquire 

------------



------------


flop/ 
SPADES 6 
CLUBS 3 
DIAMONDS J 
/flop 

------------



------------


inquire/ 
2222 3200 6000 100 check 
1111 3600 8000 100 check 
6666 2000 6000 100 check 
7777 4000 4000 100 check 
3333 3200 8000 100 check 
4444 4800 8000 100 call 
5555 4400 6000 100 call 
8888 2000 6000 100 call 
total pot: 800 
/inquire 

------------



------------


turn/ 
DIAMONDS 6 
/turn 

------------



------------


inquire/ 
2222 3200 6000 100 check 
1111 3600 8000 100 check 
6666 2000 6000 100 check 
7777 4000 4000 100 check 
3333 3200 8000 100 check 
4444 4800 8000 100 check 
5555 4400 6000 100 check 
8888 2000 6000 100 check 
total pot: 800 
/inquire 

------------



------------


river/ 
DIAMONDS 4 
/river 

------------



------------


inquire/ 
2222 3200 6000 100 check 
1111 3600 8000 100 check 
6666 2000 6000 100 check 
7777 4000 4000 100 check 
3333 3200 8000 100 check 
4444 4800 8000 100 check 
5555 4400 6000 100 check 
8888 2000 6000 100 check 
total pot: 800 
/inquire 

------------



------------


showdown/ 
common/ 
SPADES 6 
CLUBS 3 
DIAMONDS J 
DIAMONDS 6 
DIAMONDS 4 
/common 
6: 3333 HEARTS K CLUBS 9 ONE_PAIR 
8: 7777 HEARTS 9 DIAMONDS 7 ONE_PAIR 
1: 6666 SPADES J CLUBS 6 FULL_HOUSE 
3: 1111 DIAMONDS A CLUBS J TWO_PAIR 
7: 2222 HEARTS 2 CLUBS K ONE_PAIR 
5: 8888 DIAMONDS 2 HEARTS A ONE_PAIR 
4: 5555 SPADES A HEARTS 3 TWO_PAIR 
2: 4444 DIAMONDS K DIAMONDS Q FLUSH 
/showdown 

------------



------------


pot-win/ 
6666: 800 
/pot-win 

------------


seat/ 
button: 3333 3200 8000 
small blind: 7777 4000 4000 
big blind: 6666 2800 6000 
1111 3600 8000 
2222 3200 6000 
8888 2000 6000 
5555 4400 6000 
4444 4800 8000 
/seat 

------------


blind/ 
7777: 50 
6666: 100 
/blind 

------------


hold/ 
HEARTS 2 
CLUBS K 
/hold 

------------



------------


inquire/ 
2222 3100 6000 100 call 
1111 3500 8000 100 call 
6666 2700 6000 100 blind 
7777 3950 4000 50 blind 
total pot: 350 
/inquire 

------------



------------


flop/ 
SPADES 6 
CLUBS 3 
DIAMONDS J 
/flop 

------------



------------


inquire/ 
2222 3100 6000 100 check 
1111 3500 8000 100 check 
6666 2700 6000 100 check 
7777 3900 4000 100 check 
3333 3100 8000 100 call 
4444 4700 8000 100 call 
5555 4300 6000 100 call 
8888 1900 6000 100 call 
total pot: 800 
/inquire 

------------



------------


turn/ 
DIAMONDS 6 
/turn 

------------



------------


inquire/ 
2222 3100 6000 100 check 
1111 3500 8000 100 check 
6666 2700 6000 100 check 
7777 3900 4000 100 check 
3333 3100 8000 100 check 
4444 4700 8000 100 check 
5555 4300 6000 100 check 
8888 1900 6000 100 check 
total pot: 800 
/inquire 

------------



------------


river/ 
DIAMONDS 4 
/river 

------------



------------


inquire/ 
2222 3100 6000 100 check 
1111 3500 8000 100 check 
6666 2700 6000 100 check 
7777 3900 4000 100 check 
3333 3100 8000 100 check 
4444 4700 8000 100 check 
5555 4300 6000 100 check 
8888 1900 6000 100 check 
total pot: 800 
/inquire 

------------



------------


showdown/ 
common/ 
SPADES 6 
CLUBS 3 
DIAMONDS J 
DIAMONDS 6 
DIAMONDS 4 
/common 
6: 7777 HEARTS K CLUBS 9 ONE_PAIR 
8: 6666 HEARTS 9 DIAMONDS 7 ONE_PAIR 
1: 1111 SPADES J CLUBS 6 FULL_HOUSE 
3: 2222 DIAMONDS A CLUBS J TWO_PAIR 
7: 8888 HEARTS 2 CLUBS K ONE_PAIR 
5: 5555 DIAMONDS 2 HEARTS A ONE_PAIR 
4: 4444 SPADES A HEARTS 3 TWO_PAIR 
2: 3333 DIAMONDS K DIAMONDS Q FLUSH 
/showdown 

------------



------------


pot-win/ 
1111: 800 
/pot-win 

------------


seat/ 
button: 7777 3900 4000 
small blind: 6666 2700 6000 
big blind: 1111 4300 8000 
2222 3100 6000 
8888 1900 6000 
5555 4300 6000 
4444 4700 8000 
3333 3100 8000 
/seat 

------------


blind/ 
6666: 50 
1111: 100 
/blind 

------------


hold/ 
DIAMONDS A 
CLUBS J 
/hold 

------------



------------


inquire/ 
2222 3000 6000 100 call 
1111 4200 8000 100 blind 
6666 2650 6000 50 blind 
total pot: 250 
/inquire 

------------



------------


flop/ 
SPADES 6 
CLUBS 3 
DIAMONDS J 
/flop 

------------



------------


inquire/ 
2222 3000 6000 100 check 
1111 4200 8000 100 check 
6666 2600 6000 100 check 
7777 3800 4000 100 call 
3333 3000 8000 100 call 
4444 4600 8000 100 call 
5555 4200 6000 100 call 
8888 1800 6000 100 call 
total pot: 800 
/inquire 

------------



------------


turn/ 
DIAMONDS 6 
/turn 

------------



------------


inquire/ 
2222 3000 6000 100 check 
1111 4200 8000 100 check 
6666 2600 6000 100 check 
7777 3800 4000 100 check 
3333 3000 8000 100 check 
4444 4600 8000 100 check 
5555 4200 6000 100 check 
8888 1800 6000 100 check 
total pot: 800 
/inquire 

------------



------------


river/ 
DIAMONDS 4 
/river 

------------



------------


inquire/ 
2222 3000 6000 100 check 
1111 4200 8000 100 check 
6666 2600 6000 100 check 
7777 3800 4000 100 check 
3333 3000 8000 100 check 
4444 4600 8000 100 check 
5555 4200 6000 100 check 
8888 1800 6000 100 check 
total pot: 800 
/inquire 

------------



------------


showdown/ 
common/ 
SPADES 6 
CLUBS 3 
DIAMONDS J 
DIAMONDS 6 
DIAMONDS 4 
/common 
6: 6666 HEARTS K CLUBS 9 ONE_PAIR 
8: 1111 HEARTS 9 DIAMONDS 7 ONE_PAIR 
1: 2222 SPADES J CLUBS 6 FULL_HOUSE 
3: 8888 DIAMONDS A CLUBS J TWO_PAIR 
7: 5555 HEARTS 2 CLUBS K ONE_PAIR 
5: 4444 DIAMONDS 2 HEARTS A ONE_PAIR 
4: 3333 SPADES A HEARTS 3 TWO_PAIR 
2: 7777 DIAMONDS K DIAMONDS Q FLUSH 
/showdown 

------------



------------


pot-win/ 
2222: 800 
/pot-win 

------------


seat/ 
button: 6666 2600 6000 
small blind: 1111 4200 8000 
big blind: 2222 3800 6000 
8888 1800 6000 
5555 4200 6000 
4444 4600 8000 
3333 3000 8000 
7777 3800 4000 
/seat 

------------


blind/ 
1111: 50 
2222: 100 
/blind 

------------


hold/ 
SPADES J 
CLUBS 6 
/hold 

------------


inquire/ 
2222 3700 6000 100 blind 
1111 4150 8000 50 blind 
total pot: 150 
/inquire 

------------



------------


flop/ 
SPADES 6 
CLUBS 3 
DIAMONDS J 
/flop 

------------



------------


inquire/ 
2222 3700 6000 100 check 
1111 4100 8000 100 check 
6666 2500 6000 100 call 
7777 3700 4000 100 call 
3333 2900 8000 100 call 
4444 4500 8000 100 call 
5555 4100 6000 100 call 
8888 1700 6000 100 call 
total pot: 800 
/inquire 

------------



------------


turn/ 
DIAMONDS 6 
/turn 

------------



------------


inquire/ 
2222 3700 6000 100 check 
1111 4100 8000 100 check 
6666 2500 6000 100 check 
7777 3700 4000 100 check 
3333 2900 8000 100 check 
4444 4500 8000 100 check 
5555 4100 6000 100 check 
8888 1700 6000 100 check 
total pot: 800 
/inquire 

------------



------------


river/ 
DIAMONDS 4 
/river 

------------



------------


inquire/ 
2222 3700 6000 100 check 
1111 4100 8000 100 check 
6666 2500 6000 100 check 
7777 3700 4000 100 check 
3333 2900 8000 100 check 
4444 4500 8000 100 check 
5555 4100 6000 100 check 
8888 1700 6000 100 check 
total pot: 800 
/inquire 

------------



------------


showdown/ 
common/ 
SPADES 6 
CLUBS 3 
DIAMONDS J 
DIAMONDS 6 
DIAMONDS 4 
/common 
6: 1111 HEARTS K CLUBS 9 ONE_PAIR 
8: 2222 HEARTS 9 DIAMONDS 7 ONE_PAIR 
1: 8888 SPADES J CLUBS 6 FULL_HOUSE 
3: 5555 DIAMONDS A CLUBS J TWO_PAIR 
7: 4444 HEARTS 2 CLUBS K ONE_PAIR 
5: 3333 DIAMONDS 2 HEARTS A ONE_PAIR 
4: 7777 SPADES A HEARTS 3 TWO_PAIR 
2: 6666 DIAMONDS K DIAMONDS Q FLUSH 
/showdown 

------------



------------


pot-win/ 
8888: 800 
/pot-win 

------------


seat/ 
button: 1111 4100 8000 
small blind: 2222 3700 6000 
big blind: 8888 2500 6000 
5555 4100 6000 
4444 4500 8000 
3333 2900 8000 
7777 3700 4000 
6666 2500 6000 
/seat 

------------


blind/ 
2222: 50 
8888: 100 
/blind 

------------


hold/ 
HEARTS 9 
DIAMONDS 7 
/hold 

------------



------------


inquire/ 
2222 3600 6000 100 call 
1111 4000 8000 100 call 
6666 2400 6000 100 call 
7777 3600 4000 100 call 
3333 2800 8000 100 call 
4444 4400 8000 100 call 
5555 4000 6000 100 call 
8888 2400 6000 100 blind 
total pot: 800 
/inquire 

------------



------------


flop/ 
SPADES 6 
CLUBS 3 
DIAMONDS J 
/flop 

------------



------------


inquire/ 
2222 3600 6000 100 check 
1111 4000 8000 100 call 
6666 2400 6000 100 call 
7777 3600 4000 100 call 
3333 2800 8000 100 call 
4444 4400 8000 100 call 
5555 4000 6000 100 call 
8888 2400 6000 100 check 
total pot: 800 
/inquire 

------------



------------


turn/ 
DIAMONDS 6 
/turn 

------------



------------


inquire/ 
2222 3600 6000 100 check 
1111 4000 8000 100 check 
6666 2400 6000 100 check 
7777 3600 4000 100 check 
3333 2800 8000 100 check 
4444 4400 8000 100 check 
5555 4000 6000 100 check 
8888 2400 6000 100 check 
total pot: 800 
/inquire 

------------



------------


river/ 
DIAMONDS 4 
/river 

------------



------------


inquire/ 
2222 3600 6000 100 check 
1111 4000 8000 100 check 
6666 2400 6000 100 check 
7777 3600 4000 100 check 
3333 2800 8000 100 check 
4444 4400 8000 100 check 
5555 4000 6000 100 check 
8888 2400 6000 100 check 
total pot: 800 
/inquire 

------------



------------


showdown/ 
common/ 
SPADES 6 
CLUBS 3 
DIAMONDS J 
DIAMONDS 6 
DIAMONDS 4 
/common 
6: 2222 HEARTS K CLUBS 9 ONE_PAIR 
8: 8888 HEARTS 9 DIAMONDS 7 ONE_PAIR 
1: 5555 SPADES J CLUBS 6 FULL_HOUSE 
3: 4444 DIAMONDS A CLUBS J TWO_PAIR 
7: 3333 HEARTS 2 CLUBS K ONE_PAIR 
5: 7777 DIAMONDS 2 HEARTS A ONE_PAIR 
4: 6666 SPADES A HEARTS 3 TWO_PAIR 
2: 1111 DIAMONDS K DIAMONDS Q FLUSH 
/showdown 

------------



------------


pot-win/ 
5555: 800 
/pot-win 

------------


seat/ 
button: 2222 3600 6000 
small blind: 8888 2400 6000 
big blind: 5555 4800 6000 
4444 4400 8000 
3333 2800 8000 
7777 3600 4000 
6666 2400 6000 
1111 4000 8000 
/seat 

------------


blind/ 
8888: 50 
5555: 100 
/blind 

------------


hold/ 
DIAMONDS Q 
SPADES 10 
/hold 

------------



------------


inquire/ 
2222 3500 6000 100 call 
1111 3900 8000 100 call 
6666 2300 6000 100 call 
7777 3500 4000 100 call 
3333 2700 8000 100 call 
4444 4300 8000 100 call 
5555 4700 6000 100 blind 
8888 2350 6000 50 blind 
total pot: 750 
/inquire 

------------



------------


flop/ 
SPADES 3 
DIAMONDS 10 
DIAMONDS 2 
/flop 

------------



------------


inquire/ 
2222 3500 6000 100 call 
1111 3900 8000 100 call 
6666 2300 6000 100 call 
7777 3500 4000 100 call 
3333 2700 8000 100 call 
4444 4300 8000 100 call 
5555 4700 6000 100 check 
8888 2300 6000 100 call 
total pot: 800 
/inquire 

------------



------------


turn/ 
DIAMONDS A 
/turn 

------------



------------


inquire/ 
2222 3500 6000 100 check 
1111 3900 8000 100 check 
6666 2300 6000 100 check 
7777 3500 4000 100 check 
3333 2700 8000 100 check 
4444 4300 8000 100 check 
5555 4700 6000 100 check 
8888 2300 6000 100 check 
total pot: 800 
/inquire 

------------



------------


river/ 
DIAMONDS 7 
/river 

------------



------------


inquire/ 
2222 3500 6000 100 check 
1111 3900 8000 100 check 
6666 2300 6000 100 check 
7777 3500 4000 100 check 
3333 2700 8000 100 check 
4444 4300 8000 100 check 
5555 4700 6000 100 check 
8888 2300 6000 100 check 
total pot: 800 
/inquire 

------------



------------


showdown/ 
common/ 
SPADES 3 
DIAMONDS 10 
DIAMONDS 2 
DIAMONDS A 
DIAMONDS 7 
/common 
1: 8888 DIAMONDS Q SPADES 10 FLUSH 
4: 5555 DIAMONDS 4 HEARTS 2 FLUSH 
7: 4444 HEARTS Q SPADES 8 HIGH_CARD 
7: 3333 CLUBS Q CLUBS 8 HIGH_CARD 
3: 7777 SPADES J DIAMONDS 8 FLUSH 
2: 6666 DIAMONDS J SPADES 9 FLUSH 
6: 1111 HEARTS K HEARTS 5 HIGH_CARD 
5: 2222 HEARTS 6 CLUBS 3 ONE_PAIR 
/showdown 

------------



------------


pot-win/ 
8888: 800 
/pot-win 

------------


seat/ 
button: 8888 3100 6000 
small blind: 5555 4700 6000 
big blind: 4444 4300 8000 
3333 2700 8000 
7777 3500 4000 
6666 2300 6000 
1111 3900 8000 
2222 3500 6000 
/seat 

------------


blind/ 
5555: 50 
4444: 100 
/blind 

------------


hold/ 
HEARTS 6 
CLUBS 3 
/hold 

------------



------------


inquire/ 
2222 3400 6000 100 call 
1111 3800 8000 100 call 
6666 2200 6000 100 call 
7777 3400 4000 100 call 
3333 2600 8000 100 call 
4444 4200 8000 100 blind 
5555 4650 6000 50 blind 
total pot: 650 
/inquire 

------------



------------


flop/ 
SPADES 3 
DIAMONDS 10 
DIAMONDS 2 
/flop 

------------



------------


inquire/ 
2222 3400 6000 100 check 
1111 3800 8000 100 check 
6666 2200 6000 100 check 
7777 3400 4000 100 check 
3333 2600 8000 100 check 
4444 4200 8000 100 check 
5555 4600 6000 100 check 
8888 3000 6000 100 call 
total pot: 800 
/inquire 

------------



------------


turn/ 
DIAMONDS A 
/turn 

------------



------------


inquire/ 
2222 3400 6000 100 check 
1111 3800 8000 100 check 
6666 2200 6000 100 check 
7777 3400 4000 100 check 
3333 2600 8000 100 check 
4444 4200 8000 100 check 
5555 4600 6000 100 check 
8888 3000 6000 100 check 
total pot: 800 
/inquire 

------------



------------


river/ 
DIAMONDS 7 
/river 

------------



------------


inquire/ 
2222 3400 6000 100 check 
1111 3800 8000 100 check 
6666 2200 6000 100 check 
7777 3400 4000 100 check 
3333 2600 8000 100 check 
4444 4200 8000 100 check 
5555 4600 6000 100 check 
8888 3000 6000 100 check 
total pot: 800 
/inquire 

------------



------------


showdown/ 
common/ 
SPADES 3 
DIAMONDS 10 
DIAMONDS 2 
DIAMONDS A 
DIAMONDS 7 
/common 
1: 5555 DIAMONDS Q SPADES 10 FLUSH 
4: 4444 DIAMONDS 4 HEARTS 2 FLUSH 
7: 3333 HEARTS Q SPADES 8 HIGH_CARD 
7: 7777 CLUBS Q CLUBS 8 HIGH_CARD 
3: 6666 SPADES J DIAMONDS 8 FLUSH 
2: 1111 DIAMONDS J SPADES 9 FLUSH 
6: 2222 HEARTS K HEARTS 5 HIGH_CARD 
5: 8888 HEARTS 6 CLUBS 3 ONE_PAIR 
/showdown 

------------



------------


pot-win/ 
5555: 800 
/pot-win 

------------


seat/ 
button: 5555 5400 6000 
small blind: 4444 4200 8000 
big blind: 3333 2600 8000 
7777 3400 4000 
6666 2200 6000 
1111 3800 8000 
2222 3400 6000 
8888 3000 6000 
/seat 

------------


blind/ 
4444: 50 
3333: 100 
/blind 

------------


hold/ 
HEARTS K 
HEARTS 5 
/hold 

------------



------------


inquire/ 
2222 3300 6000 100 call 
1111 3700 8000 100 call 
6666 2100 6000 100 call 
7777 3300 4000 100 call 
3333 2500 8000 100 blind 
4444 4150 8000 50 blind 
total pot: 550 
/inquire 

------------



------------


flop/ 
SPADES 3 
DIAMONDS 10 
DIAMONDS 2 
/flop 

------------



------------


inquire/ 
2222 3300 6000 100 check 
1111 3700 8000 100 check 
6666 2100 6000 100 check 
7777 3300 4000 100 check 
3333 2500 8000 100 check 
4444 4100 8000 100 check 
5555 5300 6000 100 call 
8888 2900 6000 100 call 
total pot: 800 
/inquire 

------------



------------


turn/ 
DIAMONDS A 
/turn 

------------



------------


inquire/ 
2222 3300 6000 100 check 
1111 3700 8000 100 check 
6666 2100 6000 100 check 
7777 3300 4000 100 check 
3333 2500 8000 100 check 
4444 4100 8000 100 check 
5555 5300 6000 100 check 
8888 2900 6000 100 check 
total pot: 800 
/inquire 

------------



------------


river/ 
DIAMONDS 7 
/river 

------------



------------


inquire/ 
2222 3300 6000 100 check 
1111 3700 8000 100 check 
6666 2100 6000 100 check 
7777 3300 4000 100 check 
3333 2500 8000 100 check 
4444 4100 8000 100 check 
5555 5300 6000 100 check 
8888 2900 6000 100 check 
total pot: 800 
/inquire 

------------



------------


showdown/ 
common/ 
SPADES 3 
DIAMONDS 10 
DIAMONDS 2 
DIAMONDS A 
DIAMONDS 7 
/common 
1: 4444 DIAMONDS Q SPADES 10 FLUSH 
4: 3333 DIAMONDS 4 HEARTS 2 FLUSH 
7: 7777 HEARTS Q SPADES 8 HIGH_CARD 
7: 6666 CLUBS Q CLUBS 8 HIGH_CARD 
3: 1111 SPADES J DIAMONDS 8 FLUSH 
2: 2222 DIAMONDS J SPADES 9 FLUSH 
6: 8888 HEARTS K HEARTS 5 HIGH_CARD 
5: 5555 HEARTS 6 CLUBS 3 ONE_PAIR 
/showdown 

------------



------------


pot-win/ 
4444: 800 
/pot-win 

------------


seat/ 
button: 4444 4900 8000 
small blind: 3333 2500 8000 
big blind: 7777 3300 4000 
6666 2100 6000 
1111 3700 8000 
2222 3300 6000 
8888 2900 6000 
5555 5300 6000 
/seat 

------------


blind/ 
3333: 50 
7777: 100 
/blind 

------------


hold/ 
DIAMONDS J 
SPADES 9 
/hold 

------------



------------


inquire/ 
2222 3200 6000 100 call 
1111 3600 8000 100 call 
6666 2000 6000 100 call 
7777 3200 4000 100 blind 
3333 2450 8000 50 blind 
total pot: 450 
/inquire 

------------



------------


flop/ 
SPADES 3 
DIAMONDS 10 
DIAMONDS 2 
/flop 

------------



------------


inquire/ 
2222 3200 6000 100 check 
1111 3600 8000 100 check 
6666 2000 6000 100 check 
7777 3200 4000 100 check 
3333 2400 8000 100 check 
4444 4800 8000 100 call 
5555 5200 6000 100 call 
8888 2800 6000 100 call 
total pot: 800 
/inquire 

------------



------------


turn/ 
DIAMONDS A 
/turn 

------------



------------


inquire/ 
2222 3200 6000 100 check 
1111 3600 8000 100 check 
6666 2000 6000 100 check 
7777 3200 4000 100 check 
3333 2400 8000 100 check 
4444 4800 8000 100 check 
5555 5200 6000 100 check 
8888 2800 6000 100 check 
total pot: 800 
/inquire 

------------



------------


river/ 
DIAMONDS 7 
/river 

------------



------------


inquire/ 
2222 3200 6000 100 check 
1111 3600 8000 100 check 
6666 2000 6000 100 check 
7777 3200 4000 100 check 
3333 2400 8000 100 check 
4444 4800 8000 100 check 
5555 5200 6000 100 check 
8888 2800 6000 100 check 
total pot: 800 
/inquire 

------------



------------


showdown/ 
common/ 
SPADES 3 
DIAMONDS 10 
DIAMONDS 2 
DIAMONDS A 
DIAMONDS 7 
/common 
1: 3333 DIAMONDS Q SPADES 10 FLUSH 
4: 7777 DIAMONDS 4 HEARTS 2 FLUSH 
7: 6666 HEARTS Q SPADES 8 HIGH_CARD 
7: 1111 CLUBS Q CLUBS 8 HIGH_CARD 
3: 2222 SPADES J DIAMONDS 8 FLUSH 
2: 8888 DIAMONDS J SPADES 9 FLUSH 
6: 5555 HEARTS K HEARTS 5 HIGH_CARD 
5: 4444 HEARTS 6 CLUBS 3 ONE_PAIR 
/showdown 

------------



------------


pot-win/ 
3333: 800 
/pot-win 

------------


seat/ 
button: 3333 3200 8000 
small blind: 7777 3200 4000 
big blind: 6666 2000 6000 
1111 3600 8000 
2222 3200 6000 
8888 2800 6000 
5555 5200 6000 
4444 4800 8000 
/seat 

------------


blind/ 
7777: 50 
6666: 100 
/blind 

------------


hold/ 
SPADES J 
DIAMONDS 8 
/hold 

------------



------------


inquire/ 
2222 3100 6000 100 call 
1111 3500 8000 100 call 
6666 1900 6000 100 blind 
7777 3150 4000 50 blind 
total pot: 350 
/inquire 

------------



------------


flop/ 
SPADES 3 
DIAMONDS 10 
DIAMONDS 2 
/flop 

------------



------------


inquire/ 
2222 3100 6000 100 check 
1111 3500 8000 100 check 
6666 1900 6000 100 check 
7777 3100 4000 100 check 
3333 3100 8000 100 call 
4444 4700 8000 100 call 
5555 5100 6000 100 call 
8888 2700 6000 100 call 
total pot: 800 
/inquire 

------------



------------


turn/ 
DIAMONDS A 
/turn 

------------



------------


inquire/ 
2222 3100 6000 100 check 
1111 3500 8000 100 check 
6666 1900 6000 100 check 
7777 3100 4000 100 check 
3333 3100 8000 100 check 
4444 4700 8000 100 check 
5555 5100 6000 100 check 
8888 2700 6000 100 check 
total pot: 800 
/inquire 

------------



------------


river/ 
DIAMONDS 7 
/river 

------------



------------


inquire/ 
2222 3100 6000 100 check 
1111 3500 8000 100 check 
6666 1900 6000 100 check 
7777 3100 4000 100 check 
3333 3100 8000 100 check 
4444 4700 8000 100 check 
5555 5100 6000 100 check 
8888 2700 6000 100 check 
total pot: 800 
/inquire 

------------



------------


showdown/ 
common/ 
SPADES 3 
DIAMONDS 10 
DIAMONDS 2 
DIAMONDS A 
DIAMONDS 7 
/common 
1: 7777 DIAMONDS Q SPADES 10 FLUSH 
4: 6666 DIAMONDS 4 HEARTS 2 FLUSH 
7: 1111 HEARTS Q SPADES 8 HIGH_CARD 
7: 2222 CLUBS Q CLUBS 8 HIGH_CARD 
3: 8888 SPADES J DIAMONDS 8 FLUSH 
2: 5555 DIAMONDS J SPADES 9 FLUSH 
6: 4444 HEARTS K HEARTS 5 HIGH_CARD 
5: 3333 HEARTS 6 CLUBS 3 ONE_PAIR 
/showdown 

------------



------------


pot-win/ 
7777: 800 
/pot-win 

------------


seat/ 
button: 7777 3900 4000 
small blind: 6666 1900 6000 
big blind: 1111 3500 8000 
2222 3100 6000 
8888 2700 6000 
5555 5100 6000 
4444 4700 8000 
3333 3100 8000 
/seat 

------------


blind/ 
6666: 50 
1111: 100 
/blind 

------------


hold/ 
CLUBS Q 
CLUBS 8 
/hold 

------------



------------


inquire/ 
2222 3000 6000 100 call 
1111 3400 8000 100 blind 
6666 1850 6000 50 blind 
total pot: 250 
/inquire 

------------



------------


flop/ 
SPADES 3 
DIAMONDS 10 
DIAMONDS 2 
/flop 

------------



------------


inquire/ 
2222 3000 6000 100 check 
1111 3400 8000 100 check 
6666 1800 6000 100 check 
7777 3800 4000 100 call 
3333 3000 8000 100 call 
4444 4600 8000 100 call 
5555 5000 6000 100 call 
8888 2600 6000 100 call 
total pot: 800 
/inquire 

------------



------------


turn/ 
DIAMONDS A 
/turn 

------------



------------


inquire/ 
2222 3000 6000 100 check 
1111 3400 8000 100 check 
6666 1800 6000 100 check 
7777 3800 4000 100 check 
3333 3000 8000 100 check 
4444 4600 8000 100 check 
5555 5000 6000 100 check 
8888 2600 6000 100 check 
total pot: 800 
/inquire 

------------



------------


river/ 
DIAMONDS 7 
/river 

------------



------------


inquire/ 
2222 3000 6000 100 check 
1111 3400 8000 100 check 
6666 1800 6000 100 check 
7777 3800 4000 100 check 
3333 3000 8000 100 check 
4444 4600 8000 100 check 
5555 5000 6000 100 check 
8888 2600 6000 100 check 
total pot: 800 
/inquire 

------------



------------


showdown/ 
common/ 
SPADES 3 
DIAMONDS 10 
DIAMONDS 2 
DIAMONDS A 
DIAMONDS 7 
/common 
1: 6666 DIAMONDS Q SPADES 10 FLUSH 
4: 1111 DIAMONDS 4 HEARTS 2 FLUSH 
7: 2222 HEARTS Q SPADES 8 HIGH_CARD 
7: 8888 CLUBS Q CLUBS 8 HIGH_CARD 
3: 5555 SPADES J DIAMONDS 8 FLUSH 
2: 4444 DIAMONDS J SPADES 9 FLUSH 
6: 3333 HEARTS K HEARTS 5 HIGH_CARD 
5: 7777 HEARTS 6 CLUBS 3 ONE_PAIR 
/showdown 

------------



------------


pot-win/ 
6666: 800 
/pot-win 

------------


seat/ 
button: 6666 2600 6000 
small blind: 1111 3400 8000 
big blind: 2222 3000 6000 
8888 2600 6000 
5555 5000 6000 
4444 4600 8000 
3333 3000 8000 
7777 3800 4000 
/seat 

------------


blind/ 
1111: 50 
2222: 100 
/blind 

------------


hold/ 
SPADES 10 
CLUBS K 
/hold 

------------


inquire/ 
2222 2900 6000 100 blind 
1111 3350 8000 50 blind 
total pot: 150 
/inquire 

------------



------------


flop/ 
CLUBS 10 
DIAMONDS 3 
CLUBS J 
/flop 

------------



------------


inquire/ 
2222 2900 6000 100 check 
1111 3300 8000 100 check 
6666 2500 6000 100 call 
7777 3700 4000 100 call 
3333 2900 8000 100 call 
4444 4500 8000 100 call 
5555 4900 6000 100 call 
8888 2500 6000 100 call 
total pot: 800 
/inquire 

------------



------------


turn/ 
HEARTS 4 
/turn 

------------



------------


inquire/ 
2222 2900 6000 100 check 
1111 3300 8000 100 check 
6666 2500 6000 100 check 
7777 3700 4000 100 check 
3333 2900 8000 100 check 
4444 4500 8000 100 check 
5555 4900 6000 100 check 
8888 2500 6000 100 check 
total pot: 800 
/inquire 

------------



------------


river/ 
CLUBS 7 
/river 

------------



------------


inquire/ 
2222 2900 6000 100 check 
1111 3300 8000 100 check 
6666 2500 6000 100 check 
7777 3700 4000 100 check 
3333 2900 8000 100 check 
4444 4500 8000 100 check 
5555 4900 6000 100 check 
8888 2500 6000 100 check 
total pot: 800 
/inquire 

------------



------------


showdown/ 
common/ 
CLUBS 10 
DIAMONDS 3 
CLUBS J 
HEARTS 4 
CLUBS 7 
/common 
1: 1111 CLUBS 3 HEARTS 3 THREE_OF_A_KIND 
2: 2222 HEARTS 10 HEARTS A ONE_PAIR 
3: 8888 SPADES 10 CLUBS K ONE_PAIR 
5: 5555 SPADES A SPADES 4 ONE_PAIR 
4: 4444 SPADES 9 SPADES 7 ONE_PAIR 
8: 3333 CLUBS 2 SPADES 8 HIGH_CARD 
6: 7777 CLUBS 4 HEARTS 8 ONE_PAIR 
7: 6666 SPADES 2 DIAMONDS K HIGH_CARD 
/showdown 

------------



------------


pot-win/ 
1111: 800 
/pot-win 

------------


seat/ 
button: 1111 4100 8000 
small blind: 2222 2900 6000 
big blind: 8888 2500 6000 
5555 4900 6000 
4444 4500 8000 
3333 2900 8000 
7777 3700 4000 
6666 2500 6000 
/seat 

------------


blind/ 
2222: 50 
8888: 100 
/blind 

------------


hold/ 
HEARTS 10 
HEARTS A 
/hold 

------------



------------


inquire/ 
2222 2800 6000 100 call 
1111 4000 8000 100 call 
6666 2400 6000 100 call 
7777 3600 4000 100 call 
3333 2800 8000 100 call 
4444 4400 8000 100 call 
5555 4800 6000 100 call 
8888 2400 6000 100 blind 
total pot: 800 
/inquire 

------------



------------


flop/ 
CLUBS 10 
DIAMONDS 3 
CLUBS J 
/flop 

------------



------------


inquire/ 
2222 2800 6000 100 check 
1111 4000 8000 100 call 
6666 2400 6000 100 call 
7777 3600 4000 100 call 
3333 2800 8000 100 call 
4444 4400 8000 100 call 
5555 4800 6000 100 call 
8888 2400 6000 100 check 
total pot: 800 
/inquire 

------------



------------


turn/ 
HEARTS 4 
/turn 

------------



------------


inquire/ 
2222 2800 6000 100 check 
1111 4000 8000 100 check 
6666 2400 6000 100 check 
7777 3600 4000 100 check 
3333 2800 8000 100 check 
4444 4400 8000 100 check 
5555 4800 6000 100 check 
8888 2400 6000 100 check 
total pot: 800 
/inquire 

------------



------------


river/ 
CLUBS 7 
/river 

------------



------------


inquire/ 
2222 2800 6000 100 check 
1111 4000 8000 100 check 
6666 2400 6000 100 check 
7777 3600 4000 100 check 
3333 2800 8000 100 check 
4444 4400 8000 100 check 
5555 4800 6000 100 check 
8888 2400 6000 100 check 
total pot: 800 
/inquire 

------------



------------


showdown/ 
common/ 
CLUBS 10 
DIAMONDS 3 
CLUBS J 
HEARTS 4 
CLUBS 7 
/common 
1: 2222 CLUBS 3 HEARTS 3 THREE_OF_A_KIND 
2: 8888 HEARTS 10 HEARTS A ONE_PAIR 
3: 5555 SPADES 10 CLUBS K ONE_PAIR 
5: 4444 SPADES A SPADES 4 ONE_PAIR 
4: 3333 SPADES 9 SPADES 7 ONE_PAIR 
8: 7777 CLUBS 2 SPADES 8 HIGH_CARD 
6: 6666 CLUBS 4 HEARTS 8 ONE_PAIR 
7: 1111 SPADES 2 DIAMONDS K HIGH_CARD 
/showdown 

------------



------------


pot-win/ 
2222: 800 
/pot-win 

------------


seat/ 
button: 2222 3600 6000 
small blind: 8888 2400 6000 
big blind: 5555 4800 6000 
4444 4400 8000 
3333 2800 8000 
7777 3600 4000 
6666 2400 6000 
1111 4000 8000 
/seat 

------------


blind/ 
8888: 50 
5555: 100 
/blind 

------------


hold/ 
CLUBS 3 
HEARTS 3 
/hold 

------------



------------


inquire/ 
2222 3500 6000 100 call 
1111 3900 8000 100 call 
6666 2300 6000 100 call 
7777 3500 4000 100 call 
3333 2700 8000 100 call 
4444 4300 8000 100 call 
5555 4700 6000 100 blind 
8888 2350 6000 50 blind 
total pot: 750 
/inquire 

------------



------------


flop/ 
CLUBS 10 
DIAMONDS 3 
CLUBS J 
/flop 

------------



------------


inquire/ 
2222 3500 6000 100 call 
1111 3900 8000 100 call 
6666 2300 6000 100 call 
7777 3500 4000 100 call 
3333 2700 8000 100 call 
4444 4300 8000 100 call 
5555 4700 6000 100 check 
8888 2300 6000 100 call 
total pot: 800 
/inquire 

------------



------------


turn/ 
HEARTS 4 
/turn 

------------



------------


inquire/ 
2222 3500 6000 100 check 
1111 3900 8000 100 check 
6666 2300 6000 100 check 
7777 3500 4000 100 check 
3333 2700 8000 100 check 
4444 4300 8000 100 check 
5555 4700 6000 100 check 
8888 2300 6000 100 check 
total pot: 800 
/inquire 

------------



------------


river/ 
CLUBS 7 
/river 

------------



------------


inquire/ 
2222 3500 6000 100 check 
1111 3900 8000 100 check 
6666 2300 6000 100 check 
7777 3500 4000 100 check 
3333 2700 8000 100 check 
4444 4300 8000 100 check 
5555 4700 6000 100 check 
8888 2300 6000 100 check 
total pot: 800 
/inquire 

------------



------------


showdown/ 
common/ 
CLUBS 10 
DIAMONDS 3 
CLUBS J 
HEARTS 4 
CLUBS 7 
/common 
1: 8888 CLUBS 3 HEARTS 3 THREE_OF_A_KIND 
2: 5555 HEARTS 10 HEARTS A ONE_PAIR 
3: 4444 SPADES 10 CLUBS K ONE_PAIR 
5: 3333 SPADES A SPADES 4 ONE_PAIR 
4: 7777 SPADES 9 SPADES 7 ONE_PAIR 
8: 6666 CLUBS 2 SPADES 8 HIGH_CARD 
6: 1111 CLUBS 4 HEARTS 8 ONE_PAIR 
7: 2222 SPADES 2 DIAMONDS K HIGH_CARD 
/showdown 

------------



------------


pot-win/ 
8888: 800 
/pot-win 

------------


seat/ 
button: 8888 3100 6000 
small blind: 5555 4700 6000 
big blind: 4444 4300 8000 
3333 2700 8000 
7777 3500 4000 
6666 2300 6000 
1111 3900 8000 
2222 3500 6000 
/seat 

------------


blind/ 
5555: 50 
4444: 100 
/blind 

------------


hold/ 
SPADES 2 
DIAMONDS K 
/hold 

------------



------------


inquire/ 
2222 3400 6000 100 call 
1111 3800 8000 100 call 
6666 2200 6000 100 call 
7777 3400 4000 100 call 
3333 2600 8000 100 call 
4444 4200 8000 100 blind 
5555 4650 6000 50 blind 
total pot: 650 
/inquire 

------------



------------


flop/ 
CLUBS 10 
DIAMONDS 3 
CLUBS J 
/flop 

------------



------------


inquire/ 
2222 3400 6000 100 check 
1111 3800 8000 100 check 
6666 2200 6000 100 check 
7777 3400 4000 100 check 
3333 2600 8000 100 check 
4444 4200 8000 100 check 
5555 4600 6000 100 check 
8888 3000 6000 100 call 
total pot: 800 
/inquire 

------------



------------


turn/ 
HEARTS 4 
/turn 

------------



------------


inquire/ 
2222 3400 6000 100 check 
1111 3800 8000 100 check 
6666 2200 6000 100 check 
7777 3400 4000 100 check 
3333 2600 8000 100 check 
4444 4200 8000 100 check 
5555 4600 6000 100 check 
8888 3000 6000 100 check 
total pot: 800 
/inquire 

------------



------------


river/ 
CLUBS 7 
/river 

------------



------------


inquire/ 
2222 3400 6000 100 check 
1111 3800 8000 100 check 
6666 2200 6000 100 check 
7777 3400 4000 100 check 
3333 2600 8000 100 check 
4444 4200 8000 100 check 
5555 4600 6000 100 check 
8888 3000 6000 100 check 
total pot: 800 
/inquire 

------------



------------


showdown/ 
common/ 
CLUBS 10 
DIAMONDS 3 
CLUBS J 
HEARTS 4 
CLUBS 7 
/common 
1: 5555 CLUBS 3 HEARTS 3 THREE_OF_A_KIND 
2: 4444 HEARTS 10 HEARTS A ONE_PAIR 
3: 3333 SPADES 10 CLUBS K ONE_PAIR 
5: 7777 SPADES A SPADES 4 ONE_PAIR 
4: 6666 SPADES 9 SPADES 7 ONE_PAIR 
8: 1111 CLUBS 2 SPADES 8 HIGH_CARD 
6: 2222 CLUBS 4 HEARTS 8 ONE_PAIR 
7: 8888 SPADES 2 DIAMONDS K HIGH_CARD 
/showdown 

------------



------------


pot-win/ 
5555: 800 
/pot-win 

------------


seat/ 
button: 5555 5400 6000 
small blind: 4444 4200 8000 
big blind: 3333 2600 8000 
7777 3400 4000 
6666 2200 6000 
1111 3800 8000 
2222 3400 6000 
8888 3000 6000 
/seat 

------------


blind/ 
4444: 50 
3333: 100 
/blind 

------------


hold/ 
CLUBS 4 
HEARTS 8 
/hold 

------------



------------


inquire/ 
2222 3300 6000 100 call 
1111 3700 8000 100 call 
6666 2100 6000 100 call 
7777 3300 4000 100 call 
3333 2500 8000 100 blind 
4444 4150 8000 50 blind 
total pot: 550 
/inquire 

------------



------------


flop/ 
CLUBS 10 
DIAMONDS 3 
CLUBS J 
/flop 

------------



------------


inquire/ 
2222 3300 6000 100 check 
1111 3700 8000 100 check 
6666 2100 6000 100 check 
7777 3300 4000 100 check 
3333 2500 8000 100 check 
4444 4100 8000 100 check 
5555 5300 6000 100 call 
8888 2900 6000 100 call 
total pot: 800 
/inquire 

------------



------------


turn/ 
HEARTS 4 
/turn 

------------



------------


inquire/ 
2222 3300 6000 100 check 
1111 3700 8000 100 check 
6666 2100 6000 100 check 
7777 3300 4000 100 check 
3333 2500 8000 100 check 
4444 4100 8000 100 check 
5555 5300 6000 100 check 
8888 2900 6000 100 check 
total pot: 800 
/inquire 

------------



------------


river/ 
CLUBS 7 
/river 

------------



------------


inquire/ 
2222 3300 6000 100 check 
1111 3700 8000 100 check 
6666 2100 6000 100 check 
7777 3300 4000 100 check 
3333 2500 8000 100 check 
4444 4100 8000 100 check 
5555 5300 6000 100 check 
8888 2900 6000 100 check 
total pot: 800 
/inquire 

------------



------------


showdown/ 
common/ 
CLUBS 10 
DIAMONDS 3 
CLUBS J 
HEARTS 4 
CLUBS 7 
/common 
1: 4444 CLUBS 3 HEARTS 3 THREE_OF_A_KIND 
2: 3333 HEARTS 10 HEARTS A ONE_PAIR 
3: 7777 SPADES 10 CLUBS K ONE_PAIR 
5: 6666 SPADES A SPADES 4 ONE_PAIR 
4: 1111 SPADES 9 SPADES 7 ONE_PAIR 
8: 2222 CLUBS 2 SPADES 8 HIGH_CARD 
6: 8888 CLUBS 4 HEARTS 8 ONE_PAIR 
7: 5555 SPADES 2 DIAMONDS K HIGH_CARD 
/showdown 

------------



------------


pot-win/ 
4444: 800 
/pot-win 

------------


seat/ 
button: 4444 4900 8000 
small blind: 3333 2500 8000 
big blind: 7777 3300 4000 
6666 2100 6000 
1111 3700 8000 
2222 3300 6000 
8888 2900 6000 
5555 5300 6000 
/seat 

------------


blind/ 
3333: 50 
7777: 100 
/blind 

------------


hold/ 
SPADES 7 
HEARTS 4 
/hold 

------------



------------


inquire/ 
2222 3200 6000 100 call 
1111 3600 8000 100 call 
6666 2000 6000 100 call 
7777 3200 4000 100 blind 
3333 2450 8000 50 blind 
total pot: 450 
/inquire 

------------



------------


flop/ 
DIAMONDS 4 
HEARTS 2 
CLUBS 5 
/flop 

------------



------------


inquire/ 
2222 3200 6000 100 check 
1111 3600 8000 100 check 
6666 2000 6000 100 check 
7777 3200 4000 100 check 
3333 2400 8000 100 check 
4444 4800 8000 100 call 
5555 5200 6000 100 call 
8888 2800 6000 100 call 
total pot: 800 
/inquire 

------------



------------


turn/ 
DIAMONDS 7 
/turn 

------------



------------


inquire/ 
2222 3200 6000 100 check 
1111 3600 8000 100 check 
6666 2000 6000 100 check 
7777 3200 4000 100 check 
3333 2400 8000 100 check 
4444 4800 8000 100 check 
5555 5200 6000 100 check 
8888 2800 6000 100 check 
total pot: 800 
/inquire 

------------



------------


river/ 
CLUBS 7 
/river 

------------



------------


inquire/ 
2222 3200 6000 100 check 
1111 3600 8000 100 check 
6666 2000 6000 100 check 
7777 3200 4000 100 check 
3333 2400 8000 100 check 
4444 4800 8000 100 check 
5555 5200 6000 100 check 
8888 2800 6000 100 check 
total pot: 800 
/inquire 

------------



------------


showdown/ 
common/ 
DIAMONDS 4 
HEARTS 2 
CLUBS 5 
DIAMONDS 7 
CLUBS 7 
/common 
8: 3333 CLUBS 8 HEARTS 9 ONE_PAIR 
7: 7777 HEARTS K DIAMONDS 6 ONE_PAIR 
6: 6666 SPADES Q SPADES A ONE_PAIR 
4: 1111 CLUBS 4 HEARTS Q TWO_PAIR 
5: 2222 CLUBS 2 CLUBS 6 TWO_PAIR 
1: 8888 SPADES 7 HEARTS 4 FULL_HOUSE 
2: 5555 CLUBS K DIAMONDS K TWO_PAIR 
3: 4444 DIAMONDS 5 HEARTS 10 TWO_PAIR 
/showdown 

------------



------------


pot-win/ 
8888: 800 
/pot-win 

------------


seat/ 
button: 3333 2400 8000 
small blind: 7777 3200 4000 
big blind: 6666 2000 6000 
1111 3600 8000 
2222 3200 6000 
8888 3600 6000 
5555 5200 6000 
4444 4800 8000 
/seat 

------------


blind/ 
7777: 50 
6666: 100 
/blind 

------------


hold/ 
CLUBS 2 
CLUBS 6 
/hold 

------------


inquire/ 
2222 3100 6000 100 call 
1111 3500 8000 100 call 
6666 1900 6000 100 blind 
7777 3150 4000 50 blind 
total pot: 350 
/inquire 

------------



------------


flop/ 
DIAMONDS 4 
HEARTS 2 
CLUBS 5 
/flop 

------------



------------


inquire/ 
2222 3100 6000 100 check 
1111 3500 8000 100 check 
6666 1900 6000 100 check 
7777 3100 4000 100 check 
3333 2300 8000 100 call 
4444 4700 8000 100 call 
5555 5100 6000 100 call 
8888 3500 6000 100 call 
total pot: 800 
/inquire 

------------



------------


turn/ 
DIAMONDS 7 
/turn 

------------



------------


inquire/ 
2222 3100 6000 100 check 
1111 3500 8000 100 check 
6666 1900 6000 100 check 
7777 3100 4000 100 check 
3333 2300 8000 100 check 
4444 4700 8000 100 check 
5555 5100 6000 100 check 
8888 3500 6000 100 check 
total pot: 800 
/inquire 

------------



------------


river/ 
CLUBS 7 
/river 

------------



------------


inquire/ 
2222 3100 6000 100 check 
1111 3500 8000 100 check 
6666 1900 6000 100 check 
7777 3100 4000 100 check 
3333 2300 8000 100 check 
4444 4700 8000 100 check 
5555 5100 6000 100 check 
8888 3500 6000 100 check 
total pot: 800 
/inquire 

------------



------------


showdown/ 
common/ 
DIAMONDS 4 
HEARTS 2 
CLUBS 5 
DIAMONDS 7 
CLUBS 7 
/common 
8: 7777 CLUBS 8 HEARTS 9 ONE_PAIR 
7: 6666 HEARTS K DIAMONDS 6 ONE_PAIR 
6: 1111 SPADES Q SPADES A ONE_PAIR 
4: 2222 CLUBS 4 HEARTS Q TWO_PAIR 
5: 8888 CLUBS 2 CLUBS 6 TWO_PAIR 
1: 5555 SPADES 7 HEARTS 4 FULL_HOUSE 
2: 4444 CLUBS K DIAMONDS K TWO_PAIR 
3: 3333 DIAMONDS 5 HEARTS 10 TWO_PAIR 
/showdown 

------------



------------


pot-win/ 
5555: 800 
/pot-win 

------------


seat/ 
button: 7777 3100 4000 
small blind: 6666 1900 6000 
big blind: 1111 3500 8000 
2222 3100 6000 
8888 3500 6000 
5555 5900 6000 
4444 4700 8000 
3333 2300 8000 
/seat 

------------


blind/ 
6666: 50 
1111: 100 
/blind 

------------


hold/ 
CLUBS 4 
HEARTS Q 
/hold 

------------



------------


inquire/ 
2222 3000 6000 100 call 
1111 3400 8000 100 blind 
6666 1850 6000 50 blind 
total pot: 250 
/inquire 

------------



------------


flop/ 
DIAMONDS 4 
HEARTS 2 
CLUBS 5 
/flop 

------------



------------


inquire/ 
2222 3000 6000 100 check 
1111 3400 8000 100 check 
6666 1800 6000 100 check 
7777 3000 4000 100 call 
3333 2200 8000 100 call 
4444 4600 8000 100 call 
5555 5800 6000 100 call 
8888 3400 6000 100 call 
total pot: 800 
/inquire 

------------



------------


turn/ 
DIAMONDS 7 
/turn 

------------



------------


inquire/ 
2222 3000 6000 100 check 
1111 3400 8000 100 check 
6666 1800 6000 100 check 
7777 3000 4000 100 check 
3333 2200 8000 100 check 
4444 4600 8000 100 check 
5555 5800 6000 100 check 
8888 3400 6000 100 check 
total pot: 800 
/inquire 

------------



------------


river/ 
CLUBS 7 
/river 

------------



------------


inquire/ 
2222 3000 6000 100 check 
1111 3400 8000 100 check 
6666 1800 6000 100 check 
7777 3000 4000 100 check 
3333 2200 8000 100 check 
4444 4600 8000 100 check 
5555 5800 6000 100 check 
8888 3400 6000 100 check 
total pot: 800 
/inquire 

------------



------------


showdown/ 
common/ 
DIAMONDS 4 
HEARTS 2 
CLUBS 5 
DIAMONDS 7 
CLUBS 7 
/common 
8: 6666 CLUBS 8 HEARTS 9 ONE_PAIR 
7: 1111 HEARTS K DIAMONDS 6 ONE_PAIR 
6: 2222 SPADES Q SPADES A ONE_PAIR 
4: 8888 CLUBS 4 HEARTS Q TWO_PAIR 
5: 5555 CLUBS 2 CLUBS 6 TWO_PAIR 
1: 4444 SPADES 7 HEARTS 4 FULL_HOUSE 
2: 3333 CLUBS K DIAMONDS K TWO_PAIR 
3: 7777 DIAMONDS 5 HEARTS 10 TWO_PAIR 
/showdown 

------------



------------


pot-win/ 
4444: 800 
/pot-win 

------------


seat/ 
button: 6666 1800 6000 
small blind: 1111 3400 8000 
big blind: 2222 3000 6000 
8888 3400 6000 
5555 5800 6000 
4444 5400 8000 
3333 2200 8000 
7777 3000 4000 
/seat 

------------


blind/ 
1111: 50 
2222: 100 
/blind 

------------


hold/ 
SPADES Q 
SPADES A 
/hold 

------------


inquire/ 
2222 2900 6000 100 blind 
1111 3350 8000 50 blind 
total pot: 150 
/inquire 

------------



------------


flop/ 
DIAMONDS 4 
HEARTS 2 
CLUBS 5 
/flop 

------------



------------


inquire/ 
2222 2900 6000 100 check 
1111 3300 8000 100 check 
6666 1700 6000 100 call 
7777 2900 4000 100 call 
3333 2100 8000 100 call 
4444 5300 8000 100 call 
5555 5700 6000 100 call 
8888 3300 6000 100 call 
total pot: 800 
/inquire 

------------



------------


turn/ 
DIAMONDS 7 
/turn 

------------



------------


inquire/ 
2222 2900 6000 100 check 
1111 3300 8000 100 check 
6666 1700 6000 100 check 
7777 2900 4000 100 check 
3333 2100 8000 100 check 
4444 5300 8000 100 check 
5555 5700 6000 100 check 
8888 3300 6000 100 check 
total pot: 800 
/inquire 

------------



------------


river/ 
CLUBS 7 
/river 

------------



------------


inquire/ 
2222 2900 6000 100 check 
1111 3300 8000 100 check 
6666 1700 6000 100 check 
7777 2900 4000 100 check 
3333 2100 8000 100 check 
4444 5300 8000 100 check 
5555 5700 6000 100 check 
8888 3300 6000 100 check 
total pot: 800 
/inquire 

------------



------------


showdown/ 
common/ 
DIAMONDS 4 
HEARTS 2 
CLUBS 5 
DIAMONDS 7 
CLUBS 7 
/common 
8: 1111 CLUBS 8 HEARTS 9 ONE_PAIR 
7: 2222 HEARTS K DIAMONDS 6 ONE_PAIR 
6: 8888 SPADES Q SPADES A ONE_PAIR 
4: 5555 CLUBS 4 HEARTS Q TWO_PAIR 
5: 4444 CLUBS 2 CLUBS 6 TWO_PAIR 
1: 3333 SPADES 7 HEARTS 4 FULL_HOUSE 
2: 7777 CLUBS K DIAMONDS K TWO_PAIR 
3: 6666 DIAMONDS 5 HEARTS 10 TWO_PAIR 
/showdown 

------------



------------


pot-win/ 
3333: 800 
/pot-win 

------------


seat/ 
button: 1111 3300 8000 
small blind: 2222 2900 6000 
big blind: 8888 3300 6000 
5555 5700 6000 
4444 5300 8000 
3333 2900 8000 
7777 2900 4000 
6666 1700 6000 
/seat 

------------


blind/ 
2222: 50 
8888: 100 
/blind 

------------


hold/ 
HEARTS K 
DIAMONDS 6 
/hold 

------------



------------


inquire/ 
2222 2800 6000 100 call 
1111 3200 8000 100 call 
6666 1600 6000 100 call 
7777 2800 4000 100 call 
3333 2800 8000 100 call 
4444 5200 8000 100 call 
5555 5600 6000 100 call 
8888 3200 6000 100 blind 
total pot: 800 
/inquire 

------------



------------


flop/ 
DIAMONDS 4 
HEARTS 2 
CLUBS 5 
/flop 

------------



------------


inquire/ 
2222 2800 6000 100 check 
1111 3200 8000 100 call 
6666 1600 6000 100 call 
7777 2800 4000 100 call 
3333 2800 8000 100 call 
4444 5200 8000 100 call 
5555 5600 6000 100 call 
8888 3200 6000 100 check 
total pot: 800 
/inquire 

------------



------------


turn/ 
DIAMONDS 7 
/turn 

------------



------------


inquire/ 
2222 2800 6000 100 check 
1111 3200 8000 100 check 
6666 1600 6000 100 check 
7777 2800 4000 100 check 
3333 2800 8000 100 check 
4444 5200 8000 100 check 
5555 5600 6000 100 check 
8888 3200 6000 100 check 
total pot: 800 
/inquire 

------------



------------


river/ 
CLUBS 7 
/river 

------------



------------


inquire/ 
2222 2800 6000 100 check 
1111 3200 8000 100 check 
6666 1600 6000 100 check 
7777 2800 4000 100 check 
3333 2800 8000 100 check 
4444 5200 8000 100 check 
5555 5600 6000 100 check 
8888 3200 6000 100 check 
total pot: 800 
/inquire 

------------



------------


showdown/ 
common/ 
DIAMONDS 4 
HEARTS 2 
CLUBS 5 
DIAMONDS 7 
CLUBS 7 
/common 
8: 2222 CLUBS 8 HEARTS 9 ONE_PAIR 
7: 8888 HEARTS K DIAMONDS 6 ONE_PAIR 
6: 5555 SPADES Q SPADES A ONE_PAIR 
4: 4444 CLUBS 4 HEARTS Q TWO_PAIR 
5: 3333 CLUBS 2 CLUBS 6 TWO_PAIR 
1: 7777 SPADES 7 HEARTS 4 FULL_HOUSE 
2: 6666 CLUBS K DIAMONDS K TWO_PAIR 
3: 1111 DIAMONDS 5 HEARTS 10 TWO_PAIR 
/showdown 

------------



------------


pot-win/ 
7777: 800 
/pot-win 

------------


seat/ 
button: 2222 2800 6000 
small blind: 8888 3200 6000 
big blind: 5555 5600 6000 
4444 5200 8000 
3333 2800 8000 
7777 3600 4000 
6666 1600 6000 
1111 3200 8000 
/seat 

------------


blind/ 
8888: 50 
5555: 100 
/blind 

------------


hold/ 
CLUBS 8 
HEARTS 9 
/hold 

------------



------------


inquire/ 
2222 2700 6000 100 call 
1111 3100 8000 100 call 
6666 1500 6000 100 call 
7777 3500 4000 100 call 
3333 2700 8000 100 call 
4444 5100 8000 100 call 
5555 5500 6000 100 blind 
8888 3150 6000 50 blind 
total pot: 750 
/inquire 

------------



------------


flop/ 
DIAMONDS 4 
HEARTS 2 
CLUBS 5 
/flop 

------------



------------


inquire/ 
2222 2700 6000 100 call 
1111 3100 8000 100 call 
6666 1500 6000 100 call 
7777 3500 4000 100 call 
3333 2700 8000 100 call 
4444 5100 8000 100 call 
5555 5500 6000 100 check 
8888 3100 6000 100 call 
total pot: 800 
/inquire 

------------



------------


turn/ 
DIAMONDS 7 
/turn 

------------



------------


inquire/ 
2222 2700 6000 100 check 
1111 3100 8000 100 check 
6666 1500 6000 100 check 
7777 3500 4000 100 check 
3333 2700 8000 100 check 
4444 5100 8000 100 check 
5555 5500 6000 100 check 
8888 3100 6000 100 check 
total pot: 800 
/inquire 

------------



------------


river/ 
CLUBS 7 
/river 

------------



------------


inquire/ 
2222 2700 6000 100 check 
1111 3100 8000 100 check 
6666 1500 6000 100 check 
7777 3500 4000 100 check 
3333 2700 8000 100 check 
4444 5100 8000 100 check 
5555 5500 6000 100 check 
8888 3100 6000 100 check 
total pot: 800 
/inquire 

------------



------------


showdown/ 
common/ 
DIAMONDS 4 
HEARTS 2 
CLUBS 5 
DIAMONDS 7 
CLUBS 7 
/common 
8: 8888 CLUBS 8 HEARTS 9 ONE_PAIR 
7: 5555 HEARTS K DIAMONDS 6 ONE_PAIR 
6: 4444 SPADES Q SPADES A ONE_PAIR 
4: 3333 CLUBS 4 HEARTS Q TWO_PAIR 
5: 7777 CLUBS 2 CLUBS 6 TWO_PAIR 
1: 6666 SPADES 7 HEARTS 4 FULL_HOUSE 
2: 1111 CLUBS K DIAMONDS K TWO_PAIR 
3: 2222 DIAMONDS 5 HEARTS 10 TWO_PAIR 
/showdown 

------------



------------


pot-win/ 
6666: 800 
/pot-win 

------------


seat/ 
button: 8888 3100 6000 
small blind: 5555 5500 6000 
big blind: 4444 5100 8000 
3333 2700 8000 
7777 3500 4000 
6666 2300 6000 
1111 3100 8000 
2222 2700 6000 
/seat 

------------


blind/ 
5555: 50 
4444: 100 
/blind 

------------


hold/ 
DIAMONDS 10 
HEARTS 4 
/hold 

------------



------------


inquire/ 
2222 2600 6000 100 call 
1111 3000 8000 100 call 
6666 2200 6000 100 call 
7777 3400 4000 100 call 
3333 2600 8000 100 call 
4444 5000 8000 100 blind 
5555 5450 6000 50 blind 
total pot: 650 
/inquire 

------------



------------


flop/ 
SPADES 2 
DIAMONDS Q 
HEARTS J 
/flop 

------------



------------


inquire/ 
2222 2600 6000 100 check 
1111 3000 8000 100 check 
6666 2200 6000 100 check 
7777 3400 4000 100 check 
3333 2600 8000 100 check 
4444 5000 8000 100 check 
5555 5400 6000 100 check 
8888 3000 6000 100 call 
total pot: 800 
/inquire 

------------



------------


turn/ 
DIAMONDS 9 
/turn 

------------



------------


inquire/ 
2222 2600 6000 100 check 
1111 3000 8000 100 check 
6666 2200 6000 100 check 
7777 3400 4000 100 check 
3333 2600 8000 100 check 
4444 5000 8000 100 check 
5555 5400 6000 100 check 
8888 3000 6000 100 check 
total pot: 800 
/inquire 

------------



------------


river/ 
HEARTS A 
/river 

------------



------------


inquire/ 
2222 2600 6000 100 check 
1111 3000 8000 100 check 
6666 2200 6000 100 check 
7777 3400 4000 100 check 
3333 2600 8000 100 check 
4444 5000 8000 100 check 
5555 5400 6000 100 check 
8888 3000 6000 100 check 
total pot: 800 
/inquire 

------------



------------


showdown/ 
common/ 
SPADES 2 
DIAMONDS Q 
HEARTS J 
DIAMONDS 9 
HEARTS A 
/common 
2: 5555 CLUBS 7 DIAMONDS A ONE_PAIR 
4: 4444 HEARTS 9 DIAMONDS 4 ONE_PAIR 
7: 3333 CLUBS 5 DIAMONDS 6 HIGH_CARD 
5: 7777 DIAMONDS K DIAMONDS 7 HIGH_CARD 
5: 6666 HEARTS 8 HEARTS K HIGH_CARD 
3: 1111 SPADES Q DIAMONDS 8 ONE_PAIR 
1: 2222 CLUBS J CLUBS A TWO_PAIR 
6: 8888 DIAMONDS 10 HEARTS 4 HIGH_CARD 
/showdown 

------------



------------


pot-win/ 
2222: 800 
/pot-win 

------------


seat/ 
button: 5555 5400 6000 
small blind: 4444 5000 8000 
big blind: 3333 2600 8000 
7777 3400 4000 
6666 2200 6000 
1111 3000 8000 
2222 3400 6000 
8888 3000 6000 
/seat 

------------


blind/ 
4444: 50 
3333: 100 
/blind 

------------


hold/ 
CLUBS J 
CLUBS A 
/hold 

------------



------------


inquire/ 
2222 3300 6000 100 call 
1111 2900 8000 100 call 
6666 2100 6000 100 call 
7777 3300 4000 100 call 
3333 2500 8000 100 blind 
4444 4950 8000 50 blind 
total pot: 550 
/inquire 

------------



------------


flop/ 
SPADES 2 
DIAMONDS Q 
HEARTS J 
/flop 

------------



------------


inquire/ 
2222 3300 6000 100 check 
1111 2900 8000 100 check 
6666 2100 6000 100 check 
7777 3300 4000 100 check 
3333 2500 8000 100 check 
4444 4900 8000 100 check 
5555 5300 6000 100 call 
8888 2900 6000 100 call 
total pot: 800 
/inquire 

------------



------------


turn/ 
DIAMONDS 9 
/turn 

------------



------------


inquire/ 
2222 3300 6000 100 check 
1111 2900 8000 100 check 
6666 2100 6000 100 check 
7777 3300 4000 100 check 
3333 2500 8000 100 check 
4444 4900 8000 100 check 
5555 5300 6000 100 check 
8888 2900 6000 100 check 
total pot: 800 
/inquire 

------------



------------


river/ 
HEARTS A 
/river 

------------



------------


inquire/ 
2222 3300 6000 100 check 
1111 2900 8000 100 check 
6666 2100 6000 100 check 
7777 3300 4000 100 check 
3333 2500 8000 100 check 
4444 4900 8000 100 check 
5555 5300 6000 100 check 
8888 2900 6000 100 check 
total pot: 800 
/inquire 

------------



------------


showdown/ 
common/ 
SPADES 2 
DIAMONDS Q 
HEARTS J 
DIAMONDS 9 
HEARTS A 
/common 
2: 4444 CLUBS 7 DIAMONDS A ONE_PAIR 
4: 3333 HEARTS 9 DIAMONDS 4 ONE_PAIR 
7: 7777 CLUBS 5 DIAMONDS 6 HIGH_CARD 
5: 6666 DIAMONDS K DIAMONDS 7 HIGH_CARD 
5: 1111 HEARTS 8 HEARTS K HIGH_CARD 
3: 2222 SPADES Q DIAMONDS 8 ONE_PAIR 
1: 8888 CLUBS J CLUBS A TWO_PAIR 
6: 5555 DIAMONDS 10 HEARTS 4 HIGH_CARD 
/showdown 

------------



------------


pot-win/ 
8888: 800 
/pot-win 

------------


seat/ 
button: 4444 4900 8000 
small blind: 3333 2500 8000 
big blind: 7777 3300 4000 
6666 2100 6000 
1111 2900 8000 
2222 3300 6000 
8888 3700 6000 
5555 5300 6000 
/seat 

------------


blind/ 
3333: 50 
7777: 100 
/blind 

------------


hold/ 
SPADES Q 
DIAMONDS 8 
/hold 

------------



------------


inquire/ 
2222 3200 6000 100 call 
1111 2800 8000 100 call 
6666 2000 6000 100 call 
7777 3200 4000 100 blind 
3333 2450 8000 50 blind 
total pot: 450 
/inquire 

------------



------------


flop/ 
SPADES 2 
DIAMONDS Q 
HEARTS J 
/flop 

------------



------------


inquire/ 
2222 3200 6000 100 check 
1111 2800 8000 100 check 
6666 2000 6000 100 check 
7777 3200 4000 100 check 
3333 2400 8000 100 check 
4444 4800 8000 100 call 
5555 5200 6000 100 call 
8888 3600 6000 100 call 
total pot: 800 
/inquire 

------------



------------


turn/ 
DIAMONDS 9 
/turn 

------------



------------


inquire/ 
2222 3200 6000 100 check 
1111 2800 8000 100 check 
6666 2000 6000 100 check 
7777 3200 4000 100 check 
3333 2400 8000 100 check 
4444 4800 8000 100 check 
5555 5200 6000 100 check 
8888 3600 6000 100 check 
total pot: 800 
/inquire 

------------



------------


river/ 
HEARTS A 
/river 

------------



------------


inquire/ 
2222 3200 6000 100 check 
1111 2800 8000 100 check 
6666 2000 6000 100 check 
7777 3200 4000 100 check 
3333 2400 8000 100 check 
4444 4800 8000 100 check 
5555 5200 6000 100 check 
8888 3600 6000 100 check 
total pot: 800 
/inquire 

------------



------------


showdown/ 
common/ 
SPADES 2 
DIAMONDS Q 
HEARTS J 
DIAMONDS 9 
HEARTS A 
/common 
2: 3333 CLUBS 7 DIAMONDS A ONE_PAIR 
4: 7777 HEARTS 9 DIAMONDS 4 ONE_PAIR 
7: 6666 CLUBS 5 DIAMONDS 6 HIGH_CARD 
5: 1111 DIAMONDS K DIAMONDS 7 HIGH_CARD 
5: 2222 HEARTS 8 HEARTS K HIGH_CARD 
3: 8888 SPADES Q DIAMONDS 8 ONE_PAIR 
1: 5555 CLUBS J CLUBS A TWO_PAIR 
6: 4444 DIAMONDS 10 HEARTS 4 HIGH_CARD 
/showdown 

------------



------------


pot-win/ 
5555: 800 
/pot-win 

------------


seat/ 
button: 3333 2400 8000 
small blind: 7777 3200 4000 
big blind: 6666 2000 6000 
1111 2800 8000 
2222 3200 6000 
8888 3600 6000 
5555 6000 6000 
4444 4800 8000 
/seat 

------------


blind/ 
7777: 50 
6666: 100 
/blind 

------------


hold/ 
HEARTS 8 
HEARTS K 
/hold 

------------



------------


inquire/ 
2222 3100 6000 100 call 
1111 2700 8000 100 call 
6666 1900 6000 100 blind 
7777 3150 4000 50 blind 
total pot: 350 
/inquire 

------------



------------


flop/ 
SPADES 2 
DIAMONDS Q 
HEARTS J 
/flop 

------------



------------


inquire/ 
2222 3100 6000 100 check 
1111 2700 8000 100 check 
6666 1900 6000 100 check 
7777 3100 4000 100 check 
3333 2300 8000 100 call 
4444 4700 8000 100 call 
5555 5900 6000 100 call 
8888 3500 6000 100 call 
total pot: 800 
/inquire 

------------



------------


turn/ 
DIAMONDS 9 
/turn 

------------



------------


inquire/ 
2222 3100 6000 100 check 
1111 2700 8000 100 check 
6666 1900 6000 100 check 
7777 3100 4000 100 check 
3333 2300 8000 100 check 
4444 4700 8000 100 check 
5555 5900 6000 100 check 
8888 3500 6000 100 check 
total pot: 800 
/inquire 

------------



------------


river/ 
HEARTS A 
/river 

------------



------------


inquire/ 
2222 3100 6000 100 check 
1111 2700 8000 100 check 
6666 1900 6000 100 check 
7777 3100 4000 100 check 
3333 2300 8000 100 check 
4444 4700 8000 100 check 
5555 5900 6000 100 check 
8888 3500 6000 100 check 
total pot: 800 
/inquire 

------------



------------


showdown/ 
common/ 
SPADES 2 
DIAMONDS Q 
HEARTS J 
DIAMONDS 9 
HEARTS A 
/common 
2: 7777 CLUBS 7 DIAMONDS A ONE_PAIR 
4: 6666 HEARTS 9 DIAMONDS 4 ONE_PAIR 
7: 1111 CLUBS 5 DIAMONDS 6 HIGH_CARD 
5: 2222 DIAMONDS K DIAMONDS 7 HIGH_CARD 
5: 8888 HEARTS 8 HEARTS K HIGH_CARD 
3: 5555 SPADES Q DIAMONDS 8 ONE_PAIR 
1: 4444 CLUBS J CLUBS A TWO_PAIR 
6: 3333 DIAMONDS 10 HEARTS 4 HIGH_CARD 
/showdown 

------------



------------


pot-win/ 
4444: 800 
/pot-win 

------------


seat/ 
button: 7777 3100 4000 
small blind: 6666 1900 6000 
big blind: 1111 2700 8000 
2222 3100 6000 
8888 3500 6000 
5555 5900 6000 
4444 5500 8000 
3333 2300 8000 
/seat 

------------


blind/ 
6666: 50 
1111: 100 
/blind 

------------


hold/ 
DIAMONDS K 
DIAMONDS 7 
/hold 

------------



------------


inquire/ 
2222 3000 6000 100 call 
1111 2600 8000 100 blind 
6666 1850 6000 50 blind 
total pot: 250 
/inquire 

------------



------------


flop/ 
SPADES 2 
DIAMONDS Q 
HEARTS J 
/flop 

------------



------------


inquire/ 
2222 3000 6000 100 check 
1111 2600 8000 100 check 
6666 1800 6000 100 check 
7777 3000 4000 100 call 
3333 2200 8000 100 call 
4444 5400 8000 100 call 
5555 5800 6000 100 call 
8888 3400 6000 100 call 
total pot: 800 
/inquire 

------------



------------


turn/ 
DIAMONDS 9 
/turn 

------------



------------


inquire/ 
2222 3000 6000 100 check 
1111 2600 8000 100 check 
6666 1800 6000 100 check 
7777 3000 4000 100 check 
3333 2200 8000 100 check 
4444 5400 8000 100 check 
5555 5800 6000 100 check 
8888 3400 6000 100 check 
total pot: 800 
/inquire 

------------



------------


river/ 
HEARTS A 
/river 

------------



------------


inquire/ 
2222 3000 6000 100 check 
1111 2600 8000 100 check 
6666 1800 6000 100 check 
7777 3000 4000 100 check 
3333 2200 8000 100 check 
4444 5400 8000 100 check 
5555 5800 6000 100 check 
8888 3400 6000 100 check 
total pot: 800 
/inquire 

------------



------------


showdown/ 
common/ 
SPADES 2 
DIAMONDS Q 
HEARTS J 
DIAMONDS 9 
HEARTS A 
/common 
2: 6666 CLUBS 7 DIAMONDS A ONE_PAIR 
4: 1111 HEARTS 9 DIAMONDS 4 ONE_PAIR 
7: 2222 CLUBS 5 DIAMONDS 6 HIGH_CARD 
5: 8888 DIAMONDS K DIAMONDS 7 HIGH_CARD 
5: 5555 HEARTS 8 HEARTS K HIGH_CARD 
3: 4444 SPADES Q DIAMONDS 8 ONE_PAIR 
1: 3333 CLUBS J CLUBS A TWO_PAIR 
6: 7777 DIAMONDS 10 HEARTS 4 HIGH_CARD 
/showdown 

------------



------------


pot-win/ 
3333: 800 
/pot-win 

------------


seat/ 
button: 6666 1800 6000 
small blind: 1111 2600 8000 
big blind: 2222 3000 6000 
8888 3400 6000 
5555 5800 6000 
4444 5400 8000 
3333 3000 8000 
7777 3000 4000 
/seat 

------------


blind/ 
1111: 50 
2222: 100 
/blind 

------------


hold/ 
HEARTS 8 
DIAMONDS A 
/hold 

------------


inquire/ 
2222 2900 6000 100 blind 
1111 2550 8000 50 blind 
total pot: 150 
/inquire 

------------



------------


flop/ 
SPADES 5 
HEARTS 9 
CLUBS 4 
/flop 

------------



------------


inquire/ 
2222 2900 6000 100 check 
1111 2500 8000 100 check 
6666 1700 6000 100 call 
7777 2900 4000 100 call 
3333 2900 8000 100 call 
4444 5300 8000 100 call 
5555 5700 6000 100 call 
8888 3300 6000 100 call 
total pot: 800 
/inquire 

------------



------------


turn/ 
DIAMONDS Q 
/turn 

------------



------------


inquire/ 
2222 2900 6000 100 check 
1111 2500 8000 100 check 
6666 1700 6000 100 check 
7777 2900 4000 100 check 
3333 2900 8000 100 check 
4444 5300 8000 100 check 
5555 5700 6000 100 check 
8888 3300 6000 100 check 
total pot: 800 
/inquire 

------------



------------


river/ 
HEARTS J 
/river 

------------



------------


inquire/ 
2222 2900 6000 100 check 
1111 2500 8000 100 check 
6666 1700 6000 100 check 
7777 2900 4000 100 check 
3333 2900 8000 100 check 
4444 5300 8000 100 check 
5555 5700 6000 100 check 
8888 3300 6000 100 check 
total pot: 800 
/inquire 

------------



------------


showdown/ 
common/ 
SPADES 5 
HEARTS 9 
CLUBS 4 
DIAMONDS Q 
HEARTS J 
/common 
2: 1111 HEARTS 6 SPADES Q ONE_PAIR 
3: 2222 HEARTS 7 CLUBS 9 ONE_PAIR 
5: 8888 HEARTS 8 DIAMONDS A HIGH_CARD 
1: 5555 CLUBS Q DIAMONDS 5 TWO_PAIR 
8: 4444 DIAMONDS 7 DIAMONDS 2 HIGH_CARD 
7: 3333 SPADES 6 DIAMONDS 10 HIGH_CARD 
4: 7777 DIAMONDS 4 HEARTS A ONE_PAIR 
6: 6666 DIAMONDS K CLUBS 2 HIGH_CARD 
/showdown 

------------



------------


pot-win/ 
5555: 800 
/pot-win 

------------


seat/ 
button: 1111 2500 8000 
small blind: 2222 2900 6000 
big blind: 8888 3300 6000 
5555 6500 6000 
4444 5300 8000 
3333 2900 8000 
7777 2900 4000 
6666 1700 6000 
/seat 

------------


blind/ 
2222: 50 
8888: 100 
/blind 

------------


hold/ 
HEARTS 7 
CLUBS 9 
/hold 

------------



------------


inquire/ 
2222 2800 6000 100 call 
1111 2400 8000 100 call 
6666 1600 6000 100 call 
7777 2800 4000 100 call 
3333 2800 8000 100 call 
4444 5200 8000 100 call 
5555 6400 6000 100 call 
8888 3200 6000 100 blind 
total pot: 800 
/inquire 

------------



------------


flop/ 
SPADES 5 
HEARTS 9 
CLUBS 4 
/flop 

------------



------------


inquire/ 
2222 2800 6000 100 check 
1111 2400 8000 100 call 
6666 1600 6000 100 call 
7777 2800 4000 100 call 
3333 2800 8000 100 call 
4444 5200 8000 100 call 
5555 6400 6000 100 call 
8888 3200 6000 100 check 
total pot: 800 
/inquire 

------------



------------


turn/ 
DIAMONDS Q 
/turn 

------------



------------


inquire/ 
2222 2800 6000 100 check 
1111 2400 8000 100 check 
6666 1600 6000 100 check 
7777 2800 4000 100 check 
3333 2800 8000 100 check 
4444 5200 8000 100 check 
5555 6400 6000 100 check 
8888 3200 6000 100 check 
total pot: 800 
/inquire 

------------



------------


river/ 
HEARTS J 
/river 

------------



------------


inquire/ 
2222 2800 6000 100 check 
1111 2400 8000 100 check 
6666 1600 6000 100 check 
7777 2800 4000 100 check 
3333 2800 8000 100 check 
4444 5200 8000 100 check 
5555 6400 6000 100 check 
8888 3200 6000 100 check 
total pot: 800 
/inquire 

------------



------------


showdown/ 
common/ 
SPADES 5 
HEARTS 9 
CLUBS 4 
DIAMONDS Q 
HEARTS J 
/common 
2: 2222 HEARTS 6 SPADES Q ONE_PAIR 
3: 8888 HEARTS 7 CLUBS 9 ONE_PAIR 
5: 5555 HEARTS 8 DIAMONDS A HIGH_CARD 
1: 4444 CLUBS Q DIAMONDS 5 TWO_PAIR 
8: 3333 DIAMONDS 7 DIAMONDS 2 HIGH_CARD 
7: 7777 SPADES 6 DIAMONDS 10 HIGH_CARD 
4: 6666 DIAMONDS 4 HEARTS A ONE_PAIR 
6: 1111 DIAMONDS K CLUBS 2 HIGH_CARD 
/showdown 

------------



------------


pot-win/ 
4444: 800 
/pot-win 

------------


seat/ 
button: 2222 2800 6000 
small blind: 8888 3200 6000 
big blind: 5555 6400 6000 
4444 6000 8000 
3333 2800 8000 
7777 2800 4000 
6666 1600 6000 
1111 2400 8000 
/seat 

------------


blind/ 
8888: 50 
5555: 100 
/blind 

------------


hold/ 
HEARTS 6 
SPADES Q 
/hold 

------------



------------


inquire/ 
2222 2700 6000 100 call 
1111 2300 8000 100 call 
6666 1500 6000 100 call 
7777 2700 4000 100 call 
3333 2700 8000 100 call 
4444 5900 8000 100 call 
5555 6300 6000 100 blind 
8888 3150 6000 50 blind 
total pot: 750 
/inquire 

------------



------------


flop/ 
SPADES 5 
HEARTS 9 
CLUBS 4 
/flop 

------------



------------


inquire/ 
2222 2700 6000 100 call 
1111 2300 8000 100 call 
6666 1500 6000 100 call 
7777 2700 4000 100 call 
3333 2700 8000 100 call 
4444 5900 8000 100 call 
5555 6300 6000 100 check 
8888 3100 6000 100 call 
total pot: 800 
/inquire 

------------



------------


turn/ 
DIAMONDS Q 
/turn 

------------



------------


inquire/ 
2222 2700 6000 100 check 
1111 2300 8000 100 check 
6666 1500 6000 100 check 
7777 2700 4000 100 check 
3333 2700 8000 100 check 
4444 5900 8000 100 check 
5555 6300 6000 100 check 
8888 3100 6000 100 check 
total pot: 800 
/inquire 

------------



------------


river/ 
HEARTS J 
/river 

------------



------------


inquire/ 
2222 2700 6000 100 check 
1111 2300 8000 100 check 
6666 1500 6000 100 check 
7777 2700 4000 100 check 
3333 2700 8000 100 check 
4444 5900 8000 100 check 
5555 6300 6000 100 check 
8888 3100 6000 100 check 
total pot: 800 
/inquire 

------------



------------


showdown/ 
common/ 
SPADES 5 
HEARTS 9 
CLUBS 4 
DIAMONDS Q 
HEARTS J 
/common 
2: 8888 HEARTS 6 SPADES Q ONE_PAIR 
3: 5555 HEARTS 7 CLUBS 9 ONE_PAIR 
5: 4444 HEARTS 8 DIAMONDS A HIGH_CARD 
1: 3333 CLUBS Q DIAMONDS 5 TWO_PAIR 
8: 7777 DIAMONDS 7 DIAMONDS 2 HIGH_CARD 
7: 6666 SPADES 6 DIAMONDS 10 HIGH_CARD 
4: 1111 DIAMONDS 4 HEARTS A ONE_PAIR 
6: 2222 DIAMONDS K CLUBS 2 HIGH_CARD 
/showdown 

------------



------------


pot-win/ 
3333: 800 
/pot-win 

------------


seat/ 
button: 8888 3100 6000 
small blind: 5555 6300 6000 
big blind: 4444 5900 8000 
3333 3500 8000 
7777 2700 4000 
6666 1500 6000 
1111 2300 8000 
2222 2700 6000 
/seat 

------------


blind/ 
5555: 50 
4444: 100 
/blind 

------------


hold/ 
DIAMONDS K 
CLUBS 2 
/hold 

------------



------------


inquire/ 
2222 2600 6000 100 call 
1111 2200 8000 100 call 
6666 1400 6000 100 call 
7777 2600 4000 100 call 
3333 3400 8000 100 call 
4444 5800 8000 100 blind 
5555 6250 6000 50 blind 
total pot: 650 
/inquire 

------------



------------


flop/ 
SPADES 5 
HEARTS 9 
CLUBS 4 
/flop 

------------



------------


inquire/ 
2222 2600 6000 100 check 
1111 2200 8000 100 check 
6666 1400 6000 100 check 
7777 2600 4000 100 check 
3333 3400 8000 100 check 
4444 5800 8000 100 check 
5555 6200 6000 100 check 
8888 3000 6000 100 call 
total pot: 800 
/inquire 

------------



------------


turn/ 
DIAMONDS Q 
/turn 

------------



------------


inquire/ 
2222 2600 6000 100 check 
1111 2200 8000 100 check 
6666 1400 6000 100 check 
7777 2600 4000 100 check 
3333 3400 8000 100 check 
4444 5800 8000 100 check 
5555 6200 6000 100 check 
8888 3000 6000 100 check 
total pot: 800 
/inquire 

------------



------------


river/ 
HEARTS J 
/river 

------------



------------


inquire/ 
2222 2600 6000 100 check 
1111 2200 8000 100 check 
6666 1400 6000 100 check 
7777 2600 4000 100 check 
3333 3400 8000 100 check 
4444 5800 8000 100 check 
5555 6200 6000 100 check 
8888 3000 6000 100 check 
total pot: 800 
/inquire 

------------



------------


showdown/ 
common/ 
SPADES 5 
HEARTS 9 
CLUBS 4 
DIAMONDS Q 
HEARTS J 
/common 
2: 5555 HEARTS 6 SPADES Q ONE_PAIR 
3: 4444 HEARTS 7 CLUBS 9 ONE_PAIR 
5: 3333 HEARTS 8 DIAMONDS A HIGH_CARD 
1: 7777 CLUBS Q DIAMONDS 5 TWO_PAIR 
8: 6666 DIAMONDS 7 DIAMONDS 2 HIGH_CARD 
7: 1111 SPADES 6 DIAMONDS 10 HIGH_CARD 
4: 2222 DIAMONDS 4 HEARTS A ONE_PAIR 
6: 8888 DIAMONDS K CLUBS 2 HIGH_CARD 
/showdown 

------------



------------


pot-win/ 
7777: 800 
/pot-win 

------------


seat/ 
button: 5555 6200 6000 
small blind: 4444 5800 8000 
big blind: 3333 3400 8000 
7777 3400 4000 
6666 1400 6000 
1111 2200 8000 
2222 2600 6000 
8888 3000 6000 
/seat 

------------


blind/ 
4444: 50 
3333: 100 
/blind 

------------


hold/ 
DIAMONDS 4 
HEARTS A 
/hold 

------------



------------


inquire/ 
2222 2500 6000 100 call 
1111 2100 8000 100 call 
6666 1300 6000 100 call 
7777 3300 4000 100 call 
3333 3300 8000 100 blind 
4444 5750 8000 50 blind 
total pot: 550 
/inquire 

------------



------------


flop/ 
SPADES 5 
HEARTS 9 
CLUBS 4 
/flop 

------------



------------


inquire/ 
2222 2500 6000 100 check 
1111 2100 8000 100 check 
6666 1300 6000 100 check 
7777 3300 4000 100 check 
3333 3300 8000 100 check 
4444 5700 8000 100 check 
5555 6100 6000 100 call 
8888 2900 6000 100 call 
total pot: 800 
/inquire 

------------



------------


turn/ 
DIAMONDS Q 
/turn 

------------



------------


inquire/ 
2222 2500 6000 100 check 
1111 2100 8000 100 check 
6666 1300 6000 100 check 
7777 3300 4000 100 check 
3333 3300 8000 100 check 
4444 5700 8000 100 check 
5555 6100 6000 100 check 
8888 2900 6000 100 check 
total pot: 800 
/inquire 

------------



------------


river/ 
HEARTS J 
/river 

------------



------------


inquire/ 
2222 2500 6000 100 check 
1111 2100 8000 100 check 
6666 1300 6000 100 check 
7777 3300 4000 100 check 
3333 3300 8000 100 check 
4444 5700 8000 100 check 
5555 6100 6000 100 check 
8888 2900 6000 100 check 
total pot: 800 
/inquire 

------------



------------


showdown/ 
common/ 
SPADES 5 
HEARTS 9 
CLUBS 4 
DIAMONDS Q 
HEARTS J 
/common 
2: 4444 HEARTS 6 SPADES Q ONE_PAIR 
3: 3333 HEARTS 7 CLUBS 9 ONE_PAIR 
5: 7777 HEARTS 8 DIAMONDS A HIGH_CARD 
1: 6666 CLUBS Q DIAMONDS 5 TWO_PAIR 
8: 1111 DIAMONDS 7 DIAMONDS 2 HIGH_CARD 
7: 2222 SPADES 6 DIAMONDS 10 HIGH_CARD 
4: 8888 DIAMONDS 4 HEARTS A ONE_PAIR 
6: 5555 DIAMONDS K CLUBS 2 HIGH_CARD 
/showdown 

------------



------------


pot-win/ 
6666: 800 
/pot-win 

------------


seat/ 
button: 4444 5700 8000 
small blind: 3333 3300 8000 
big blind: 7777 3300 4000 
6666 2100 6000 
1111 2100 8000 
2222 2500 6000 
8888 2900 6000 
5555 6100 6000 
/seat 

------------


blind/ 
3333: 50 
7777: 100 
/blind 

------------


hold/ 
SPADES 6 
DIAMONDS 10 
/hold 

------------



------------


inquire/ 
2222 2400 6000 100 call 
1111 2000 8000 100 call 
6666 2000 6000 100 call 
7777 3200 4000 100 blind 
3333 3250 8000 50 blind 
total pot: 450 
/inquire 

------------



------------


flop/ 
SPADES 5 
HEARTS 9 
CLUBS 4 
/flop 

------------



------------


inquire/ 
2222 2400 6000 100 check 
1111 2000 8000 100 check 
6666 2000 6000 100 check 
7777 3200 4000 100 check 
3333 3200 8000 100 check 
4444 5600 8000 100 call 
5555 6000 6000 100 call 
8888 2800 6000 100 call 
total pot: 800 
/inquire 

------------



------------


turn/ 
DIAMONDS Q 
/turn 

------------



------------


inquire/ 
2222 2400 6000 100 check 
1111 2000 8000 100 check 
6666 2000 6000 100 check 
7777 3200 4000 100 check 
3333 3200 8000 100 check 
4444 5600 8000 100 check 
5555 6000 6000 100 check 
8888 2800 6000 100 check 
total pot: 800 
/inquire 

------------



------------


river/ 
HEARTS J 
/river 

------------



------------


inquire/ 
2222 2400 6000 100 check 
1111 2000 8000 100 check 
6666 2000 6000 100 check 
7777 3200 4000 100 check 
3333 3200 8000 100 check 
4444 5600 8000 100 check 
5555 6000 6000 100 check 
8888 2800 6000 100 check 
total pot: 800 
/inquire 

------------



------------


showdown/ 
common/ 
SPADES 5 
HEARTS 9 
CLUBS 4 
DIAMONDS Q 
HEARTS J 
/common 
2: 3333 HEARTS 6 SPADES Q ONE_PAIR 
3: 7777 HEARTS 7 CLUBS 9 ONE_PAIR 
5: 6666 HEARTS 8 DIAMONDS A HIGH_CARD 
1: 1111 CLUBS Q DIAMONDS 5 TWO_PAIR 
8: 2222 DIAMONDS 7 DIAMONDS 2 HIGH_CARD 
7: 8888 SPADES 6 DIAMONDS 10 HIGH_CARD 
4: 5555 DIAMONDS 4 HEARTS A ONE_PAIR 
6: 4444 DIAMONDS K CLUBS 2 HIGH_CARD 
/showdown 

------------



------------


pot-win/ 
1111: 800 
/pot-win 

------------


seat/ 
button: 3333 3200 8000 
small blind: 7777 3200 4000 
big blind: 6666 2000 6000 
1111 2800 8000 
2222 2400 6000 
8888 2800 6000 
5555 6000 6000 
4444 5600 8000 
/seat 

------------


blind/ 
7777: 50 
6666: 100 
/blind 

------------


hold/ 
SPADES 3 
CLUBS Q 
/hold 

------------



------------


inquire/ 
2222 2300 6000 100 call 
1111 2700 8000 100 call 
6666 1900 6000 100 blind 
7777 3150 4000 50 blind 
total pot: 350 
/inquire 

------------



------------


flop/ 
DIAMONDS 4 
DIAMONDS 5 
HEARTS 3 
/flop 

------------



------------


inquire/ 
2222 2300 6000 100 check 
1111 2700 8000 100 check 
6666 1900 6000 100 check 
7777 3100 4000 100 check 
3333 3100 8000 100 call 
4444 5500 8000 100 call 
5555 5900 6000 100 call 
8888 2700 6000 100 call 
total pot: 800 
/inquire 

------------



------------


turn/ 
DIAMONDS 3 
/turn 

------------



------------


inquire/ 
2222 2300 6000 100 check 
1111 2700 8000 100 check 
6666 1900 6000 100 check 
7777 3100 4000 100 check 
3333 3100 8000 100 check 
4444 5500 8000 100 check 
5555 5900 6000 100 check 
8888 2700 6000 100 check 
total pot: 800 
/inquire 

------------



------------


river/ 
HEARTS K 
/river 

------------



------------


inquire/ 
2222 2300 6000 100 check 
1111 2700 8000 100 check 
6666 1900 6000 100 check 
7777 3100 4000 100 check 
3333 3100 8000 100 check 
4444 5500 8000 100 check 
5555 5900 6000 100 check 
8888 2700 6000 100 check 
total pot: 800 
/inquire 

------------



------------


showdown/ 
common/ 
DIAMONDS 4 
DIAMONDS 5 
HEARTS 3 
DIAMONDS 3 
HEARTS K 
/common 
4: 7777 CLUBS 5 CLUBS 8 TWO_PAIR 
2: 6666 DIAMONDS 10 DIAMONDS 8 FLUSH 
5: 1111 SPADES J HEARTS A ONE_PAIR 
6: 2222 SPADES 2 SPADES 9 ONE_PAIR 
3: 8888 SPADES 3 CLUBS Q THREE_OF_A_KIND 
4: 5555 HEARTS 5 SPADES 8 TWO_PAIR 
1: 4444 DIAMONDS 6 DIAMONDS Q FLUSH 
4: 3333 HEARTS Q SPADES 5 TWO_PAIR 
/showdown 

------------



------------


pot-win/ 
4444: 800 
/pot-win 

------------


seat/ 
button: 7777 3100 4000 
small blind: 6666 1900 6000 
big blind: 1111 2700 8000 
2222 2300 6000 
8888 2700 6000 
5555 5900 6000 
4444 6300 8000 
3333 3100 8000 
/seat 

------------


blind/ 
6666: 50 
1111: 100 
/blind 

------------


hold/ 
SPADES 2 
SPADES 9 
/hold 

------------



------------


inquire/ 
2222 2200 6000 100 call 
1111 2600 8000 100 blind 
6666 1850 6000 50 blind 
total pot: 250 
/inquire 

------------



------------


flop/ 
DIAMONDS 4 
DIAMONDS 5 
HEARTS 3 
/flop 

------------



------------


inquire/ 
2222 2200 6000 100 check 
1111 2600 8000 100 check 
6666 1800 6000 100 check 
7777 3000 4000 100 call 
3333 3000 8000 100 call 
4444 6200 8000 100 call 
5555 5800 6000 100 call 
8888 2600 6000 100 call 
total pot: 800 
/inquire 

------------



------------


turn/ 
DIAMONDS 3 
/turn 

------------



------------


inquire/ 
2222 2200 6000 100 check 
1111 2600 8000 100 check 
6666 1800 6000 100 check 
7777 3000 4000 100 check 
3333 3000 8000 100 check 
4444 6200 8000 100 check 
5555 5800 6000 100 check 
8888 2600 6000 100 check 
total pot: 800 
/inquire 

------------



------------


river/ 
HEARTS K 
/river 

------------



------------


inquire/ 
2222 2200 6000 100 check 
1111 2600 8000 100 check 
6666 1800 6000 100 check 
7777 3000 4000 100 check 
3333 3000 8000 100 check 
4444 6200 8000 100 check 
5555 5800 6000 100 check 
8888 2600 6000 100 check 
total pot: 800 
/inquire 

------------



------------


showdown/ 
common/ 
DIAMONDS 4 
DIAMONDS 5 
HEARTS 3 
DIAMONDS 3 
HEARTS K 
/common 
4: 6666 CLUBS 5 CLUBS 8 TWO_PAIR 
2: 1111 DIAMONDS 10 DIAMONDS 8 FLUSH 
5: 2222 SPADES J HEARTS A ONE_PAIR 
6: 8888 SPADES 2 SPADES 9 ONE_PAIR 
3: 5555 SPADES 3 CLUBS Q THREE_OF_A_KIND 
4: 4444 HEARTS 5 SPADES 8 TWO_PAIR 
1: 3333 DIAMONDS 6 DIAMONDS Q FLUSH 
4: 7777 HEARTS Q SPADES 5 TWO_PAIR 
/showdown 

------------



------------


pot-win/ 
3333: 800 
/pot-win 

------------


seat/ 
button: 6666 1800 6000 
small blind: 1111 2600 8000 
big blind: 2222 2200 6000 
8888 2600 6000 
5555 5800 6000 
4444 6200 8000 
3333 3800 8000 
7777 3000 4000 
/seat 

------------


blind/ 
1111: 50 
2222: 100 
/blind 

------------


hold/ 
SPADES J 
HEARTS A 
/hold 

------------


inquire/ 
2222 2100 6000 100 blind 
1111 2550 8000 50 blind 
total pot: 150 
/inquire 

------------



------------


flop/ 
DIAMONDS 4 
DIAMONDS 5 
HEARTS 3 
/flop 

------------



------------


inquire/ 
2222 2100 6000 100 check 
1111 2500 8000 100 check 
6666 1700 6000 100 call 
7777 2900 4000 100 call 
3333 3700 8000 100 call 
4444 6100 8000 100 call 
5555 5700 6000 100 call 
8888 2500 6000 100 call 
total pot: 800 
/inquire 

------------



------------


turn/ 
DIAMONDS 3 
/turn 

------------



------------


inquire/ 
2222 2100 6000 100 check 
1111 2500 8000 100 check 
6666 1700 6000 100 check 
7777 2900 4000 100 check 
3333 3700 8000 100 check 
4444 6100 8000 100 check 
5555 5700 6000 100 check 
8888 2500 6000 100 check 
total pot: 800 
/inquire 

------------



------------


river/ 
HEARTS K 
/river 

------------



------------


inquire/ 
2222 2100 6000 100 check 
1111 2500 8000 100 check 
6666 1700 6000 100 check 
7777 2900 4000 100 check 
3333 3700 8000 100 check 
4444 6100 8000 100 check 
5555 5700 6000 100 check 
8888 2500 6000 100 check 
total pot: 800 
/inquire 

------------



------------


showdown/ 
common/ 
DIAMONDS 4 
DIAMONDS 5 
HEARTS 3 
DIAMONDS 3 
HEARTS K 
/common 
4: 1111 CLUBS 5 CLUBS 8 TWO_PAIR 
2: 2222 DIAMONDS 10 DIAMONDS 8 FLUSH 
5: 8888 SPADES J HEARTS A ONE_PAIR 
6: 5555 SPADES 2 SPADES 9 ONE_PAIR 
3: 4444 SPADES 3 CLUBS Q THREE_OF_A_KIND 
4: 3333 HEARTS 5 SPADES 8 TWO_PAIR 
1: 7777 DIAMONDS 6 DIAMONDS Q FLUSH 
4: 6666 HEARTS Q SPADES 5 TWO_PAIR 
/showdown 

------------



------------


pot-win/ 
7777: 800 
/pot-win 

------------


seat/ 
button: 1111 2500 8000 
small blind: 2222 2100 6000 
big blind: 8888 2500 6000 
5555 5700 6000 
4444 6100 8000 
3333 3700 8000 
7777 3700 4000 
6666 1700 6000 
/seat 

------------


blind/ 
2222: 50 
8888: 100 
/blind 

------------


hold/ 
DIAMONDS 10 
DIAMONDS 8 
/hold 

------------



------------


inquire/ 
2222 2000 6000 100 call 
1111 2400 8000 100 call 
6666 1600 6000 100 call 
7777 3600 4000 100 call 
3333 3600 8000 100 call 
4444 6000 8000 100 call 
5555 5600 6000 100 call 
8888 2400 6000 100 blind 
total pot: 800 
/inquire 

------------



------------


flop/ 
DIAMONDS 4 
DIAMONDS 5 
HEARTS 3 
/flop 

------------



------------


inquire/ 
2222 2000 6000 100 check 
1111 2400 8000 100 call 
6666 1600 6000 100 call 
7777 3600 4000 100 call 
3333 3600 8000 100 call 
4444 6000 8000 100 call 
5555 5600 6000 100 call 
8888 2400 6000 100 check 
total pot: 800 
/inquire 

------------



------------


turn/ 
DIAMONDS 3 
/turn 

------------



------------


inquire/ 
2222 2000 6000 100 check 
1111 2400 8000 100 check 
6666 1600 6000 100 check 
7777 3600 4000 100 check 
3333 3600 8000 100 check 
4444 6000 8000 100 check 
5555 5600 6000 100 check 
8888 2400 6000 100 check 
total pot: 800 
/inquire 

------------



------------


river/ 
HEARTS K 
/river 

------------



------------


inquire/ 
2222 2000 6000 100 check 
1111 2400 8000 100 check 
6666 1600 6000 100 check 
7777 3600 4000 100 check 
3333 3600 8000 100 check 
4444 6000 8000 100 check 
5555 5600 6000 100 check 
8888 2400 6000 100 check 
total pot: 800 
/inquire 

------------



------------


showdown/ 
common/ 
DIAMONDS 4 
DIAMONDS 5 
HEARTS 3 
DIAMONDS 3 
HEARTS K 
/common 
4: 2222 CLUBS 5 CLUBS 8 TWO_PAIR 
2: 8888 DIAMONDS 10 DIAMONDS 8 FLUSH 
5: 5555 SPADES J HEARTS A ONE_PAIR 
6: 4444 SPADES 2 SPADES 9 ONE_PAIR 
3: 3333 SPADES 3 CLUBS Q THREE_OF_A_KIND 
4: 7777 HEARTS 5 SPADES 8 TWO_PAIR 
1: 6666 DIAMONDS 6 DIAMONDS Q FLUSH 
4: 1111 HEARTS Q SPADES 5 TWO_PAIR 
/showdown 

------------



------------


pot-win/ 
6666: 800 
/pot-win 

------------


seat/ 
button: 2222 2000 6000 
small blind: 8888 2400 6000 
big blind: 5555 5600 6000 
4444 6000 8000 
3333 3600 8000 
7777 3600 4000 
6666 2400 6000 
1111 2400 8000 
/seat 

------------


blind/ 
8888: 50 
5555: 100 
/blind 

------------


hold/ 
CLUBS 5 
CLUBS 8 
/hold 

------------



------------


inquire/ 
2222 1900 6000 100 call 
1111 2300 8000 100 call 
6666 2300 6000 100 call 
7777 3500 4000 100 call 
3333 3500 8000 100 call 
4444 5900 8000 100 call 
5555 5500 6000 100 blind 
8888 2350 6000 50 blind 
total pot: 750 
/inquire 

------------



------------


flop/ 
DIAMONDS 4 
DIAMONDS 5 
HEARTS 3 
/flop 

------------



------------


inquire/ 
2222 1900 6000 100 call 
1111 2300 8000 100 call 
6666 2300 6000 100 call 
7777 3500 4000 100 call 
3333 3500 8000 100 call 
4444 5900 8000 100 call 
5555 5500 6000 100 check 
8888 2300 6000 100 call 
total pot: 800 
/inquire 

------------



------------


turn/ 
DIAMONDS 3 
/turn 

------------



------------


inquire/ 
2222 1900 6000 100 check 
1111 2300 8000 100 check 
6666 2300 6000 100 check 
7777 3500 4000 100 check 
3333 3500 8000 100 check 
4444 5900 8000 100 check 
5555 5500 6000 100 check 
8888 2300 6000 100 check 
total pot: 800 
/inquire 

------------



------------


river/ 
HEARTS K 
/river 

------------



------------


inquire/ 
2222 1900 6000 100 check 
1111 2300 8000 100 check 
6666 2300 6000 100 check 
7777 3500 4000 100 check 
3333 3500 8000 100 check 
4444 5900 8000 100 check 
5555 5500 6000 100 check 
8888 2300 6000 100 check 
total pot: 800 
/inquire 

------------



------------


showdown/ 
common/ 
DIAMONDS 4 
DIAMONDS 5 
HEARTS 3 
DIAMONDS 3 
HEARTS K 
/common 
4: 8888 CLUBS 5 CLUBS 8 TWO_PAIR 
2: 5555 DIAMONDS 10 DIAMONDS 8 FLUSH 
5: 4444 SPADES J HEARTS A ONE_PAIR 
6: 3333 SPADES 2 SPADES 9 ONE_PAIR 
3: 7777 SPADES 3 CLUBS Q THREE_OF_A_KIND 
4: 6666 HEARTS 5 SPADES 8 TWO_PAIR 
1: 1111 DIAMONDS 6 DIAMONDS Q FLUSH 
4: 2222 HEARTS Q SPADES 5 TWO_PAIR 
/showdown 

------------



------------


pot-win/ 
1111: 800 
/pot-win 

------------


seat/ 
button: 8888 2300 6000 
small blind: 5555 5500 6000 
big blind: 4444 5900 8000 
3333 3500 8000 
7777 3500 4000 
6666 2300 6000 
1111 3100 8000 
2222 1900 6000 
/seat 

------------


blind/ 
5555: 50 
4444: 100 
/blind 

------------


hold/ 
HEARTS Q 
SPADES 5 
/hold 

------------



------------


inquire/ 
2222 1800 6000 100 call 
1111 3000 8000 100 call 
6666 2200 6000 100 call 
7777 3400 4000 100 call 
3333 3400 8000 100 call 
4444 5800 8000 100 blind 
5555 5450 6000 50 blind 
total pot: 650 
/inquire 

------------



------------


flop/ 
DIAMONDS 4 
DIAMONDS 5 
HEARTS 3 
/flop 

------------



------------


inquire/ 
2222 1800 6000 100 check 
1111 3000 8000 100 check 
6666 2200 6000 100 check 
7777 3400 4000 100 check 
3333 3400 8000 100 check 
4444 5800 8000 100 check 
5555 5400 6000 100 check 
8888 2200 6000 100 call 
total pot: 800 
/inquire 

------------



------------


turn/ 
DIAMONDS 3 
/turn 

------------



------------


inquire/ 
2222 1800 6000 100 check 
1111 3000 8000 100 check 
6666 2200 6000 100 check 
7777 3400 4000 100 check 
3333 3400 8000 100 check 
4444 5800 8000 100 check 
5555 5400 6000 100 check 
8888 2200 6000 100 check 
total pot: 800 
/inquire 

------------



------------


river/ 
HEARTS K 
/river 

------------



------------


inquire/ 
2222 1800 6000 100 check 
1111 3000 8000 100 check 
6666 2200 6000 100 check 
7777 3400 4000 100 check 
3333 3400 8000 100 check 
4444 5800 8000 100 check 
5555 5400 6000 100 check 
8888 2200 6000 100 check 
total pot: 800 
/inquire 

------------



------------


showdown/ 
common/ 
DIAMONDS 4 
DIAMONDS 5 
HEARTS 3 
DIAMONDS 3 
HEARTS K 
/common 
4: 5555 CLUBS 5 CLUBS 8 TWO_PAIR 
2: 4444 DIAMONDS 10 DIAMONDS 8 FLUSH 
5: 3333 SPADES J HEARTS A ONE_PAIR 
6: 7777 SPADES 2 SPADES 9 ONE_PAIR 
3: 6666 SPADES 3 CLUBS Q THREE_OF_A_KIND 
4: 1111 HEARTS 5 SPADES 8 TWO_PAIR 
1: 2222 DIAMONDS 6 DIAMONDS Q FLUSH 
4: 8888 HEARTS Q SPADES 5 TWO_PAIR 
/showdown 

------------



------------


pot-win/ 
2222: 800 
/pot-win 

------------


seat/ 
button: 5555 5400 6000 
small blind: 4444 5800 8000 
big blind: 3333 3400 8000 
7777 3400 4000 
6666 2200 6000 
1111 3000 8000 
2222 2600 6000 
8888 2200 6000 
/seat 

------------


blind/ 
4444: 50 
3333: 100 
/blind 

------------


hold/ 
SPADES Q 
SPADES 6 
/hold 

------------



------------


inquire/ 
2222 2500 6000 100 call 
1111 2900 8000 100 call 
6666 2100 6000 100 call 
7777 3300 4000 100 call 
3333 3300 8000 100 blind 
4444 5750 8000 50 blind 
total pot: 550 
/inquire 

------------



------------


flop/ 
SPADES K 
HEARTS K 
DIAMONDS A 
/flop 

------------



------------


inquire/ 
2222 2500 6000 100 check 
1111 2900 8000 100 check 
6666 2100 6000 100 check 
7777 3300 4000 100 check 
3333 3300 8000 100 check 
4444 5700 8000 100 check 
5555 5300 6000 100 call 
8888 2100 6000 100 call 
total pot: 800 
/inquire 

------------



------------


turn/ 
HEARTS Q 
/turn 

------------



------------


inquire/ 
2222 2500 6000 100 check 
1111 2900 8000 100 check 
6666 2100 6000 100 check 
7777 3300 4000 100 check 
3333 3300 8000 100 check 
4444 5700 8000 100 check 
5555 5300 6000 100 check 
8888 2100 6000 100 check 
total pot: 800 
/inquire 

------------



------------


river/ 
DIAMONDS 2 
/river 

------------



------------


inquire/ 
2222 2500 6000 100 check 
1111 2900 8000 100 check 
6666 2100 6000 100 check 
7777 3300 4000 100 check 
3333 3300 8000 100 check 
4444 5700 8000 100 check 
5555 5300 6000 100 check 
8888 2100 6000 100 check 
total pot: 800 
/inquire 

------------



------------


showdown/ 
common/ 
SPADES K 
HEARTS K 
DIAMONDS A 
HEARTS Q 
DIAMONDS 2 
/common 
2: 4444 DIAMONDS 8 DIAMONDS Q TWO_PAIR 
7: 3333 CLUBS 7 HEARTS 6 ONE_PAIR 
6: 7777 DIAMONDS 10 CLUBS 6 ONE_PAIR 
3: 6666 HEARTS 10 SPADES 10 TWO_PAIR 
5: 1111 HEARTS J SPADES 7 ONE_PAIR 
1: 2222 HEARTS 8 DIAMONDS K THREE_OF_A_KIND 
2: 8888 SPADES Q SPADES 6 TWO_PAIR 
4: 5555 CLUBS 10 HEARTS 2 TWO_PAIR 
/showdown 

------------



------------


pot-win/ 
2222: 800 
/pot-win 

------------


seat/ 
button: 4444 5700 8000 
small blind: 3333 3300 8000 
big blind: 7777 3300 4000 
6666 2100 6000 
1111 2900 8000 
2222 3300 6000 
8888 2100 6000 
5555 5300 6000 
/seat 

------------


blind/ 
3333: 50 
7777: 100 
/blind 

------------


hold/ 
HEARTS 8 
DIAMONDS K 
/hold 

------------



------------


inquire/ 
2222 3200 6000 100 call 
1111 2800 8000 100 call 
6666 2000 6000 100 call 
7777 3200 4000 100 blind 
3333 3250 8000 50 blind 
total pot: 450 
/inquire 

------------



------------


flop/ 
SPADES K 
HEARTS K 
DIAMONDS A 
/flop 

------------



------------


inquire/ 
2222 3200 6000 100 check 
1111 2800 8000 100 check 
6666 2000 6000 100 check 
7777 3200 4000 100 check 
3333 3200 8000 100 check 
4444 5600 8000 100 call 
5555 5200 6000 100 call 
8888 2000 6000 100 call 
total pot: 800 
/inquire 

------------



------------


turn/ 
HEARTS Q 
/turn 

------------



------------


inquire/ 
2222 3200 6000 100 check 
1111 2800 8000 100 check 
6666 2000 6000 100 check 
7777 3200 4000 100 check 
3333 3200 8000 100 check 
4444 5600 8000 100 check 
5555 5200 6000 100 check 
8888 2000 6000 100 check 
total pot: 800 
/inquire 

------------



------------


river/ 
DIAMONDS 2 
/river 

------------



------------


inquire/ 
2222 3200 6000 100 check 
1111 2800 8000 100 check 
6666 2000 6000 100 check 
7777 3200 4000 100 check 
3333 3200 8000 100 check 
4444 5600 8000 100 check 
5555 5200 6000 100 check 
8888 2000 6000 100 check 
total pot: 800 
/inquire 

------------



------------


showdown/ 
common/ 
SPADES K 
HEARTS K 
DIAMONDS A 
HEARTS Q 
DIAMONDS 2 
/common 
2: 3333 DIAMONDS 8 DIAMONDS Q TWO_PAIR 
7: 7777 CLUBS 7 HEARTS 6 ONE_PAIR 
6: 6666 DIAMONDS 10 CLUBS 6 ONE_PAIR 
3: 1111 HEARTS 10 SPADES 10 TWO_PAIR 
5: 2222 HEARTS J SPADES 7 ONE_PAIR 
1: 8888 HEARTS 8 DIAMONDS K THREE_OF_A_KIND 
2: 5555 SPADES Q SPADES 6 TWO_PAIR 
4: 4444 CLUBS 10 HEARTS 2 TWO_PAIR 
/showdown 

------------



------------


pot-win/ 
8888: 800 
/pot-win 

------------


seat/ 
button: 3333 3200 8000 
small blind: 7777 3200 4000 
big blind: 6666 2000 6000 
1111 2800 8000 
2222 3200 6000 
8888 2800 6000 
5555 5200 6000 
4444 5600 8000 
/seat 

------------


blind/ 
7777: 50 
6666: 100 
/blind 

------------


hold/ 
HEARTS J 
SPADES 7 
/hold 

------------



------------


inquire/ 
2222 3100 6000 100 call 
1111 2700 8000 100 call 
6666 1900 6000 100 blind 
7777 3150 4000 50 blind 
total pot: 350 
/inquire 

------------



------------


flop/ 
SPADES K 
HEARTS K 
DIAMONDS A 
/flop 

------------



------------


inquire/ 
2222 3100 6000 100 check 
1111 2700 8000 100 check 
6666 1900 6000 100 check 
7777 3100 4000 100 check 
3333 3100 8000 100 call 
4444 5500 8000 100 call 
5555 5100 6000 100 call 
8888 2700 6000 100 call 
total pot: 800 
/inquire 

------------



------------


turn/ 
HEARTS Q 
/turn 

------------



------------


inquire/ 
2222 3100 6000 100 check 
1111 2700 8000 100 check 
6666 1900 6000 100 check 
7777 3100 4000 100 check 
3333 3100 8000 100 check 
4444 5500 8000 100 check 
5555 5100 6000 100 check 
8888 2700 6000 100 check 
total pot: 800 
/inquire 

------------



------------


river/ 
DIAMONDS 2 
/river 

------------



------------


inquire/ 
2222 3100 6000 100 check 
1111 2700 8000 100 check 
6666 1900 6000 100 check 
7777 3100 4000 100 check 
3333 3100 8000 100 check 
4444 5500 8000 100 check 
5555 5100 6000 100 check 
8888 2700 6000 100 check 
total pot: 800 
/inquire 

------------



------------


showdown/ 
common/ 
SPADES K 
HEARTS K 
DIAMONDS A 
HEARTS Q 
DIAMONDS 2 
/common 
2: 7777 DIAMONDS 8 DIAMONDS Q TWO_PAIR 
7: 6666 CLUBS 7 HEARTS 6 ONE_PAIR 
6: 1111 DIAMONDS 10 CLUBS 6 ONE_PAIR 
3: 2222 HEARTS 10 SPADES 10 TWO_PAIR 
5: 8888 HEARTS J SPADES 7 ONE_PAIR 
1: 5555 HEARTS 8 DIAMONDS K THREE_OF_A_KIND 
2: 4444 SPADES Q SPADES 6 TWO_PAIR 
4: 3333 CLUBS 10 HEARTS 2 TWO_PAIR 
/showdown 

------------



------------


pot-win/ 
5555: 800 
/pot-win 

------------


seat/ 
button: 7777 3100 4000 
small blind: 6666 1900 6000 
big blind: 1111 2700 8000 
2222 3100 6000 
8888 2700 6000 
5555 5900 6000 
4444 5500 8000 
3333 3100 8000 
/seat 

------------


blind/ 
6666: 50 
1111: 100 
/blind 

------------


hold/ 
HEARTS 10 
SPADES 10 
/hold 

------------



------------


inquire/ 
2222 3000 6000 100 call 
1111 2600 8000 100 blind 
6666 1850 6000 50 blind 
total pot: 250 
/inquire 

------------



------------


flop/ 
SPADES K 
HEARTS K 
DIAMONDS A 
/flop 

------------



------------


inquire/ 
2222 3000 6000 100 check 
1111 2600 8000 100 check 
6666 1800 6000 100 check 
7777 3000 4000 100 call 
3333 3000 8000 100 call 
4444 5400 8000 100 call 
5555 5800 6000 100 call 
8888 2600 6000 100 call 
total pot: 800 
/inquire 

------------



------------


turn/ 
HEARTS Q 
/turn 

------------



------------


inquire/ 
2222 3000 6000 100 check 
1111 2600 8000 100 check 
6666 1800 6000 100 check 
7777 3000 4000 100 check 
3333 3000 8000 100 check 
4444 5400 8000 100 check 
5555 5800 6000 100 check 
8888 2600 6000 100 check 
total pot: 800 
/inquire 

------------



------------


river/ 
DIAMONDS 2 
/river 

------------



------------


inquire/ 
2222 3000 6000 100 check 
1111 2600 8000 100 check 
6666 1800 6000 100 check 
7777 3000 4000 100 check 
3333 3000 8000 100 check 
4444 5400 8000 100 check 
5555 5800 6000 100 check 
8888 2600 6000 100 check 
total pot: 800 
/inquire 

------------



------------


showdown/ 
common/ 
SPADES K 
HEARTS K 
DIAMONDS A 
HEARTS Q 
DIAMONDS 2 
/common 
2: 6666 DIAMONDS 8 DIAMONDS Q TWO_PAIR 
7: 1111 CLUBS 7 HEARTS 6 ONE_PAIR 
6: 2222 DIAMONDS 10 CLUBS 6 ONE_PAIR 
3: 8888 HEARTS 10 SPADES 10 TWO_PAIR 
5: 5555 HEARTS J SPADES 7 ONE_PAIR 
1: 4444 HEARTS 8 DIAMONDS K THREE_OF_A_KIND 
2: 3333 SPADES Q SPADES 6 TWO_PAIR 
4: 7777 CLUBS 10 HEARTS 2 TWO_PAIR 
/showdown 

------------



------------


pot-win/ 
4444: 800 
/pot-win 

------------


seat/ 
button: 6666 1800 6000 
small blind: 1111 2600 8000 
big blind: 2222 3000 6000 
8888 2600 6000 
5555 5800 6000 
4444 6200 8000 
3333 3000 8000 
7777 3000 4000 
/seat 

------------


blind/ 
1111: 50 
2222: 100 
/blind 

------------


hold/ 
DIAMONDS 10 
CLUBS 6 
/hold 

------------


inquire/ 
2222 2900 6000 100 blind 
1111 2550 8000 50 blind 
total pot: 150 
/inquire 

------------



------------


flop/ 
SPADES K 
HEARTS K 
DIAMONDS A 
/flop 

------------



------------


inquire/ 
2222 2900 6000 100 check 
1111 2500 8000 100 check 
6666 1700 6000 100 call 
7777 2900 4000 100 call 
3333 2900 8000 100 call 
4444 6100 8000 100 call 
5555 5700 6000 100 call 
8888 2500 6000 100 call 
total pot: 800 
/inquire 

------------



------------


turn/ 
HEARTS Q 
/turn 

------------



------------


inquire/ 
2222 2900 6000 100 check 
1111 2500 8000 100 check 
6666 1700 6000 100 check 
7777 2900 4000 100 check 
3333 2900 8000 100 check 
4444 6100 8000 100 check 
5555 5700 6000 100 check 
8888 2500 6000 100 check 
total pot: 800 
/inquire 

------------



------------


river/ 
DIAMONDS 2 
/river 

------------



------------


inquire/ 
2222 2900 6000 100 check 
1111 2500 8000 100 check 
6666 1700 6000 100 check 
7777 2900 4000 100 check 
3333 2900 8000 100 check 
4444 6100 8000 100 check 
5555 5700 6000 100 check 
8888 2500 6000 100 check 
total pot: 800 
/inquire 

------------



------------


showdown/ 
common/ 
SPADES K 
HEARTS K 
DIAMONDS A 
HEARTS Q 
DIAMONDS 2 
/common 
2: 1111 DIAMONDS 8 DIAMONDS Q TWO_PAIR 
7: 2222 CLUBS 7 HEARTS 6 ONE_PAIR 
6: 8888 DIAMONDS 10 CLUBS 6 ONE_PAIR 
3: 5555 HEARTS 10 SPADES 10 TWO_PAIR 
5: 4444 HEARTS J SPADES 7 ONE_PAIR 
1: 3333 HEARTS 8 DIAMONDS K THREE_OF_A_KIND 
2: 7777 SPADES Q SPADES 6 TWO_PAIR 
4: 6666 CLUBS 10 HEARTS 2 TWO_PAIR 
/showdown 

------------



------------


pot-win/ 
3333: 800 
/pot-win 

------------


seat/ 
button: 1111 2500 8000 
small blind: 2222 2900 6000 
big blind: 8888 2500 6000 
5555 5700 6000 
4444 6100 8000 
3333 3700 8000 
7777 2900 4000 
6666 1700 6000 
/seat 

------------


blind/ 
2222: 50 
8888: 100 
/blind 

------------


hold/ 
HEARTS A 
DIAMONDS Q 
/hold 

------------



------------


inquire/ 
2222 2800 6000 100 call 
1111 2400 8000 100 call 
6666 1600 6000 100 call 
7777 2800 4000 100 call 
3333 3600 8000 100 call 
4444 6000 8000 100 call 
5555 5600 6000 100 call 
8888 2400 6000 100 blind 
total pot: 800 
/inquire 

------------



------------


flop/ 
SPADES 3 
CLUBS K 
SPADES K 
/flop 

------------



------------


inquire/ 
2222 2800 6000 100 check 
1111 2400 8000 100 call 
6666 1600 6000 100 call 
7777 2800 4000 100 call 
3333 3600 8000 100 call 
4444 6000 8000 100 call 
5555 5600 6000 100 call 
8888 2400 6000 100 check 
total pot: 800 
/inquire 

------------



------------


turn/ 
CLUBS 10 
/turn 

------------



------------


inquire/ 
2222 2800 6000 100 check 
1111 2400 8000 100 check 
6666 1600 6000 100 check 
7777 2800 4000 100 check 
3333 3600 8000 100 check 
4444 6000 8000 100 check 
5555 5600 6000 100 check 
8888 2400 6000 100 check 
total pot: 800 
/inquire 

------------



------------


river/ 
SPADES 7 
/river 

------------



------------


inquire/ 
2222 2800 6000 100 check 
1111 2400 8000 100 check 
6666 1600 6000 100 check 
7777 2800 4000 100 check 
3333 3600 8000 100 check 
4444 6000 8000 100 check 
5555 5600 6000 100 check 
8888 2400 6000 100 check 
total pot: 800 
/inquire 

------------



------------


showdown/ 
common/ 
SPADES 3 
CLUBS K 
SPADES K 
CLUBS 10 
SPADES 7 
/common 
2: 2222 DIAMONDS 4 HEARTS 3 TWO_PAIR 
3: 8888 HEARTS A DIAMONDS Q ONE_PAIR 
5: 5555 HEARTS 4 SPADES 9 ONE_PAIR 
3: 4444 CLUBS Q DIAMONDS A ONE_PAIR 
1: 3333 SPADES Q DIAMONDS 10 TWO_PAIR 
4: 7777 CLUBS 8 SPADES A ONE_PAIR 
5: 6666 CLUBS 9 CLUBS 4 ONE_PAIR 
2: 1111 CLUBS 3 DIAMONDS 9 TWO_PAIR 
/showdown 

------------



------------


pot-win/ 
3333: 800 
/pot-win 

------------


seat/ 
button: 2222 2800 6000 
small blind: 8888 2400 6000 
big blind: 5555 5600 6000 
4444 6000 8000 
3333 4400 8000 
7777 2800 4000 
6666 1600 6000 
1111 2400 8000 
/seat 

------------


blind/ 
8888: 50 
5555: 100 
/blind 

------------


hold/ 
DIAMONDS 4 
HEARTS 3 
/hold 

------------



------------


inquire/ 
2222 2700 6000 100 call 
1111 2300 8000 100 call 
6666 1500 6000 100 call 
7777 2700 4000 100 call 
3333 4300 8000 100 call 
4444 5900 8000 100 call 
5555 5500 6000 100 blind 
8888 2350 6000 50 blind 
total pot: 750 
/inquire 

------------



------------


flop/ 
SPADES 3 
CLUBS K 
SPADES K 
/flop 

------------



------------


inquire/ 
2222 2700 6000 100 call 
1111 2300 8000 100 call 
6666 1500 6000 100 call 
7777 2700 4000 100 call 
3333 4300 8000 100 call 
4444 5900 8000 100 call 
5555 5500 6000 100 check 
8888 2300 6000 100 call 
total pot: 800 
/inquire 

------------



------------


turn/ 
CLUBS 10 
/turn 

------------



------------


inquire/ 
2222 2700 6000 100 check 
1111 2300 8000 100 check 
6666 1500 6000 100 check 
7777 2700 4000 100 check 
3333 4300 8000 100 check 
4444 5900 8000 100 check 
5555 5500 6000 100 check 
8888 2300 6000 100 check 
total pot: 800 
/inquire 

------------



------------


river/ 
SPADES 7 
/river 

------------



------------


inquire/ 
2222 2700 6000 100 check 
1111 2300 8000 100 check 
6666 1500 6000 100 check 
7777 2700 4000 100 check 
3333 4300 8000 100 check 
4444 5900 8000 100 check 
5555 5500 6000 100 check 
8888 2300 6000 100 check 
total pot: 800 
/inquire 

------------



------------


showdown/ 
common/ 
SPADES 3 
CLUBS K 
SPADES K 
CLUBS 10 
SPADES 7 
/common 
2: 8888 DIAMONDS 4 HEARTS 3 TWO_PAIR 
3: 5555 HEARTS A DIAMONDS Q ONE_PAIR 
5: 4444 HEARTS 4 SPADES 9 ONE_PAIR 
3: 3333 CLUBS Q DIAMONDS A ONE_PAIR 
1: 7777 SPADES Q DIAMONDS 10 TWO_PAIR 
4: 6666 CLUBS 8 SPADES A ONE_PAIR 
5: 1111 CLUBS 9 CLUBS 4 ONE_PAIR 
2: 2222 CLUBS 3 DIAMONDS 9 TWO_PAIR 
/showdown 

------------



------------


pot-win/ 
7777: 800 
/pot-win 

------------


seat/ 
button: 8888 2300 6000 
small blind: 5555 5500 6000 
big blind: 4444 5900 8000 
3333 4300 8000 
7777 3500 4000 
6666 1500 6000 
1111 2300 8000 
2222 2700 6000 
/seat 

------------


blind/ 
5555: 50 
4444: 100 
/blind 

------------


hold/ 
CLUBS 3 
DIAMONDS 9 
/hold 

------------



------------


inquire/ 
2222 2600 6000 100 call 
1111 2200 8000 100 call 
6666 1400 6000 100 call 
7777 3400 4000 100 call 
3333 4200 8000 100 call 
4444 5800 8000 100 blind 
5555 5450 6000 50 blind 
total pot: 650 
/inquire 

------------



------------


flop/ 
SPADES 3 
CLUBS K 
SPADES K 
/flop 

------------



------------


inquire/ 
2222 2600 6000 100 check 
1111 2200 8000 100 check 
6666 1400 6000 100 check 
7777 3400 4000 100 check 
3333 4200 8000 100 check 
4444 5800 8000 100 check 
5555 5400 6000 100 check 
8888 2200 6000 100 call 
total pot: 800 
/inquire 

------------



------------


turn/ 
CLUBS 10 
/turn 

------------



------------


inquire/ 
2222 2600 6000 100 check 
1111 2200 8000 100 check 
6666 1400 6000 100 check 
7777 3400 4000 100 check 
3333 4200 8000 100 check 
4444 5800 8000 100 check 
5555 5400 6000 100 check 
8888 2200 6000 100 check 
total pot: 800 
/inquire 

------------



------------


river/ 
SPADES 7 
/river 

------------



------------


inquire/ 
2222 2600 6000 100 check 
1111 2200 8000 100 check 
6666 1400 6000 100 check 
7777 3400 4000 100 check 
3333 4200 8000 100 check 
4444 5800 8000 100 check 
5555 5400 6000 100 check 
8888 2200 6000 100 check 
total pot: 800 
/inquire 

------------



------------


showdown/ 
common/ 
SPADES 3 
CLUBS K 
SPADES K 
CLUBS 10 
SPADES 7 
/common 
2: 5555 DIAMONDS 4 HEARTS 3 TWO_PAIR 
3: 4444 HEARTS A DIAMONDS Q ONE_PAIR 
5: 3333 HEARTS 4 SPADES 9 ONE_PAIR 
3: 7777 CLUBS Q DIAMONDS A ONE_PAIR 
1: 6666 SPADES Q DIAMONDS 10 TWO_PAIR 
4: 1111 CLUBS 8 SPADES A ONE_PAIR 
5: 2222 CLUBS 9 CLUBS 4 ONE_PAIR 
2: 8888 CLUBS 3 DIAMONDS 9 TWO_PAIR 
/showdown 

------------



------------


pot-win/ 
6666: 800 
/pot-win 

------------


seat/ 
button: 5555 5400 6000 
small blind: 4444 5800 8000 
big blind: 3333 4200 8000 
7777 3400 4000 
6666 2200 6000 
1111 2200 8000 
2222 2600 6000 
8888 2200 6000 
/seat 

------------


blind/ 
4444: 50 
3333: 100 
/blind 

------------


hold/ 
CLUBS 9 
CLUBS 4 
/hold 

------------



------------


inquire/ 
2222 2500 6000 100 call 
1111 2100 8000 100 call 
6666 2100 6000 100 call 
7777 3300 4000 100 call 
3333 4100 8000 100 blind 
4444 5750 8000 50 blind 
total pot: 550 
/inquire 

------------



------------


flop/ 
SPADES 3 
CLUBS K 
SPADES K 
/flop 

------------



------------


inquire/ 
2222 2500 6000 100 check 
1111 2100 8000 100 check 
6666 2100 6000 100 check 
7777 3300 4000 100 check 
3333 4100 8000 100 check 
4444 5700 8000 100 check 
5555 5300 6000 100 call 
8888 2100 6000 100 call 
total pot: 800 
/inquire 

------------



------------


turn/ 
CLUBS 10 
/turn 

------------



------------


inquire/ 
2222 2500 6000 100 check 
1111 2100 8000 100 check 
6666 2100 6000 100 check 
7777 3300 4000 100 check 
3333 4100 8000 100 check 
4444 5700 8000 100 check 
5555 5300 6000 100 check 
8888 2100 6000 100 check 
total pot: 800 
/inquire 

------------



------------


river/ 
SPADES 7 
/river 

------------



------------


inquire/ 
2222 2500 6000 100 check 
1111 2100 8000 100 check 
6666 2100 6000 100 check 
7777 3300 4000 100 check 
3333 4100 8000 100 check 
4444 5700 8000 100 check 
5555 5300 6000 100 check 
8888 2100 6000 100 check 
total pot: 800 
/inquire 

------------



------------


showdown/ 
common/ 
SPADES 3 
CLUBS K 
SPADES K 
CLUBS 10 
SPADES 7 
/common 
2: 4444 DIAMONDS 4 HEARTS 3 TWO_PAIR 
3: 3333 HEARTS A DIAMONDS Q ONE_PAIR 
5: 7777 HEARTS 4 SPADES 9 ONE_PAIR 
3: 6666 CLUBS Q DIAMONDS A ONE_PAIR 
1: 1111 SPADES Q DIAMONDS 10 TWO_PAIR 
4: 2222 CLUBS 8 SPADES A ONE_PAIR 
5: 8888 CLUBS 9 CLUBS 4 ONE_PAIR 
2: 5555 CLUBS 3 DIAMONDS 9 TWO_PAIR 
/showdown 

------------



------------


pot-win/ 
1111: 800 
/pot-win 

------------


seat/ 
button: 4444 5700 8000 
small blind: 3333 4100 8000 
big blind: 7777 3300 4000 
6666 2100 6000 
1111 2900 8000 
2222 2500 6000 
8888 2100 6000 
5555 5300 6000 
/seat 

------------


blind/ 
3333: 50 
7777: 100 
/blind 

------------


hold/ 
CLUBS 8 
SPADES A 
/hold 

------------



------------


inquire/ 
2222 2400 6000 100 call 
1111 2800 8000 100 call 
6666 2000 6000 100 call 
7777 3200 4000 100 blind 
3333 4050 8000 50 blind 
total pot: 450 
/inquire 

------------



------------


flop/ 
SPADES 3 
CLUBS K 
SPADES K 
/flop 

------------



------------


inquire/ 
2222 2400 6000 100 check 
1111 2800 8000 100 check 
6666 2000 6000 100 check 
7777 3200 4000 100 check 
3333 4000 8000 100 check 
4444 5600 8000 100 call 
5555 5200 6000 100 call 
8888 2000 6000 100 call 
total pot: 800 
/inquire 

------------



------------


turn/ 
CLUBS 10 
/turn 

------------



------------


inquire/ 
2222 2400 6000 100 check 
1111 2800 8000 100 check 
6666 2000 6000 100 check 
7777 3200 4000 100 check 
3333 4000 8000 100 check 
4444 5600 8000 100 check 
5555 5200 6000 100 check 
8888 2000 6000 100 check 
total pot: 800 
/inquire 

------------



------------


river/ 
SPADES 7 
/river 

------------



------------


inquire/ 
2222 2400 6000 100 check 
1111 2800 8000 100 check 
6666 2000 6000 100 check 
7777 3200 4000 100 check 
3333 4000 8000 100 check 
4444 5600 8000 100 check 
5555 5200 6000 100 check 
8888 2000 6000 100 check 
total pot: 800 
/inquire 

------------



------------


showdown/ 
common/ 
SPADES 3 
CLUBS K 
SPADES K 
CLUBS 10 
SPADES 7 
/common 
2: 3333 DIAMONDS 4 HEARTS 3 TWO_PAIR 
3: 7777 HEARTS A DIAMONDS Q ONE_PAIR 
5: 6666 HEARTS 4 SPADES 9 ONE_PAIR 
3: 1111 CLUBS Q DIAMONDS A ONE_PAIR 
1: 2222 SPADES Q DIAMONDS 10 TWO_PAIR 
4: 8888 CLUBS 8 SPADES A ONE_PAIR 
5: 5555 CLUBS 9 CLUBS 4 ONE_PAIR 
2: 4444 CLUBS 3 DIAMONDS 9 TWO_PAIR 
/showdown 

------------



------------


pot-win/ 
2222: 800 
/pot-win 

------------


seat/ 
button: 3333 4000 8000 
small blind: 7777 3200 4000 
big blind: 6666 2000 6000 
1111 2800 8000 
2222 3200 6000 
8888 2000 6000 
5555 5200 6000 
4444 5600 8000 
/seat 

------------


blind/ 
7777: 50 
6666: 100 
/blind 

------------


hold/ 
SPADES Q 
DIAMONDS 10 
/hold 

------------



------------


inquire/ 
2222 3100 6000 100 call 
1111 2700 8000 100 call 
6666 1900 6000 100 blind 
7777 3150 4000 50 blind 
total pot: 350 
/inquire 

------------



------------


flop/ 
SPADES 3 
CLUBS K 
SPADES K 
/flop 

------------



------------


inquire/ 
2222 3100 6000 100 check 
1111 2700 8000 100 check 
6666 1900 6000 100 check 
7777 3100 4000 100 check 
3333 3900 8000 100 call 
4444 5500 8000 100 call 
5555 5100 6000 100 call 
8888 1900 6000 100 call 
total pot: 800 
/inquire 

------------



------------


turn/ 
CLUBS 10 
/turn 

------------



------------


inquire/ 
2222 3100 6000 100 check 
1111 2700 8000 100 check 
6666 1900 6000 100 check 
7777 3100 4000 100 check 
3333 3900 8000 100 check 
4444 5500 8000 100 check 
5555 5100 6000 100 check 
8888 1900 6000 100 check 
total pot: 800 
/inquire 

------------



------------


river/ 
SPADES 7 
/river 

------------



------------


inquire/ 
2222 3100 6000 100 check 
1111 2700 8000 100 check 
6666 1900 6000 100 check 
7777 3100 4000 100 check 
3333 3900 8000 100 check 
4444 5500 8000 100 check 
5555 5100 6000 100 check 
8888 1900 6000 100 check 
total pot: 800 
/inquire 

------------



------------


showdown/ 
common/ 
SPADES 3 
CLUBS K 
SPADES K 
CLUBS 10 
SPADES 7 
/common 
2: 7777 DIAMONDS 4 HEARTS 3 TWO_PAIR 
3: 6666 HEARTS A DIAMONDS Q ONE_PAIR 
5: 1111 HEARTS 4 SPADES 9 ONE_PAIR 
3: 2222 CLUBS Q DIAMONDS A ONE_PAIR 
1: 8888 SPADES Q DIAMONDS 10 TWO_PAIR 
4: 5555 CLUBS 8 SPADES A ONE_PAIR 
5: 4444 CLUBS 9 CLUBS 4 ONE_PAIR 
2: 3333 CLUBS 3 DIAMONDS 9 TWO_PAIR 
/showdown 

------------



------------


pot-win/ 
8888: 800 
/pot-win 

------------


seat/ 
button: 7777 3100 4000 
small blind: 6666 1900 6000 
big blind: 1111 2700 8000 
2222 3100 6000 
8888 2700 6000 
5555 5100 6000 
4444 5500 8000 
3333 3900 8000 
/seat 

------------


blind/ 
6666: 50 
1111: 100 
/blind 

------------


hold/ 
SPADES 9 
CLUBS Q 
/hold 

------------



------------


inquire/ 
2222 3000 6000 100 call 
1111 2600 8000 100 blind 
6666 1850 6000 50 blind 
total pot: 250 
/inquire 

------------



------------


flop/ 
CLUBS 5 
HEARTS 2 
DIAMONDS 10 
/flop 

------------



------------


inquire/ 
2222 3000 6000 100 check 
1111 2600 8000 100 check 
6666 1800 6000 100 check 
7777 3000 4000 100 call 
3333 3800 8000 100 call 
4444 5400 8000 100 call 
5555 5000 6000 100 call 
8888 2600 6000 100 call 
total pot: 800 
/inquire 

------------



------------


turn/ 
CLUBS J 
/turn 

------------



------------


inquire/ 
2222 3000 6000 100 check 
1111 2600 8000 100 check 
6666 1800 6000 100 check 
7777 3000 4000 100 check 
3333 3800 8000 100 check 
4444 5400 8000 100 check 
5555 5000 6000 100 check 
8888 2600 6000 100 check 
total pot: 800 
/inquire 

------------



------------


river/ 
SPADES 2 
/river 

------------



------------


inquire/ 
2222 3000 6000 100 check 
1111 2600 8000 100 check 
6666 1800 6000 100 check 
7777 3000 4000 100 check 
3333 3800 8000 100 check 
4444 5400 8000 100 check 
5555 5000 6000 100 check 
8888 2600 6000 100 check 
total pot: 800 
/inquire 

------------



------------


showdown/ 
common/ 
CLUBS 5 
HEARTS 2 
DIAMONDS 10 
CLUBS J 
SPADES 2 
/common 
3: 6666 CLUBS A CLUBS K ONE_PAIR 
6: 1111 SPADES 8 DIAMONDS 6 ONE_PAIR 
4: 2222 HEARTS A SPADES 7 ONE_PAIR 
5: 8888 SPADES 9 CLUBS Q ONE_PAIR 
2: 5555 DIAMONDS 3 HEARTS 10 TWO_PAIR 
1: 4444 DIAMONDS 4 DIAMONDS J TWO_PAIR 
6: 3333 HEARTS 3 HEARTS 8 ONE_PAIR 
5: 7777 CLUBS 6 HEARTS Q ONE_PAIR 
/showdown 

------------



------------


pot-win/ 
4444: 800 
/pot-win 

------------


seat/ 
button: 6666 1800 6000 
small blind: 1111 2600 8000 
big blind: 2222 3000 6000 
8888 2600 6000 
5555 5000 6000 
4444 6200 8000 
3333 3800 8000 
7777 3000 4000 
/seat 

------------


blind/ 
1111: 50 
2222: 100 
/blind 

------------


hold/ 
HEARTS A 
SPADES 7 
/hold 

------------


inquire/ 
2222 2900 6000 100 blind 
1111 2550 8000 50 blind 
total pot: 150 
/inquire 

------------



------------


flop/ 
CLUBS 5 
HEARTS 2 
DIAMONDS 10 
/flop 

------------



------------


inquire/ 
2222 2900 6000 100 check 
1111 2500 8000 100 check 
6666 1700 6000 100 call 
7777 2900 4000 100 call 
3333 3700 8000 100 call 
4444 6100 8000 100 call 
5555 4900 6000 100 call 
8888 2500 6000 100 call 
total pot: 800 
/inquire 

------------



------------


turn/ 
CLUBS J 
/turn 

------------



------------


inquire/ 
2222 2900 6000 100 check 
1111 2500 8000 100 check 
6666 1700 6000 100 check 
7777 2900 4000 100 check 
3333 3700 8000 100 check 
4444 6100 8000 100 check 
5555 4900 6000 100 check 
8888 2500 6000 100 check 
total pot: 800 
/inquire 

------------



------------


river/ 
SPADES 2 
/river 

------------



------------


inquire/ 
2222 2900 6000 100 check 
1111 2500 8000 100 check 
6666 1700 6000 100 check 
7777 2900 4000 100 check 
3333 3700 8000 100 check 
4444 6100 8000 100 check 
5555 4900 6000 100 check 
8888 2500 6000 100 check 
total pot: 800 
/inquire 

------------



------------


showdown/ 
common/ 
CLUBS 5 
HEARTS 2 
DIAMONDS 10 
CLUBS J 
SPADES 2 
/common 
3: 1111 CLUBS A CLUBS K ONE_PAIR 
6: 2222 SPADES 8 DIAMONDS 6 ONE_PAIR 
4: 8888 HEARTS A SPADES 7 ONE_PAIR 
5: 5555 SPADES 9 CLUBS Q ONE_PAIR 
2: 4444 DIAMONDS 3 HEARTS 10 TWO_PAIR 
1: 3333 DIAMONDS 4 DIAMONDS J TWO_PAIR 
6: 7777 HEARTS 3 HEARTS 8 ONE_PAIR 
5: 6666 CLUBS 6 HEARTS Q ONE_PAIR 
/showdown 

------------



------------


pot-win/ 
3333: 800 
/pot-win 

------------


seat/ 
button: 1111 2500 8000 
small blind: 2222 2900 6000 
big blind: 8888 2500 6000 
5555 4900 6000 
4444 6100 8000 
3333 4500 8000 
7777 2900 4000 
6666 1700 6000 
/seat 

------------


blind/ 
2222: 50 
8888: 100 
/blind 

------------


hold/ 
SPADES 8 
DIAMONDS 6 
/hold 

------------



------------


inquire/ 
2222 2800 6000 100 call 
1111 2400 8000 100 call 
6666 1600 6000 100 call 
7777 2800 4000 100 call 
3333 4400 8000 100 call 
4444 6000 8000 100 call 
5555 4800 6000 100 call 
8888 2400 6000 100 blind 
total pot: 800 
/inquire 

------------



------------


flop/ 
CLUBS 5 
HEARTS 2 
DIAMONDS 10 
/flop 

------------



------------


inquire/ 
2222 2800 6000 100 check 
1111 2400 8000 100 call 
6666 1600 6000 100 call 
7777 2800 4000 100 call 
3333 4400 8000 100 call 
4444 6000 8000 100 call 
5555 4800 6000 100 call 
8888 2400 6000 100 check 
total pot: 800 
/inquire 

------------



------------


turn/ 
CLUBS J 
/turn 

------------



------------


inquire/ 
2222 2800 6000 100 check 
1111 2400 8000 100 check 
6666 1600 6000 100 check 
7777 2800 4000 100 check 
3333 4400 8000 100 check 
4444 6000 8000 100 check 
5555 4800 6000 100 check 
8888 2400 6000 100 check 
total pot: 800 
/inquire 

------------



------------


river/ 
SPADES 2 
/river 

------------



------------


inquire/ 
2222 2800 6000 100 check 
1111 2400 8000 100 check 
6666 1600 6000 100 check 
7777 2800 4000 100 check 
3333 4400 8000 100 check 
4444 6000 8000 100 check 
5555 4800 6000 100 check 
8888 2400 6000 100 check 
total pot: 800 
/inquire 

------------



------------


showdown/ 
common/ 
CLUBS 5 
HEARTS 2 
DIAMONDS 10 
CLUBS J 
SPADES 2 
/common 
3: 2222 CLUBS A CLUBS K ONE_PAIR 
6: 8888 SPADES 8 DIAMONDS 6 ONE_PAIR 
4: 5555 HEARTS A SPADES 7 ONE_PAIR 
5: 4444 SPADES 9 CLUBS Q ONE_PAIR 
2: 3333 DIAMONDS 3 HEARTS 10 TWO_PAIR 
1: 7777 DIAMONDS 4 DIAMONDS J TWO_PAIR 
6: 6666 HEARTS 3 HEARTS 8 ONE_PAIR 
5: 1111 CLUBS 6 HEARTS Q ONE_PAIR 
/showdown 

------------



------------


pot-win/ 
7777: 800 
/pot-win 

------------


seat/ 
button: 2222 2800 6000 
small blind: 8888 2400 6000 
big blind: 5555 4800 6000 
4444 6000 8000 
3333 4400 8000 
7777 3600 4000 
6666 1600 6000 
1111 2400 8000 
/seat 

------------


blind/ 
8888: 50 
5555: 100 
/blind 

------------


hold/ 
CLUBS A 
CLUBS K 
/hold 

------------



------------


inquire/ 
2222 2700 6000 100 call 
1111 2300 8000 100 call 
6666 1500 6000 100 call 
7777 3500 4000 100 call 
3333 4300 8000 100 call 
4444 5900 8000 100 call 
5555 4700 6000 100 blind 
8888 2350 6000 50 blind 
total pot: 750 
/inquire 

------------



------------


flop/ 
CLUBS 5 
HEARTS 2 
DIAMONDS 10 
/flop 

------------



------------


inquire/ 
2222 2700 6000 100 call 
1111 2300 8000 100 call 
6666 1500 6000 100 call 
7777 3500 4000 100 call 
3333 4300 8000 100 call 
4444 5900 8000 100 call 
5555 4700 6000 100 check 
8888 2300 6000 100 call 
total pot: 800 
/inquire 

------------



------------


turn/ 
CLUBS J 
/turn 

------------



------------


inquire/ 
2222 2700 6000 100 check 
1111 2300 8000 100 check 
6666 1500 6000 100 check 
7777 3500 4000 100 check 
3333 4300 8000 100 check 
4444 5900 8000 100 check 
5555 4700 6000 100 check 
8888 2300 6000 100 check 
total pot: 800 
/inquire 

------------



------------


river/ 
SPADES 2 
/river 

------------



------------


inquire/ 
2222 2700 6000 100 check 
1111 2300 8000 100 check 
6666 1500 6000 100 check 
7777 3500 4000 100 check 
3333 4300 8000 100 check 
4444 5900 8000 100 check 
5555 4700 6000 100 check 
8888 2300 6000 100 check 
total pot: 800 
/inquire 

------------



------------


showdown/ 
common/ 
CLUBS 5 
HEARTS 2 
DIAMONDS 10 
CLUBS J 
SPADES 2 
/common 
3: 8888 CLUBS A CLUBS K ONE_PAIR 
6: 5555 SPADES 8 DIAMONDS 6 ONE_PAIR 
4: 4444 HEARTS A SPADES 7 ONE_PAIR 
5: 3333 SPADES 9 CLUBS Q ONE_PAIR 
2: 7777 DIAMONDS 3 HEARTS 10 TWO_PAIR 
1: 6666 DIAMONDS 4 DIAMONDS J TWO_PAIR 
6: 1111 HEARTS 3 HEARTS 8 ONE_PAIR 
5: 2222 CLUBS 6 HEARTS Q ONE_PAIR 
/showdown 

------------



------------


pot-win/ 
6666: 800 
/pot-win 

------------


seat/ 
button: 8888 2300 6000 
small blind: 5555 4700 6000 
big blind: 4444 5900 8000 
3333 4300 8000 
7777 3500 4000 
6666 2300 6000 
1111 2300 8000 
2222 2700 6000 
/seat 

------------


blind/ 
5555: 50 
4444: 100 
/blind 

------------


hold/ 
CLUBS 6 
HEARTS Q 
/hold 

------------



------------


inquire/ 
2222 2600 6000 100 call 
1111 2200 8000 100 call 
6666 2200 6000 100 call 
7777 3400 4000 100 call 
3333 4200 8000 100 call 
4444 5800 8000 100 blind 
5555 4650 6000 50 blind 
total pot: 650 
/inquire 

------------



------------


flop/ 
CLUBS 5 
HEARTS 2 
DIAMONDS 10 
/flop 

------------



------------


inquire/ 
2222 2600 6000 100 check 
1111 2200 8000 100 check 
6666 2200 6000 100 check 
7777 3400 4000 100 check 
3333 4200 8000 100 check 
4444 5800 8000 100 check 
5555 4600 6000 100 check 
8888 2200 6000 100 call 
total pot: 800 
/inquire 

------------



------------


turn/ 
CLUBS J 
/turn 

------------



------------


inquire/ 
2222 2600 6000 100 check 
1111 2200 8000 100 check 
6666 2200 6000 100 check 
7777 3400 4000 100 check 
3333 4200 8000 100 check 
4444 5800 8000 100 check 
5555 4600 6000 100 check 
8888 2200 6000 100 check 
total pot: 800 
/inquire 

------------



------------


river/ 
SPADES 2 
/river 

------------



------------


inquire/ 
2222 2600 6000 100 check 
1111 2200 8000 100 check 
6666 2200 6000 100 check 
7777 3400 4000 100 check 
3333 4200 8000 100 check 
4444 5800 8000 100 check 
5555 4600 6000 100 check 
8888 2200 6000 100 check 
total pot: 800 
/inquire 

------------



------------


showdown/ 
common/ 
CLUBS 5 
HEARTS 2 
DIAMONDS 10 
CLUBS J 
SPADES 2 
/common 
3: 5555 CLUBS A CLUBS K ONE_PAIR 
6: 4444 SPADES 8 DIAMONDS 6 ONE_PAIR 
4: 3333 HEARTS A SPADES 7 ONE_PAIR 
5: 7777 SPADES 9 CLUBS Q ONE_PAIR 
2: 6666 DIAMONDS 3 HEARTS 10 TWO_PAIR 
1: 1111 DIAMONDS 4 DIAMONDS J TWO_PAIR 
6: 2222 HEARTS 3 HEARTS 8 ONE_PAIR 
5: 8888 CLUBS 6 HEARTS Q ONE_PAIR 
/showdown 

------------



------------


pot-win/ 
1111: 800 
/pot-win 

------------


seat/ 
button: 5555 4600 6000 
small blind: 4444 5800 8000 
big blind: 3333 4200 8000 
7777 3400 4000 
6666 2200 6000 
1111 3000 8000 
2222 2600 6000 
8888 2200 6000 
/seat 

------------


blind/ 
4444: 50 
3333: 100 
/blind 

------------


hold/ 
SPADES 8 
CLUBS 3 
/hold 

------------



------------


inquire/ 
2222 2500 6000 100 call 
1111 2900 8000 100 call 
6666 2100 6000 100 call 
7777 3300 4000 100 call 
3333 4100 8000 100 blind 
4444 5750 8000 50 blind 
total pot: 550 
/inquire 

------------



------------


flop/ 
SPADES 10 
DIAMONDS A 
DIAMONDS K 
/flop 

------------



------------


inquire/ 
2222 2500 6000 100 check 
1111 2900 8000 100 check 
6666 2100 6000 100 check 
7777 3300 4000 100 check 
3333 4100 8000 100 check 
4444 5700 8000 100 check 
5555 4500 6000 100 call 
8888 2100 6000 100 call 
total pot: 800 
/inquire 

------------



------------


turn/ 
CLUBS 2 
/turn 

------------



------------


inquire/ 
2222 2500 6000 100 check 
1111 2900 8000 100 check 
6666 2100 6000 100 check 
7777 3300 4000 100 check 
3333 4100 8000 100 check 
4444 5700 8000 100 check 
5555 4500 6000 100 check 
8888 2100 6000 100 check 
total pot: 800 
/inquire 

------------



------------


river/ 
DIAMONDS 4 
/river 

------------



------------


inquire/ 
2222 2500 6000 100 check 
1111 2900 8000 100 check 
6666 2100 6000 100 check 
7777 3300 4000 100 check 
3333 4100 8000 100 check 
4444 5700 8000 100 check 
5555 4500 6000 100 check 
8888 2100 6000 100 check 
total pot: 800 
/inquire 

------------



------------


showdown/ 
common/ 
SPADES 10 
DIAMONDS A 
DIAMONDS K 
CLUBS 2 
DIAMONDS 4 
/common 
3: 4444 HEARTS 10 CLUBS K TWO_PAIR 
8: 3333 SPADES 5 HEARTS 6 HIGH_CARD 
6: 7777 SPADES 6 DIAMONDS 8 HIGH_CARD 
4: 6666 SPADES J SPADES K ONE_PAIR 
5: 1111 CLUBS 8 CLUBS 10 ONE_PAIR 
1: 2222 DIAMONDS 6 DIAMONDS 10 FLUSH 
7: 8888 SPADES 8 CLUBS 3 HIGH_CARD 
2: 5555 HEARTS K CLUBS A TWO_PAIR 
/showdown 

------------



------------


pot-win/ 
2222: 800 
/pot-win 

------------


seat/ 
button: 4444 5700 8000 
small blind: 3333 4100 8000 
big blind: 7777 3300 4000 
6666 2100 6000 
1111 2900 8000 
2222 3300 6000 
8888 2100 6000 
5555 4500 6000 
/seat 

------------


blind/ 
3333: 50 
7777: 100 
/blind 

------------


hold/ 
DIAMONDS 6 
DIAMONDS 10 
/hold 

------------



------------


inquire/ 
2222 3200 6000 100 call 
1111 2800 8000 100 call 
6666 2000 6000 100 call 
7777 3200 4000 100 blind 
3333 4050 8000 50 blind 
total pot: 450 
/inquire 

------------



------------


flop/ 
SPADES 10 
DIAMONDS A 
DIAMONDS K 
/flop 

------------



------------


inquire/ 
2222 3200 6000 100 check 
1111 2800 8000 100 check 
6666 2000 6000 100 check 
7777 3200 4000 100 check 
3333 4000 8000 100 check 
4444 5600 8000 100 call 
5555 4400 6000 100 call 
8888 2000 6000 100 call 
total pot: 800 
/inquire 

------------



------------


turn/ 
CLUBS 2 
/turn 

------------



------------


inquire/ 
2222 3200 6000 100 check 
1111 2800 8000 100 check 
6666 2000 6000 100 check 
7777 3200 4000 100 check 
3333 4000 8000 100 check 
4444 5600 8000 100 check 
5555 4400 6000 100 check 
8888 2000 6000 100 check 
total pot: 800 
/inquire 

------------



------------


river/ 
DIAMONDS 4 
/river 

------------



------------


inquire/ 
2222 3200 6000 100 check 
1111 2800 8000 100 check 
6666 2000 6000 100 check 
7777 3200 4000 100 check 
3333 4000 8000 100 check 
4444 5600 8000 100 check 
5555 4400 6000 100 check 
8888 2000 6000 100 check 
total pot: 800 
/inquire 

------------



------------


showdown/ 
common/ 
SPADES 10 
DIAMONDS A 
DIAMONDS K 
CLUBS 2 
DIAMONDS 4 
/common 
3: 3333 HEARTS 10 CLUBS K TWO_PAIR 
8: 7777 SPADES 5 HEARTS 6 HIGH_CARD 
6: 6666 SPADES 6 DIAMONDS 8 HIGH_CARD 
4: 1111 SPADES J SPADES K ONE_PAIR 
5: 2222 CLUBS 8 CLUBS 10 ONE_PAIR 
1: 8888 DIAMONDS 6 DIAMONDS 10 FLUSH 
7: 5555 SPADES 8 CLUBS 3 HIGH_CARD 
2: 4444 HEARTS K CLUBS A TWO_PAIR 
/showdown 

------------



------------


pot-win/ 
8888: 800 
/pot-win 

------------


seat/ 
button: 3333 4000 8000 
small blind: 7777 3200 4000 
big blind: 6666 2000 6000 
1111 2800 8000 
2222 3200 6000 
8888 2800 6000 
5555 4400 6000 
4444 5600 8000 
/seat 

------------


blind/ 
7777: 50 
6666: 100 
/blind 

------------


hold/ 
CLUBS 8 
CLUBS 10 
/hold 

------------



------------


inquire/ 
2222 3100 6000 100 call 
1111 2700 8000 100 call 
6666 1900 6000 100 blind 
7777 3150 4000 50 blind 
total pot: 350 
/inquire 

------------



------------


flop/ 
SPADES 10 
DIAMONDS A 
DIAMONDS K 
/flop 

------------



------------


inquire/ 
2222 3100 6000 100 check 
1111 2700 8000 100 check 
6666 1900 6000 100 check 
7777 3100 4000 100 check 
3333 3900 8000 100 call 
4444 5500 8000 100 call 
5555 4300 6000 100 call 
8888 2700 6000 100 call 
total pot: 800 
/inquire 

------------



------------


turn/ 
CLUBS 2 
/turn 

------------



------------


inquire/ 
2222 3100 6000 100 check 
1111 2700 8000 100 check 
6666 1900 6000 100 check 
7777 3100 4000 100 check 
3333 3900 8000 100 check 
4444 5500 8000 100 check 
5555 4300 6000 100 check 
8888 2700 6000 100 check 
total pot: 800 
/inquire 

------------



------------


river/ 
DIAMONDS 4 
/river 

------------



------------


inquire/ 
2222 3100 6000 100 check 
1111 2700 8000 100 check 
6666 1900 6000 100 check 
7777 3100 4000 100 check 
3333 3900 8000 100 check 
4444 5500 8000 100 check 
5555 4300 6000 100 check 
8888 2700 6000 100 check 
total pot: 800 
/inquire 

------------



------------


showdown/ 
common/ 
SPADES 10 
DIAMONDS A 
DIAMONDS K 
CLUBS 2 
DIAMONDS 4 
/common 
3: 7777 HEARTS 10 CLUBS K TWO_PAIR 
8: 6666 SPADES 5 HEARTS 6 HIGH_CARD 
6: 1111 SPADES 6 DIAMONDS 8 HIGH_CARD 
4: 2222 SPADES J SPADES K ONE_PAIR 
5: 8888 CLUBS 8 CLUBS 10 ONE_PAIR 
1: 5555 DIAMONDS 6 DIAMONDS 10 FLUSH 
7: 4444 SPADES 8 CLUBS 3 HIGH_CARD 
2: 3333 HEARTS K CLUBS A TWO_PAIR 
/showdown 

------------



------------


pot-win/ 
5555: 800 
/pot-win 

------------


seat/ 
button: 7777 3100 4000 
small blind: 6666 1900 6000 
big blind: 1111 2700 8000 
2222 3100 6000 
8888 2700 6000 
5555 5100 6000 
4444 5500 8000 
3333 3900 8000 
/seat 

------------


blind/ 
6666: 50 
1111: 100 
/blind 

------------


hold/ 
SPADES J 
SPADES K 
/hold 

------------



------------


inquire/ 
2222 3000 6000 100 call 
1111 2600 8000 100 blind 
6666 1850 6000 50 blind 
total pot: 250 
/inquire 

------------



------------


flop/ 
SPADES 10 
DIAMONDS A 
DIAMONDS K 
/flop 

------------



------------


inquire/ 
2222 3000 6000 100 check 
1111 2600 8000 100 check 
6666 1800 6000 100 check 
7777 3000 4000 100 call 
3333 3800 8000 100 call 
4444 5400 8000 100 call 
5555 5000 6000 100 call 
8888 2600 6000 100 call 
total pot: 800 
/inquire 

------------



------------


turn/ 
CLUBS 2 
/turn 

------------



------------


inquire/ 
2222 3000 6000 100 check 
1111 2600 8000 100 check 
6666 1800 6000 100 check 
7777 3000 4000 100 check 
3333 3800 8000 100 check 
4444 5400 8000 100 check 
5555 5000 6000 100 check 
8888 2600 6000 100 check 
total pot: 800 
/inquire 

------------



------------


river/ 
DIAMONDS 4 
/river 

------------



------------


inquire/ 
2222 3000 6000 100 check 
1111 2600 8000 100 check 
6666 1800 6000 100 check 
7777 3000 4000 100 check 
3333 3800 8000 100 check 
4444 5400 8000 100 check 
5555 5000 6000 100 check 
8888 2600 6000 100 check 
total pot: 800 
/inquire 

------------



------------


showdown/ 
common/ 
SPADES 10 
DIAMONDS A 
DIAMONDS K 
CLUBS 2 
DIAMONDS 4 
/common 
3: 6666 HEARTS 10 CLUBS K TWO_PAIR 
8: 1111 SPADES 5 HEARTS 6 HIGH_CARD 
6: 2222 SPADES 6 DIAMONDS 8 HIGH_CARD 
4: 8888 SPADES J SPADES K ONE_PAIR 
5: 5555 CLUBS 8 CLUBS 10 ONE_PAIR 
1: 4444 DIAMONDS 6 DIAMONDS 10 FLUSH 
7: 3333 SPADES 8 CLUBS 3 HIGH_CARD 
2: 7777 HEARTS K CLUBS A TWO_PAIR 
/showdown 

------------



------------


pot-win/ 
4444: 800 
/pot-win 

------------


seat/ 
button: 6666 1800 6000 
small blind: 1111 2600 8000 
big blind: 2222 3000 6000 
8888 2600 6000 
5555 5000 6000 
4444 6200 8000 
3333 3800 8000 
7777 3000 4000 
/seat 

------------


blind/ 
1111: 50 
2222: 100 
/blind 

------------


hold/ 
SPADES 6 
DIAMONDS 8 
/hold 

------------


inquire/ 
2222 2900 6000 100 blind 
1111 2550 8000 50 blind 
total pot: 150 
/inquire 

------------



------------


flop/ 
SPADES 10 
DIAMONDS A 
DIAMONDS K 
/flop 

------------



------------


inquire/ 
2222 2900 6000 100 check 
1111 2500 8000 100 check 
6666 1700 6000 100 call 
7777 2900 4000 100 call 
3333 3700 8000 100 call 
4444 6100 8000 100 call 
5555 4900 6000 100 call 
8888 2500 6000 100 call 
total pot: 800 
/inquire 

------------



------------


turn/ 
CLUBS 2 
/turn 

------------



------------


inquire/ 
2222 2900 6000 100 check 
1111 2500 8000 100 check 
6666 1700 6000 100 check 
7777 2900 4000 100 check 
3333 3700 8000 100 check 
4444 6100 8000 100 check 
5555 4900 6000 100 check 
8888 2500 6000 100 check 
total pot: 800 
/inquire 

------------



------------


river/ 
DIAMONDS 4 
/river 

------------



------------


inquire/ 
2222 2900 6000 100 check 
1111 2500 8000 100 check 
6666 1700 6000 100 check 
7777 2900 4000 100 check 
3333 3700 8000 100 check 
4444 6100 8000 100 check 
5555 4900 6000 100 check 
8888 2500 6000 100 check 
total pot: 800 
/inquire 

------------



------------


showdown/ 
common/ 
SPADES 10 
DIAMONDS A 
DIAMONDS K 
CLUBS 2 
DIAMONDS 4 
/common 
3: 1111 HEARTS 10 CLUBS K TWO_PAIR 
8: 2222 SPADES 5 HEARTS 6 HIGH_CARD 
6: 8888 SPADES 6 DIAMONDS 8 HIGH_CARD 
4: 5555 SPADES J SPADES K ONE_PAIR 
5: 4444 CLUBS 8 CLUBS 10 ONE_PAIR 
1: 3333 DIAMONDS 6 DIAMONDS 10 FLUSH 
7: 7777 SPADES 8 CLUBS 3 HIGH_CARD 
2: 6666 HEARTS K CLUBS A TWO_PAIR 
/showdown 

------------



------------


pot-win/ 
3333: 800 
/pot-win 

------------


seat/ 
button: 1111 2500 8000 
small blind: 2222 2900 6000 
big blind: 8888 2500 6000 
5555 4900 6000 
4444 6100 8000 
3333 4500 8000 
7777 2900 4000 
6666 1700 6000 
/seat 

------------


blind/ 
2222: 50 
8888: 100 
/blind 

------------


hold/ 
SPADES 5 
HEARTS 6 
/hold 

------------



------------


inquire/ 
2222 2800 6000 100 call 
1111 2400 8000 100 call 
6666 1600 6000 100 call 
7777 2800 4000 100 call 
3333 4400 8000 100 call 
4444 6000 8000 100 call 
5555 4800 6000 100 call 
8888 2400 6000 100 blind 
total pot: 800 
/inquire 

------------



------------


flop/ 
SPADES 10 
DIAMONDS A 
DIAMONDS K 
/flop 

------------



------------


inquire/ 
2222 2800 6000 100 check 
1111 2400 8000 100 call 
6666 1600 6000 100 call 
7777 2800 4000 100 call 
3333 4400 8000 100 call 
4444 6000 8000 100 call 
5555 4800 6000 100 call 
8888 2400 6000 100 check 
total pot: 800 
/inquire 

------------



------------


turn/ 
CLUBS 2 
/turn 

------------



------------


inquire/ 
2222 2800 6000 100 check 
1111 2400 8000 100 check 
6666 1600 6000 100 check 
7777 2800 4000 100 check 
3333 4400 8000 100 check 
4444 6000 8000 100 check 
5555 4800 6000 100 check 
8888 2400 6000 100 check 
total pot: 800 
/inquire 

------------



------------


river/ 
DIAMONDS 4 
/river 

------------



------------


inquire/ 
2222 2800 6000 100 check 
1111 2400 8000 100 check 
6666 1600 6000 100 check 
7777 2800 4000 100 check 
3333 4400 8000 100 check 
4444 6000 8000 100 check 
5555 4800 6000 100 check 
8888 2400 6000 100 check 
total pot: 800 
/inquire 

------------



------------


showdown/ 
common/ 
SPADES 10 
DIAMONDS A 
DIAMONDS K 
CLUBS 2 
DIAMONDS 4 
/common 
3: 2222 HEARTS 10 CLUBS K TWO_PAIR 
8: 8888 SPADES 5 HEARTS 6 HIGH_CARD 
6: 5555 SPADES 6 DIAMONDS 8 HIGH_CARD 
4: 4444 SPADES J SPADES K ONE_PAIR 
5: 3333 CLUBS 8 CLUBS 10 ONE_PAIR 
1: 7777 DIAMONDS 6 DIAMONDS 10 FLUSH 
7: 6666 SPADES 8 CLUBS 3 HIGH_CARD 
2: 1111 HEARTS K CLUBS A TWO_PAIR 
/showdown 

------------



------------


pot-win/ 
7777: 800 
/pot-win 

------------


seat/ 
button: 2222 2800 6000 
small blind: 8888 2400 6000 
big blind: 5555 4800 6000 
4444 6000 8000 
3333 4400 8000 
7777 3600 4000 
6666 1600 6000 
1111 2400 8000 
/seat 

------------


blind/ 
8888: 50 
5555: 100 
/blind 

------------


hold/ 
DIAMONDS 9 
CLUBS 2 
/hold 

------------



------------


inquire/ 
2222 2700 6000 100 call 
1111 2300 8000 100 call 
6666 1500 6000 100 call 
7777 3500 4000 100 call 
3333 4300 8000 100 call 
4444 5900 8000 100 call 
5555 4700 6000 100 blind 
8888 2350 6000 50 blind 
total pot: 750 
/inquire 

------------



------------


flop/ 
DIAMONDS 3 
HEARTS 5 
CLUBS 4 
/flop 

------------



------------


inquire/ 
2222 2700 6000 100 call 
1111 2300 8000 100 call 
6666 1500 6000 100 call 
7777 3500 4000 100 call 
3333 4300 8000 100 call 
4444 5900 8000 100 call 
5555 4700 6000 100 check 
8888 2300 6000 100 call 
total pot: 800 
/inquire 

------------



------------


turn/ 
SPADES 4 
/turn 

------------



------------


inquire/ 
2222 2700 6000 100 check 
1111 2300 8000 100 check 
6666 1500 6000 100 check 
7777 3500 4000 100 check 
3333 4300 8000 100 check 
4444 5900 8000 100 check 
5555 4700 6000 100 check 
8888 2300 6000 100 check 
total pot: 800 
/inquire 

------------



------------


river/ 
SPADES 5 
/river 

------------



------------


inquire/ 
2222 2700 6000 100 check 
1111 2300 8000 100 check 
6666 1500 6000 100 check 
7777 3500 4000 100 check 
3333 4300 8000 100 check 
4444 5900 8000 100 check 
5555 4700 6000 100 check 
8888 2300 6000 100 check 
total pot: 800 
/inquire 

------------



------------


showdown/ 
common/ 
DIAMONDS 3 
HEARTS 5 
CLUBS 4 
SPADES 4 
SPADES 5 
/common 
6: 8888 DIAMONDS 9 CLUBS 2 TWO_PAIR 
4: 5555 DIAMONDS Q HEARTS K TWO_PAIR 
5: 4444 HEARTS 3 DIAMONDS J TWO_PAIR 
7: 3333 CLUBS 7 SPADES 2 TWO_PAIR 
1: 7777 DIAMONDS 4 CLUBS 5 FULL_HOUSE 
2: 6666 HEARTS 7 DIAMONDS 6 STRAIGHT 
3: 1111 SPADES K DIAMONDS A TWO_PAIR 
5: 2222 HEARTS J DIAMONDS 7 TWO_PAIR 
/showdown 

------------



------------


pot-win/ 
7777: 800 
/pot-win 

------------


seat/ 
button: 8888 2300 6000 
small blind: 5555 4700 6000 
big blind: 4444 5900 8000 
3333 4300 8000 
7777 4300 4000 
6666 1500 6000 
1111 2300 8000 
2222 2700 6000 
/seat 

------------


blind/ 
5555: 50 
4444: 100 
/blind 

------------


hold/ 
HEARTS J 
DIAMONDS 7 
/hold 

------------



------------


inquire/ 
2222 2600 6000 100 call 
1111 2200 8000 100 call 
6666 1400 6000 100 call 
7777 4200 4000 100 call 
3333 4200 8000 100 call 
4444 5800 8000 100 blind 
5555 4650 6000 50 blind 
total pot: 650 
/inquire 

------------



------------


flop/ 
DIAMONDS 3 
HEARTS 5 
CLUBS 4 
/flop 

------------



------------


inquire/ 
2222 2600 6000 100 check 
1111 2200 8000 100 check 
6666 1400 6000 100 check 
7777 4200 4000 100 check 
3333 4200 8000 100 check 
4444 5800 8000 100 check 
5555 4600 6000 100 check 
8888 2200 6000 100 call 
total pot: 800 
/inquire 

------------



------------


turn/ 
SPADES 4 
/turn 

------------



------------


inquire/ 
2222 2600 6000 100 check 
1111 2200 8000 100 check 
6666 1400 6000 100 check 
7777 4200 4000 100 check 
3333 4200 8000 100 check 
4444 5800 8000 100 check 
5555 4600 6000 100 check 
8888 2200 6000 100 check 
total pot: 800 
/inquire 

------------



------------


river/ 
SPADES 5 
/river 

------------



------------


inquire/ 
2222 2600 6000 100 check 
1111 2200 8000 100 check 
6666 1400 6000 100 check 
7777 4200 4000 100 check 
3333 4200 8000 100 check 
4444 5800 8000 100 check 
5555 4600 6000 100 check 
8888 2200 6000 100 check 
total pot: 800 
/inquire 

------------



------------


showdown/ 
common/ 
DIAMONDS 3 
HEARTS 5 
CLUBS 4 
SPADES 4 
SPADES 5 
/common 
6: 5555 DIAMONDS 9 CLUBS 2 TWO_PAIR 
4: 4444 DIAMONDS Q HEARTS K TWO_PAIR 
5: 3333 HEARTS 3 DIAMONDS J TWO_PAIR 
7: 7777 CLUBS 7 SPADES 2 TWO_PAIR 
1: 6666 DIAMONDS 4 CLUBS 5 FULL_HOUSE 
2: 1111 HEARTS 7 DIAMONDS 6 STRAIGHT 
3: 2222 SPADES K DIAMONDS A TWO_PAIR 
5: 8888 HEARTS J DIAMONDS 7 TWO_PAIR 
/showdown 

------------



------------


pot-win/ 
6666: 800 
/pot-win 

------------


seat/ 
button: 5555 4600 6000 
small blind: 4444 5800 8000 
big blind: 3333 4200 8000 
7777 4200 4000 
6666 2200 6000 
1111 2200 8000 
2222 2600 6000 
8888 2200 6000 
/seat 

------------


blind/ 
4444: 50 
3333: 100 
/blind 

------------


hold/ 
SPADES K 
DIAMONDS A 
/hold 

------------



------------


inquire/ 
2222 2500 6000 100 call 
1111 2100 8000 100 call 
6666 2100 6000 100 call 
7777 4100 4000 100 call 
3333 4100 8000 100 blind 
4444 5750 8000 50 blind 
total pot: 550 
/inquire 

------------



------------


flop/ 
DIAMONDS 3 
HEARTS 5 
CLUBS 4 
/flop 

------------



------------


inquire/ 
2222 2500 6000 100 check 
1111 2100 8000 100 check 
6666 2100 6000 100 check 
7777 4100 4000 100 check 
3333 4100 8000 100 check 
4444 5700 8000 100 check 
5555 4500 6000 100 call 
8888 2100 6000 100 call 
total pot: 800 
/inquire 

------------



------------


turn/ 
SPADES 4 
/turn 

------------



------------


inquire/ 
2222 2500 6000 100 check 
1111 2100 8000 100 check 
6666 2100 6000 100 check 
7777 4100 4000 100 check 
3333 4100 8000 100 check 
4444 5700 8000 100 check 
5555 4500 6000 100 check 
8888 2100 6000 100 check 
total pot: 800 
/inquire 

------------



------------


river/ 
SPADES 5 
/river 

------------



------------


inquire/ 
2222 2500 6000 100 check 
1111 2100 8000 100 check 
6666 2100 6000 100 check 
7777 4100 4000 100 check 
3333 4100 8000 100 check 
4444 5700 8000 100 check 
5555 4500 6000 100 check 
8888 2100 6000 100 check 
total pot: 800 
/inquire 

------------



------------


showdown/ 
common/ 
DIAMONDS 3 
HEARTS 5 
CLUBS 4 
SPADES 4 
SPADES 5 
/common 
6: 4444 DIAMONDS 9 CLUBS 2 TWO_PAIR 
4: 3333 DIAMONDS Q HEARTS K TWO_PAIR 
5: 7777 HEARTS 3 DIAMONDS J TWO_PAIR 
7: 6666 CLUBS 7 SPADES 2 TWO_PAIR 
1: 1111 DIAMONDS 4 CLUBS 5 FULL_HOUSE 
2: 2222 HEARTS 7 DIAMONDS 6 STRAIGHT 
3: 8888 SPADES K DIAMONDS A TWO_PAIR 
5: 5555 HEARTS J DIAMONDS 7 TWO_PAIR 
/showdown 

------------



------------


pot-win/ 
1111: 800 
/pot-win 

------------


seat/ 
button: 4444 5700 8000 
small blind: 3333 4100 8000 
big blind: 7777 4100 4000 
6666 2100 6000 
1111 2900 8000 
2222 2500 6000 
8888 2100 6000 
5555 4500 6000 
/seat 

------------


blind/ 
3333: 50 
7777: 100 
/blind 

------------


hold/ 
HEARTS 7 
DIAMONDS 6 
/hold 

------------



------------


inquire/ 
2222 2400 6000 100 call 
1111 2800 8000 100 call 
6666 2000 6000 100 call 
7777 4000 4000 100 blind 
3333 4050 8000 50 blind 
total pot: 450 
/inquire 

------------



------------


flop/ 
DIAMONDS 3 
HEARTS 5 
CLUBS 4 
/flop 

------------



------------


inquire/ 
2222 2400 6000 100 check 
1111 2800 8000 100 check 
6666 2000 6000 100 check 
7777 4000 4000 100 check 
3333 4000 8000 100 check 
4444 5600 8000 100 call 
5555 4400 6000 100 call 
8888 2000 6000 100 call 
total pot: 800 
/inquire 

------------



------------


turn/ 
SPADES 4 
/turn 

------------



------------


inquire/ 
2222 2400 6000 100 check 
1111 2800 8000 100 check 
6666 2000 6000 100 check 
7777 4000 4000 100 check 
3333 4000 8000 100 check 
4444 5600 8000 100 check 
5555 4400 6000 100 check 
8888 2000 6000 100 check 
total pot: 800 
/inquire 

------------



------------


river/ 
SPADES 5 
/river 

------------



------------


inquire/ 
2222 2400 6000 100 check 
1111 2800 8000 100 check 
6666 2000 6000 100 check 
7777 4000 4000 100 check 
3333 4000 8000 100 check 
4444 5600 8000 100 check 
5555 4400 6000 100 check 
8888 2000 6000 100 check 
total pot: 800 
/inquire 

------------



------------


showdown/ 
common/ 
DIAMONDS 3 
HEARTS 5 
CLUBS 4 
SPADES 4 
SPADES 5 
/common 
6: 3333 DIAMONDS 9 CLUBS 2 TWO_PAIR 
4: 7777 DIAMONDS Q HEARTS K TWO_PAIR 
5: 6666 HEARTS 3 DIAMONDS J TWO_PAIR 
7: 1111 CLUBS 7 SPADES 2 TWO_PAIR 
1: 2222 DIAMONDS 4 CLUBS 5 FULL_HOUSE 
2: 8888 HEARTS 7 DIAMONDS 6 STRAIGHT 
3: 5555 SPADES K DIAMONDS A TWO_PAIR 
5: 4444 HEARTS J DIAMONDS 7 TWO_PAIR 
/showdown 

------------



------------


pot-win/ 
2222: 800 
/pot-win 

------------


seat/ 
button: 3333 4000 8000 
small blind: 7777 4000 4000 
big blind: 6666 2000 6000 
1111 2800 8000 
2222 3200 6000 
8888 2000 6000 
5555 4400 6000 
4444 5600 8000 
/seat 

------------


blind/ 
7777: 50 
6666: 100 
/blind 

------------


hold/ 
DIAMONDS 4 
CLUBS 5 
/hold 

------------



------------


inquire/ 
2222 3100 6000 100 call 
1111 2700 8000 100 call 
6666 1900 6000 100 blind 
7777 3950 4000 50 blind 
total pot: 350 
/inquire 

------------



------------


flop/ 
DIAMONDS 3 
HEARTS 5 
CLUBS 4 
/flop 

------------



------------


inquire/ 
2222 3100 6000 100 check 
1111 2700 8000 100 check 
6666 1900 6000 100 check 
7777 3900 4000 100 check 
3333 3900 8000 100 call 
4444 5500 8000 100 call 
5555 4300 6000 100 call 
8888 1900 6000 100 call 
total pot: 800 
/inquire 

------------



------------


turn/ 
SPADES 4 
/turn 

------------



------------


inquire/ 
2222 3100 6000 100 check 
1111 2700 8000 100 check 
6666 1900 6000 100 check 
7777 3900 4000 100 check 
3333 3900 8000 100 check 
4444 5500 8000 100 check 
5555 4300 6000 100 check 
8888 1900 6000 100 check 
total pot: 800 
/inquire 

------------



------------


river/ 
SPADES 5 
/river 

------------



------------


inquire/ 
2222 3100 6000 100 check 
1111 2700 8000 100 check 
6666 1900 6000 100 check 
7777 3900 4000 100 check 
3333 3900 8000 100 check 
4444 5500 8000 100 check 
5555 4300 6000 100 check 
8888 1900 6000 100 check 
total pot: 800 
/inquire 

------------



------------


showdown/ 
common/ 
DIAMONDS 3 
HEARTS 5 
CLUBS 4 
SPADES 4 
SPADES 5 
/common 
6: 7777 DIAMONDS 9 CLUBS 2 TWO_PAIR 
4: 6666 DIAMONDS Q HEARTS K TWO_PAIR 
5: 1111 HEARTS 3 DIAMONDS J TWO_PAIR 
7: 2222 CLUBS 7 SPADES 2 TWO_PAIR 
1: 8888 DIAMONDS 4 CLUBS 5 FULL_HOUSE 
2: 5555 HEARTS 7 DIAMONDS 6 STRAIGHT 
3: 4444 SPADES K DIAMONDS A TWO_PAIR 
5: 3333 HEARTS J DIAMONDS 7 TWO_PAIR 
/showdown 

------------



------------


pot-win/ 
8888: 800 
/pot-win 

------------


seat/ 
button: 7777 3900 4000 
small blind: 6666 1900 6000 
big blind: 1111 2700 8000 
2222 3100 6000 
8888 2700 6000 
5555 4300 6000 
4444 5500 8000 
3333 3900 8000 
/seat 

------------


blind/ 
6666: 50 
1111: 100 
/blind 

------------


hold/ 
CLUBS 7 
SPADES 2 
/hold 

------------



------------


inquire/ 
2222 3000 6000 100 call 
1111 2600 8000 100 blind 
6666 1850 6000 50 blind 
total pot: 250 
/inquire 

------------



------------


flop/ 
DIAMONDS 3 
HEARTS 5 
CLUBS 4 
/flop 

------------



------------


inquire/ 
2222 3000 6000 100 check 
1111 2600 8000 100 check 
6666 1800 6000 100 check 
7777 3800 4000 100 call 
3333 3800 8000 100 call 
4444 5400 8000 100 call 
5555 4200 6000 100 call 
8888 2600 6000 100 call 
total pot: 800 
/inquire 

------------



------------


turn/ 
SPADES 4 
/turn 

------------



------------


inquire/ 
2222 3000 6000 100 check 
1111 2600 8000 100 check 
6666 1800 6000 100 check 
7777 3800 4000 100 check 
3333 3800 8000 100 check 
4444 5400 8000 100 check 
5555 4200 6000 100 check 
8888 2600 6000 100 check 
total pot: 800 
/inquire 

------------



------------


river/ 
SPADES 5 
/river 

------------



------------


inquire/ 
2222 3000 6000 100 check 
1111 2600 8000 100 check 
6666 1800 6000 100 check 
7777 3800 4000 100 check 
3333 3800 8000 100 check 
4444 5400 8000 100 check 
5555 4200 6000 100 check 
8888 2600 6000 100 check 
total pot: 800 
/inquire 

------------



------------


showdown/ 
common/ 
DIAMONDS 3 
HEARTS 5 
CLUBS 4 
SPADES 4 
SPADES 5 
/common 
6: 6666 DIAMONDS 9 CLUBS 2 TWO_PAIR 
4: 1111 DIAMONDS Q HEARTS K TWO_PAIR 
5: 2222 HEARTS 3 DIAMONDS J TWO_PAIR 
7: 8888 CLUBS 7 SPADES 2 TWO_PAIR 
1: 5555 DIAMONDS 4 CLUBS 5 FULL_HOUSE 
2: 4444 HEARTS 7 DIAMONDS 6 STRAIGHT 
3: 3333 SPADES K DIAMONDS A TWO_PAIR 
5: 7777 HEARTS J DIAMONDS 7 TWO_PAIR 
/showdown 

------------



------------


pot-win/ 
5555: 800 
/pot-win 

------------


seat/ 
button: 6666 1800 6000 
small blind: 1111 2600 8000 
big blind: 2222 3000 6000 
8888 2600 6000 
5555 5000 6000 
4444 5400 8000 
3333 3800 8000 
7777 3800 4000 
/seat 

------------


blind/ 
1111: 50 
2222: 100 
/blind 

------------


hold/ 
DIAMONDS 2 
DIAMONDS J 
/hold 

------------


inquire/ 
2222 2900 6000 100 blind 
1111 2550 8000 50 blind 
total pot: 150 
/inquire 

------------



------------


flop/ 
DIAMONDS A 
HEARTS K 
SPADES 10 
/flop 

------------



------------


inquire/ 
2222 2900 6000 100 check 
1111 2500 8000 100 check 
6666 1700 6000 100 call 
7777 3700 4000 100 call 
3333 3700 8000 100 call 
4444 5300 8000 100 call 
5555 4900 6000 100 call 
8888 2500 6000 100 call 
total pot: 800 
/inquire 

------------



------------


turn/ 
CLUBS 5 
/turn 

------------



------------


inquire/ 
2222 2900 6000 100 check 
1111 2500 8000 100 check 
6666 1700 6000 100 check 
7777 3700 4000 100 check 
3333 3700 8000 100 check 
4444 5300 8000 100 check 
5555 4900 6000 100 check 
8888 2500 6000 100 check 
total pot: 800 
/inquire 

------------



------------


river/ 
CLUBS 4 
/river 

------------



------------


inquire/ 
2222 2900 6000 100 check 
1111 2500 8000 100 check 
6666 1700 6000 100 check 
7777 3700 4000 100 check 
3333 3700 8000 100 check 
4444 5300 8000 100 check 
5555 4900 6000 100 check 
8888 2500 6000 100 check 
total pot: 800 
/inquire 

------------



------------


showdown/ 
common/ 
DIAMONDS A 
HEARTS K 
SPADES 10 
CLUBS 5 
CLUBS 4 
/common 
8: 1111 SPADES 8 CLUBS 6 HIGH_CARD 
3: 2222 CLUBS 2 SPADES A ONE_PAIR 
7: 8888 DIAMONDS 2 DIAMONDS J HIGH_CARD 
6: 5555 DIAMONDS 3 HEARTS Q HIGH_CARD 
2: 4444 DIAMONDS 8 HEARTS A ONE_PAIR 
4: 3333 DIAMONDS 4 SPADES 9 ONE_PAIR 
1: 7777 DIAMONDS 10 HEARTS 5 TWO_PAIR 
5: 6666 HEARTS 9 DIAMONDS Q HIGH_CARD 
/showdown 

------------



------------


pot-win/ 
7777: 800 
/pot-win 

------------


seat/ 
button: 1111 2500 8000 
small blind: 2222 2900 6000 
big blind: 8888 2500 6000 
5555 4900 6000 
4444 5300 8000 
3333 3700 8000 
7777 4500 4000 
6666 1700 6000 
/seat 

------------


blind/ 
2222: 50 
8888: 100 
/blind 

------------


hold/ 
CLUBS 2 
SPADES A 
/hold 

------------



------------


inquire/ 
2222 2800 6000 100 call 
1111 2400 8000 100 call 
6666 1600 6000 100 call 
7777 4400 4000 100 call 
3333 3600 8000 100 call 
4444 5200 8000 100 call 
5555 4800 6000 100 call 
8888 2400 6000 100 blind 
total pot: 800 
/inquire 

------------



------------


flop/ 
DIAMONDS A 
HEARTS K 
SPADES 10 
/flop 

------------



------------


inquire/ 
2222 2800 6000 100 check 
1111 2400 8000 100 call 
6666 1600 6000 100 call 
7777 4400 4000 100 call 
3333 3600 8000 100 call 
4444 5200 8000 100 call 
5555 4800 6000 100 call 
8888 2400 6000 100 check 
total pot: 800 
/inquire 

------------



------------


turn/ 
CLUBS 5 
/turn 

------------



------------


inquire/ 
2222 2800 6000 100 check 
1111 2400 8000 100 check 
6666 1600 6000 100 check 
7777 4400 4000 100 check 
3333 3600 8000 100 check 
4444 5200 8000 100 check 
5555 4800 6000 100 check 
8888 2400 6000 100 check 
total pot: 800 
/inquire 

------------



------------


river/ 
CLUBS 4 
/river 

------------



------------


inquire/ 
2222 2800 6000 100 check 
1111 2400 8000 100 check 
6666 1600 6000 100 check 
7777 4400 4000 100 check 
3333 3600 8000 100 check 
4444 5200 8000 100 check 
5555 4800 6000 100 check 
8888 2400 6000 100 check 
total pot: 800 
/inquire 

------------



------------


showdown/ 
common/ 
DIAMONDS A 
HEARTS K 
SPADES 10 
CLUBS 5 
CLUBS 4 
/common 
8: 2222 SPADES 8 CLUBS 6 HIGH_CARD 
3: 8888 CLUBS 2 SPADES A ONE_PAIR 
7: 5555 DIAMONDS 2 DIAMONDS J HIGH_CARD 
6: 4444 DIAMONDS 3 HEARTS Q HIGH_CARD 
2: 3333 DIAMONDS 8 HEARTS A ONE_PAIR 
4: 7777 DIAMONDS 4 SPADES 9 ONE_PAIR 
1: 6666 DIAMONDS 10 HEARTS 5 TWO_PAIR 
5: 1111 HEARTS 9 DIAMONDS Q HIGH_CARD 
/showdown 

------------



------------


pot-win/ 
6666: 800 
/pot-win 

------------


seat/ 
button: 2222 2800 6000 
small blind: 8888 2400 6000 
big blind: 5555 4800 6000 
4444 5200 8000 
3333 3600 8000 
7777 4400 4000 
6666 2400 6000 
1111 2400 8000 
/seat 

------------


blind/ 
8888: 50 
5555: 100 
/blind 

------------


hold/ 
SPADES 8 
CLUBS 6 
/hold 

------------



------------


inquire/ 
2222 2700 6000 100 call 
1111 2300 8000 100 call 
6666 2300 6000 100 call 
7777 4300 4000 100 call 
3333 3500 8000 100 call 
4444 5100 8000 100 call 
5555 4700 6000 100 blind 
8888 2350 6000 50 blind 
total pot: 750 
/inquire 

------------



------------


flop/ 
DIAMONDS A 
HEARTS K 
SPADES 10 
/flop 

------------



------------


inquire/ 
2222 2700 6000 100 call 
1111 2300 8000 100 call 
6666 2300 6000 100 call 
7777 4300 4000 100 call 
3333 3500 8000 100 call 
4444 5100 8000 100 call 
5555 4700 6000 100 check 
8888 2300 6000 100 call 
total pot: 800 
/inquire 

------------



------------


turn/ 
CLUBS 5 
/turn 

------------



------------


inquire/ 
2222 2700 6000 100 check 
1111 2300 8000 100 check 
6666 2300 6000 100 check 
7777 4300 4000 100 check 
3333 3500 8000 100 check 
4444 5100 8000 100 check 
5555 4700 6000 100 check 
8888 2300 6000 100 check 
total pot: 800 
/inquire 

------------



------------


river/ 
CLUBS 4 
/river 

------------



------------


inquire/ 
2222 2700 6000 100 check 
1111 2300 8000 100 check 
6666 2300 6000 100 check 
7777 4300 4000 100 check 
3333 3500 8000 100 check 
4444 5100 8000 100 check 
5555 4700 6000 100 check 
8888 2300 6000 100 check 
total pot: 800 
/inquire 

------------



------------


showdown/ 
common/ 
DIAMONDS A 
HEARTS K 
SPADES 10 
CLUBS 5 
CLUBS 4 
/common 
8: 8888 SPADES 8 CLUBS 6 HIGH_CARD 
3: 5555 CLUBS 2 SPADES A ONE_PAIR 
7: 4444 DIAMONDS 2 DIAMONDS J HIGH_CARD 
6: 3333 DIAMONDS 3 HEARTS Q HIGH_CARD 
2: 7777 DIAMONDS 8 HEARTS A ONE_PAIR 
4: 6666 DIAMONDS 4 SPADES 9 ONE_PAIR 
1: 1111 DIAMONDS 10 HEARTS 5 TWO_PAIR 
5: 2222 HEARTS 9 DIAMONDS Q HIGH_CARD 
/showdown 

------------



------------


pot-win/ 
1111: 800 
/pot-win 

------------


seat/ 
button: 8888 2300 6000 
small blind: 5555 4700 6000 
big blind: 4444 5100 8000 
3333 3500 8000 
7777 4300 4000 
6666 2300 6000 
1111 3100 8000 
2222 2700 6000 
/seat 

------------


blind/ 
5555: 50 
4444: 100 
/blind 

------------


hold/ 
HEARTS 9 
DIAMONDS Q 
/hold 

------------



------------


inquire/ 
2222 2600 6000 100 call 
1111 3000 8000 100 call 
6666 2200 6000 100 call 
7777 4200 4000 100 call 
3333 3400 8000 100 call 
4444 5000 8000 100 blind 
5555 4650 6000 50 blind 
total pot: 650 
/inquire 

------------



------------


flop/ 
DIAMONDS A 
HEARTS K 
SPADES 10 
/flop 

------------



------------


inquire/ 
2222 2600 6000 100 check 
1111 3000 8000 100 check 
6666 2200 6000 100 check 
7777 4200 4000 100 check 
3333 3400 8000 100 check 
4444 5000 8000 100 check 
5555 4600 6000 100 check 
8888 2200 6000 100 call 
total pot: 800 
/inquire 

------------



------------


turn/ 
CLUBS 5 
/turn 

------------



------------


inquire/ 
2222 2600 6000 100 check 
1111 3000 8000 100 check 
6666 2200 6000 100 check 
7777 4200 4000 100 check 
3333 3400 8000 100 check 
4444 5000 8000 100 check 
5555 4600 6000 100 check 
8888 2200 6000 100 check 
total pot: 800 
/inquire 

------------



------------


river/ 
CLUBS 4 
/river 

------------



------------


inquire/ 
2222 2600 6000 100 check 
1111 3000 8000 100 check 
6666 2200 6000 100 check 
7777 4200 4000 100 check 
3333 3400 8000 100 check 
4444 5000 8000 100 check 
5555 4600 6000 100 check 
8888 2200 6000 100 check 
total pot: 800 
/inquire 

------------



------------


showdown/ 
common/ 
DIAMONDS A 
HEARTS K 
SPADES 10 
CLUBS 5 
CLUBS 4 
/common 
8: 5555 SPADES 8 CLUBS 6 HIGH_CARD 
3: 4444 CLUBS 2 SPADES A ONE_PAIR 
7: 3333 DIAMONDS 2 DIAMONDS J HIGH_CARD 
6: 7777 DIAMONDS 3 HEARTS Q HIGH_CARD 
2: 6666 DIAMONDS 8 HEARTS A ONE_PAIR 
4: 1111 DIAMONDS 4 SPADES 9 ONE_PAIR 
1: 2222 DIAMONDS 10 HEARTS 5 TWO_PAIR 
5: 8888 HEARTS 9 DIAMONDS Q HIGH_CARD 
/showdown 

------------



------------


pot-win/ 
2222: 800 
/pot-win 

------------


seat/ 
button: 5555 4600 6000 
small blind: 4444 5000 8000 
big blind: 3333 3400 8000 
7777 4200 4000 
6666 2200 6000 
1111 3000 8000 
2222 3400 6000 
8888 2200 6000 
/seat 

------------


blind/ 
4444: 50 
3333: 100 
/blind 

------------


hold/ 
DIAMONDS 10 
HEARTS 5 
/hold 

------------



------------


inquire/ 
2222 3300 6000 100 call 
1111 2900 8000 100 call 
6666 2100 6000 100 call 
7777 4100 4000 100 call 
3333 3300 8000 100 blind 
4444 4950 8000 50 blind 
total pot: 550 
/inquire 

------------



------------


flop/ 
DIAMONDS A 
HEARTS K 
SPADES 10 
/flop 

------------



------------


inquire/ 
2222 3300 6000 100 check 
1111 2900 8000 100 check 
6666 2100 6000 100 check 
7777 4100 4000 100 check 
3333 3300 8000 100 check 
4444 4900 8000 100 check 
5555 4500 6000 100 call 
8888 2100 6000 100 call 
total pot: 800 
/inquire 

------------



------------


turn/ 
CLUBS 5 
/turn 

------------



------------


inquire/ 
2222 3300 6000 100 check 
1111 2900 8000 100 check 
6666 2100 6000 100 check 
7777 4100 4000 100 check 
3333 3300 8000 100 check 
4444 4900 8000 100 check 
5555 4500 6000 100 check 
8888 2100 6000 100 check 
total pot: 800 
/inquire 

------------



------------


river/ 
CLUBS 4 
/river 

------------



------------


inquire/ 
2222 3300 6000 100 check 
1111 2900 8000 100 check 
6666 2100 6000 100 check 
7777 4100 4000 100 check 
3333 3300 8000 100 check 
4444 4900 8000 100 check 
5555 4500 6000 100 check 
8888 2100 6000 100 check 
total pot: 800 
/inquire 

------------



------------


showdown/ 
common/ 
DIAMONDS A 
HEARTS K 
SPADES 10 
CLUBS 5 
CLUBS 4 
/common 
8: 4444 SPADES 8 CLUBS 6 HIGH_CARD 
3: 3333 CLUBS 2 SPADES A ONE_PAIR 
7: 7777 DIAMONDS 2 DIAMONDS J HIGH_CARD 
6: 6666 DIAMONDS 3 HEARTS Q HIGH_CARD 
2: 1111 DIAMONDS 8 HEARTS A ONE_PAIR 
4: 2222 DIAMONDS 4 SPADES 9 ONE_PAIR 
1: 8888 DIAMONDS 10 HEARTS 5 TWO_PAIR 
5: 5555 HEARTS 9 DIAMONDS Q HIGH_CARD 
/showdown 

------------



------------


pot-win/ 
8888: 800 
/pot-win 

------------


seat/ 
button: 4444 4900 8000 
small blind: 3333 3300 8000 
big blind: 7777 4100 4000 
6666 2100 6000 
1111 2900 8000 
2222 3300 6000 
8888 2900 6000 
5555 4500 6000 
/seat 

------------


blind/ 
3333: 50 
7777: 100 
/blind 

------------


hold/ 
HEARTS 6 
DIAMONDS 7 
/hold 

------------



------------


inquire/ 
2222 3200 6000 100 call 
1111 2800 8000 100 call 
6666 2000 6000 100 call 
7777 4000 4000 100 blind 
3333 3250 8000 50 blind 
total pot: 450 
/inquire 

------------



------------


flop/ 
SPADES 10 
DIAMONDS 8 
SPADES Q 
/flop 

------------



------------


inquire/ 
2222 3200 6000 100 check 
1111 2800 8000 100 check 
6666 2000 6000 100 check 
7777 4000 4000 100 check 
3333 3200 8000 100 check 
4444 4800 8000 100 call 
5555 4400 6000 100 call 
8888 2800 6000 100 call 
total pot: 800 
/inquire 

------------



------------


turn/ 
HEARTS J 
/turn 

------------



------------


inquire/ 
2222 3200 6000 100 check 
1111 2800 8000 100 check 
6666 2000 6000 100 check 
7777 4000 4000 100 check 
3333 3200 8000 100 check 
4444 4800 8000 100 check 
5555 4400 6000 100 check 
8888 2800 6000 100 check 
total pot: 800 
/inquire 

------------



------------


river/ 
CLUBS Q 
/river 

------------



------------


inquire/ 
2222 3200 6000 100 check 
1111 2800 8000 100 check 
6666 2000 6000 100 check 
7777 4000 4000 100 check 
3333 3200 8000 100 check 
4444 4800 8000 100 check 
5555 4400 6000 100 check 
8888 2800 6000 100 check 
total pot: 800 
/inquire 

------------



------------


showdown/ 
common/ 
SPADES 10 
DIAMONDS 8 
SPADES Q 
HEARTS J 
CLUBS Q 
/common 
2: 3333 CLUBS 5 DIAMONDS 9 STRAIGHT 
3: 7777 HEARTS 4 HEARTS A ONE_PAIR 
4: 6666 CLUBS K DIAMONDS 2 ONE_PAIR 
5: 1111 SPADES 7 CLUBS 4 ONE_PAIR 
4: 2222 HEARTS 2 DIAMONDS K ONE_PAIR 
5: 8888 HEARTS 6 DIAMONDS 7 ONE_PAIR 
1: 5555 DIAMONDS Q DIAMONDS 10 FULL_HOUSE 
2: 4444 HEARTS 9 DIAMONDS A STRAIGHT 
/showdown 

------------



------------


pot-win/ 
5555: 800 
/pot-win 

------------


seat/ 
button: 3333 3200 8000 
small blind: 7777 4000 4000 
big blind: 6666 2000 6000 
1111 2800 8000 
2222 3200 6000 
8888 2800 6000 
5555 5200 6000 
4444 4800 8000 
/seat 

------------


blind/ 
7777: 50 
6666: 100 
/blind 

------------


hold/ 
HEARTS 2 
DIAMONDS K 
/hold 

------------



------------


inquire/ 
2222 3100 6000 100 call 
1111 2700 8000 100 call 
6666 1900 6000 100 blind 
7777 3950 4000 50 blind 
total pot: 350 
/inquire 

------------



------------


flop/ 
SPADES 10 
DIAMONDS 8 
SPADES Q 
/flop 

------------



------------


inquire/ 
2222 3100 6000 100 check 
1111 2700 8000 100 check 
6666 1900 6000 100 check 
7777 3900 4000 100 check 
3333 3100 8000 100 call 
4444 4700 8000 100 call 
5555 5100 6000 100 call 
8888 2700 6000 100 call 
total pot: 800 
/inquire 

------------



------------


turn/ 
HEARTS J 
/turn 

------------



------------


inquire/ 
2222 3100 6000 100 check 
1111 2700 8000 100 check 
6666 1900 6000 100 check 
7777 3900 4000 100 check 
3333 3100 8000 100 check 
4444 4700 8000 100 check 
5555 5100 6000 100 check 
8888 2700 6000 100 check 
total pot: 800 
/inquire 

------------



------------


river/ 
CLUBS Q 
/river 

------------



------------


inquire/ 
2222 3100 6000 100 check 
1111 2700 8000 100 check 
6666 1900 6000 100 check 
7777 3900 4000 100 check 
3333 3100 8000 100 check 
4444 4700 8000 100 check 
5555 5100 6000 100 check 
8888 2700 6000 100 check 
total pot: 800 
/inquire 

------------



------------


showdown/ 
common/ 
SPADES 10 
DIAMONDS 8 
SPADES Q 
HEARTS J 
CLUBS Q 
/common 
2: 7777 CLUBS 5 DIAMONDS 9 STRAIGHT 
3: 6666 HEARTS 4 HEARTS A ONE_PAIR 
4: 1111 CLUBS K DIAMONDS 2 ONE_PAIR 
5: 2222 SPADES 7 CLUBS 4 ONE_PAIR 
4: 8888 HEARTS 2 DIAMONDS K ONE_PAIR 
5: 5555 HEARTS 6 DIAMONDS 7 ONE_PAIR 
1: 4444 DIAMONDS Q DIAMONDS 10 FULL_HOUSE 
2: 3333 HEARTS 9 DIAMONDS A STRAIGHT 
/showdown 

------------



------------


pot-win/ 
4444: 800 
/pot-win 

------------


seat/ 
button: 7777 3900 4000 
small blind: 6666 1900 6000 
big blind: 1111 2700 8000 
2222 3100 6000 
8888 2700 6000 
5555 5100 6000 
4444 5500 8000 
3333 3100 8000 
/seat 

------------


blind/ 
6666: 50 
1111: 100 
/blind 

------------


hold/ 
SPADES 7 
CLUBS 4 
/hold 

------------


inquire/ 
2222 3000 6000 100 call 
1111 2600 8000 100 blind 
6666 1850 6000 50 blind 
total pot: 250 
/inquire 

------------



------------


flop/ 
SPADES 10 
DIAMONDS 8 
SPADES Q 
/flop 

------------



------------


inquire/ 
2222 3000 6000 100 check 
1111 2600 8000 100 check 
6666 1800 6000 100 check 
7777 3800 4000 100 call 
3333 3000 8000 100 call 
4444 5400 8000 100 call 
5555 5000 6000 100 call 
8888 2600 6000 100 call 
total pot: 800 
/inquire 

------------



------------


turn/ 
HEARTS J 
/turn 

------------



------------


inquire/ 
2222 3000 6000 100 check 
1111 2600 8000 100 check 
6666 1800 6000 100 check 
7777 3800 4000 100 check 
3333 3000 8000 100 check 
4444 5400 8000 100 check 
5555 5000 6000 100 check 
8888 2600 6000 100 check 
total pot: 800 
/inquire 

------------



------------


river/ 
CLUBS Q 
/river 

------------



------------


inquire/ 
2222 3000 6000 100 check 
1111 2600 8000 100 check 
6666 1800 6000 100 check 
7777 3800 4000 100 check 
3333 3000 8000 100 check 
4444 5400 8000 100 check 
5555 5000 6000 100 check 
8888 2600 6000 100 check 
total pot: 800 
/inquire 

------------



------------


showdown/ 
common/ 
SPADES 10 
DIAMONDS 8 
SPADES Q 
HEARTS J 
CLUBS Q 
/common 
2: 6666 CLUBS 5 DIAMONDS 9 STRAIGHT 
3: 1111 HEARTS 4 HEARTS A ONE_PAIR 
4: 2222 CLUBS K DIAMONDS 2 ONE_PAIR 
5: 8888 SPADES 7 CLUBS 4 ONE_PAIR 
4: 5555 HEARTS 2 DIAMONDS K ONE_PAIR 
5: 4444 HEARTS 6 DIAMONDS 7 ONE_PAIR 
1: 3333 DIAMONDS Q DIAMONDS 10 FULL_HOUSE 
2: 7777 HEARTS 9 DIAMONDS A STRAIGHT 
/showdown 

------------



------------


pot-win/ 
3333: 800 
/pot-win 

------------


seat/ 
button: 6666 1800 6000 
small blind: 1111 2600 8000 
big blind: 2222 3000 6000 
8888 2600 6000 
5555 5000 6000 
4444 5400 8000 
3333 3800 8000 
7777 3800 4000 
/seat 

------------


blind/ 
1111: 50 
2222: 100 
/blind 

------------


hold/ 
CLUBS K 
DIAMONDS 2 
/hold 

------------


inquire/ 
2222 2900 6000 100 blind 
1111 2550 8000 50 blind 
total pot: 150 
/inquire 

------------



------------


flop/ 
SPADES 10 
DIAMONDS 8 
SPADES Q 
/flop 

------------



------------


inquire/ 
2222 2900 6000 100 check 
1111 2500 8000 100 check 
6666 1700 6000 100 call 
7777 3700 4000 100 call 
3333 3700 8000 100 call 
4444 5300 8000 100 call 
5555 4900 6000 100 call 
8888 2500 6000 100 call 
total pot: 800 
/inquire 

------------



------------


turn/ 
HEARTS J 
/turn 

------------



------------


inquire/ 
2222 2900 6000 100 check 
1111 2500 8000 100 check 
6666 1700 6000 100 check 
7777 3700 4000 100 check 
3333 3700 8000 100 check 
4444 5300 8000 100 check 
5555 4900 6000 100 check 
8888 2500 6000 100 check 
total pot: 800 
/inquire 

------------



------------


river/ 
CLUBS Q 
/river 

------------



------------


inquire/ 
2222 2900 6000 100 check 
1111 2500 8000 100 check 
6666 1700 6000 100 check 
7777 3700 4000 100 check 
3333 3700 8000 100 check 
4444 5300 8000 100 check 
5555 4900 6000 100 check 
8888 2500 6000 100 check 
total pot: 800 
/inquire 

------------



------------


showdown/ 
common/ 
SPADES 10 
DIAMONDS 8 
SPADES Q 
HEARTS J 
CLUBS Q 
/common 
2: 1111 CLUBS 5 DIAMONDS 9 STRAIGHT 
3: 2222 HEARTS 4 HEARTS A ONE_PAIR 
4: 8888 CLUBS K DIAMONDS 2 ONE_PAIR 
5: 5555 SPADES 7 CLUBS 4 ONE_PAIR 
4: 4444 HEARTS 2 DIAMONDS K ONE_PAIR 
5: 3333 HEARTS 6 DIAMONDS 7 ONE_PAIR 
1: 7777 DIAMONDS Q DIAMONDS 10 FULL_HOUSE 
2: 6666 HEARTS 9 DIAMONDS A STRAIGHT 
/showdown 

------------



------------


pot-win/ 
7777: 800 
/pot-win 

------------


seat/ 
button: 1111 2500 8000 
small blind: 2222 2900 6000 
big blind: 8888 2500 6000 
5555 4900 6000 
4444 5300 8000 
3333 3700 8000 
7777 4500 4000 
6666 1700 6000 
/seat 

------------


blind/ 
2222: 50 
8888: 100 
/blind 

------------


hold/ 
HEARTS 4 
HEARTS A 
/hold 

------------



------------


inquire/ 
2222 2800 6000 100 call 
1111 2400 8000 100 call 
6666 1600 6000 100 call 
7777 4400 4000 100 call 
3333 3600 8000 100 call 
4444 5200 8000 100 call 
5555 4800 6000 100 call 
8888 2400 6000 100 blind 
total pot: 800 
/inquire 

------------



------------


flop/ 
SPADES 10 
DIAMONDS 8 
SPADES Q 
/flop 

------------



------------


inquire/ 
2222 2800 6000 100 check 
1111 2400 8000 100 call 
6666 1600 6000 100 call 
7777 4400 4000 100 call 
3333 3600 8000 100 call 
4444 5200 8000 100 call 
5555 4800 6000 100 call 
8888 2400 6000 100 check 
total pot: 800 
/inquire 

------------



------------


turn/ 
HEARTS J 
/turn 

------------



------------


inquire/ 
2222 2800 6000 100 check 
1111 2400 8000 100 check 
6666 1600 6000 100 check 
7777 4400 4000 100 check 
3333 3600 8000 100 check 
4444 5200 8000 100 check 
5555 4800 6000 100 check 
8888 2400 6000 100 check 
total pot: 800 
/inquire 

------------



------------


river/ 
CLUBS Q 
/river 

------------



------------


inquire/ 
2222 2800 6000 100 check 
1111 2400 8000 100 check 
6666 1600 6000 100 check 
7777 4400 4000 100 check 
3333 3600 8000 100 check 
4444 5200 8000 100 check 
5555 4800 6000 100 check 
8888 2400 6000 100 check 
total pot: 800 
/inquire 

------------



------------


showdown/ 
common/ 
SPADES 10 
DIAMONDS 8 
SPADES Q 
HEARTS J 
CLUBS Q 
/common 
2: 2222 CLUBS 5 DIAMONDS 9 STRAIGHT 
3: 8888 HEARTS 4 HEARTS A ONE_PAIR 
4: 5555 CLUBS K DIAMONDS 2 ONE_PAIR 
5: 4444 SPADES 7 CLUBS 4 ONE_PAIR 
4: 3333 HEARTS 2 DIAMONDS K ONE_PAIR 
5: 7777 HEARTS 6 DIAMONDS 7 ONE_PAIR 
1: 6666 DIAMONDS Q DIAMONDS 10 FULL_HOUSE 
2: 1111 HEARTS 9 DIAMONDS A STRAIGHT 
/showdown 

------------



------------


pot-win/ 
6666: 800 
/pot-win 

------------


seat/ 
button: 2222 2800 6000 
small blind: 8888 2400 6000 
big blind: 5555 4800 6000 
4444 5200 8000 
3333 3600 8000 
7777 4400 4000 
6666 2400 6000 
1111 2400 8000 
/seat 

------------


blind/ 
8888: 50 
5555: 100 
/blind 

------------


hold/ 
CLUBS 5 
DIAMONDS 9 
/hold 

------------



------------


inquire/ 
2222 2700 6000 100 call 
1111 2300 8000 100 call 
6666 2300 6000 100 call 
7777 4300 4000 100 call 
3333 3500 8000 100 call 
4444 5100 8000 100 call 
5555 4700 6000 100 blind 
8888 2350 6000 50 blind 
total pot: 750 
/inquire 

------------



------------


flop/ 
SPADES 10 
DIAMONDS 8 
SPADES Q 
/flop 

------------



------------


inquire/ 
2222 2700 6000 100 call 
1111 2300 8000 100 call 
6666 2300 6000 100 call 
7777 4300 4000 100 call 
3333 3500 8000 100 call 
4444 5100 8000 100 call 
5555 4700 6000 100 check 
8888 2300 6000 100 call 
total pot: 800 
/inquire 

------------



------------


turn/ 
HEARTS J 
/turn 

------------



------------


inquire/ 
2222 2700 6000 100 check 
1111 2300 8000 100 check 
6666 2300 6000 100 check 
7777 4300 4000 100 check 
3333 3500 8000 100 check 
4444 5100 8000 100 check 
5555 4700 6000 100 check 
8888 2300 6000 100 check 
total pot: 800 
/inquire 

------------



------------


river/ 
CLUBS Q 
/river 

------------



------------


inquire/ 
2222 2700 6000 100 check 
1111 2300 8000 100 check 
6666 2300 6000 100 check 
7777 4300 4000 100 check 
3333 3500 8000 100 check 
4444 5100 8000 100 check 
5555 4700 6000 100 check 
8888 2300 6000 100 check 
total pot: 800 
/inquire 

------------



------------


showdown/ 
common/ 
SPADES 10 
DIAMONDS 8 
SPADES Q 
HEARTS J 
CLUBS Q 
/common 
2: 8888 CLUBS 5 DIAMONDS 9 STRAIGHT 
3: 5555 HEARTS 4 HEARTS A ONE_PAIR 
4: 4444 CLUBS K DIAMONDS 2 ONE_PAIR 
5: 3333 SPADES 7 CLUBS 4 ONE_PAIR 
4: 7777 HEARTS 2 DIAMONDS K ONE_PAIR 
5: 6666 HEARTS 6 DIAMONDS 7 ONE_PAIR 
1: 1111 DIAMONDS Q DIAMONDS 10 FULL_HOUSE 
2: 2222 HEARTS 9 DIAMONDS A STRAIGHT 
/showdown 

------------



------------


pot-win/ 
1111: 800 
/pot-win 

------------


seat/ 
button: 8888 2300 6000 
small blind: 5555 4700 6000 
big blind: 4444 5100 8000 
3333 3500 8000 
7777 4300 4000 
6666 2300 6000 
1111 3100 8000 
2222 2700 6000 
/seat 

------------


blind/ 
5555: 50 
4444: 100 
/blind 

------------


hold/ 
SPADES 3 
SPADES 6 
/hold 

------------



------------


inquire/ 
2222 2600 6000 100 call 
1111 3000 8000 100 call 
6666 2200 6000 100 call 
7777 4200 4000 100 call 
3333 3400 8000 100 call 
4444 5000 8000 100 blind 
5555 4650 6000 50 blind 
total pot: 650 
/inquire 

------------



------------


flop/ 
DIAMONDS J 
DIAMONDS 3 
SPADES Q 
/flop 

------------



------------


inquire/ 
2222 2600 6000 100 check 
1111 3000 8000 100 check 
6666 2200 6000 100 check 
7777 4200 4000 100 check 
3333 3400 8000 100 check 
4444 5000 8000 100 check 
5555 4600 6000 100 check 
8888 2200 6000 100 call 
total pot: 800 
/inquire 

------------



------------


turn/ 
DIAMONDS 7 
/turn 

------------



------------


inquire/ 
2222 2600 6000 100 check 
1111 3000 8000 100 check 
6666 2200 6000 100 check 
7777 4200 4000 100 check 
3333 3400 8000 100 check 
4444 5000 8000 100 check 
5555 4600 6000 100 check 
8888 2200 6000 100 check 
total pot: 800 
/inquire 

------------



------------


river/ 
DIAMONDS 8 
/river 

------------



------------


inquire/ 
2222 2600 6000 100 check 
1111 3000 8000 100 check 
6666 2200 6000 100 check 
7777 4200 4000 100 check 
3333 3400 8000 100 check 
4444 5000 8000 100 check 
5555 4600 6000 100 check 
8888 2200 6000 100 check 
total pot: 800 
/inquire 

------------



------------


showdown/ 
common/ 
DIAMONDS J 
DIAMONDS 3 
SPADES Q 
DIAMONDS 7 
DIAMONDS 8 
/common 
2: 5555 HEARTS 8 DIAMONDS 5 FLUSH 
3: 4444 HEARTS 6 HEARTS J ONE_PAIR 
4: 3333 CLUBS 8 CLUBS K ONE_PAIR 
7: 7777 SPADES 2 SPADES 9 HIGH_CARD 
5: 6666 CLUBS 2 SPADES 7 ONE_PAIR 
1: 1111 DIAMONDS K HEARTS Q FLUSH 
8: 2222 SPADES 4 HEARTS 5 HIGH_CARD 
6: 8888 SPADES 3 SPADES 6 ONE_PAIR 
/showdown 

------------



------------


pot-win/ 
1111: 800 
/pot-win 

------------


seat/ 
button: 5555 4600 6000 
small blind: 4444 5000 8000 
big blind: 3333 3400 8000 
7777 4200 4000 
6666 2200 6000 
1111 3800 8000 
2222 2600 6000 
8888 2200 6000 
/seat 

------------


blind/ 
4444: 50 
3333: 100 
/blind 

------------


hold/ 
SPADES 4 
HEARTS 5 
/hold 

------------



------------


inquire/ 
2222 2500 6000 100 call 
1111 3700 8000 100 call 
6666 2100 6000 100 call 
7777 4100 4000 100 call 
3333 3300 8000 100 blind 
4444 4950 8000 50 blind 
total pot: 550 
/inquire 

------------



------------


flop/ 
DIAMONDS J 
DIAMONDS 3 
SPADES Q 
/flop 

------------



------------


inquire/ 
2222 2500 6000 100 check 
1111 3700 8000 100 check 
6666 2100 6000 100 check 
7777 4100 4000 100 check 
3333 3300 8000 100 check 
4444 4900 8000 100 check 
5555 4500 6000 100 call 
8888 2100 6000 100 call 
total pot: 800 
/inquire 

------------



------------


turn/ 
DIAMONDS 7 
/turn 

------------



------------


inquire/ 
2222 2500 6000 100 check 
1111 3700 8000 100 check 
6666 2100 6000 100 check 
7777 4100 4000 100 check 
3333 3300 8000 100 check 
4444 4900 8000 100 check 
5555 4500 6000 100 check 
8888 2100 6000 100 check 
total pot: 800 
/inquire 

------------



------------


river/ 
DIAMONDS 8 
/river 

------------



------------


inquire/ 
2222 2500 6000 100 check 
1111 3700 8000 100 check 
6666 2100 6000 100 check 
7777 4100 4000 100 check 
3333 3300 8000 100 check 
4444 4900 8000 100 check 
5555 4500 6000 100 check 
8888 2100 6000 100 check 
total pot: 800 
/inquire 

------------



------------


showdown/ 
common/ 
DIAMONDS J 
DIAMONDS 3 
SPADES Q 
DIAMONDS 7 
DIAMONDS 8 
/common 
2: 4444 HEARTS 8 DIAMONDS 5 FLUSH 
3: 3333 HEARTS 6 HEARTS J ONE_PAIR 
4: 7777 CLUBS 8 CLUBS K ONE_PAIR 
7: 6666 SPADES 2 SPADES 9 HIGH_CARD 
5: 1111 CLUBS 2 SPADES 7 ONE_PAIR 
1: 2222 DIAMONDS K HEARTS Q FLUSH 
8: 8888 SPADES 4 HEARTS 5 HIGH_CARD 
6: 5555 SPADES 3 SPADES 6 ONE_PAIR 
/showdown 

------------



------------


pot-win/ 
2222: 800 
/pot-win 

------------


seat/ 
button: 4444 4900 8000 
small blind: 3333 3300 8000 
big blind: 7777 4100 4000 
6666 2100 6000 
1111 3700 8000 
2222 3300 6000 
8888 2100 6000 
5555 4500 6000 
/seat 

------------


blind/ 
3333: 50 
7777: 100 
/blind 

------------


hold/ 
DIAMONDS K 
HEARTS Q 
/hold 

------------



------------


inquire/ 
2222 3200 6000 100 call 
1111 3600 8000 100 call 
6666 2000 6000 100 call 
7777 4000 4000 100 blind 
3333 3250 8000 50 blind 
total pot: 450 
/inquire 

------------



------------


flop/ 
DIAMONDS J 
DIAMONDS 3 
SPADES Q 
/flop 

------------



------------


inquire/ 
2222 3200 6000 100 check 
1111 3600 8000 100 check 
6666 2000 6000 100 check 
7777 4000 4000 100 check 
3333 3200 8000 100 check 
4444 4800 8000 100 call 
5555 4400 6000 100 call 
8888 2000 6000 100 call 
total pot: 800 
/inquire 

------------



------------


turn/ 
DIAMONDS 7 
/turn 

------------



------------


inquire/ 
2222 3200 6000 100 check 
1111 3600 8000 100 check 
6666 2000 6000 100 check 
7777 4000 4000 100 check 
3333 3200 8000 100 check 
4444 4800 8000 100 check 
5555 4400 6000 100 check 
8888 2000 6000 100 check 
total pot: 800 
/inquire 

------------



------------


river/ 
DIAMONDS 8 
/river 

------------



------------


inquire/ 
2222 3200 6000 100 check 
1111 3600 8000 100 check 
6666 2000 6000 100 check 
7777 4000 4000 100 check 
3333 3200 8000 100 check 
4444 4800 8000 100 check 
5555 4400 6000 100 check 
8888 2000 6000 100 check 
total pot: 800 
/inquire 

------------



------------


showdown/ 
common/ 
DIAMONDS J 
DIAMONDS 3 
SPADES Q 
DIAMONDS 7 
DIAMONDS 8 
/common 
2: 3333 HEARTS 8 DIAMONDS 5 FLUSH 
3: 7777 HEARTS 6 HEARTS J ONE_PAIR 
4: 6666 CLUBS 8 CLUBS K ONE_PAIR 
7: 1111 SPADES 2 SPADES 9 HIGH_CARD 
5: 2222 CLUBS 2 SPADES 7 ONE_PAIR 
1: 8888 DIAMONDS K HEARTS Q FLUSH 
8: 5555 SPADES 4 HEARTS 5 HIGH_CARD 
6: 4444 SPADES 3 SPADES 6 ONE_PAIR 
/showdown 

------------



------------


pot-win/ 
8888: 800 
/pot-win 

------------


seat/ 
button: 3333 3200 8000 
small blind: 7777 4000 4000 
big blind: 6666 2000 6000 
1111 3600 8000 
2222 3200 6000 
8888 2800 6000 
5555 4400 6000 
4444 4800 8000 
/seat 

------------


blind/ 
7777: 50 
6666: 100 
/blind 

------------


hold/ 
CLUBS 2 
SPADES 7 
/hold 

------------



------------


inquire/ 
2222 3100 6000 100 call 
1111 3500 8000 100 call 
6666 1900 6000 100 blind 
7777 3950 4000 50 blind 
total pot: 350 
/inquire 

------------



------------


flop/ 
DIAMONDS J 
DIAMONDS 3 
SPADES Q 
/flop 

------------



------------


inquire/ 
2222 3100 6000 100 check 
1111 3500 8000 100 check 
6666 1900 6000 100 check 
7777 3900 4000 100 check 
3333 3100 8000 100 call 
4444 4700 8000 100 call 
5555 4300 6000 100 call 
8888 2700 6000 100 call 
total pot: 800 
/inquire 

------------



------------


turn/ 
DIAMONDS 7 
/turn 

------------



------------


inquire/ 
2222 3100 6000 100 check 
1111 3500 8000 100 check 
6666 1900 6000 100 check 
7777 3900 4000 100 check 
3333 3100 8000 100 check 
4444 4700 8000 100 check 
5555 4300 6000 100 check 
8888 2700 6000 100 check 
total pot: 800 
/inquire 

------------



------------


river/ 
DIAMONDS 8 
/river 

------------



------------


inquire/ 
2222 3100 6000 100 check 
1111 3500 8000 100 check 
6666 1900 6000 100 check 
7777 3900 4000 100 check 
3333 3100 8000 100 check 
4444 4700 8000 100 check 
5555 4300 6000 100 check 
8888 2700 6000 100 check 
total pot: 800 
/inquire 

------------



------------


showdown/ 
common/ 
DIAMONDS J 
DIAMONDS 3 
SPADES Q 
DIAMONDS 7 
DIAMONDS 8 
/common 
2: 7777 HEARTS 8 DIAMONDS 5 FLUSH 
3: 6666 HEARTS 6 HEARTS J ONE_PAIR 
4: 1111 CLUBS 8 CLUBS K ONE_PAIR 
7: 2222 SPADES 2 SPADES 9 HIGH_CARD 
5: 8888 CLUBS 2 SPADES 7 ONE_PAIR 
1: 5555 DIAMONDS K HEARTS Q FLUSH 
8: 4444 SPADES 4 HEARTS 5 HIGH_CARD 
6: 3333 SPADES 3 SPADES 6 ONE_PAIR 
/showdown 

------------



------------


pot-win/ 
5555: 800 
/pot-win 

------------


seat/ 
button: 7777 3900 4000 
small blind: 6666 1900 6000 
big blind: 1111 3500 8000 
2222 3100 6000 
8888 2700 6000 
5555 5100 6000 
4444 4700 8000 
3333 3100 8000 
/seat 

------------


blind/ 
6666: 50 
1111: 100 
/blind 

------------


hold/ 
SPADES 2 
SPADES 9 
/hold 

------------



------------


inquire/ 
2222 3000 6000 100 call 
1111 3400 8000 100 blind 
6666 1850 6000 50 blind 
total pot: 250 
/inquire 

------------



------------


flop/ 
DIAMONDS J 
DIAMONDS 3 
SPADES Q 
/flop 

------------



------------


inquire/ 
2222 3000 6000 100 check 
1111 3400 8000 100 check 
6666 1800 6000 100 check 
7777 3800 4000 100 call 
3333 3000 8000 100 call 
4444 4600 8000 100 call 
5555 5000 6000 100 call 
8888 2600 6000 100 call 
total pot: 800 
/inquire 

------------



------------


turn/ 
DIAMONDS 7 
/turn 

------------



------------


inquire/ 
2222 3000 6000 100 check 
1111 3400 8000 100 check 
6666 1800 6000 100 check 
7777 3800 4000 100 check 
3333 3000 8000 100 check 
4444 4600 8000 100 check 
5555 5000 6000 100 check 
8888 2600 6000 100 check 
total pot: 800 
/inquire 

------------



------------


river/ 
DIAMONDS 8 
/river 

------------



------------


inquire/ 
2222 3000 6000 100 check 
1111 3400 8000 100 check 
6666 1800 6000 100 check 
7777 3800 4000 100 check 
3333 3000 8000 100 check 
4444 4600 8000 100 check 
5555 5000 6000 100 check 
8888 2600 6000 100 check 
total pot: 800 
/inquire 

------------



------------


showdown/ 
common/ 
DIAMONDS J 
DIAMONDS 3 
SPADES Q 
DIAMONDS 7 
DIAMONDS 8 
/common 
2: 6666 HEARTS 8 DIAMONDS 5 FLUSH 
3: 1111 HEARTS 6 HEARTS J ONE_PAIR 
4: 2222 CLUBS 8 CLUBS K ONE_PAIR 
7: 8888 SPADES 2 SPADES 9 HIGH_CARD 
5: 5555 CLUBS 2 SPADES 7 ONE_PAIR 
1: 4444 DIAMONDS K HEARTS Q FLUSH 
8: 3333 SPADES 4 HEARTS 5 HIGH_CARD 
6: 7777 SPADES 3 SPADES 6 ONE_PAIR 
/showdown 

------------



------------


pot-win/ 
4444: 800 
/pot-win 

------------


seat/ 
button: 6666 1800 6000 
small blind: 1111 3400 8000 
big blind: 2222 3000 6000 
8888 2600 6000 
5555 5000 6000 
4444 5400 8000 
3333 3000 8000 
7777 3800 4000 
/seat 

------------


blind/ 
1111: 50 
2222: 100 
/blind 

------------


hold/ 
HEARTS Q 
DIAMONDS 5 
/hold 

------------


inquire/ 
2222 2900 6000 100 blind 
1111 3350 8000 50 blind 
total pot: 150 
/inquire 

------------



------------


flop/ 
CLUBS 9 
DIAMONDS 8 
HEARTS K 
/flop 

------------



------------


inquire/ 
2222 2900 6000 100 check 
1111 3300 8000 100 check 
6666 1700 6000 100 call 
7777 3700 4000 100 call 
3333 2900 8000 100 call 
4444 5300 8000 100 call 
5555 4900 6000 100 call 
8888 2500 6000 100 call 
total pot: 800 
/inquire 

------------



------------


turn/ 
DIAMONDS 10 
/turn 

------------



------------


inquire/ 
2222 2900 6000 100 check 
1111 3300 8000 100 check 
6666 1700 6000 100 check 
7777 3700 4000 100 check 
3333 2900 8000 100 check 
4444 5300 8000 100 check 
5555 4900 6000 100 check 
8888 2500 6000 100 check 
total pot: 800 
/inquire 

------------



------------


river/ 
SPADES 3 
/river 

------------



------------


inquire/ 
2222 2900 6000 100 check 
1111 3300 8000 100 check 
6666 1700 6000 100 check 
7777 3700 4000 100 check 
3333 2900 8000 100 check 
4444 5300 8000 100 check 
5555 4900 6000 100 check 
8888 2500 6000 100 check 
total pot: 800 
/inquire 

------------



------------


showdown/ 
common/ 
CLUBS 9 
DIAMONDS 8 
HEARTS K 
DIAMONDS 10 
SPADES 3 
/common 
6: 1111 DIAMONDS 6 SPADES A HIGH_CARD 
1: 2222 CLUBS K CLUBS 10 TWO_PAIR 
7: 8888 HEARTS Q DIAMONDS 5 HIGH_CARD 
3: 5555 SPADES 9 HEARTS 7 ONE_PAIR 
2: 4444 SPADES K HEARTS J ONE_PAIR 
5: 3333 DIAMONDS 3 SPADES 2 ONE_PAIR 
6: 7777 HEARTS A HEARTS 5 HIGH_CARD 
4: 6666 SPADES 6 CLUBS 6 ONE_PAIR 
/showdown 

------------



------------


pot-win/ 
2222: 800 
/pot-win 

------------


seat/ 
button: 1111 3300 8000 
small blind: 2222 3700 6000 
big blind: 8888 2500 6000 
5555 4900 6000 
4444 5300 8000 
3333 2900 8000 
7777 3700 4000 
6666 1700 6000 
/seat 

------------


blind/ 
2222: 50 
8888: 100 
/blind 

------------


hold/ 
CLUBS K 
CLUBS 10 
/hold 

------------



------------


inquire/ 
2222 3600 6000 100 call 
1111 3200 8000 100 call 
6666 1600 6000 100 call 
7777 3600 4000 100 call 
3333 2800 8000 100 call 
4444 5200 8000 100 call 
5555 4800 6000 100 call 
8888 2400 6000 100 blind 
total pot: 800 
/inquire 

------------



------------


flop/ 
CLUBS 9 
DIAMONDS 8 
HEARTS K 
/flop 

------------



------------


inquire/ 
2222 3600 6000 100 check 
1111 3200 8000 100 call 
6666 1600 6000 100 call 
7777 3600 4000 100 call 
3333 2800 8000 100 call 
4444 5200 8000 100 call 
5555 4800 6000 100 call 
8888 2400 6000 100 check 
total pot: 800 
/inquire 

------------



------------


turn/ 
DIAMONDS 10 
/turn 

------------



------------


inquire/ 
2222 3600 6000 100 check 
1111 3200 8000 100 check 
6666 1600 6000 100 check 
7777 3600 4000 100 check 
3333 2800 8000 100 check 
4444 5200 8000 100 check 
5555 4800 6000 100 check 
8888 2400 6000 100 check 
total pot: 800 
/inquire 

------------



------------


river/ 
SPADES 3 
/river 

------------



------------


inquire/ 
2222 3600 6000 100 check 
1111 3200 8000 100 check 
6666 1600 6000 100 check 
7777 3600 4000 100 check 
3333 2800 8000 100 check 
4444 5200 8000 100 check 
5555 4800 6000 100 check 
8888 2400 6000 100 check 
total pot: 800 
/inquire 

------------



------------


showdown/ 
common/ 
CLUBS 9 
DIAMONDS 8 
HEARTS K 
DIAMONDS 10 
SPADES 3 
/common 
6: 2222 DIAMONDS 6 SPADES A HIGH_CARD 
1: 8888 CLUBS K CLUBS 10 TWO_PAIR 
7: 5555 HEARTS Q DIAMONDS 5 HIGH_CARD 
3: 4444 SPADES 9 HEARTS 7 ONE_PAIR 
2: 3333 SPADES K HEARTS J ONE_PAIR 
5: 7777 DIAMONDS 3 SPADES 2 ONE_PAIR 
6: 6666 HEARTS A HEARTS 5 HIGH_CARD 
4: 1111 SPADES 6 CLUBS 6 ONE_PAIR 
/showdown 

------------



------------


pot-win/ 
8888: 800 
/pot-win 

------------


seat/ 
button: 2222 3600 6000 
small blind: 8888 3200 6000 
big blind: 5555 4800 6000 
4444 5200 8000 
3333 2800 8000 
7777 3600 4000 
6666 1600 6000 
1111 3200 8000 
/seat 

------------


blind/ 
8888: 50 
5555: 100 
/blind 

------------


hold/ 
DIAMONDS 6 
SPADES A 
/hold 

------------



------------


inquire/ 
2222 3500 6000 100 call 
1111 3100 8000 100 call 
6666 1500 6000 100 call 
7777 3500 4000 100 call 
3333 2700 8000 100 call 
4444 5100 8000 100 call 
5555 4700 6000 100 blind 
8888 3150 6000 50 blind 
total pot: 750 
/inquire 

------------



------------


flop/ 
CLUBS 9 
DIAMONDS 8 
HEARTS K 
/flop 

------------



------------


inquire/ 
2222 3500 6000 100 call 
1111 3100 8000 100 call 
6666 1500 6000 100 call 
7777 3500 4000 100 call 
3333 2700 8000 100 call 
4444 5100 8000 100 call 
5555 4700 6000 100 check 
8888 3100 6000 100 call 
total pot: 800 
/inquire 

------------



------------


turn/ 
DIAMONDS 10 
/turn 

------------



------------


inquire/ 
2222 3500 6000 100 check 
1111 3100 8000 100 check 
6666 1500 6000 100 check 
7777 3500 4000 100 check 
3333 2700 8000 100 check 
4444 5100 8000 100 check 
5555 4700 6000 100 check 
8888 3100 6000 100 check 
total pot: 800 
/inquire 

------------



------------


river/ 
SPADES 3 
/river 

------------



------------


inquire/ 
2222 3500 6000 100 check 
1111 3100 8000 100 check 
6666 1500 6000 100 check 
7777 3500 4000 100 check 
3333 2700 8000 100 check 
4444 5100 8000 100 check 
5555 4700 6000 100 check 
8888 3100 6000 100 check 
total pot: 800 
/inquire 

------------



------------


showdown/ 
common/ 
CLUBS 9 
DIAMONDS 8 
HEARTS K 
DIAMONDS 10 
SPADES 3 
/common 
6: 8888 DIAMONDS 6 SPADES A HIGH_CARD 
1: 5555 CLUBS K CLUBS 10 TWO_PAIR 
7: 4444 HEARTS Q DIAMONDS 5 HIGH_CARD 
3: 3333 SPADES 9 HEARTS 7 ONE_PAIR 
2: 7777 SPADES K HEARTS J ONE_PAIR 
5: 6666 DIAMONDS 3 SPADES 2 ONE_PAIR 
6: 1111 HEARTS A HEARTS 5 HIGH_CARD 
4: 2222 SPADES 6 CLUBS 6 ONE_PAIR 
/showdown 

------------



------------


pot-win/ 
5555: 800 
/pot-win 

------------


seat/ 
button: 8888 3100 6000 
small blind: 5555 5500 6000 
big blind: 4444 5100 8000 
3333 2700 8000 
7777 3500 4000 
6666 1500 6000 
1111 3100 8000 
2222 3500 6000 
/seat 

------------


blind/ 
5555: 50 
4444: 100 
/blind 

------------


hold/ 
SPADES 6 
CLUBS 6 
/hold 

------------



------------


inquire/ 
2222 3400 6000 100 call 
1111 3000 8000 100 call 
6666 1400 6000 100 call 
7777 3400 4000 100 call 
3333 2600 8000 100 call 
4444 5000 8000 100 blind 
5555 5450 6000 50 blind 
total pot: 650 
/inquire 

------------



------------


flop/ 
CLUBS 9 
DIAMONDS 8 
HEARTS K 
/flop 

------------



------------


inquire/ 
2222 3400 6000 100 check 
1111 3000 8000 100 check 
6666 1400 6000 100 check 
7777 3400 4000 100 check 
3333 2600 8000 100 check 
4444 5000 8000 100 check 
5555 5400 6000 100 check 
8888 3000 6000 100 call 
total pot: 800 
/inquire 

------------



------------


turn/ 
DIAMONDS 10 
/turn 

------------



------------


inquire/ 
2222 3400 6000 100 check 
1111 3000 8000 100 check 
6666 1400 6000 100 check 
7777 3400 4000 100 check 
3333 2600 8000 100 check 
4444 5000 8000 100 check 
5555 5400 6000 100 check 
8888 3000 6000 100 check 
total pot: 800 
/inquire 

------------



------------


river/ 
SPADES 3 
/river 

------------



------------


inquire/ 
2222 3400 6000 100 check 
1111 3000 8000 100 check 
6666 1400 6000 100 check 
7777 3400 4000 100 check 
3333 2600 8000 100 check 
4444 5000 8000 100 check 
5555 5400 6000 100 check 
8888 3000 6000 100 check 
total pot: 800 
/inquire 

------------



------------


showdown/ 
common/ 
CLUBS 9 
DIAMONDS 8 
HEARTS K 
DIAMONDS 10 
SPADES 3 
/common 
6: 5555 DIAMONDS 6 SPADES A HIGH_CARD 
1: 4444 CLUBS K CLUBS 10 TWO_PAIR 
7: 3333 HEARTS Q DIAMONDS 5 HIGH_CARD 
3: 7777 SPADES 9 HEARTS 7 ONE_PAIR 
2: 6666 SPADES K HEARTS J ONE_PAIR 
5: 1111 DIAMONDS 3 SPADES 2 ONE_PAIR 
6: 2222 HEARTS A HEARTS 5 HIGH_CARD 
4: 8888 SPADES 6 CLUBS 6 ONE_PAIR 
/showdown 

------------



------------


pot-win/ 
4444: 800 
/pot-win 

------------


seat/ 
button: 5555 5400 6000 
small blind: 4444 5800 8000 
big blind: 3333 2600 8000 
7777 3400 4000 
6666 1400 6000 
1111 3000 8000 
2222 3400 6000 
8888 3000 6000 
/seat 

------------


blind/ 
4444: 50 
3333: 100 
/blind 

------------


hold/ 
HEARTS A 
HEARTS 5 
/hold 

------------



------------


inquire/ 
2222 3300 6000 100 call 
1111 2900 8000 100 call 
6666 1300 6000 100 call 
7777 3300 4000 100 call 
3333 2500 8000 100 blind 
4444 5750 8000 50 blind 
total pot: 550 
/inquire 

------------



------------


flop/ 
CLUBS 9 
DIAMONDS 8 
HEARTS K 
/flop 

------------



------------


inquire/ 
2222 3300 6000 100 check 
1111 2900 8000 100 check 
6666 1300 6000 100 check 
7777 3300 4000 100 check 
3333 2500 8000 100 check 
4444 5700 8000 100 check 
5555 5300 6000 100 call 
8888 2900 6000 100 call 
total pot: 800 
/inquire 

------------



------------


turn/ 
DIAMONDS 10 
/turn 

------------



------------


inquire/ 
2222 3300 6000 100 check 
1111 2900 8000 100 check 
6666 1300 6000 100 check 
7777 3300 4000 100 check 
3333 2500 8000 100 check 
4444 5700 8000 100 check 
5555 5300 6000 100 check 
8888 2900 6000 100 check 
total pot: 800 
/inquire 

------------



------------


river/ 
SPADES 3 
/river 

------------



------------


inquire/ 
2222 3300 6000 100 check 
1111 2900 8000 100 check 
6666 1300 6000 100 check 
7777 3300 4000 100 check 
3333 2500 8000 100 check 
4444 5700 8000 100 check 
5555 5300 6000 100 check 
8888 2900 6000 100 check 
total pot: 800 
/inquire 

------------



------------


showdown/ 
common/ 
CLUBS 9 
DIAMONDS 8 
HEARTS K 
DIAMONDS 10 
SPADES 3 
/common 
6: 4444 DIAMONDS 6 SPADES A HIGH_CARD 
1: 3333 CLUBS K CLUBS 10 TWO_PAIR 
7: 7777 HEARTS Q DIAMONDS 5 HIGH_CARD 
3: 6666 SPADES 9 HEARTS 7 ONE_PAIR 
2: 1111 SPADES K HEARTS J ONE_PAIR 
5: 2222 DIAMONDS 3 SPADES 2 ONE_PAIR 
6: 8888 HEARTS A HEARTS 5 HIGH_CARD 
4: 5555 SPADES 6 CLUBS 6 ONE_PAIR 
/showdown 

------------



------------


pot-win/ 
3333: 800 
/pot-win 

------------


seat/ 
button: 4444 5700 8000 
small blind: 3333 3300 8000 
big blind: 7777 3300 4000 
6666 1300 6000 
1111 2900 8000 
2222 3300 6000 
8888 2900 6000 
5555 5300 6000 
/seat 

------------


blind/ 
3333: 50 
7777: 100 
/blind 

------------


hold/ 
DIAMONDS 3 
SPADES 2 
/hold 

------------



------------


inquire/ 
2222 3200 6000 100 call 
1111 2800 8000 100 call 
6666 1200 6000 100 call 
7777 3200 4000 100 blind 
3333 3250 8000 50 blind 
total pot: 450 
/inquire 

------------



------------


flop/ 
CLUBS 9 
DIAMONDS 8 
HEARTS K 
/flop 

------------



------------


inquire/ 
2222 3200 6000 100 check 
1111 2800 8000 100 check 
6666 1200 6000 100 check 
7777 3200 4000 100 check 
3333 3200 8000 100 check 
4444 5600 8000 100 call 
5555 5200 6000 100 call 
8888 2800 6000 100 call 
total pot: 800 
/inquire 

------------



------------


turn/ 
DIAMONDS 10 
/turn 

------------



------------


inquire/ 
2222 3200 6000 100 check 
1111 2800 8000 100 check 
6666 1200 6000 100 check 
7777 3200 4000 100 check 
3333 3200 8000 100 check 
4444 5600 8000 100 check 
5555 5200 6000 100 check 
8888 2800 6000 100 check 
total pot: 800 
/inquire 

------------



------------


river/ 
SPADES 3 
/river 

------------



------------


inquire/ 
2222 3200 6000 100 check 
1111 2800 8000 100 check 
6666 1200 6000 100 check 
7777 3200 4000 100 check 
3333 3200 8000 100 check 
4444 5600 8000 100 check 
5555 5200 6000 100 check 
8888 2800 6000 100 check 
total pot: 800 
/inquire 

------------



------------


showdown/ 
common/ 
CLUBS 9 
DIAMONDS 8 
HEARTS K 
DIAMONDS 10 
SPADES 3 
/common 
6: 3333 DIAMONDS 6 SPADES A HIGH_CARD 
1: 7777 CLUBS K CLUBS 10 TWO_PAIR 
7: 6666 HEARTS Q DIAMONDS 5 HIGH_CARD 
3: 1111 SPADES 9 HEARTS 7 ONE_PAIR 
2: 2222 SPADES K HEARTS J ONE_PAIR 
5: 8888 DIAMONDS 3 SPADES 2 ONE_PAIR 
6: 5555 HEARTS A HEARTS 5 HIGH_CARD 
4: 4444 SPADES 6 CLUBS 6 ONE_PAIR 
/showdown 

------------



------------


pot-win/ 
7777: 800 
/pot-win 

------------


seat/ 
button: 3333 3200 8000 
small blind: 7777 4000 4000 
big blind: 6666 1200 6000 
1111 2800 8000 
2222 3200 6000 
8888 2800 6000 
5555 5200 6000 
4444 5600 8000 
/seat 

------------


blind/ 
7777: 50 
6666: 100 
/blind 

------------


hold/ 
HEARTS 6 
SPADES A 
/hold 

------------



------------


inquire/ 
2222 3100 6000 100 call 
1111 2700 8000 100 call 
6666 1100 6000 100 blind 
7777 3950 4000 50 blind 
total pot: 350 
/inquire 

------------



------------


flop/ 
DIAMONDS 10 
CLUBS 2 
SPADES J 
/flop 

------------



------------


inquire/ 
2222 3100 6000 100 check 
1111 2700 8000 100 check 
6666 1100 6000 100 check 
7777 3900 4000 100 check 
3333 3100 8000 100 call 
4444 5500 8000 100 call 
5555 5100 6000 100 call 
8888 2700 6000 100 call 
total pot: 800 
/inquire 

------------



------------


turn/ 
DIAMONDS 9 
/turn 

------------



------------


inquire/ 
2222 3100 6000 100 check 
1111 2700 8000 100 check 
6666 1100 6000 100 check 
7777 3900 4000 100 check 
3333 3100 8000 100 check 
4444 5500 8000 100 check 
5555 5100 6000 100 check 
8888 2700 6000 100 check 
total pot: 800 
/inquire 

------------



------------


river/ 
DIAMONDS 8 
/river 

------------



------------


inquire/ 
2222 3100 6000 100 check 
1111 2700 8000 100 check 
6666 1100 6000 100 check 
7777 3900 4000 100 check 
3333 3100 8000 100 check 
4444 5500 8000 100 check 
5555 5100 6000 100 check 
8888 2700 6000 100 check 
total pot: 800 
/inquire 

------------



------------


showdown/ 
common/ 
DIAMONDS 10 
CLUBS 2 
SPADES J 
DIAMONDS 9 
DIAMONDS 8 
/common 
6: 7777 DIAMONDS 2 SPADES 3 ONE_PAIR 
1: 6666 CLUBS A DIAMONDS Q STRAIGHT 
3: 1111 DIAMONDS J SPADES 9 TWO_PAIR 
2: 2222 CLUBS 8 HEARTS 7 STRAIGHT 
7: 8888 HEARTS 6 SPADES A HIGH_CARD 
5: 5555 SPADES 10 HEARTS K ONE_PAIR 
4: 4444 CLUBS J DIAMONDS K ONE_PAIR 
1: 3333 CLUBS Q HEARTS A STRAIGHT 
/showdown 

------------



------------


pot-win/ 
6666: 400 
3333: 400 
/pot-win 

------------


seat/ 
button: 7777 3900 4000 
small blind: 6666 1500 6000 
big blind: 1111 2700 8000 
2222 3100 6000 
8888 2700 6000 
5555 5100 6000 
4444 5500 8000 
3333 3500 8000 
/seat 

------------


blind/ 
6666: 50 
1111: 100 
/blind 

------------


hold/ 
CLUBS 8 
HEARTS 7 
/hold 

------------



------------


inquire/ 
2222 3000 6000 100 call 
1111 2600 8000 100 blind 
6666 1450 6000 50 blind 
total pot: 250 
/inquire 

------------



------------


flop/ 
DIAMONDS 10 
CLUBS 2 
SPADES J 
/flop 

------------



------------


inquire/ 
2222 3000 6000 100 check 
1111 2600 8000 100 check 
6666 1400 6000 100 check 
7777 3800 4000 100 call 
3333 3400 8000 100 call 
4444 5400 8000 100 call 
5555 5000 6000 100 call 
8888 2600 6000 100 call 
total pot: 800 
/inquire 

------------



------------


turn/ 
DIAMONDS 9 
/turn 

------------



------------


inquire/ 
2222 3000 6000 100 check 
1111 2600 8000 100 check 
6666 1400 6000 100 check 
7777 3800 4000 100 check 
3333 3400 8000 100 check 
4444 5400 8000 100 check 
5555 5000 6000 100 check 
8888 2600 6000 100 check 
total pot: 800 
/inquire 

------------



------------


river/ 
DIAMONDS 8 
/river 

------------



------------


inquire/ 
2222 3000 6000 100 check 
1111 2600 8000 100 check 
6666 1400 6000 100 check 
7777 3800 4000 100 check 
3333 3400 8000 100 check 
4444 5400 8000 100 check 
5555 5000 6000 100 check 
8888 2600 6000 100 check 
total pot: 800 
/inquire 

------------



------------


showdown/ 
common/ 
DIAMONDS 10 
CLUBS 2 
SPADES J 
DIAMONDS 9 
DIAMONDS 8 
/common 
6: 6666 DIAMONDS 2 SPADES 3 ONE_PAIR 
1: 1111 CLUBS A DIAMONDS Q STRAIGHT 
3: 2222 DIAMONDS J SPADES 9 TWO_PAIR 
2: 8888 CLUBS 8 HEARTS 7 STRAIGHT 
7: 5555 HEARTS 6 SPADES A HIGH_CARD 
5: 4444 SPADES 10 HEARTS K ONE_PAIR 
4: 3333 CLUBS J DIAMONDS K ONE_PAIR 
1: 7777 CLUBS Q HEARTS A STRAIGHT 
/showdown 

------------



------------


pot-win/ 
1111: 400 
7777: 400 
/pot-win 

------------


seat/ 
button: 6666 1400 6000 
small blind: 1111 3000 8000 
big blind: 2222 3000 6000 
8888 2600 6000 
5555 5000 6000 
4444 5400 8000 
3333 3400 8000 
7777 4200 4000 
/seat 

------------


blind/ 
1111: 50 
2222: 100 
/blind 

------------


hold/ 
DIAMONDS J 
SPADES 9 
/hold 

------------


inquire/ 
2222 2900 6000 100 blind 
1111 2950 8000 50 blind 
total pot: 150 
/inquire 

------------



------------


flop/ 
DIAMONDS 10 
CLUBS 2 
SPADES J 
/flop 

------------



------------


inquire/ 
2222 2900 6000 100 check 
1111 2900 8000 100 check 
6666 1300 6000 100 call 
7777 4100 4000 100 call 
3333 3300 8000 100 call 
4444 5300 8000 100 call 
5555 4900 6000 100 call 
8888 2500 6000 100 call 
total pot: 800 
/inquire 

------------



------------


turn/ 
DIAMONDS 9 
/turn 

------------



------------


inquire/ 
2222 2900 6000 100 check 
1111 2900 8000 100 check 
6666 1300 6000 100 check 
7777 4100 4000 100 check 
3333 3300 8000 100 check 
4444 5300 8000 100 check 
5555 4900 6000 100 check 
8888 2500 6000 100 check 
total pot: 800 
/inquire 

------------



------------


river/ 
DIAMONDS 8 
/river 

------------



------------


inquire/ 
2222 2900 6000 100 check 
1111 2900 8000 100 check 
6666 1300 6000 100 check 
7777 4100 4000 100 check 
3333 3300 8000 100 check 
4444 5300 8000 100 check 
5555 4900 6000 100 check 
8888 2500 6000 100 check 
total pot: 800 
/inquire 

------------



------------


showdown/ 
common/ 
DIAMONDS 10 
CLUBS 2 
SPADES J 
DIAMONDS 9 
DIAMONDS 8 
/common 
6: 1111 DIAMONDS 2 SPADES 3 ONE_PAIR 
1: 2222 CLUBS A DIAMONDS Q STRAIGHT 
3: 8888 DIAMONDS J SPADES 9 TWO_PAIR 
2: 5555 CLUBS 8 HEARTS 7 STRAIGHT 
7: 4444 HEARTS 6 SPADES A HIGH_CARD 
5: 3333 SPADES 10 HEARTS K ONE_PAIR 
4: 7777 CLUBS J DIAMONDS K ONE_PAIR 
1: 6666 CLUBS Q HEARTS A STRAIGHT 
/showdown 

------------



------------


pot-win/ 
2222: 400 
6666: 400 
/pot-win 

------------


seat/ 
button: 1111 2900 8000 
small blind: 2222 3300 6000 
big blind: 8888 2500 6000 
5555 4900 6000 
4444 5300 8000 
3333 3300 8000 
7777 4100 4000 
6666 1700 6000 
/seat 

------------


blind/ 
2222: 50 
8888: 100 
/blind 

------------


hold/ 
CLUBS A 
DIAMONDS Q 
/hold 

------------



------------


inquire/ 
2222 3200 6000 100 call 
1111 2800 8000 100 call 
6666 1600 6000 100 call 
7777 4000 4000 100 call 
3333 3200 8000 100 call 
4444 5200 8000 100 call 
5555 4800 6000 100 call 
8888 2400 6000 100 blind 
total pot: 800 
/inquire 

------------



------------


flop/ 
DIAMONDS 10 
CLUBS 2 
SPADES J 
/flop 

------------



------------


inquire/ 
2222 3200 6000 100 check 
1111 2800 8000 100 call 
6666 1600 6000 100 call 
7777 4000 4000 100 call 
3333 3200 8000 100 call 
4444 5200 8000 100 call 
5555 4800 6000 100 call 
8888 2400 6000 100 check 
total pot: 800 
/inquire 

------------



------------


turn/ 
DIAMONDS 9 
/turn 

------------



------------


inquire/ 
2222 3200 6000 100 check 
1111 2800 8000 100 check 
6666 1600 6000 100 check 
7777 4000 4000 100 check 
3333 3200 8000 100 check 
4444 5200 8000 100 check 
5555 4800 6000 100 check 
8888 2400 6000 100 check 
total pot: 800 
/inquire 

------------



------------


river/ 
DIAMONDS 8 
/river 

------------



------------


inquire/ 
2222 3200 6000 100 check 
1111 2800 8000 100 check 
6666 1600 6000 100 check 
7777 4000 4000 100 check 
3333 3200 8000 100 check 
4444 5200 8000 100 check 
5555 4800 6000 100 check 
8888 2400 6000 100 check 
total pot: 800 
/inquire 

------------



------------


showdown/ 
common/ 
DIAMONDS 10 
CLUBS 2 
SPADES J 
DIAMONDS 9 
DIAMONDS 8 
/common 
6: 2222 DIAMONDS 2 SPADES 3 ONE_PAIR 
1: 8888 CLUBS A DIAMONDS Q STRAIGHT 
3: 5555 DIAMONDS J SPADES 9 TWO_PAIR 
2: 4444 CLUBS 8 HEARTS 7 STRAIGHT 
7: 3333 HEARTS 6 SPADES A HIGH_CARD 
5: 7777 SPADES 10 HEARTS K ONE_PAIR 
4: 6666 CLUBS J DIAMONDS K ONE_PAIR 
1: 1111 CLUBS Q HEARTS A STRAIGHT 
/showdown 

------------



------------


pot-win/ 
8888: 400 
1111: 400 
/pot-win 

------------


seat/ 
button: 2222 3200 6000 
small blind: 8888 2800 6000 
big blind: 5555 4800 6000 
4444 5200 8000 
3333 3200 8000 
7777 4000 4000 
6666 1600 6000 
1111 3200 8000 
/seat 

------------


blind/ 
8888: 50 
5555: 100 
/blind 

------------


hold/ 
DIAMONDS 2 
SPADES 3 
/hold 

------------



------------


inquire/ 
2222 3100 6000 100 call 
1111 3100 8000 100 call 
6666 1500 6000 100 call 
7777 3900 4000 100 call 
3333 3100 8000 100 call 
4444 5100 8000 100 call 
5555 4700 6000 100 blind 
8888 2750 6000 50 blind 
total pot: 750 
/inquire 

------------



------------


flop/ 
DIAMONDS 10 
CLUBS 2 
SPADES J 
/flop 

------------



------------


inquire/ 
2222 3100 6000 100 call 
1111 3100 8000 100 call 
6666 1500 6000 100 call 
7777 3900 4000 100 call 
3333 3100 8000 100 call 
4444 5100 8000 100 call 
5555 4700 6000 100 check 
8888 2700 6000 100 call 
total pot: 800 
/inquire 

------------



------------


turn/ 
DIAMONDS 9 
/turn 

------------



------------


inquire/ 
2222 3100 6000 100 check 
1111 3100 8000 100 check 
6666 1500 6000 100 check 
7777 3900 4000 100 check 
3333 3100 8000 100 check 
4444 5100 8000 100 check 
5555 4700 6000 100 check 
8888 2700 6000 100 check 
total pot: 800 
/inquire 

------------



------------


river/ 
DIAMONDS 8 
/river 

------------



------------


inquire/ 
2222 3100 6000 100 check 
1111 3100 8000 100 check 
6666 1500 6000 100 check 
7777 3900 4000 100 check 
3333 3100 8000 100 check 
4444 5100 8000 100 check 
5555 4700 6000 100 check 
8888 2700 6000 100 check 
total pot: 800 
/inquire 

------------



------------


showdown/ 
common/ 
DIAMONDS 10 
CLUBS 2 
SPADES J 
DIAMONDS 9 
DIAMONDS 8 
/common 
6: 8888 DIAMONDS 2 SPADES 3 ONE_PAIR 
1: 5555 CLUBS A DIAMONDS Q STRAIGHT 
3: 4444 DIAMONDS J SPADES 9 TWO_PAIR 
2: 3333 CLUBS 8 HEARTS 7 STRAIGHT 
7: 7777 HEARTS 6 SPADES A HIGH_CARD 
5: 6666 SPADES 10 HEARTS K ONE_PAIR 
4: 1111 CLUBS J DIAMONDS K ONE_PAIR 
1: 2222 CLUBS Q HEARTS A STRAIGHT 
/showdown 

------------



------------


pot-win/ 
5555: 400 
2222: 400 
/pot-win 

------------


seat/ 
button: 8888 2700 6000 
small blind: 5555 5100 6000 
big blind: 4444 5100 8000 
3333 3100 8000 
7777 3900 4000 
6666 1500 6000 
1111 3100 8000 
2222 3500 6000 
/seat 

------------


blind/ 
5555: 50 
4444: 100 
/blind 

------------


hold/ 
CLUBS J 
DIAMONDS 2 
/hold 

------------



------------


inquire/ 
2222 3400 6000 100 call 
1111 3000 8000 100 call 
6666 1400 6000 100 call 
7777 3800 4000 100 call 
3333 3000 8000 100 call 
4444 5000 8000 100 blind 
5555 5050 6000 50 blind 
total pot: 650 
/inquire 

------------



------------


flop/ 
SPADES 7 
SPADES 9 
HEARTS Q 
/flop 

------------



------------


inquire/ 
2222 3400 6000 100 check 
1111 3000 8000 100 check 
6666 1400 6000 100 check 
7777 3800 4000 100 check 
3333 3000 8000 100 check 
4444 5000 8000 100 check 
5555 5000 6000 100 check 
8888 2600 6000 100 call 
total pot: 800 
/inquire 

------------



------------


turn/ 
CLUBS 9 
/turn 

------------



------------


inquire/ 
2222 3400 6000 100 check 
1111 3000 8000 100 check 
6666 1400 6000 100 check 
7777 3800 4000 100 check 
3333 3000 8000 100 check 
4444 5000 8000 100 check 
5555 5000 6000 100 check 
8888 2600 6000 100 check 
total pot: 800 
/inquire 

------------



------------


river/ 
HEARTS 7 
/river 

------------



------------


inquire/ 
2222 3400 6000 100 check 
1111 3000 8000 100 check 
6666 1400 6000 100 check 
7777 3800 4000 100 check 
3333 3000 8000 100 check 
4444 5000 8000 100 check 
5555 5000 6000 100 check 
8888 2600 6000 100 check 
total pot: 800 
/inquire 

------------



------------


showdown/ 
common/ 
SPADES 7 
SPADES 9 
HEARTS Q 
CLUBS 9 
HEARTS 7 
/common 
4: 5555 HEARTS 10 CLUBS 5 TWO_PAIR 
1: 4444 CLUBS 8 DIAMONDS 9 FULL_HOUSE 
4: 3333 DIAMONDS 10 CLUBS 2 TWO_PAIR 
2: 7777 DIAMONDS 7 SPADES 10 FULL_HOUSE 
4: 6666 SPADES 4 SPADES 3 TWO_PAIR 
4: 1111 HEARTS J CLUBS 4 TWO_PAIR 
3: 2222 DIAMONDS 4 SPADES K TWO_PAIR 
4: 8888 CLUBS J DIAMONDS 2 TWO_PAIR 
/showdown 

------------



------------


pot-win/ 
4444: 800 
/pot-win 

------------


seat/ 
button: 5555 5000 6000 
small blind: 4444 5800 8000 
big blind: 3333 3000 8000 
7777 3800 4000 
6666 1400 6000 
1111 3000 8000 
2222 3400 6000 
8888 2600 6000 
/seat 

------------


blind/ 
4444: 50 
3333: 100 
/blind 

------------


hold/ 
DIAMONDS 4 
SPADES K 
/hold 

------------



------------


inquire/ 
2222 3300 6000 100 call 
1111 2900 8000 100 call 
6666 1300 6000 100 call 
7777 3700 4000 100 call 
3333 2900 8000 100 blind 
4444 5750 8000 50 blind 
total pot: 550 
/inquire 

------------



------------


flop/ 
SPADES 7 
SPADES 9 
HEARTS Q 
/flop 

------------



------------


inquire/ 
2222 3300 6000 100 check 
1111 2900 8000 100 check 
6666 1300 6000 100 check 
7777 3700 4000 100 check 
3333 2900 8000 100 check 
4444 5700 8000 100 check 
5555 4900 6000 100 call 
8888 2500 6000 100 call 
total pot: 800 
/inquire 

------------



------------


turn/ 
CLUBS 9 
/turn 

------------



------------


inquire/ 
2222 3300 6000 100 check 
1111 2900 8000 100 check 
6666 1300 6000 100 check 
7777 3700 4000 100 check 
3333 2900 8000 100 check 
4444 5700 8000 100 check 
5555 4900 6000 100 check 
8888 2500 6000 100 check 
total pot: 800 
/inquire 

------------



------------


river/ 
HEARTS 7 
/river 

------------



------------


inquire/ 
2222 3300 6000 100 check 
1111 2900 8000 100 check 
6666 1300 6000 100 check 
7777 3700 4000 100 check 
3333 2900 8000 100 check 
4444 5700 8000 100 check 
5555 4900 6000 100 check 
8888 2500 6000 100 check 
total pot: 800 
/inquire 

------------



------------


showdown/ 
common/ 
SPADES 7 
SPADES 9 
HEARTS Q 
CLUBS 9 
HEARTS 7 
/common 
4: 4444 HEARTS 10 CLUBS 5 TWO_PAIR 
1: 3333 CLUBS 8 DIAMONDS 9 FULL_HOUSE 
4: 7777 DIAMONDS 10 CLUBS 2 TWO_PAIR 
2: 6666 DIAMONDS 7 SPADES 10 FULL_HOUSE 
4: 1111 SPADES 4 SPADES 3 TWO_PAIR 
4: 2222 HEARTS J CLUBS 4 TWO_PAIR 
3: 8888 DIAMONDS 4 SPADES K TWO_PAIR 
4: 5555 CLUBS J DIAMONDS 2 TWO_PAIR 
/showdown 

------------



------------


pot-win/ 
3333: 800 
/pot-win 

------------


seat/ 
button: 4444 5700 8000 
small blind: 3333 3700 8000 
big blind: 7777 3700 4000 
6666 1300 6000 
1111 2900 8000 
2222 3300 6000 
8888 2500 6000 
5555 4900 6000 
/seat 

------------


blind/ 
3333: 50 
7777: 100 
/blind 

------------


hold/ 
HEARTS J 
CLUBS 4 
/hold 

------------



------------


inquire/ 
2222 3200 6000 100 call 
1111 2800 8000 100 call 
6666 1200 6000 100 call 
7777 3600 4000 100 blind 
3333 3650 8000 50 blind 
total pot: 450 
/inquire 

------------



------------


flop/ 
SPADES 7 
SPADES 9 
HEARTS Q 
/flop 

------------



------------


inquire/ 
2222 3200 6000 100 check 
1111 2800 8000 100 check 
6666 1200 6000 100 check 
7777 3600 4000 100 check 
3333 3600 8000 100 check 
4444 5600 8000 100 call 
5555 4800 6000 100 call 
8888 2400 6000 100 call 
total pot: 800 
/inquire 

------------



------------


turn/ 
CLUBS 9 
/turn 

------------



------------


inquire/ 
2222 3200 6000 100 check 
1111 2800 8000 100 check 
6666 1200 6000 100 check 
7777 3600 4000 100 check 
3333 3600 8000 100 check 
4444 5600 8000 100 check 
5555 4800 6000 100 check 
8888 2400 6000 100 check 
total pot: 800 
/inquire 

------------



------------


river/ 
HEARTS 7 
/river 

------------



------------


inquire/ 
2222 3200 6000 100 check 
1111 2800 8000 100 check 
6666 1200 6000 100 check 
7777 3600 4000 100 check 
3333 3600 8000 100 check 
4444 5600 8000 100 check 
5555 4800 6000 100 check 
8888 2400 6000 100 check 
total pot: 800 
/inquire 

------------



------------


showdown/ 
common/ 
SPADES 7 
SPADES 9 
HEARTS Q 
CLUBS 9 
HEARTS 7 
/common 
4: 3333 HEARTS 10 CLUBS 5 TWO_PAIR 
1: 7777 CLUBS 8 DIAMONDS 9 FULL_HOUSE 
4: 6666 DIAMONDS 10 CLUBS 2 TWO_PAIR 
2: 1111 DIAMONDS 7 SPADES 10 FULL_HOUSE 
4: 2222 SPADES 4 SPADES 3 TWO_PAIR 
4: 8888 HEARTS J CLUBS 4 TWO_PAIR 
3: 5555 DIAMONDS 4 SPADES K TWO_PAIR 
4: 4444 CLUBS J DIAMONDS 2 TWO_PAIR 
/showdown 

------------



------------


pot-win/ 
7777: 800 
/pot-win 

------------


seat/ 
button: 3333 3600 8000 
small blind: 7777 4400 4000 
big blind: 6666 1200 6000 
1111 2800 8000 
2222 3200 6000 
8888 2400 6000 
5555 4800 6000 
4444 5600 8000 
/seat 

------------


blind/ 
7777: 50 
6666: 100 
/blind 

------------


hold/ 
SPADES 4 
SPADES 3 
/hold 

------------



------------


inquire/ 
2222 3100 6000 100 call 
1111 2700 8000 100 call 
6666 1100 6000 100 blind 
7777 4350 4000 50 blind 
total pot: 350 
/inquire 

------------



------------


flop/ 
SPADES 7 
SPADES 9 
HEARTS Q 
/flop 

------------



------------


inquire/ 
2222 3100 6000 100 check 
1111 2700 8000 100 check 
6666 1100 6000 100 check 
7777 4300 4000 100 check 
3333 3500 8000 100 call 
4444 5500 8000 100 call 
5555 4700 6000 100 call 
8888 2300 6000 100 call 
total pot: 800 
/inquire 

------------



------------


turn/ 
CLUBS 9 
/turn 

------------



------------


inquire/ 
2222 3100 6000 100 check 
1111 2700 8000 100 check 
6666 1100 6000 100 check 
7777 4300 4000 100 check 
3333 3500 8000 100 check 
4444 5500 8000 100 check 
5555 4700 6000 100 check 
8888 2300 6000 100 check 
total pot: 800 
/inquire 

------------



------------


river/ 
HEARTS 7 
/river 

------------



------------


inquire/ 
2222 3100 6000 100 check 
1111 2700 8000 100 check 
6666 1100 6000 100 check 
7777 4300 4000 100 check 
3333 3500 8000 100 check 
4444 5500 8000 100 check 
5555 4700 6000 100 check 
8888 2300 6000 100 check 
total pot: 800 
/inquire 

------------



------------


showdown/ 
common/ 
SPADES 7 
SPADES 9 
HEARTS Q 
CLUBS 9 
HEARTS 7 
/common 
4: 7777 HEARTS 10 CLUBS 5 TWO_PAIR 
1: 6666 CLUBS 8 DIAMONDS 9 FULL_HOUSE 
4: 1111 DIAMONDS 10 CLUBS 2 TWO_PAIR 
2: 2222 DIAMONDS 7 SPADES 10 FULL_HOUSE 
4: 8888 SPADES 4 SPADES 3 TWO_PAIR 
4: 5555 HEARTS J CLUBS 4 TWO_PAIR 
3: 4444 DIAMONDS 4 SPADES K TWO_PAIR 
4: 3333 CLUBS J DIAMONDS 2 TWO_PAIR 
/showdown 

------------



------------


pot-win/ 
6666: 800 
/pot-win 

------------


seat/ 
button: 7777 4300 4000 
small blind: 6666 1900 6000 
big blind: 1111 2700 8000 
2222 3100 6000 
8888 2300 6000 
5555 4700 6000 
4444 5500 8000 
3333 3500 8000 
/seat 

------------


blind/ 
6666: 50 
1111: 100 
/blind 

------------


hold/ 
DIAMONDS 7 
SPADES 10 
/hold 

------------



------------


inquire/ 
2222 3000 6000 100 call 
1111 2600 8000 100 blind 
6666 1850 6000 50 blind 
total pot: 250 
/inquire 

------------



------------


flop/ 
SPADES 7 
SPADES 9 
HEARTS Q 
/flop 

------------



------------


inquire/ 
2222 3000 6000 100 check 
1111 2600 8000 100 check 
6666 1800 6000 100 check 
7777 4200 4000 100 call 
3333 3400 8000 100 call 
4444 5400 8000 100 call 
5555 4600 6000 100 call 
8888 2200 6000 100 call 
total pot: 800 
/inquire 

------------



------------


turn/ 
CLUBS 9 
/turn 

------------



------------


inquire/ 
2222 3000 6000 100 check 
1111 2600 8000 100 check 
6666 1800 6000 100 check 
7777 4200 4000 100 check 
3333 3400 8000 100 check 
4444 5400 8000 100 check 
5555 4600 6000 100 check 
8888 2200 6000 100 check 
total pot: 800 
/inquire 

------------



------------


river/ 
HEARTS 7 
/river 

------------



------------


inquire/ 
2222 3000 6000 100 check 
1111 2600 8000 100 check 
6666 1800 6000 100 check 
7777 4200 4000 100 check 
3333 3400 8000 100 check 
4444 5400 8000 100 check 
5555 4600 6000 100 check 
8888 2200 6000 100 check 
total pot: 800 
/inquire 

------------



------------


showdown/ 
common/ 
SPADES 7 
SPADES 9 
HEARTS Q 
CLUBS 9 
HEARTS 7 
/common 
4: 6666 HEARTS 10 CLUBS 5 TWO_PAIR 
1: 1111 CLUBS 8 DIAMONDS 9 FULL_HOUSE 
4: 2222 DIAMONDS 10 CLUBS 2 TWO_PAIR 
2: 8888 DIAMONDS 7 SPADES 10 FULL_HOUSE 
4: 5555 SPADES 4 SPADES 3 TWO_PAIR 
4: 4444 HEARTS J CLUBS 4 TWO_PAIR 
3: 3333 DIAMONDS 4 SPADES K TWO_PAIR 
4: 7777 CLUBS J DIAMONDS 2 TWO_PAIR 
/showdown 

------------



------------


pot-win/ 
1111: 800 
/pot-win 

------------


seat/ 
button: 6666 1800 6000 
small blind: 1111 3400 8000 
big blind: 2222 3000 6000 
8888 2200 6000 
5555 4600 6000 
4444 5400 8000 
3333 3400 8000 
7777 4200 4000 
/seat 

------------


blind/ 
1111: 50 
2222: 100 
/blind 

------------


hold/ 
DIAMONDS 10 
CLUBS 2 
/hold 

------------


inquire/ 
2222 2900 6000 100 blind 
1111 3350 8000 50 blind 
total pot: 150 
/inquire 

------------



------------


flop/ 
SPADES 7 
SPADES 9 
HEARTS Q 
/flop 

------------



------------


inquire/ 
2222 2900 6000 100 check 
1111 3300 8000 100 check 
6666 1700 6000 100 call 
7777 4100 4000 100 call 
3333 3300 8000 100 call 
4444 5300 8000 100 call 
5555 4500 6000 100 call 
8888 2100 6000 100 call 
total pot: 800 
/inquire 

------------



------------


turn/ 
CLUBS 9 
/turn 

------------



------------


inquire/ 
2222 2900 6000 100 check 
1111 3300 8000 100 check 
6666 1700 6000 100 check 
7777 4100 4000 100 check 
3333 3300 8000 100 check 
4444 5300 8000 100 check 
5555 4500 6000 100 check 
8888 2100 6000 100 check 
total pot: 800 
/inquire 

------------



------------


river/ 
HEARTS 7 
/river 

------------



------------


inquire/ 
2222 2900 6000 100 check 
1111 3300 8000 100 check 
6666 1700 6000 100 check 
7777 4100 4000 100 check 
3333 3300 8000 100 check 
4444 5300 8000 100 check 
5555 4500 6000 100 check 
8888 2100 6000 100 check 
total pot: 800 
/inquire 

------------



------------


showdown/ 
common/ 
SPADES 7 
SPADES 9 
HEARTS Q 
CLUBS 9 
HEARTS 7 
/common 
4: 1111 HEARTS 10 CLUBS 5 TWO_PAIR 
1: 2222 CLUBS 8 DIAMONDS 9 FULL_HOUSE 
4: 8888 DIAMONDS 10 CLUBS 2 TWO_PAIR 
2: 5555 DIAMONDS 7 SPADES 10 FULL_HOUSE 
4: 4444 SPADES 4 SPADES 3 TWO_PAIR 
4: 3333 HEARTS J CLUBS 4 TWO_PAIR 
3: 7777 DIAMONDS 4 SPADES K TWO_PAIR 
4: 6666 CLUBS J DIAMONDS 2 TWO_PAIR 
/showdown 

------------



------------


pot-win/ 
2222: 800 
/pot-win 

------------


seat/ 
button: 1111 3300 8000 
small blind: 2222 3700 6000 
big blind: 8888 2100 6000 
5555 4500 6000 
4444 5300 8000 
3333 3300 8000 
7777 4100 4000 
6666 1700 6000 
/seat 

------------


blind/ 
2222: 50 
8888: 100 
/blind 

------------


hold/ 
HEARTS 3 
SPADES 8 
/hold 

------------



------------


inquire/ 
2222 3600 6000 100 call 
1111 3200 8000 100 call 
6666 1600 6000 100 call 
7777 4000 4000 100 call 
3333 3200 8000 100 call 
4444 5200 8000 100 call 
5555 4400 6000 100 call 
8888 2000 6000 100 blind 
total pot: 800 
/inquire 

------------



------------


flop/ 
DIAMONDS 3 
CLUBS 2 
HEARTS 4 
/flop 

------------



------------


inquire/ 
2222 3600 6000 100 check 
1111 3200 8000 100 call 
6666 1600 6000 100 call 
7777 4000 4000 100 call 
3333 3200 8000 100 call 
4444 5200 8000 100 call 
5555 4400 6000 100 call 
8888 2000 6000 100 check 
total pot: 800 
/inquire 

------------



------------


turn/ 
SPADES 10 
/turn 

------------



------------


inquire/ 
2222 3600 6000 100 check 
1111 3200 8000 100 check 
6666 1600 6000 100 check 
7777 4000 4000 100 check 
3333 3200 8000 100 check 
4444 5200 8000 100 check 
5555 4400 6000 100 check 
8888 2000 6000 100 check 
total pot: 800 
/inquire 

------------



------------


river/ 
DIAMONDS A 
/river 

------------



------------


inquire/ 
2222 3600 6000 100 check 
1111 3200 8000 100 check 
6666 1600 6000 100 check 
7777 4000 4000 100 check 
3333 3200 8000 100 check 
4444 5200 8000 100 check 
5555 4400 6000 100 check 
8888 2000 6000 100 check 
total pot: 800 
/inquire 

------------



------------


showdown/ 
common/ 
DIAMONDS 3 
CLUBS 2 
HEARTS 4 
SPADES 10 
DIAMONDS A 
/common 
3: 2222 SPADES A CLUBS 7 ONE_PAIR 
4: 8888 HEARTS 3 SPADES 8 ONE_PAIR 
2: 5555 CLUBS A SPADES Q ONE_PAIR 
8: 4444 CLUBS J HEARTS 6 HIGH_CARD 
1: 3333 CLUBS 5 DIAMONDS 4 STRAIGHT 
7: 7777 DIAMONDS 9 SPADES J HIGH_CARD 
6: 6666 CLUBS 6 SPADES 2 ONE_PAIR 
5: 1111 DIAMONDS 7 CLUBS 3 ONE_PAIR 
/showdown 

------------



------------


pot-win/ 
3333: 800 
/pot-win 

------------


seat/ 
button: 2222 3600 6000 
small blind: 8888 2000 6000 
big blind: 5555 4400 6000 
4444 5200 8000 
3333 4000 8000 
7777 4000 4000 
6666 1600 6000 
1111 3200 8000 
/seat 

------------


blind/ 
8888: 50 
5555: 100 
/blind 

------------


hold/ 
SPADES A 
CLUBS 7 
/hold 

------------



------------


inquire/ 
2222 3500 6000 100 call 
1111 3100 8000 100 call 
6666 1500 6000 100 call 
7777 3900 4000 100 call 
3333 3900 8000 100 call 
4444 5100 8000 100 call 
5555 4300 6000 100 blind 
8888 1950 6000 50 blind 
total pot: 750 
/inquire 

------------



------------


flop/ 
DIAMONDS 3 
CLUBS 2 
HEARTS 4 
/flop 

------------



------------


inquire/ 
2222 3500 6000 100 call 
1111 3100 8000 100 call 
6666 1500 6000 100 call 
7777 3900 4000 100 call 
3333 3900 8000 100 call 
4444 5100 8000 100 call 
5555 4300 6000 100 check 
8888 1900 6000 100 call 
total pot: 800 
/inquire 

------------



------------


turn/ 
SPADES 10 
/turn 

------------



------------


inquire/ 
2222 3500 6000 100 check 
1111 3100 8000 100 check 
6666 1500 6000 100 check 
7777 3900 4000 100 check 
3333 3900 8000 100 check 
4444 5100 8000 100 check 
5555 4300 6000 100 check 
8888 1900 6000 100 check 
total pot: 800 
/inquire 

------------



------------


river/ 
DIAMONDS A 
/river 

------------



------------


inquire/ 
2222 3500 6000 100 check 
1111 3100 8000 100 check 
6666 1500 6000 100 check 
7777 3900 4000 100 check 
3333 3900 8000 100 check 
4444 5100 8000 100 check 
5555 4300 6000 100 check 
8888 1900 6000 100 check 
total pot: 800 
/inquire 

------------



------------


showdown/ 
common/ 
DIAMONDS 3 
CLUBS 2 
HEARTS 4 
SPADES 10 
DIAMONDS A 
/common 
3: 8888 SPADES A CLUBS 7 ONE_PAIR 
4: 5555 HEARTS 3 SPADES 8 ONE_PAIR 
2: 4444 CLUBS A SPADES Q ONE_PAIR 
8: 3333 CLUBS J HEARTS 6 HIGH_CARD 
1: 7777 CLUBS 5 DIAMONDS 4 STRAIGHT 
7: 6666 DIAMONDS 9 SPADES J HIGH_CARD 
6: 1111 CLUBS 6 SPADES 2 ONE_PAIR 
5: 2222 DIAMONDS 7 CLUBS 3 ONE_PAIR 
/showdown 

------------



------------


pot-win/ 
7777: 800 
/pot-win 

------------


seat/ 
button: 8888 1900 6000 
small blind: 5555 4300 6000 
big blind: 4444 5100 8000 
3333 3900 8000 
7777 4700 4000 
6666 1500 6000 
1111 3100 8000 
2222 3500 6000 
/seat 

------------


blind/ 
5555: 50 
4444: 100 
/blind 

------------


hold/ 
DIAMONDS 7 
CLUBS 3 
/hold 

------------



------------


inquire/ 
2222 3400 6000 100 call 
1111 3000 8000 100 call 
6666 1400 6000 100 call 
7777 4600 4000 100 call 
3333 3800 8000 100 call 
4444 5000 8000 100 blind 
5555 4250 6000 50 blind 
total pot: 650 
/inquire 

------------



------------


flop/ 
DIAMONDS 3 
CLUBS 2 
HEARTS 4 
/flop 

------------



------------


inquire/ 
2222 3400 6000 100 check 
1111 3000 8000 100 check 
6666 1400 6000 100 check 
7777 4600 4000 100 check 
3333 3800 8000 100 check 
4444 5000 8000 100 check 
5555 4200 6000 100 check 
8888 1800 6000 100 call 
total pot: 800 
/inquire 

------------



------------


turn/ 
SPADES 10 
/turn 

------------



------------


inquire/ 
2222 3400 6000 100 check 
1111 3000 8000 100 check 
6666 1400 6000 100 check 
7777 4600 4000 100 check 
3333 3800 8000 100 check 
4444 5000 8000 100 check 
5555 4200 6000 100 check 
8888 1800 6000 100 check 
total pot: 800 
/inquire 

------------



------------


river/ 
DIAMONDS A 
/river 

------------



------------


inquire/ 
2222 3400 6000 100 check 
1111 3000 8000 100 check 
6666 1400 6000 100 check 
7777 4600 4000 100 check 
3333 3800 8000 100 check 
4444 5000 8000 100 check 
5555 4200 6000 100 check 
8888 1800 6000 100 check 
total pot: 800 
/inquire 

------------



------------


showdown/ 
common/ 
DIAMONDS 3 
CLUBS 2 
HEARTS 4 
SPADES 10 
DIAMONDS A 
/common 
3: 5555 SPADES A CLUBS 7 ONE_PAIR 
4: 4444 HEARTS 3 SPADES 8 ONE_PAIR 
2: 3333 CLUBS A SPADES Q ONE_PAIR 
8: 7777 CLUBS J HEARTS 6 HIGH_CARD 
1: 6666 CLUBS 5 DIAMONDS 4 STRAIGHT 
7: 1111 DIAMONDS 9 SPADES J HIGH_CARD 
6: 2222 CLUBS 6 SPADES 2 ONE_PAIR 
5: 8888 DIAMONDS 7 CLUBS 3 ONE_PAIR 
/showdown 

------------



------------


pot-win/ 
6666: 800 
/pot-win 

------------


seat/ 
button: 5555 4200 6000 
small blind: 4444 5000 8000 
big blind: 3333 3800 8000 
7777 4600 4000 
6666 2200 6000 
1111 3000 8000 
2222 3400 6000 
8888 1800 6000 
/seat 

------------


blind/ 
4444: 50 
3333: 100 
/blind 

------------


hold/ 
CLUBS 6 
SPADES 2 
/hold 

------------



------------


inquire/ 
2222 3300 6000 100 call 
1111 2900 8000 100 call 
6666 2100 6000 100 call 
7777 4500 4000 100 call 
3333 3700 8000 100 blind 
4444 4950 8000 50 blind 
total pot: 550 
/inquire 

------------



------------


flop/ 
DIAMONDS 3 
CLUBS 2 
HEARTS 4 
/flop 

------------



------------


inquire/ 
2222 3300 6000 100 check 
1111 2900 8000 100 check 
6666 2100 6000 100 check 
7777 4500 4000 100 check 
3333 3700 8000 100 check 
4444 4900 8000 100 check 
5555 4100 6000 100 call 
8888 1700 6000 100 call 
total pot: 800 
/inquire 

------------



------------


turn/ 
SPADES 10 
/turn 

------------



------------


inquire/ 
2222 3300 6000 100 check 
1111 2900 8000 100 check 
6666 2100 6000 100 check 
7777 4500 4000 100 check 
3333 3700 8000 100 check 
4444 4900 8000 100 check 
5555 4100 6000 100 check 
8888 1700 6000 100 check 
total pot: 800 
/inquire 

------------



------------


river/ 
DIAMONDS A 
/river 

------------



------------


inquire/ 
2222 3300 6000 100 check 
1111 2900 8000 100 check 
6666 2100 6000 100 check 
7777 4500 4000 100 check 
3333 3700 8000 100 check 
4444 4900 8000 100 check 
5555 4100 6000 100 check 
8888 1700 6000 100 check 
total pot: 800 
/inquire 

------------



------------


showdown/ 
common/ 
DIAMONDS 3 
CLUBS 2 
HEARTS 4 
SPADES 10 
DIAMONDS A 
/common 
3: 4444 SPADES A CLUBS 7 ONE_PAIR 
4: 3333 HEARTS 3 SPADES 8 ONE_PAIR 
2: 7777 CLUBS A SPADES Q ONE_PAIR 
8: 6666 CLUBS J HEARTS 6 HIGH_CARD 
1: 1111 CLUBS 5 DIAMONDS 4 STRAIGHT 
7: 2222 DIAMONDS 9 SPADES J HIGH_CARD 
6: 8888 CLUBS 6 SPADES 2 ONE_PAIR 
5: 5555 DIAMONDS 7 CLUBS 3 ONE_PAIR 
/showdown 

------------



------------


pot-win/ 
1111: 800 
/pot-win 

------------


seat/ 
button: 4444 4900 8000 
small blind: 3333 3700 8000 
big blind: 7777 4500 4000 
6666 2100 6000 
1111 3700 8000 
2222 3300 6000 
8888 1700 6000 
5555 4100 6000 
/seat 

------------


blind/ 
3333: 50 
7777: 100 
/blind 

------------


hold/ 
DIAMONDS 9 
SPADES J 
/hold 

------------



------------


inquire/ 
2222 3200 6000 100 call 
1111 3600 8000 100 call 
6666 2000 6000 100 call 
7777 4400 4000 100 blind 
3333 3650 8000 50 blind 
total pot: 450 
/inquire 

------------



------------


flop/ 
DIAMONDS 3 
CLUBS 2 
HEARTS 4 
/flop 

------------



------------


inquire/ 
2222 3200 6000 100 check 
1111 3600 8000 100 check 
6666 2000 6000 100 check 
7777 4400 4000 100 check 
3333 3600 8000 100 check 
4444 4800 8000 100 call 
5555 4000 6000 100 call 
8888 1600 6000 100 call 
total pot: 800 
/inquire 

------------



------------


turn/ 
SPADES 10 
/turn 

------------



------------


inquire/ 
2222 3200 6000 100 check 
1111 3600 8000 100 check 
6666 2000 6000 100 check 
7777 4400 4000 100 check 
3333 3600 8000 100 check 
4444 4800 8000 100 check 
5555 4000 6000 100 check 
8888 1600 6000 100 check 
total pot: 800 
/inquire 

------------



------------


river/ 
DIAMONDS A 
/river 

------------



------------


inquire/ 
2222 3200 6000 100 check 
1111 3600 8000 100 check 
6666 2000 6000 100 check 
7777 4400 4000 100 check 
3333 3600 8000 100 check 
4444 4800 8000 100 check 
5555 4000 6000 100 check 
8888 1600 6000 100 check 
total pot: 800 
/inquire 

------------



------------


showdown/ 
common/ 
DIAMONDS 3 
CLUBS 2 
HEARTS 4 
SPADES 10 
DIAMONDS A 
/common 
3: 3333 SPADES A CLUBS 7 ONE_PAIR 
4: 7777 HEARTS 3 SPADES 8 ONE_PAIR 
2: 6666 CLUBS A SPADES Q ONE_PAIR 
8: 1111 CLUBS J HEARTS 6 HIGH_CARD 
1: 2222 CLUBS 5 DIAMONDS 4 STRAIGHT 
7: 8888 DIAMONDS 9 SPADES J HIGH_CARD 
6: 5555 CLUBS 6 SPADES 2 ONE_PAIR 
5: 4444 DIAMONDS 7 CLUBS 3 ONE_PAIR 
/showdown 

------------



------------


pot-win/ 
2222: 800 
/pot-win 

------------


seat/ 
button: 3333 3600 8000 
small blind: 7777 4400 4000 
big blind: 6666 2000 6000 
1111 3600 8000 
2222 4000 6000 
8888 1600 6000 
5555 4000 6000 
4444 4800 8000 
/seat 

------------


blind/ 
7777: 50 
6666: 100 
/blind 

------------


hold/ 
CLUBS 5 
DIAMONDS 4 
/hold 

------------



------------


inquire/ 
2222 3900 6000 100 call 
1111 3500 8000 100 call 
6666 1900 6000 100 blind 
7777 4350 4000 50 blind 
total pot: 350 
/inquire 

------------



------------


flop/ 
DIAMONDS 3 
CLUBS 2 
HEARTS 4 
/flop 

------------



------------


inquire/ 
2222 3900 6000 100 check 
1111 3500 8000 100 check 
6666 1900 6000 100 check 
7777 4300 4000 100 check 
3333 3500 8000 100 call 
4444 4700 8000 100 call 
5555 3900 6000 100 call 
8888 1500 6000 100 call 
total pot: 800 
/inquire 

------------



------------


turn/ 
SPADES 10 
/turn 

------------



------------


inquire/ 
2222 3900 6000 100 check 
1111 3500 8000 100 check 
6666 1900 6000 100 check 
7777 4300 4000 100 check 
3333 3500 8000 100 check 
4444 4700 8000 100 check 
5555 3900 6000 100 check 
8888 1500 6000 100 check 
total pot: 800 
/inquire 

------------



------------


river/ 
DIAMONDS A 
/river 

------------



------------


inquire/ 
2222 3900 6000 100 check 
1111 3500 8000 100 check 
6666 1900 6000 100 check 
7777 4300 4000 100 check 
3333 3500 8000 100 check 
4444 4700 8000 100 check 
5555 3900 6000 100 check 
8888 1500 6000 100 check 
total pot: 800 
/inquire 

------------



------------


showdown/ 
common/ 
DIAMONDS 3 
CLUBS 2 
HEARTS 4 
SPADES 10 
DIAMONDS A 
/common 
3: 7777 SPADES A CLUBS 7 ONE_PAIR 
4: 6666 HEARTS 3 SPADES 8 ONE_PAIR 
2: 1111 CLUBS A SPADES Q ONE_PAIR 
8: 2222 CLUBS J HEARTS 6 HIGH_CARD 
1: 8888 CLUBS 5 DIAMONDS 4 STRAIGHT 
7: 5555 DIAMONDS 9 SPADES J HIGH_CARD 
6: 4444 CLUBS 6 SPADES 2 ONE_PAIR 
5: 3333 DIAMONDS 7 CLUBS 3 ONE_PAIR 
/showdown 

------------



------------


pot-win/ 
8888: 800 
/pot-win 

------------


seat/ 
button: 7777 4300 4000 
small blind: 6666 1900 6000 
big blind: 1111 3500 8000 
2222 3900 6000 
8888 2300 6000 
5555 3900 6000 
4444 4700 8000 
3333 3500 8000 
/seat 

------------


blind/ 
6666: 50 
1111: 100 
/blind 

------------


hold/ 
CLUBS 9 
CLUBS 7 
/hold 

------------



------------


inquire/ 
2222 3800 6000 100 call 
1111 3400 8000 100 blind 
6666 1850 6000 50 blind 
total pot: 250 
/inquire 

------------



------------


flop/ 
SPADES J 
DIAMONDS K 
CLUBS 6 
/flop 

------------



------------


inquire/ 
2222 3800 6000 100 check 
1111 3400 8000 100 check 
6666 1800 6000 100 check 
7777 4200 4000 100 call 
3333 3400 8000 100 call 
4444 4600 8000 100 call 
5555 3800 6000 100 call 
8888 2200 6000 100 call 
total pot: 800 
/inquire 

------------



------------


turn/ 
HEARTS 6 
/turn 

------------



------------


inquire/ 
2222 3800 6000 100 check 
1111 3400 8000 100 check 
6666 1800 6000 100 check 
7777 4200 4000 100 check 
3333 3400 8000 100 check 
4444 4600 8000 100 check 
5555 3800 6000 100 check 
8888 2200 6000 100 check 
total pot: 800 
/inquire 

------------



------------


river/ 
CLUBS Q 
/river 

------------



------------


inquire/ 
2222 3800 6000 100 check 
1111 3400 8000 100 check 
6666 1800 6000 100 check 
7777 4200 4000 100 check 
3333 3400 8000 100 check 
4444 4600 8000 100 check 
5555 3800 6000 100 check 
8888 2200 6000 100 check 
total pot: 800 
/inquire 

------------



------------


showdown/ 
common/ 
SPADES J 
DIAMONDS K 
CLUBS 6 
HEARTS 6 
CLUBS Q 
/common 
3: 6666 CLUBS J SPADES 2 TWO_PAIR 
4: 1111 DIAMONDS 3 CLUBS A ONE_PAIR 
3: 2222 CLUBS 5 DIAMONDS J TWO_PAIR 
5: 8888 CLUBS 9 CLUBS 7 ONE_PAIR 
1: 5555 HEARTS A CLUBS 10 STRAIGHT 
5: 4444 CLUBS 8 SPADES 9 ONE_PAIR 
2: 3333 DIAMONDS 2 CLUBS K TWO_PAIR 
2: 7777 HEARTS 3 HEARTS K TWO_PAIR 
/showdown 

------------



------------


pot-win/ 
5555: 800 
/pot-win 

------------


seat/ 
button: 6666 1800 6000 
small blind: 1111 3400 8000 
big blind: 2222 3800 6000 
8888 2200 6000 
5555 4600 6000 
4444 4600 8000 
3333 3400 8000 
7777 4200 4000 
/seat 

------------


blind/ 
1111: 50 
2222: 100 
/blind 

------------


hold/ 
CLUBS 5 
DIAMONDS J 
/hold 

------------


inquire/ 
2222 3700 6000 100 blind 
1111 3350 8000 50 blind 
total pot: 150 
/inquire 

------------



------------


flop/ 
SPADES J 
DIAMONDS K 
CLUBS 6 
/flop 

------------



------------


inquire/ 
2222 3700 6000 100 check 
1111 3300 8000 100 check 
6666 1700 6000 100 call 
7777 4100 4000 100 call 
3333 3300 8000 100 call 
4444 4500 8000 100 call 
5555 4500 6000 100 call 
8888 2100 6000 100 call 
total pot: 800 
/inquire 

------------



------------


turn/ 
HEARTS 6 
/turn 

------------



------------


inquire/ 
2222 3700 6000 100 check 
1111 3300 8000 100 check 
6666 1700 6000 100 check 
7777 4100 4000 100 check 
3333 3300 8000 100 check 
4444 4500 8000 100 check 
5555 4500 6000 100 check 
8888 2100 6000 100 check 
total pot: 800 
/inquire 

------------



------------


river/ 
CLUBS Q 
/river 

------------



------------


inquire/ 
2222 3700 6000 100 check 
1111 3300 8000 100 check 
6666 1700 6000 100 check 
7777 4100 4000 100 check 
3333 3300 8000 100 check 
4444 4500 8000 100 check 
5555 4500 6000 100 check 
8888 2100 6000 100 check 
total pot: 800 
/inquire 

------------



------------


showdown/ 
common/ 
SPADES J 
DIAMONDS K 
CLUBS 6 
HEARTS 6 
CLUBS Q 
/common 
3: 1111 CLUBS J SPADES 2 TWO_PAIR 
4: 2222 DIAMONDS 3 CLUBS A ONE_PAIR 
3: 8888 CLUBS 5 DIAMONDS J TWO_PAIR 
5: 5555 CLUBS 9 CLUBS 7 ONE_PAIR 
1: 4444 HEARTS A CLUBS 10 STRAIGHT 
5: 3333 CLUBS 8 SPADES 9 ONE_PAIR 
2: 7777 DIAMONDS 2 CLUBS K TWO_PAIR 
2: 6666 HEARTS 3 HEARTS K TWO_PAIR 
/showdown 

------------



------------


pot-win/ 
4444: 800 
/pot-win 

------------


seat/ 
button: 1111 3300 8000 
small blind: 2222 3700 6000 
big blind: 8888 2100 6000 
5555 4500 6000 
4444 5300 8000 
3333 3300 8000 
7777 4100 4000 
6666 1700 6000 
/seat 

------------


blind/ 
2222: 50 
8888: 100 
/blind 

------------


hold/ 
DIAMONDS 3 
CLUBS A 
/hold 

------------



------------


inquire/ 
2222 3600 6000 100 call 
1111 3200 8000 100 call 
6666 1600 6000 100 call 
7777 4000 4000 100 call 
3333 3200 8000 100 call 
4444 5200 8000 100 call 
5555 4400 6000 100 call 
8888 2000 6000 100 blind 
total pot: 800 
/inquire 

------------



------------


flop/ 
SPADES J 
DIAMONDS K 
CLUBS 6 
/flop 

------------



------------


inquire/ 
2222 3600 6000 100 check 
1111 3200 8000 100 call 
6666 1600 6000 100 call 
7777 4000 4000 100 call 
3333 3200 8000 100 call 
4444 5200 8000 100 call 
5555 4400 6000 100 call 
8888 2000 6000 100 check 
total pot: 800 
/inquire 

------------



------------


turn/ 
HEARTS 6 
/turn 

------------



------------


inquire/ 
2222 3600 6000 100 check 
1111 3200 8000 100 check 
6666 1600 6000 100 check 
7777 4000 4000 100 check 
3333 3200 8000 100 check 
4444 5200 8000 100 check 
5555 4400 6000 100 check 
8888 2000 6000 100 check 
total pot: 800 
/inquire 

------------



------------


river/ 
CLUBS Q 
/river 

------------



------------


inquire/ 
2222 3600 6000 100 check 
1111 3200 8000 100 check 
6666 1600 6000 100 check 
7777 4000 4000 100 check 
3333 3200 8000 100 check 
4444 5200 8000 100 check 
5555 4400 6000 100 check 
8888 2000 6000 100 check 
total pot: 800 
/inquire 

------------



------------


showdown/ 
common/ 
SPADES J 
DIAMONDS K 
CLUBS 6 
HEARTS 6 
CLUBS Q 
/common 
3: 2222 CLUBS J SPADES 2 TWO_PAIR 
4: 8888 DIAMONDS 3 CLUBS A ONE_PAIR 
3: 5555 CLUBS 5 DIAMONDS J TWO_PAIR 
5: 4444 CLUBS 9 CLUBS 7 ONE_PAIR 
1: 3333 HEARTS A CLUBS 10 STRAIGHT 
5: 7777 CLUBS 8 SPADES 9 ONE_PAIR 
2: 6666 DIAMONDS 2 CLUBS K TWO_PAIR 
2: 1111 HEARTS 3 HEARTS K TWO_PAIR 
/showdown 

------------



------------


pot-win/ 
3333: 800 
/pot-win 

------------


seat/ 
button: 2222 3600 6000 
small blind: 8888 2000 6000 
big blind: 5555 4400 6000 
4444 5200 8000 
3333 4000 8000 
7777 4000 4000 
6666 1600 6000 
1111 3200 8000 
/seat 

------------


blind/ 
8888: 50 
5555: 100 
/blind 

------------


hold/ 
CLUBS J 
SPADES 2 
/hold 

------------



------------


inquire/ 
2222 3500 6000 100 call 
1111 3100 8000 100 call 
6666 1500 6000 100 call 
7777 3900 4000 100 call 
3333 3900 8000 100 call 
4444 5100 8000 100 call 
5555 4300 6000 100 blind 
8888 1950 6000 50 blind 
total pot: 750 
/inquire 

------------



------------


flop/ 
SPADES J 
DIAMONDS K 
CLUBS 6 
/flop 

------------



------------


inquire/ 
2222 3500 6000 100 call 
1111 3100 8000 100 call 
6666 1500 6000 100 call 
7777 3900 4000 100 call 
3333 3900 8000 100 call 
4444 5100 8000 100 call 
5555 4300 6000 100 check 
8888 1900 6000 100 call 
total pot: 800 
/inquire 

------------



------------


turn/ 
HEARTS 6 
/turn 

------------



------------


inquire/ 
2222 3500 6000 100 check 
1111 3100 8000 100 check 
6666 1500 6000 100 check 
7777 3900 4000 100 check 
3333 3900 8000 100 check 
4444 5100 8000 100 check 
5555 4300 6000 100 check 
8888 1900 6000 100 check 
total pot: 800 
/inquire 

------------



------------


river/ 
CLUBS Q 
/river 

------------



------------


inquire/ 
2222 3500 6000 100 check 
1111 3100 8000 100 check 
6666 1500 6000 100 check 
7777 3900 4000 100 check 
3333 3900 8000 100 check 
4444 5100 8000 100 check 
5555 4300 6000 100 check 
8888 1900 6000 100 check 
total pot: 800 
/inquire 

------------



------------


showdown/ 
common/ 
SPADES J 
DIAMONDS K 
CLUBS 6 
HEARTS 6 
CLUBS Q 
/common 
3: 8888 CLUBS J SPADES 2 TWO_PAIR 
4: 5555 DIAMONDS 3 CLUBS A ONE_PAIR 
3: 4444 CLUBS 5 DIAMONDS J TWO_PAIR 
5: 3333 CLUBS 9 CLUBS 7 ONE_PAIR 
1: 7777 HEARTS A CLUBS 10 STRAIGHT 
5: 6666 CLUBS 8 SPADES 9 ONE_PAIR 
2: 1111 DIAMONDS 2 CLUBS K TWO_PAIR 
2: 2222 HEARTS 3 HEARTS K TWO_PAIR 
/showdown 

------------



------------


pot-win/ 
7777: 800 
/pot-win 

------------


seat/ 
button: 8888 1900 6000 
small blind: 5555 4300 6000 
big blind: 4444 5100 8000 
3333 3900 8000 
7777 4700 4000 
6666 1500 6000 
1111 3100 8000 
2222 3500 6000 
/seat 

------------


blind/ 
5555: 50 
4444: 100 
/blind 

------------


hold/ 
HEARTS 3 
HEARTS K 
/hold 

------------



------------


inquire/ 
2222 3400 6000 100 call 
1111 3000 8000 100 call 
6666 1400 6000 100 call 
7777 4600 4000 100 call 
3333 3800 8000 100 call 
4444 5000 8000 100 blind 
5555 4250 6000 50 blind 
total pot: 650 
/inquire 

------------



------------


flop/ 
SPADES J 
DIAMONDS K 
CLUBS 6 
/flop 

------------



------------


inquire/ 
2222 3400 6000 100 check 
1111 3000 8000 100 check 
6666 1400 6000 100 check 
7777 4600 4000 100 check 
3333 3800 8000 100 check 
4444 5000 8000 100 check 
5555 4200 6000 100 check 
8888 1800 6000 100 call 
total pot: 800 
/inquire 

------------



------------


turn/ 
HEARTS 6 
/turn 

------------



------------


inquire/ 
2222 3400 6000 100 check 
1111 3000 8000 100 check 
6666 1400 6000 100 check 
7777 4600 4000 100 check 
3333 3800 8000 100 check 
4444 5000 8000 100 check 
5555 4200 6000 100 check 
8888 1800 6000 100 check 
total pot: 800 
/inquire 

------------



------------


river/ 
CLUBS Q 
/river 

------------



------------


inquire/ 
2222 3400 6000 100 check 
1111 3000 8000 100 check 
6666 1400 6000 100 check 
7777 4600 4000 100 check 
3333 3800 8000 100 check 
4444 5000 8000 100 check 
5555 4200 6000 100 check 
8888 1800 6000 100 check 
total pot: 800 
/inquire 

------------



------------


showdown/ 
common/ 
SPADES J 
DIAMONDS K 
CLUBS 6 
HEARTS 6 
CLUBS Q 
/common 
3: 5555 CLUBS J SPADES 2 TWO_PAIR 
4: 4444 DIAMONDS 3 CLUBS A ONE_PAIR 
3: 3333 CLUBS 5 DIAMONDS J TWO_PAIR 
5: 7777 CLUBS 9 CLUBS 7 ONE_PAIR 
1: 6666 HEARTS A CLUBS 10 STRAIGHT 
5: 1111 CLUBS 8 SPADES 9 ONE_PAIR 
2: 2222 DIAMONDS 2 CLUBS K TWO_PAIR 
2: 8888 HEARTS 3 HEARTS K TWO_PAIR 
/showdown 

------------



------------


pot-win/ 
6666: 800 
/pot-win 

------------


seat/ 
button: 5555 4200 6000 
small blind: 4444 5000 8000 
big blind: 3333 3800 8000 
7777 4600 4000 
6666 2200 6000 
1111 3000 8000 
2222 3400 6000 
8888 1800 6000 
/seat 

------------


blind/ 
4444: 50 
3333: 100 
/blind 

------------


hold/ 
HEARTS 8 
DIAMONDS J 
/hold 

------------



------------


inquire/ 
2222 3300 6000 100 call 
1111 2900 8000 100 call 
6666 2100 6000 100 call 
7777 4500 4000 100 call 
3333 3700 8000 100 blind 
4444 4950 8000 50 blind 
total pot: 550 
/inquire 

------------



------------


flop/ 
HEARTS 4 
DIAMONDS A 
HEARTS 6 
/flop 

------------



------------


inquire/ 
2222 3300 6000 100 check 
1111 2900 8000 100 check 
6666 2100 6000 100 check 
7777 4500 4000 100 check 
3333 3700 8000 100 check 
4444 4900 8000 100 check 
5555 4100 6000 100 call 
8888 1700 6000 100 call 
total pot: 800 
/inquire 

------------



------------


turn/ 
HEARTS 2 
/turn 

------------



------------


inquire/ 
2222 3300 6000 100 check 
1111 2900 8000 100 check 
6666 2100 6000 100 check 
7777 4500 4000 100 check 
3333 3700 8000 100 check 
4444 4900 8000 100 check 
5555 4100 6000 100 check 
8888 1700 6000 100 check 
total pot: 800 
/inquire 

------------



------------


river/ 
DIAMONDS 5 
/river 

------------



------------


inquire/ 
2222 3300 6000 100 check 
1111 2900 8000 100 check 
6666 2100 6000 100 check 
7777 4500 4000 100 check 
3333 3700 8000 100 check 
4444 4900 8000 100 check 
5555 4100 6000 100 check 
8888 1700 6000 100 check 
total pot: 800 
/inquire 

------------



------------


showdown/ 
common/ 
HEARTS 4 
DIAMONDS A 
HEARTS 6 
HEARTS 2 
DIAMONDS 5 
/common 
7: 4444 DIAMONDS 9 HEARTS 10 HIGH_CARD 
1: 3333 DIAMONDS 3 SPADES 5 STRAIGHT 
8: 7777 DIAMONDS 7 DIAMONDS 10 HIGH_CARD 
4: 6666 HEARTS Q SPADES K HIGH_CARD 
2: 1111 SPADES 6 SPADES A TWO_PAIR 
5: 2222 CLUBS 8 SPADES Q HIGH_CARD 
6: 8888 HEARTS 8 DIAMONDS J HIGH_CARD 
3: 5555 SPADES 4 CLUBS 5 TWO_PAIR 
/showdown 

------------



------------


pot-win/ 
3333: 800 
/pot-win 

------------


seat/ 
button: 4444 4900 8000 
small blind: 3333 4500 8000 
big blind: 7777 4500 4000 
6666 2100 6000 
1111 2900 8000 
2222 3300 6000 
8888 1700 6000 
5555 4100 6000 
/seat 

------------


blind/ 
3333: 50 
7777: 100 
/blind 

------------


hold/ 
CLUBS 8 
SPADES Q 
/hold 

------------



------------


inquire/ 
2222 3200 6000 100 call 
1111 2800 8000 100 call 
6666 2000 6000 100 call 
7777 4400 4000 100 blind 
3333 4450 8000 50 blind 
total pot: 450 
/inquire 

------------



------------


flop/ 
HEARTS 4 
DIAMONDS A 
HEARTS 6 
/flop 

------------



------------


inquire/ 
2222 3200 6000 100 check 
1111 2800 8000 100 check 
6666 2000 6000 100 check 
7777 4400 4000 100 check 
3333 4400 8000 100 check 
4444 4800 8000 100 call 
5555 4000 6000 100 call 
8888 1600 6000 100 call 
total pot: 800 
/inquire 

------------



------------


turn/ 
HEARTS 2 
/turn 

------------



------------


inquire/ 
2222 3200 6000 100 check 
1111 2800 8000 100 check 
6666 2000 6000 100 check 
7777 4400 4000 100 check 
3333 4400 8000 100 check 
4444 4800 8000 100 check 
5555 4000 6000 100 check 
8888 1600 6000 100 check 
total pot: 800 
/inquire 

------------



------------


river/ 
DIAMONDS 5 
/river 

------------



------------


inquire/ 
2222 3200 6000 100 check 
1111 2800 8000 100 check 
6666 2000 6000 100 check 
7777 4400 4000 100 check 
3333 4400 8000 100 check 
4444 4800 8000 100 check 
5555 4000 6000 100 check 
8888 1600 6000 100 check 
total pot: 800 
/inquire 

------------



------------


showdown/ 
common/ 
HEARTS 4 
DIAMONDS A 
HEARTS 6 
HEARTS 2 
DIAMONDS 5 
/common 
7: 3333 DIAMONDS 9 HEARTS 10 HIGH_CARD 
1: 7777 DIAMONDS 3 SPADES 5 STRAIGHT 
8: 6666 DIAMONDS 7 DIAMONDS 10 HIGH_CARD 
4: 1111 HEARTS Q SPADES K HIGH_CARD 
2: 2222 SPADES 6 SPADES A TWO_PAIR 
5: 8888 CLUBS 8 SPADES Q HIGH_CARD 
6: 5555 HEARTS 8 DIAMONDS J HIGH_CARD 
3: 4444 SPADES 4 CLUBS 5 TWO_PAIR 
/showdown 

------------



------------


pot-win/ 
7777: 800 
/pot-win 

------------


seat/ 
button: 3333 4400 8000 
small blind: 7777 5200 4000 
big blind: 6666 2000 6000 
1111 2800 8000 
2222 3200 6000 
8888 1600 6000 
5555 4000 6000 
4444 4800 8000 
/seat 

------------


blind/ 
7777: 50 
6666: 100 
/blind 

------------


hold/ 
SPADES 6 
SPADES A 
/hold 

------------



------------


inquire/ 
2222 3100 6000 100 call 
1111 2700 8000 100 call 
6666 1900 6000 100 blind 
7777 5150 4000 50 blind 
total pot: 350 
/inquire 

------------



------------


flop/ 
HEARTS 4 
DIAMONDS A 
HEARTS 6 
/flop 

------------



------------


inquire/ 
2222 3100 6000 100 check 
1111 2700 8000 100 check 
6666 1900 6000 100 check 
7777 5100 4000 100 check 
3333 4300 8000 100 call 
4444 4700 8000 100 call 
5555 3900 6000 100 call 
8888 1500 6000 100 call 
total pot: 800 
/inquire 

------------



------------


turn/ 
HEARTS 2 
/turn 

------------



------------


inquire/ 
2222 3100 6000 100 check 
1111 2700 8000 100 check 
6666 1900 6000 100 check 
7777 5100 4000 100 check 
3333 4300 8000 100 check 
4444 4700 8000 100 check 
5555 3900 6000 100 check 
8888 1500 6000 100 check 
total pot: 800 
/inquire 

------------



------------


river/ 
DIAMONDS 5 
/river 

------------



------------


inquire/ 
2222 3100 6000 100 check 
1111 2700 8000 100 check 
6666 1900 6000 100 check 
7777 5100 4000 100 check 
3333 4300 8000 100 check 
4444 4700 8000 100 check 
5555 3900 6000 100 check 
8888 1500 6000 100 check 
total pot: 800 
/inquire 

------------



------------


showdown/ 
common/ 
HEARTS 4 
DIAMONDS A 
HEARTS 6 
HEARTS 2 
DIAMONDS 5 
/common 
7: 7777 DIAMONDS 9 HEARTS 10 HIGH_CARD 
1: 6666 DIAMONDS 3 SPADES 5 STRAIGHT 
8: 1111 DIAMONDS 7 DIAMONDS 10 HIGH_CARD 
4: 2222 HEARTS Q SPADES K HIGH_CARD 
2: 8888 SPADES 6 SPADES A TWO_PAIR 
5: 5555 CLUBS 8 SPADES Q HIGH_CARD 
6: 4444 HEARTS 8 DIAMONDS J HIGH_CARD 
3: 3333 SPADES 4 CLUBS 5 TWO_PAIR 
/showdown 

------------



------------


pot-win/ 
6666: 800 
/pot-win 

------------


seat/ 
button: 7777 5100 4000 
small blind: 6666 2700 6000 
big blind: 1111 2700 8000 
2222 3100 6000 
8888 1500 6000 
5555 3900 6000 
4444 4700 8000 
3333 4300 8000 
/seat 

------------


blind/ 
6666: 50 
1111: 100 
/blind 

------------


hold/ 
HEARTS Q 
SPADES K 
/hold 

------------



------------


inquire/ 
2222 3000 6000 100 call 
1111 2600 8000 100 blind 
6666 2650 6000 50 blind 
total pot: 250 
/inquire 

------------



------------


flop/ 
HEARTS 4 
DIAMONDS A 
HEARTS 6 
/flop 

------------



------------


inquire/ 
2222 3000 6000 100 check 
1111 2600 8000 100 check 
6666 2600 6000 100 check 
7777 5000 4000 100 call 
3333 4200 8000 100 call 
4444 4600 8000 100 call 
5555 3800 6000 100 call 
8888 1400 6000 100 call 
total pot: 800 
/inquire 

------------



------------


turn/ 
HEARTS 2 
/turn 

------------



------------


inquire/ 
2222 3000 6000 100 check 
1111 2600 8000 100 check 
6666 2600 6000 100 check 
7777 5000 4000 100 check 
3333 4200 8000 100 check 
4444 4600 8000 100 check 
5555 3800 6000 100 check 
8888 1400 6000 100 check 
total pot: 800 
/inquire 

------------



------------


river/ 
DIAMONDS 5 
/river 

------------



------------


inquire/ 
2222 3000 6000 100 check 
1111 2600 8000 100 check 
6666 2600 6000 100 check 
7777 5000 4000 100 check 
3333 4200 8000 100 check 
4444 4600 8000 100 check 
5555 3800 6000 100 check 
8888 1400 6000 100 check 
total pot: 800 
/inquire 

------------



------------


showdown/ 
common/ 
HEARTS 4 
DIAMONDS A 
HEARTS 6 
HEARTS 2 
DIAMONDS 5 
/common 
7: 6666 DIAMONDS 9 HEARTS 10 HIGH_CARD 
1: 1111 DIAMONDS 3 SPADES 5 STRAIGHT 
8: 2222 DIAMONDS 7 DIAMONDS 10 HIGH_CARD 
4: 8888 HEARTS Q SPADES K HIGH_CARD 
2: 5555 SPADES 6 SPADES A TWO_PAIR 
5: 4444 CLUBS 8 SPADES Q HIGH_CARD 
6: 3333 HEARTS 8 DIAMONDS J HIGH_CARD 
3: 7777 SPADES 4 CLUBS 5 TWO_PAIR 
/showdown 

------------



------------


pot-win/ 
1111: 800 
/pot-win 

------------


seat/ 
button: 6666 2600 6000 
small blind: 1111 3400 8000 
big blind: 2222 3000 6000 
8888 1400 6000 
5555 3800 6000 
4444 4600 8000 
3333 4200 8000 
7777 5000 4000 
/seat 

------------


blind/ 
1111: 50 
2222: 100 
/blind 

------------


hold/ 
DIAMONDS 7 
DIAMONDS 10 
/hold 

------------


inquire/ 
2222 2900 6000 100 blind 
1111 3350 8000 50 blind 
total pot: 150 
/inquire 

------------



------------


flop/ 
HEARTS 4 
DIAMONDS A 
HEARTS 6 
/flop 

------------



------------


inquire/ 
2222 2900 6000 100 check 
1111 3300 8000 100 check 
6666 2500 6000 100 call 
7777 4900 4000 100 call 
3333 4100 8000 100 call 
4444 4500 8000 100 call 
5555 3700 6000 100 call 
8888 1300 6000 100 call 
total pot: 800 
/inquire 

------------



------------


turn/ 
HEARTS 2 
/turn 

------------



------------


inquire/ 
2222 2900 6000 100 check 
1111 3300 8000 100 check 
6666 2500 6000 100 check 
7777 4900 4000 100 check 
3333 4100 8000 100 check 
4444 4500 8000 100 check 
5555 3700 6000 100 check 
8888 1300 6000 100 check 
total pot: 800 
/inquire 

------------



------------


river/ 
DIAMONDS 5 
/river 

------------



------------


inquire/ 
2222 2900 6000 100 check 
1111 3300 8000 100 check 
6666 2500 6000 100 check 
7777 4900 4000 100 check 
3333 4100 8000 100 check 
4444 4500 8000 100 check 
5555 3700 6000 100 check 
8888 1300 6000 100 check 
total pot: 800 
/inquire 

------------



------------


showdown/ 
common/ 
HEARTS 4 
DIAMONDS A 
HEARTS 6 
HEARTS 2 
DIAMONDS 5 
/common 
7: 1111 DIAMONDS 9 HEARTS 10 HIGH_CARD 
1: 2222 DIAMONDS 3 SPADES 5 STRAIGHT 
8: 8888 DIAMONDS 7 DIAMONDS 10 HIGH_CARD 
4: 5555 HEARTS Q SPADES K HIGH_CARD 
2: 4444 SPADES 6 SPADES A TWO_PAIR 
5: 3333 CLUBS 8 SPADES Q HIGH_CARD 
6: 7777 HEARTS 8 DIAMONDS J HIGH_CARD 
3: 6666 SPADES 4 CLUBS 5 TWO_PAIR 
/showdown 

------------



------------


pot-win/ 
2222: 800 
/pot-win 

------------


seat/ 
button: 1111 3300 8000 
small blind: 2222 3700 6000 
big blind: 8888 1300 6000 
5555 3700 6000 
4444 4500 8000 
3333 4100 8000 
7777 4900 4000 
6666 2500 6000 
/seat 

------------


blind/ 
2222: 50 
8888: 100 
/blind 

------------


hold/ 
DIAMONDS 3 
SPADES 5 
/hold 

------------



------------


inquire/ 
2222 3600 6000 100 call 
1111 3200 8000 100 call 
6666 2400 6000 100 call 
7777 4800 4000 100 call 
3333 4000 8000 100 call 
4444 4400 8000 100 call 
5555 3600 6000 100 call 
8888 1200 6000 100 blind 
total pot: 800 
/inquire 

------------



------------


flop/ 
HEARTS 4 
DIAMONDS A 
HEARTS 6 
/flop 

------------



------------


inquire/ 
2222 3600 6000 100 check 
1111 3200 8000 100 call 
6666 2400 6000 100 call 
7777 4800 4000 100 call 
3333 4000 8000 100 call 
4444 4400 8000 100 call 
5555 3600 6000 100 call 
8888 1200 6000 100 check 
total pot: 800 
/inquire 

------------



------------


turn/ 
HEARTS 2 
/turn 

------------



------------


inquire/ 
2222 3600 6000 100 check 
1111 3200 8000 100 check 
6666 2400 6000 100 check 
7777 4800 4000 100 check 
3333 4000 8000 100 check 
4444 4400 8000 100 check 
5555 3600 6000 100 check 
8888 1200 6000 100 check 
total pot: 800 
/inquire 

------------



------------


river/ 
DIAMONDS 5 
/river 

------------



------------


inquire/ 
2222 3600 6000 100 check 
1111 3200 8000 100 check 
6666 2400 6000 100 check 
7777 4800 4000 100 check 
3333 4000 8000 100 check 
4444 4400 8000 100 check 
5555 3600 6000 100 check 
8888 1200 6000 100 check 
total pot: 800 
/inquire 

------------



------------


showdown/ 
common/ 
HEARTS 4 
DIAMONDS A 
HEARTS 6 
HEARTS 2 
DIAMONDS 5 
/common 
7: 2222 DIAMONDS 9 HEARTS 10 HIGH_CARD 
1: 8888 DIAMONDS 3 SPADES 5 STRAIGHT 
8: 5555 DIAMONDS 7 DIAMONDS 10 HIGH_CARD 
4: 4444 HEARTS Q SPADES K HIGH_CARD 
2: 3333 SPADES 6 SPADES A TWO_PAIR 
5: 7777 CLUBS 8 SPADES Q HIGH_CARD 
6: 6666 HEARTS 8 DIAMONDS J HIGH_CARD 
3: 1111 SPADES 4 CLUBS 5 TWO_PAIR 
/showdown 

------------



------------


pot-win/ 
8888: 800 
/pot-win 

------------


seat/ 
button: 2222 3600 6000 
small blind: 8888 2000 6000 
big blind: 5555 3600 6000 
4444 4400 8000 
3333 4000 8000 
7777 4800 4000 
6666 2400 6000 
1111 3200 8000 
/seat 

------------


blind/ 
8888: 50 
5555: 100 
/blind 

------------


hold/ 
HEARTS J 
HEARTS 4 
/hold 

------------



------------


inquire/ 
2222 3500 6000 100 call 
1111 3100 8000 100 call 
6666 2300 6000 100 call 
7777 4700 4000 100 call 
3333 3900 8000 100 call 
4444 4300 8000 100 call 
5555 3500 6000 100 blind 
8888 1950 6000 50 blind 
total pot: 750 
/inquire 

------------



------------


flop/ 
SPADES J 
DIAMONDS 10 
DIAMONDS 5 
/flop 

------------



------------


inquire/ 
2222 3500 6000 100 call 
1111 3100 8000 100 call 
6666 2300 6000 100 call 
7777 4700 4000 100 call 
3333 3900 8000 100 call 
4444 4300 8000 100 call 
5555 3500 6000 100 check 
8888 1900 6000 100 call 
total pot: 800 
/inquire 

------------



------------


turn/ 
SPADES K 
/turn 

------------



------------


inquire/ 
2222 3500 6000 100 check 
1111 3100 8000 100 check 
6666 2300 6000 100 check 
7777 4700 4000 100 check 
3333 3900 8000 100 check 
4444 4300 8000 100 check 
5555 3500 6000 100 check 
8888 1900 6000 100 check 
total pot: 800 
/inquire 

------------



------------


river/ 
CLUBS 10 
/river 

------------



------------


inquire/ 
2222 3500 6000 100 check 
1111 3100 8000 100 check 
6666 2300 6000 100 check 
7777 4700 4000 100 check 
3333 3900 8000 100 check 
4444 4300 8000 100 check 
5555 3500 6000 100 check 
8888 1900 6000 100 check 
total pot: 800 
/inquire 

------------



------------


showdown/ 
common/ 
SPADES J 
DIAMONDS 10 
DIAMONDS 5 
SPADES K 
CLUBS 10 
/common 
4: 8888 HEARTS J HEARTS 4 TWO_PAIR 
6: 5555 CLUBS 3 HEARTS 3 TWO_PAIR 
7: 4444 SPADES 3 HEARTS 9 ONE_PAIR 
5: 3333 DIAMONDS 3 SPADES 5 TWO_PAIR 
7: 7777 SPADES 9 HEARTS 6 ONE_PAIR 
2: 6666 DIAMONDS J DIAMONDS K TWO_PAIR 
1: 1111 CLUBS K HEARTS 10 FULL_HOUSE 
3: 2222 CLUBS 2 HEARTS K TWO_PAIR 
/showdown 

------------



------------


pot-win/ 
1111: 800 
/pot-win 

------------


seat/ 
button: 8888 1900 6000 
small blind: 5555 3500 6000 
big blind: 4444 4300 8000 
3333 3900 8000 
7777 4700 4000 
6666 2300 6000 
1111 3900 8000 
2222 3500 6000 
/seat 

------------


blind/ 
5555: 50 
4444: 100 
/blind 

------------


hold/ 
CLUBS 2 
HEARTS K 
/hold 

------------



------------


inquire/ 
2222 3400 6000 100 call 
1111 3800 8000 100 call 
6666 2200 6000 100 call 
7777 4600 4000 100 call 
3333 3800 8000 100 call 
4444 4200 8000 100 blind 
5555 3450 6000 50 blind 
total pot: 650 
/inquire 

------------



------------


flop/ 
SPADES J 
DIAMONDS 10 
DIAMONDS 5 
/flop 

------------



------------


inquire/ 
2222 3400 6000 100 check 
1111 3800 8000 100 check 
6666 2200 6000 100 check 
7777 4600 4000 100 check 
3333 3800 8000 100 check 
4444 4200 8000 100 check 
5555 3400 6000 100 check 
8888 1800 6000 100 call 
total pot: 800 
/inquire 

------------



------------


turn/ 
SPADES K 
/turn 

------------



------------


inquire/ 
2222 3400 6000 100 check 
1111 3800 8000 100 check 
6666 2200 6000 100 check 
7777 4600 4000 100 check 
3333 3800 8000 100 check 
4444 4200 8000 100 check 
5555 3400 6000 100 check 
8888 1800 6000 100 check 
total pot: 800 
/inquire 

------------



------------


river/ 
CLUBS 10 
/river 

------------



------------


inquire/ 
2222 3400 6000 100 check 
1111 3800 8000 100 check 
6666 2200 6000 100 check 
7777 4600 4000 100 check 
3333 3800 8000 100 check 
4444 4200 8000 100 check 
5555 3400 6000 100 check 
8888 1800 6000 100 check 
total pot: 800 
/inquire 

------------



------------


showdown/ 
common/ 
SPADES J 
DIAMONDS 10 
DIAMONDS 5 
SPADES K 
CLUBS 10 
/common 
4: 5555 HEARTS J HEARTS 4 TWO_PAIR 
6: 4444 CLUBS 3 HEARTS 3 TWO_PAIR 
7: 3333 SPADES 3 HEARTS 9 ONE_PAIR 
5: 7777 DIAMONDS 3 SPADES 5 TWO_PAIR 
7: 6666 SPADES 9 HEARTS 6 ONE_PAIR 
2: 1111 DIAMONDS J DIAMONDS K TWO_PAIR 
1: 2222 CLUBS K HEARTS 10 FULL_HOUSE 
3: 8888 CLUBS 2 HEARTS K TWO_PAIR 
/showdown 

------------



------------


pot-win/ 
2222: 800 
/pot-win 

------------


seat/ 
button: 5555 3400 6000 
small blind: 4444 4200 8000 
big blind: 3333 3800 8000 
7777 4600 4000 
6666 2200 6000 
1111 3800 8000 
2222 4200 6000 
8888 1800 6000 
/seat 

------------


blind/ 
4444: 50 
3333: 100 
/blind 

------------


hold/ 
CLUBS K 
HEARTS 10 
/hold 

------------



------------


inquire/ 
2222 4100 6000 100 call 
1111 3700 8000 100 call 
6666 2100 6000 100 call 
7777 4500 4000 100 call 
3333 3700 8000 100 blind 
4444 4150 8000 50 blind 
total pot: 550 
/inquire 

------------



------------


flop/ 
SPADES J 
DIAMONDS 10 
DIAMONDS 5 
/flop 

------------



------------


inquire/ 
2222 4100 6000 100 check 
1111 3700 8000 100 check 
6666 2100 6000 100 check 
7777 4500 4000 100 check 
3333 3700 8000 100 check 
4444 4100 8000 100 check 
5555 3300 6000 100 call 
8888 1700 6000 100 call 
total pot: 800 
/inquire 

------------



------------


turn/ 
SPADES K 
/turn 

------------



------------


inquire/ 
2222 4100 6000 100 check 
1111 3700 8000 100 check 
6666 2100 6000 100 check 
7777 4500 4000 100 check 
3333 3700 8000 100 check 
4444 4100 8000 100 check 
5555 3300 6000 100 check 
8888 1700 6000 100 check 
total pot: 800 
/inquire 

------------



------------


river/ 
CLUBS 10 
/river 

------------



------------


inquire/ 
2222 4100 6000 100 check 
1111 3700 8000 100 check 
6666 2100 6000 100 check 
7777 4500 4000 100 check 
3333 3700 8000 100 check 
4444 4100 8000 100 check 
5555 3300 6000 100 check 
8888 1700 6000 100 check 
total pot: 800 
/inquire 

------------



------------


showdown/ 
common/ 
SPADES J 
DIAMONDS 10 
DIAMONDS 5 
SPADES K 
CLUBS 10 
/common 
4: 4444 HEARTS J HEARTS 4 TWO_PAIR 
6: 3333 CLUBS 3 HEARTS 3 TWO_PAIR 
7: 7777 SPADES 3 HEARTS 9 ONE_PAIR 
5: 6666 DIAMONDS 3 SPADES 5 TWO_PAIR 
7: 1111 SPADES 9 HEARTS 6 ONE_PAIR 
2: 2222 DIAMONDS J DIAMONDS K TWO_PAIR 
1: 8888 CLUBS K HEARTS 10 FULL_HOUSE 
3: 5555 CLUBS 2 HEARTS K TWO_PAIR 
/showdown 

------------



------------


pot-win/ 
8888: 800 
/pot-win 

------------


seat/ 
button: 4444 4100 8000 
small blind: 3333 3700 8000 
big blind: 7777 4500 4000 
6666 2100 6000 
1111 3700 8000 
2222 4100 6000 
8888 2500 6000 
5555 3300 6000 
/seat 

------------


blind/ 
3333: 50 
7777: 100 
/blind 

------------


hold/ 
DIAMONDS J 
DIAMONDS K 
/hold 

------------



------------


inquire/ 
2222 4000 6000 100 call 
1111 3600 8000 100 call 
6666 2000 6000 100 call 
7777 4400 4000 100 blind 
3333 3650 8000 50 blind 
total pot: 450 
/inquire 

------------



------------


flop/ 
SPADES J 
DIAMONDS 10 
DIAMONDS 5 
/flop 

------------



------------


inquire/ 
2222 4000 6000 100 check 
1111 3600 8000 100 check 
6666 2000 6000 100 check 
7777 4400 4000 100 check 
3333 3600 8000 100 check 
4444 4000 8000 100 call 
5555 3200 6000 100 call 
8888 2400 6000 100 call 
total pot: 800 
/inquire 

------------



------------


turn/ 
SPADES K 
/turn 

------------



------------


inquire/ 
2222 4000 6000 100 check 
1111 3600 8000 100 check 
6666 2000 6000 100 check 
7777 4400 4000 100 check 
3333 3600 8000 100 check 
4444 4000 8000 100 check 
5555 3200 6000 100 check 
8888 2400 6000 100 check 
total pot: 800 
/inquire 

------------



------------


river/ 
CLUBS 10 
/river 

------------



------------


inquire/ 
2222 4000 6000 100 check 
1111 3600 8000 100 check 
6666 2000 6000 100 check 
7777 4400 4000 100 check 
3333 3600 8000 100 check 
4444 4000 8000 100 check 
5555 3200 6000 100 check 
8888 2400 6000 100 check 
total pot: 800 
/inquire 

------------



------------


showdown/ 
common/ 
SPADES J 
DIAMONDS 10 
DIAMONDS 5 
SPADES K 
CLUBS 10 
/common 
4: 3333 HEARTS J HEARTS 4 TWO_PAIR 
6: 7777 CLUBS 3 HEARTS 3 TWO_PAIR 
7: 6666 SPADES 3 HEARTS 9 ONE_PAIR 
5: 1111 DIAMONDS 3 SPADES 5 TWO_PAIR 
7: 2222 SPADES 9 HEARTS 6 ONE_PAIR 
2: 8888 DIAMONDS J DIAMONDS K TWO_PAIR 
1: 5555 CLUBS K HEARTS 10 FULL_HOUSE 
3: 4444 CLUBS 2 HEARTS K TWO_PAIR 
/showdown 

------------



------------


pot-win/ 
5555: 800 
/pot-win 

------------


seat/ 
button: 3333 3600 8000 
small blind: 7777 4400 4000 
big blind: 6666 2000 6000 
1111 3600 8000 
2222 4000 6000 
8888 2400 6000 
5555 4000 6000 
4444 4000 8000 
/seat 

------------


blind/ 
7777: 50 
6666: 100 
/blind 

------------


hold/ 
SPADES 9 
HEARTS 6 
/hold 

------------



------------


inquire/ 
2222 3900 6000 100 call 
1111 3500 8000 100 call 
6666 1900 6000 100 blind 
7777 4350 4000 50 blind 
total pot: 350 
/inquire 

------------



------------


flop/ 
SPADES J 
DIAMONDS 10 
DIAMONDS 5 
/flop 

------------



------------


inquire/ 
2222 3900 6000 100 check 
1111 3500 8000 100 check 
6666 1900 6000 100 check 
7777 4300 4000 100 check 
3333 3500 8000 100 call 
4444 3900 8000 100 call 
5555 3900 6000 100 call 
8888 2300 6000 100 call 
total pot: 800 
/inquire 

------------



------------


turn/ 
SPADES K 
/turn 

------------



------------


inquire/ 
2222 3900 6000 100 check 
1111 3500 8000 100 check 
6666 1900 6000 100 check 
7777 4300 4000 100 check 
3333 3500 8000 100 check 
4444 3900 8000 100 check 
5555 3900 6000 100 check 
8888 2300 6000 100 check 
total pot: 800 
/inquire 

------------



------------


river/ 
CLUBS 10 
/river 

------------



------------


inquire/ 
2222 3900 6000 100 check 
1111 3500 8000 100 check 
6666 1900 6000 100 check 
7777 4300 4000 100 check 
3333 3500 8000 100 check 
4444 3900 8000 100 check 
5555 3900 6000 100 check 
8888 2300 6000 100 check 
total pot: 800 
/inquire 

------------



------------


showdown/ 
common/ 
SPADES J 
DIAMONDS 10 
DIAMONDS 5 
SPADES K 
CLUBS 10 
/common 
4: 7777 HEARTS J HEARTS 4 TWO_PAIR 
6: 6666 CLUBS 3 HEARTS 3 TWO_PAIR 
7: 1111 SPADES 3 HEARTS 9 ONE_PAIR 
5: 2222 DIAMONDS 3 SPADES 5 TWO_PAIR 
7: 8888 SPADES 9 HEARTS 6 ONE_PAIR 
2: 5555 DIAMONDS J DIAMONDS K TWO_PAIR 
1: 4444 CLUBS K HEARTS 10 FULL_HOUSE 
3: 3333 CLUBS 2 HEARTS K TWO_PAIR 
/showdown 

------------



------------


pot-win/ 
4444: 800 
/pot-win 

------------


seat/ 
button: 7777 4300 4000 
small blind: 6666 1900 6000 
big blind: 1111 3500 8000 
2222 3900 6000 
8888 2300 6000 
5555 3900 6000 
4444 4700 8000 
3333 3500 8000 
/seat 

------------


blind/ 
6666: 50 
1111: 100 
/blind 

------------


hold/ 
DIAMONDS 2 
HEARTS 4 
/hold 

------------



------------


inquire/ 
2222 3800 6000 100 call 
1111 3400 8000 100 blind 
6666 1850 6000 50 blind 
total pot: 250 
/inquire 

------------



------------


flop/ 
SPADES 10 
CLUBS 3 
CLUBS 2 
/flop 

------------



------------


inquire/ 
2222 3800 6000 100 check 
1111 3400 8000 100 check 
6666 1800 6000 100 check 
7777 4200 4000 100 call 
3333 3400 8000 100 call 
4444 4600 8000 100 call 
5555 3800 6000 100 call 
8888 2200 6000 100 call 
total pot: 800 
/inquire 

------------



------------


turn/ 
CLUBS 10 
/turn 

------------



------------


inquire/ 
2222 3800 6000 100 check 
1111 3400 8000 100 check 
6666 1800 6000 100 check 
7777 4200 4000 100 check 
3333 3400 8000 100 check 
4444 4600 8000 100 check 
5555 3800 6000 100 check 
8888 2200 6000 100 check 
total pot: 800 
/inquire 

------------



------------


river/ 
DIAMONDS 3 
/river 

------------



------------


inquire/ 
2222 3800 6000 100 check 
1111 3400 8000 100 check 
6666 1800 6000 100 check 
7777 4200 4000 100 check 
3333 3400 8000 100 check 
4444 4600 8000 100 check 
5555 3800 6000 100 check 
8888 2200 6000 100 check 
total pot: 800 
/inquire 

------------



------------


showdown/ 
common/ 
SPADES 10 
CLUBS 3 
CLUBS 2 
CLUBS 10 
DIAMONDS 3 
/common 
5: 6666 HEARTS 9 SPADES 5 TWO_PAIR 
4: 1111 HEARTS 7 DIAMONDS J TWO_PAIR 
1: 2222 HEARTS 10 SPADES 6 FULL_HOUSE 
7: 8888 DIAMONDS 2 HEARTS 4 TWO_PAIR 
2: 5555 CLUBS 5 CLUBS Q FLUSH 
6: 4444 SPADES 8 SPADES 7 TWO_PAIR 
3: 3333 SPADES A HEARTS 2 TWO_PAIR 
4: 7777 CLUBS J SPADES 4 TWO_PAIR 
/showdown 

------------



------------


pot-win/ 
2222: 800 
/pot-win 

------------


seat/ 
button: 6666 1800 6000 
small blind: 1111 3400 8000 
big blind: 2222 4600 6000 
8888 2200 6000 
5555 3800 6000 
4444 4600 8000 
3333 3400 8000 
7777 4200 4000 
/seat 

------------


blind/ 
1111: 50 
2222: 100 
/blind 

------------


hold/ 
HEARTS 10 
SPADES 6 
/hold 

------------


inquire/ 
2222 4500 6000 100 blind 
1111 3350 8000 50 blind 
total pot: 150 
/inquire 

------------



------------


flop/ 
SPADES 10 
CLUBS 3 
CLUBS 2 
/flop 

------------



------------


inquire/ 
2222 4500 6000 100 check 
1111 3300 8000 100 check 
6666 1700 6000 100 call 
7777 4100 4000 100 call 
3333 3300 8000 100 call 
4444 4500 8000 100 call 
5555 3700 6000 100 call 
8888 2100 6000 100 call 
total pot: 800 
/inquire 

------------



------------


turn/ 
CLUBS 10 
/turn 

------------



------------


inquire/ 
2222 4500 6000 100 check 
1111 3300 8000 100 check 
6666 1700 6000 100 check 
7777 4100 4000 100 check 
3333 3300 8000 100 check 
4444 4500 8000 100 check 
5555 3700 6000 100 check 
8888 2100 6000 100 check 
total pot: 800 
/inquire 

------------



------------


river/ 
DIAMONDS 3 
/river 

------------



------------


inquire/ 
2222 4500 6000 100 check 
1111 3300 8000 100 check 
6666 1700 6000 100 check 
7777 4100 4000 100 check 
3333 3300 8000 100 check 
4444 4500 8000 100 check 
5555 3700 6000 100 check 
8888 2100 6000 100 check 
total pot: 800 
/inquire 

------------



------------


showdown/ 
common/ 
SPADES 10 
CLUBS 3 
CLUBS 2 
CLUBS 10 
DIAMONDS 3 
/common 
5: 1111 HEARTS 9 SPADES 5 TWO_PAIR 
4: 2222 HEARTS 7 DIAMONDS J TWO_PAIR 
1: 8888 HEARTS 10 SPADES 6 FULL_HOUSE 
7: 5555 DIAMONDS 2 HEARTS 4 TWO_PAIR 
2: 4444 CLUBS 5 CLUBS Q FLUSH 
6: 3333 SPADES 8 SPADES 7 TWO_PAIR 
3: 7777 SPADES A HEARTS 2 TWO_PAIR 
4: 6666 CLUBS J SPADES 4 TWO_PAIR 
/showdown 

------------



------------


pot-win/ 
8888: 800 
/pot-win 

------------


seat/ 
button: 1111 3300 8000 
small blind: 2222 4500 6000 
big blind: 8888 2900 6000 
5555 3700 6000 
4444 4500 8000 
3333 3300 8000 
7777 4100 4000 
6666 1700 6000 
/seat 

------------


blind/ 
2222: 50 
8888: 100 
/blind 

------------


hold/ 
HEARTS 7 
DIAMONDS J 
/hold 

------------



------------


inquire/ 
2222 4400 6000 100 call 
1111 3200 8000 100 call 
6666 1600 6000 100 call 
7777 4000 4000 100 call 
3333 3200 8000 100 call 
4444 4400 8000 100 call 
5555 3600 6000 100 call 
8888 2800 6000 100 blind 
total pot: 800 
/inquire 

------------



------------


flop/ 
SPADES 10 
CLUBS 3 
CLUBS 2 
/flop 

------------



------------


inquire/ 
2222 4400 6000 100 check 
1111 3200 8000 100 call 
6666 1600 6000 100 call 
7777 4000 4000 100 call 
3333 3200 8000 100 call 
4444 4400 8000 100 call 
5555 3600 6000 100 call 
8888 2800 6000 100 check 
total pot: 800 
/inquire 

------------



------------


turn/ 
CLUBS 10 
/turn 

------------



------------


inquire/ 
2222 4400 6000 100 check 
1111 3200 8000 100 check 
6666 1600 6000 100 check 
7777 4000 4000 100 check 
3333 3200 8000 100 check 
4444 4400 8000 100 check 
5555 3600 6000 100 check 
8888 2800 6000 100 check 
total pot: 800 
/inquire 

------------



------------


river/ 
DIAMONDS 3 
/river 

------------



------------


inquire/ 
2222 4400 6000 100 check 
1111 3200 8000 100 check 
6666 1600 6000 100 check 
7777 4000 4000 100 check 
3333 3200 8000 100 check 
4444 4400 8000 100 check 
5555 3600 6000 100 check 
8888 2800 6000 100 check 
total pot: 800 
/inquire 

------------



------------


showdown/ 
common/ 
SPADES 10 
CLUBS 3 
CLUBS 2 
CLUBS 10 
DIAMONDS 3 
/common 
5: 2222 HEARTS 9 SPADES 5 TWO_PAIR 
4: 8888 HEARTS 7 DIAMONDS J TWO_PAIR 
1: 5555 HEARTS 10 SPADES 6 FULL_HOUSE 
7: 4444 DIAMONDS 2 HEARTS 4 TWO_PAIR 
2: 3333 CLUBS 5 CLUBS Q FLUSH 
6: 7777 SPADES 8 SPADES 7 TWO_PAIR 
3: 6666 SPADES A HEARTS 2 TWO_PAIR 
4: 1111 CLUBS J SPADES 4 TWO_PAIR 
/showdown 

------------



------------


pot-win/ 
5555: 800 
/pot-win 

------------


seat/ 
button: 2222 4400 6000 
small blind: 8888 2800 6000 
big blind: 5555 4400 6000 
4444 4400 8000 
3333 3200 8000 
7777 4000 4000 
6666 1600 6000 
1111 3200 8000 
/seat 

------------


blind/ 
8888: 50 
5555: 100 
/blind 

------------


hold/ 
HEARTS 9 
SPADES 5 
/hold 

------------



------------


inquire/ 
2222 4300 6000 100 call 
1111 3100 8000 100 call 
6666 1500 6000 100 call 
7777 3900 4000 100 call 
3333 3100 8000 100 call 
4444 4300 8000 100 call 
5555 4300 6000 100 blind 
8888 2750 6000 50 blind 
total pot: 750 
/inquire 

------------



------------


flop/ 
SPADES 10 
CLUBS 3 
CLUBS 2 
/flop 

------------



------------


inquire/ 
2222 4300 6000 100 call 
1111 3100 8000 100 call 
6666 1500 6000 100 call 
7777 3900 4000 100 call 
3333 3100 8000 100 call 
4444 4300 8000 100 call 
5555 4300 6000 100 check 
8888 2700 6000 100 call 
total pot: 800 
/inquire 

------------



------------


turn/ 
CLUBS 10 
/turn 

------------



------------


inquire/ 
2222 4300 6000 100 check 
1111 3100 8000 100 check 
6666 1500 6000 100 check 
7777 3900 4000 100 check 
3333 3100 8000 100 check 
4444 4300 8000 100 check 
5555 4300 6000 100 check 
8888 2700 6000 100 check 
total pot: 800 
/inquire 

------------



------------


river/ 
DIAMONDS 3 
/river 

------------



------------


inquire/ 
2222 4300 6000 100 check 
1111 3100 8000 100 check 
6666 1500 6000 100 check 
7777 3900 4000 100 check 
3333 3100 8000 100 check 
4444 4300 8000 100 check 
5555 4300 6000 100 check 
8888 2700 6000 100 check 
total pot: 800 
/inquire 

------------



------------


showdown/ 
common/ 
SPADES 10 
CLUBS 3 
CLUBS 2 
CLUBS 10 
DIAMONDS 3 
/common 
5: 8888 HEARTS 9 SPADES 5 TWO_PAIR 
4: 5555 HEARTS 7 DIAMONDS J TWO_PAIR 
1: 4444 HEARTS 10 SPADES 6 FULL_HOUSE 
7: 3333 DIAMONDS 2 HEARTS 4 TWO_PAIR 
2: 7777 CLUBS 5 CLUBS Q FLUSH 
6: 6666 SPADES 8 SPADES 7 TWO_PAIR 
3: 1111 SPADES A HEARTS 2 TWO_PAIR 
4: 2222 CLUBS J SPADES 4 TWO_PAIR 
/showdown 

------------



------------


pot-win/ 
4444: 800 
/pot-win 

------------


seat/ 
button: 8888 2700 6000 
small blind: 5555 4300 6000 
big blind: 4444 5100 8000 
3333 3100 8000 
7777 3900 4000 
6666 1500 6000 
1111 3100 8000 
2222 4300 6000 
/seat 

------------


blind/ 
5555: 50 
4444: 100 
/blind 

------------


hold/ 
CLUBS J 
SPADES 4 
/hold 

------------



------------


inquire/ 
2222 4200 6000 100 call 
1111 3000 8000 100 call 
6666 1400 6000 100 call 
7777 3800 4000 100 call 
3333 3000 8000 100 call 
4444 5000 8000 100 blind 
5555 4250 6000 50 blind 
total pot: 650 
/inquire 

------------



------------


flop/ 
SPADES 10 
CLUBS 3 
CLUBS 2 
/flop 

------------



------------


inquire/ 
2222 4200 6000 100 check 
1111 3000 8000 100 check 
6666 1400 6000 100 check 
7777 3800 4000 100 check 
3333 3000 8000 100 check 
4444 5000 8000 100 check 
5555 4200 6000 100 check 
8888 2600 6000 100 call 
total pot: 800 
/inquire 

------------



------------


turn/ 
CLUBS 10 
/turn 

------------



------------


inquire/ 
2222 4200 6000 100 check 
1111 3000 8000 100 check 
6666 1400 6000 100 check 
7777 3800 4000 100 check 
3333 3000 8000 100 check 
4444 5000 8000 100 check 
5555 4200 6000 100 check 
8888 2600 6000 100 check 
total pot: 800 
/inquire 

------------



------------


river/ 
DIAMONDS 3 
/river 

------------



------------


inquire/ 
2222 4200 6000 100 check 
1111 3000 8000 100 check 
6666 1400 6000 100 check 
7777 3800 4000 100 check 
3333 3000 8000 100 check 
4444 5000 8000 100 check 
5555 4200 6000 100 check 
8888 2600 6000 100 check 
total pot: 800 
/inquire 

------------



------------


showdown/ 
common/ 
SPADES 10 
CLUBS 3 
CLUBS 2 
CLUBS 10 
DIAMONDS 3 
/common 
5: 5555 HEARTS 9 SPADES 5 TWO_PAIR 
4: 4444 HEARTS 7 DIAMONDS J TWO_PAIR 
1: 3333 HEARTS 10 SPADES 6 FULL_HOUSE 
7: 7777 DIAMONDS 2 HEARTS 4 TWO_PAIR 
2: 6666 CLUBS 5 CLUBS Q FLUSH 
6: 1111 SPADES 8 SPADES 7 TWO_PAIR 
3: 2222 SPADES A HEARTS 2 TWO_PAIR 
4: 8888 CLUBS J SPADES 4 TWO_PAIR 
/showdown 

------------



------------


pot-win/ 
3333: 800 
/pot-win 

------------


seat/ 
button: 5555 4200 6000 
small blind: 4444 5000 8000 
big blind: 3333 3800 8000 
7777 3800 4000 
6666 1400 6000 
1111 3000 8000 
2222 4200 6000 
8888 2600 6000 
/seat 

------------


blind/ 
4444: 50 
3333: 100 
/blind 

------------


hold/ 
SPADES A 
HEARTS 2 
/hold 

------------



------------


inquire/ 
2222 4100 6000 100 call 
1111 2900 8000 100 call 
6666 1300 6000 100 call 
7777 3700 4000 100 call 
3333 3700 8000 100 blind 
4444 4950 8000 50 blind 
total pot: 550 
/inquire 

------------



------------


flop/ 
SPADES 10 
CLUBS 3 
CLUBS 2 
/flop 

------------



------------


inquire/ 
2222 4100 6000 100 check 
1111 2900 8000 100 check 
6666 1300 6000 100 check 
7777 3700 4000 100 check 
3333 3700 8000 100 check 
4444 4900 8000 100 check 
5555 4100 6000 100 call 
8888 2500 6000 100 call 
total pot: 800 
/inquire 

------------



------------


turn/ 
CLUBS 10 
/turn 

------------



------------


inquire/ 
2222 4100 6000 100 check 
1111 2900 8000 100 check 
6666 1300 6000 100 check 
7777 3700 4000 100 check 
3333 3700 8000 100 check 
4444 4900 8000 100 check 
5555 4100 6000 100 check 
8888 2500 6000 100 check 
total pot: 800 
/inquire 

------------



------------


river/ 
DIAMONDS 3 
/river 

------------



------------


inquire/ 
2222 4100 6000 100 check 
1111 2900 8000 100 check 
6666 1300 6000 100 check 
7777 3700 4000 100 check 
3333 3700 8000 100 check 
4444 4900 8000 100 check 
5555 4100 6000 100 check 
8888 2500 6000 100 check 
total pot: 800 
/inquire 

------------



------------


showdown/ 
common/ 
SPADES 10 
CLUBS 3 
CLUBS 2 
CLUBS 10 
DIAMONDS 3 
/common 
5: 4444 HEARTS 9 SPADES 5 TWO_PAIR 
4: 3333 HEARTS 7 DIAMONDS J TWO_PAIR 
1: 7777 HEARTS 10 SPADES 6 FULL_HOUSE 
7: 6666 DIAMONDS 2 HEARTS 4 TWO_PAIR 
2: 1111 CLUBS 5 CLUBS Q FLUSH 
6: 2222 SPADES 8 SPADES 7 TWO_PAIR 
3: 8888 SPADES A HEARTS 2 TWO_PAIR 
4: 5555 CLUBS J SPADES 4 TWO_PAIR 
/showdown 

------------



------------


pot-win/ 
7777: 800 
/pot-win 

------------


seat/ 
button: 4444 4900 8000 
small blind: 3333 3700 8000 
big blind: 7777 4500 4000 
6666 1300 6000 
1111 2900 8000 
2222 4100 6000 
8888 2500 6000 
5555 4100 6000 
/seat 

------------


blind/ 
3333: 50 
7777: 100 
/blind 

------------


hold/ 
DIAMONDS K 
HEARTS 7 
/hold 

------------



------------


inquire/ 
2222 4000 6000 100 call 
1111 2800 8000 100 call 
6666 1200 6000 100 call 
7777 4400 4000 100 blind 
3333 3650 8000 50 blind 
total pot: 450 
/inquire 

------------



------------


flop/ 
SPADES 7 
SPADES 9 
CLUBS Q 
/flop 

------------



------------


inquire/ 
2222 4000 6000 100 check 
1111 2800 8000 100 check 
6666 1200 6000 100 check 
7777 4400 4000 100 check 
3333 3600 8000 100 check 
4444 4800 8000 100 call 
5555 4000 6000 100 call 
8888 2400 6000 100 call 
total pot: 800 
/inquire 

------------



------------


turn/ 
DIAMONDS A 
/turn 

------------



------------


inquire/ 
2222 4000 6000 100 check 
1111 2800 8000 100 check 
6666 1200 6000 100 check 
7777 4400 4000 100 check 
3333 3600 8000 100 check 
4444 4800 8000 100 check 
5555 4000 6000 100 check 
8888 2400 6000 100 check 
total pot: 800 
/inquire 

------------



------------


river/ 
DIAMONDS 4 
/river 

------------



------------


inquire/ 
2222 4000 6000 100 check 
1111 2800 8000 100 check 
6666 1200 6000 100 check 
7777 4400 4000 100 check 
3333 3600 8000 100 check 
4444 4800 8000 100 check 
5555 4000 6000 100 check 
8888 2400 6000 100 check 
total pot: 800 
/inquire 

------------



------------


showdown/ 
common/ 
SPADES 7 
SPADES 9 
CLUBS Q 
DIAMONDS A 
DIAMONDS 4 
/common 
1: 3333 CLUBS A DIAMONDS 9 TWO_PAIR 
7: 7777 SPADES 10 SPADES 5 HIGH_CARD 
3: 6666 SPADES J CLUBS J ONE_PAIR 
6: 1111 HEARTS K SPADES 3 HIGH_CARD 
2: 2222 HEARTS 3 DIAMONDS Q ONE_PAIR 
4: 8888 DIAMONDS K HEARTS 7 ONE_PAIR 
8: 5555 CLUBS 6 DIAMONDS 3 HIGH_CARD 
5: 4444 HEARTS 2 HEARTS 4 ONE_PAIR 
/showdown 

------------



------------


pot-win/ 
3333: 800 
/pot-win 

------------


seat/ 
button: 3333 4400 8000 
small blind: 7777 4400 4000 
big blind: 6666 1200 6000 
1111 2800 8000 
2222 4000 6000 
8888 2400 6000 
5555 4000 6000 
4444 4800 8000 
/seat 

------------


blind/ 
7777: 50 
6666: 100 
/blind 

------------


hold/ 
HEARTS 3 
DIAMONDS Q 
/hold 

------------



------------


inquire/ 
2222 3900 6000 100 call 
1111 2700 8000 100 call 
6666 1100 6000 100 blind 
7777 4350 4000 50 blind 
total pot: 350 
/inquire 

------------



------------


flop/ 
SPADES 7 
SPADES 9 
CLUBS Q 
/flop 

------------



------------


inquire/ 
2222 3900 6000 100 check 
1111 2700 8000 100 check 
6666 1100 6000 100 check 
7777 4300 4000 100 check 
3333 4300 8000 100 call 
4444 4700 8000 100 call 
5555 3900 6000 100 call 
8888 2300 6000 100 call 
total pot: 800 
/inquire 

------------



------------


turn/ 
DIAMONDS A 
/turn 

------------



------------


inquire/ 
2222 3900 6000 100 check 
1111 2700 8000 100 check 
6666 1100 6000 100 check 
7777 4300 4000 100 check 
3333 4300 8000 100 check 
4444 4700 8000 100 check 
5555 3900 6000 100 check 
8888 2300 6000 100 check 
total pot: 800 
/inquire 

------------



------------


river/ 
DIAMONDS 4 
/river 

------------



------------


inquire/ 
2222 3900 6000 100 check 
1111 2700 8000 100 check 
6666 1100 6000 100 check 
7777 4300 4000 100 check 
3333 4300 8000 100 check 
4444 4700 8000 100 check 
5555 3900 6000 100 check 
8888 2300 6000 100 check 
total pot: 800 
/inquire 

------------



------------


showdown/ 
common/ 
SPADES 7 
SPADES 9 
CLUBS Q 
DIAMONDS A 
DIAMONDS 4 
/common 
1: 7777 CLUBS A DIAMONDS 9 TWO_PAIR 
7: 6666 SPADES 10 SPADES 5 HIGH_CARD 
3: 1111 SPADES J CLUBS J ONE_PAIR 
6: 2222 HEARTS K SPADES 3 HIGH_CARD 
2: 8888 HEARTS 3 DIAMONDS Q ONE_PAIR 
4: 5555 DIAMONDS K HEARTS 7 ONE_PAIR 
8: 4444 CLUBS 6 DIAMONDS 3 HIGH_CARD 
5: 3333 HEARTS 2 HEARTS 4 ONE_PAIR 
/showdown 

------------



------------


pot-win/ 
7777: 800 
/pot-win 

------------


seat/ 
button: 7777 5100 4000 
small blind: 6666 1100 6000 
big blind: 1111 2700 8000 
2222 3900 6000 
8888 2300 6000 
5555 3900 6000 
4444 4700 8000 
3333 4300 8000 
/seat 

------------


blind/ 
6666: 50 
1111: 100 
/blind 

------------


hold/ 
HEARTS K 
SPADES 3 
/hold 

------------



------------


inquire/ 
2222 3800 6000 100 call 
1111 2600 8000 100 blind 
6666 1050 6000 50 blind 
total pot: 250 
/inquire 

------------



------------


flop/ 
SPADES 7 
SPADES 9 
CLUBS Q 
/flop 

------------



------------


inquire/ 
2222 3800 6000 100 check 
1111 2600 8000 100 check 
6666 1000 6000 100 check 
7777 5000 4000 100 call 
3333 4200 8000 100 call 
4444 4600 8000 100 call 
5555 3800 6000 100 call 
8888 2200 6000 100 call 
total pot: 800 
/inquire 

------------



------------


turn/ 
DIAMONDS A 
/turn 

------------



------------


inquire/ 
2222 3800 6000 100 check 
1111 2600 8000 100 check 
6666 1000 6000 100 check 
7777 5000 4000 100 check 
3333 4200 8000 100 check 
4444 4600 8000 100 check 
5555 3800 6000 100 check 
8888 2200 6000 100 check 
total pot: 800 
/inquire 

------------



------------


river/ 
DIAMONDS 4 
/river 

------------



------------


inquire/ 
2222 3800 6000 100 check 
1111 2600 8000 100 check 
6666 1000 6000 100 check 
7777 5000 4000 100 check 
3333 4200 8000 100 check 
4444 4600 8000 100 check 
5555 3800 6000 100 check 
8888 2200 6000 100 check 
total pot: 800 
/inquire 

------------



------------


showdown/ 
common/ 
SPADES 7 
SPADES 9 
CLUBS Q 
DIAMONDS A 
DIAMONDS 4 
/common 
1: 6666 CLUBS A DIAMONDS 9 TWO_PAIR 
7: 1111 SPADES 10 SPADES 5 HIGH_CARD 
3: 2222 SPADES J CLUBS J ONE_PAIR 
6: 8888 HEARTS K SPADES 3 HIGH_CARD 
2: 5555 HEARTS 3 DIAMONDS Q ONE_PAIR 
4: 4444 DIAMONDS K HEARTS 7 ONE_PAIR 
8: 3333 CLUBS 6 DIAMONDS 3 HIGH_CARD 
5: 7777 HEARTS 2 HEARTS 4 ONE_PAIR 
/showdown 

------------



------------


pot-win/ 
6666: 800 
/pot-win 

------------


seat/ 
button: 6666 1800 6000 
small blind: 1111 2600 8000 
big blind: 2222 3800 6000 
8888 2200 6000 
5555 3800 6000 
4444 4600 8000 
3333 4200 8000 
7777 5000 4000 
/seat 

------------


blind/ 
1111: 50 
2222: 100 
/blind 

------------


hold/ 
SPADES J 
CLUBS J 
/hold 

------------


inquire/ 
2222 3700 6000 100 blind 
1111 2550 8000 50 blind 
total pot: 150 
/inquire 

------------



------------


flop/ 
SPADES 7 
SPADES 9 
CLUBS Q 
/flop 

------------



------------


inquire/ 
2222 3700 6000 100 check 
1111 2500 8000 100 check 
6666 1700 6000 100 call 
7777 4900 4000 100 call 
3333 4100 8000 100 call 
4444 4500 8000 100 call 
5555 3700 6000 100 call 
8888 2100 6000 100 call 
total pot: 800 
/inquire 

------------



------------


turn/ 
DIAMONDS A 
/turn 

------------



------------


inquire/ 
2222 3700 6000 100 check 
1111 2500 8000 100 check 
6666 1700 6000 100 check 
7777 4900 4000 100 check 
3333 4100 8000 100 check 
4444 4500 8000 100 check 
5555 3700 6000 100 check 
8888 2100 6000 100 check 
total pot: 800 
/inquire 

------------



------------


river/ 
DIAMONDS 4 
/river 

------------



------------


inquire/ 
2222 3700 6000 100 check 
1111 2500 8000 100 check 
6666 1700 6000 100 check 
7777 4900 4000 100 check 
3333 4100 8000 100 check 
4444 4500 8000 100 check 
5555 3700 6000 100 check 
8888 2100 6000 100 check 
total pot: 800 
/inquire 

------------



------------


showdown/ 
common/ 
SPADES 7 
SPADES 9 
CLUBS Q 
DIAMONDS A 
DIAMONDS 4 
/common 
1: 1111 CLUBS A DIAMONDS 9 TWO_PAIR 
7: 2222 SPADES 10 SPADES 5 HIGH_CARD 
3: 8888 SPADES J CLUBS J ONE_PAIR 
6: 5555 HEARTS K SPADES 3 HIGH_CARD 
2: 4444 HEARTS 3 DIAMONDS Q ONE_PAIR 
4: 3333 DIAMONDS K HEARTS 7 ONE_PAIR 
8: 7777 CLUBS 6 DIAMONDS 3 HIGH_CARD 
5: 6666 HEARTS 2 HEARTS 4 ONE_PAIR 
/showdown 

------------



------------


pot-win/ 
1111: 800 
/pot-win 

------------


seat/ 
button: 1111 3300 8000 
small blind: 2222 3700 6000 
big blind: 8888 2100 6000 
5555 3700 6000 
4444 4500 8000 
3333 4100 8000 
7777 4900 4000 
6666 1700 6000 
/seat 

------------


blind/ 
2222: 50 
8888: 100 
/blind 

------------


hold/ 
SPADES 10 
SPADES 5 
/hold 

------------



------------


inquire/ 
2222 3600 6000 100 call 
1111 3200 8000 100 call 
6666 1600 6000 100 call 
7777 4800 4000 100 call 
3333 4000 8000 100 call 
4444 4400 8000 100 call 
5555 3600 6000 100 call 
8888 2000 6000 100 blind 
total pot: 800 
/inquire 

------------



------------


flop/ 
SPADES 7 
SPADES 9 
CLUBS Q 
/flop 

------------



------------


inquire/ 
2222 3600 6000 100 check 
1111 3200 8000 100 call 
6666 1600 6000 100 call 
7777 4800 4000 100 call 
3333 4000 8000 100 call 
4444 4400 8000 100 call 
5555 3600 6000 100 call 
8888 2000 6000 100 check 
total pot: 800 
/inquire 

------------



------------


turn/ 
DIAMONDS A 
/turn 

------------



------------


inquire/ 
2222 3600 6000 100 check 
1111 3200 8000 100 check 
6666 1600 6000 100 check 
7777 4800 4000 100 check 
3333 4000 8000 100 check 
4444 4400 8000 100 check 
5555 3600 6000 100 check 
8888 2000 6000 100 check 
total pot: 800 
/inquire 

------------



------------


river/ 
DIAMONDS 4 
/river 

------------



------------


inquire/ 
2222 3600 6000 100 check 
1111 3200 8000 100 check 
6666 1600 6000 100 check 
7777 4800 4000 100 check 
3333 4000 8000 100 check 
4444 4400 8000 100 check 
5555 3600 6000 100 check 
8888 2000 6000 100 check 
total pot: 800 
/inquire 

------------



------------


showdown/ 
common/ 
SPADES 7 
SPADES 9 
CLUBS Q 
DIAMONDS A 
DIAMONDS 4 
/common 
1: 2222 CLUBS A DIAMONDS 9 TWO_PAIR 
7: 8888 SPADES 10 SPADES 5 HIGH_CARD 
3: 5555 SPADES J CLUBS J ONE_PAIR 
6: 4444 HEARTS K SPADES 3 HIGH_CARD 
2: 3333 HEARTS 3 DIAMONDS Q ONE_PAIR 
4: 7777 DIAMONDS K HEARTS 7 ONE_PAIR 
8: 6666 CLUBS 6 DIAMONDS 3 HIGH_CARD 
5: 1111 HEARTS 2 HEARTS 4 ONE_PAIR 
/showdown 

------------



------------


pot-win/ 
2222: 800 
/pot-win 

------------


seat/ 
button: 2222 4400 6000 
small blind: 8888 2000 6000 
big blind: 5555 3600 6000 
4444 4400 8000 
3333 4000 8000 
7777 4800 4000 
6666 1600 6000 
1111 3200 8000 
/seat 

------------


blind/ 
8888: 50 
5555: 100 
/blind 

------------


hold/ 
CLUBS A 
DIAMONDS 9 
/hold 

------------



------------


inquire/ 
2222 4300 6000 100 call 
1111 3100 8000 100 call 
6666 1500 6000 100 call 
7777 4700 4000 100 call 
3333 3900 8000 100 call 
4444 4300 8000 100 call 
5555 3500 6000 100 blind 
8888 1950 6000 50 blind 
total pot: 750 
/inquire 

------------



------------


flop/ 
SPADES 7 
SPADES 9 
CLUBS Q 
/flop 

------------



------------


inquire/ 
2222 4300 6000 100 call 
1111 3100 8000 100 call 
6666 1500 6000 100 call 
7777 4700 4000 100 call 
3333 3900 8000 100 call 
4444 4300 8000 100 call 
5555 3500 6000 100 check 
8888 1900 6000 100 call 
total pot: 800 
/inquire 

------------



------------


turn/ 
DIAMONDS A 
/turn 

------------



------------


inquire/ 
2222 4300 6000 100 check 
1111 3100 8000 100 check 
6666 1500 6000 100 check 
7777 4700 4000 100 check 
3333 3900 8000 100 check 
4444 4300 8000 100 check 
5555 3500 6000 100 check 
8888 1900 6000 100 check 
total pot: 800 
/inquire 

------------



------------


river/ 
DIAMONDS 4 
/river 

------------



------------


inquire/ 
2222 4300 6000 100 check 
1111 3100 8000 100 check 
6666 1500 6000 100 check 
7777 4700 4000 100 check 
3333 3900 8000 100 check 
4444 4300 8000 100 check 
5555 3500 6000 100 check 
8888 1900 6000 100 check 
total pot: 800 
/inquire 

------------



------------


showdown/ 
common/ 
SPADES 7 
SPADES 9 
CLUBS Q 
DIAMONDS A 
DIAMONDS 4 
/common 
1: 8888 CLUBS A DIAMONDS 9 TWO_PAIR 
7: 5555 SPADES 10 SPADES 5 HIGH_CARD 
3: 4444 SPADES J CLUBS J ONE_PAIR 
6: 3333 HEARTS K SPADES 3 HIGH_CARD 
2: 7777 HEARTS 3 DIAMONDS Q ONE_PAIR 
4: 6666 DIAMONDS K HEARTS 7 ONE_PAIR 
8: 1111 CLUBS 6 DIAMONDS 3 HIGH_CARD 
5: 2222 HEARTS 2 HEARTS 4 ONE_PAIR 
/showdown 

------------



------------


pot-win/ 
8888: 800 
/pot-win 

------------


seat/ 
button: 8888 2700 6000 
small blind: 5555 3500 6000 
big blind: 4444 4300 8000 
3333 3900 8000 
7777 4700 4000 
6666 1500 6000 
1111 3100 8000 
2222 4300 6000 
/seat 

------------


blind/ 
5555: 50 
4444: 100 
/blind 

------------


hold/ 
DIAMONDS 2 
SPADES 8 
/hold 

------------



------------


inquire/ 
2222 4200 6000 100 call 
1111 3000 8000 100 call 
6666 1400 6000 100 call 
7777 4600 4000 100 call 
3333 3800 8000 100 call 
4444 4200 8000 100 blind 
5555 3450 6000 50 blind 
total pot: 650 
/inquire 

------------



------------


flop/ 
CLUBS 5 
CLUBS 3 
DIAMONDS J 
/flop 

------------



------------


inquire/ 
2222 4200 6000 100 check 
1111 3000 8000 100 check 
6666 1400 6000 100 check 
7777 4600 4000 100 check 
3333 3800 8000 100 check 
4444 4200 8000 100 check 
5555 3400 6000 100 check 
8888 2600 6000 100 call 
total pot: 800 
/inquire 

------------



------------


turn/ 
CLUBS 2 
/turn 

------------



------------


inquire/ 
2222 4200 6000 100 check 
1111 3000 8000 100 check 
6666 1400 6000 100 check 
7777 4600 4000 100 check 
3333 3800 8000 100 check 
4444 4200 8000 100 check 
5555 3400 6000 100 check 
8888 2600 6000 100 check 
total pot: 800 
/inquire 

------------



------------


river/ 
CLUBS Q 
/river 

------------



------------


inquire/ 
2222 4200 6000 100 check 
1111 3000 8000 100 check 
6666 1400 6000 100 check 
7777 4600 4000 100 check 
3333 3800 8000 100 check 
4444 4200 8000 100 check 
5555 3400 6000 100 check 
8888 2600 6000 100 check 
total pot: 800 
/inquire 

------------



------------


showdown/ 
common/ 
CLUBS 5 
CLUBS 3 
DIAMONDS J 
CLUBS 2 
CLUBS Q 
/common 
3: 5555 HEARTS 8 CLUBS 4 FLUSH 
1: 4444 DIAMONDS K CLUBS 10 FLUSH 
8: 3333 DIAMONDS 6 DIAMONDS 10 HIGH_CARD 
2: 7777 DIAMONDS 4 CLUBS 7 FLUSH 
7: 6666 DIAMONDS 8 DIAMONDS A HIGH_CARD 
5: 1111 SPADES 9 DIAMONDS 3 ONE_PAIR 
4: 2222 HEARTS 7 HEARTS 5 ONE_PAIR 
6: 8888 DIAMONDS 2 SPADES 8 ONE_PAIR 
/showdown 

------------



------------


pot-win/ 
4444: 800 
/pot-win 

------------


seat/ 
button: 5555 3400 6000 
small blind: 4444 5000 8000 
big blind: 3333 3800 8000 
7777 4600 4000 
6666 1400 6000 
1111 3000 8000 
2222 4200 6000 
8888 2600 6000 
/seat 

------------


blind/ 
4444: 50 
3333: 100 
/blind 

------------


hold/ 
HEARTS 7 
HEARTS 5 
/hold 

------------



------------


inquire/ 
2222 4100 6000 100 call 
1111 2900 8000 100 call 
6666 1300 6000 100 call 
7777 4500 4000 100 call 
3333 3700 8000 100 blind 
4444 4950 8000 50 blind 
total pot: 550 
/inquire 

------------



------------


flop/ 
CLUBS 5 
CLUBS 3 
DIAMONDS J 
/flop 

------------



------------


inquire/ 
2222 4100 6000 100 check 
1111 2900 8000 100 check 
6666 1300 6000 100 check 
7777 4500 4000 100 check 
3333 3700 8000 100 check 
4444 4900 8000 100 check 
5555 3300 6000 100 call 
8888 2500 6000 100 call 
total pot: 800 
/inquire 

------------



------------


turn/ 
CLUBS 2 
/turn 

------------



------------


inquire/ 
2222 4100 6000 100 check 
1111 2900 8000 100 check 
6666 1300 6000 100 check 
7777 4500 4000 100 check 
3333 3700 8000 100 check 
4444 4900 8000 100 check 
5555 3300 6000 100 check 
8888 2500 6000 100 check 
total pot: 800 
/inquire 

------------



------------


river/ 
CLUBS Q 
/river 

------------



------------


inquire/ 
2222 4100 6000 100 check 
1111 2900 8000 100 check 
6666 1300 6000 100 check 
7777 4500 4000 100 check 
3333 3700 8000 100 check 
4444 4900 8000 100 check 
5555 3300 6000 100 check 
8888 2500 6000 100 check 
total pot: 800 
/inquire 

------------



------------


showdown/ 
common/ 
CLUBS 5 
CLUBS 3 
DIAMONDS J 
CLUBS 2 
CLUBS Q 
/common 
3: 4444 HEARTS 8 CLUBS 4 FLUSH 
1: 3333 DIAMONDS K CLUBS 10 FLUSH 
8: 7777 DIAMONDS 6 DIAMONDS 10 HIGH_CARD 
2: 6666 DIAMONDS 4 CLUBS 7 FLUSH 
7: 1111 DIAMONDS 8 DIAMONDS A HIGH_CARD 
5: 2222 SPADES 9 DIAMONDS 3 ONE_PAIR 
4: 8888 HEARTS 7 HEARTS 5 ONE_PAIR 
6: 5555 DIAMONDS 2 SPADES 8 ONE_PAIR 
/showdown 

------------



------------


pot-win/ 
3333: 800 
/pot-win 

------------


seat/ 
button: 4444 4900 8000 
small blind: 3333 4500 8000 
big blind: 7777 4500 4000 
6666 1300 6000 
1111 2900 8000 
2222 4100 6000 
8888 2500 6000 
5555 3300 6000 
/seat 

------------


blind/ 
3333: 50 
7777: 100 
/blind 

------------


hold/ 
SPADES 9 
DIAMONDS 3 
/hold 

------------



------------


inquire/ 
2222 4000 6000 100 call 
1111 2800 8000 100 call 
6666 1200 6000 100 call 
7777 4400 4000 100 blind 
3333 4450 8000 50 blind 
total pot: 450 
/inquire 

------------



------------


flop/ 
CLUBS 5 
CLUBS 3 
DIAMONDS J 
/flop 

------------



------------


inquire/ 
2222 4000 6000 100 check 
1111 2800 8000 100 check 
6666 1200 6000 100 check 
7777 4400 4000 100 check 
3333 4400 8000 100 check 
4444 4800 8000 100 call 
5555 3200 6000 100 call 
8888 2400 6000 100 call 
total pot: 800 
/inquire 

------------



------------


turn/ 
CLUBS 2 
/turn 

------------



------------


inquire/ 
2222 4000 6000 100 check 
1111 2800 8000 100 check 
6666 1200 6000 100 check 
7777 4400 4000 100 check 
3333 4400 8000 100 check 
4444 4800 8000 100 check 
5555 3200 6000 100 check 
8888 2400 6000 100 check 
total pot: 800 
/inquire 

------------



------------


river/ 
CLUBS Q 
/river 

------------



------------


inquire/ 
2222 4000 6000 100 check 
1111 2800 8000 100 check 
6666 1200 6000 100 check 
7777 4400 4000 100 check 
3333 4400 8000 100 check 
4444 4800 8000 100 check 
5555 3200 6000 100 check 
8888 2400 6000 100 check 
total pot: 800 
/inquire 

------------



------------


showdown/ 
common/ 
CLUBS 5 
CLUBS 3 
DIAMONDS J 
CLUBS 2 
CLUBS Q 
/common 
3: 3333 HEARTS 8 CLUBS 4 FLUSH 
1: 7777 DIAMONDS K CLUBS 10 FLUSH 
8: 6666 DIAMONDS 6 DIAMONDS 10 HIGH_CARD 
2: 1111 DIAMONDS 4 CLUBS 7 FLUSH 
7: 2222 DIAMONDS 8 DIAMONDS A HIGH_CARD 
5: 8888 SPADES 9 DIAMONDS 3 ONE_PAIR 
4: 5555 HEARTS 7 HEARTS 5 ONE_PAIR 
6: 4444 DIAMONDS 2 SPADES 8 ONE_PAIR 
/showdown 

------------



------------


pot-win/ 
7777: 800 
/pot-win 

------------


seat/ 
button: 3333 4400 8000 
small blind: 7777 5200 4000 
big blind: 6666 1200 6000 
1111 2800 8000 
2222 4000 6000 
8888 2400 6000 
5555 3200 6000 
4444 4800 8000 
/seat 

------------


blind/ 
7777: 50 
6666: 100 
/blind 

------------


hold/ 
DIAMONDS 8 
DIAMONDS A 
/hold 

------------


inquire/ 
2222 3900 6000 100 call 
1111 2700 8000 100 call 
6666 1100 6000 100 blind 
7777 5150 4000 50 blind 
total pot: 350 
/inquire 

------------



------------


flop/ 
CLUBS 5 
CLUBS 3 
DIAMONDS J 
/flop 

------------



------------


inquire/ 
2222 3900 6000 100 check 
1111 2700 8000 100 check 
6666 1100 6000 100 check 
7777 5100 4000 100 check 
3333 4300 8000 100 call 
4444 4700 8000 100 call 
5555 3100 6000 100 call 
8888 2300 6000 100 call 
total pot: 800 
/inquire 

------------



------------


turn/ 
CLUBS 2 
/turn 

------------



------------


inquire/ 
2222 3900 6000 100 check 
1111 2700 8000 100 check 
6666 1100 6000 100 check 
7777 5100 4000 100 check 
3333 4300 8000 100 check 
4444 4700 8000 100 check 
5555 3100 6000 100 check 
8888 2300 6000 100 check 
total pot: 800 
/inquire 

------------



------------


river/ 
CLUBS Q 
/river 

------------



------------


inquire/ 
2222 3900 6000 100 check 
1111 2700 8000 100 check 
6666 1100 6000 100 check 
7777 5100 4000 100 check 
3333 4300 8000 100 check 
4444 4700 8000 100 check 
5555 3100 6000 100 check 
8888 2300 6000 100 check 
total pot: 800 
/inquire 

------------



------------


showdown/ 
common/ 
CLUBS 5 
CLUBS 3 
DIAMONDS J 
CLUBS 2 
CLUBS Q 
/common 
3: 7777 HEARTS 8 CLUBS 4 FLUSH 
1: 6666 DIAMONDS K CLUBS 10 FLUSH 
8: 1111 DIAMONDS 6 DIAMONDS 10 HIGH_CARD 
2: 2222 DIAMONDS 4 CLUBS 7 FLUSH 
7: 8888 DIAMONDS 8 DIAMONDS A HIGH_CARD 
5: 5555 SPADES 9 DIAMONDS 3 ONE_PAIR 
4: 4444 HEARTS 7 HEARTS 5 ONE_PAIR 
6: 3333 DIAMONDS 2 SPADES 8 ONE_PAIR 
/showdown 

------------



------------


pot-win/ 
6666: 800 
/pot-win 

------------


seat/ 
button: 7777 5100 4000 
small blind: 6666 1900 6000 
big blind: 1111 2700 8000 
2222 3900 6000 
8888 2300 6000 
5555 3100 6000 
4444 4700 8000 
3333 4300 8000 
/seat 

------------


blind/ 
6666: 50 
1111: 100 
/blind 

------------


hold/ 
DIAMONDS 4 
CLUBS 7 
/hold 

------------



------------


inquire/ 
2222 3800 6000 100 call 
1111 2600 8000 100 blind 
6666 1850 6000 50 blind 
total pot: 250 
/inquire 

------------



------------


flop/ 
CLUBS 5 
CLUBS 3 
DIAMONDS J 
/flop 

------------



------------


inquire/ 
2222 3800 6000 100 check 
1111 2600 8000 100 check 
6666 1800 6000 100 check 
7777 5000 4000 100 call 
3333 4200 8000 100 call 
4444 4600 8000 100 call 
5555 3000 6000 100 call 
8888 2200 6000 100 call 
total pot: 800 
/inquire 

------------



------------


turn/ 
CLUBS 2 
/turn 

------------



------------


inquire/ 
2222 3800 6000 100 check 
1111 2600 8000 100 check 
6666 1800 6000 100 check 
7777 5000 4000 100 check 
3333 4200 8000 100 check 
4444 4600 8000 100 check 
5555 3000 6000 100 check 
8888 2200 6000 100 check 
total pot: 800 
/inquire 

------------



------------


river/ 
CLUBS Q 
/river 

------------



------------


inquire/ 
2222 3800 6000 100 check 
1111 2600 8000 100 check 
6666 1800 6000 100 check 
7777 5000 4000 100 check 
3333 4200 8000 100 check 
4444 4600 8000 100 check 
5555 3000 6000 100 check 
8888 2200 6000 100 check 
total pot: 800 
/inquire 

------------



------------


showdown/ 
common/ 
CLUBS 5 
CLUBS 3 
DIAMONDS J 
CLUBS 2 
CLUBS Q 
/common 
3: 6666 HEARTS 8 CLUBS 4 FLUSH 
1: 1111 DIAMONDS K CLUBS 10 FLUSH 
8: 2222 DIAMONDS 6 DIAMONDS 10 HIGH_CARD 
2: 8888 DIAMONDS 4 CLUBS 7 FLUSH 
7: 5555 DIAMONDS 8 DIAMONDS A HIGH_CARD 
5: 4444 SPADES 9 DIAMONDS 3 ONE_PAIR 
4: 3333 HEARTS 7 HEARTS 5 ONE_PAIR 
6: 7777 DIAMONDS 2 SPADES 8 ONE_PAIR 
/showdown 

------------



------------


pot-win/ 
1111: 800 
/pot-win 

------------


seat/ 
button: 6666 1800 6000 
small blind: 1111 3400 8000 
big blind: 2222 3800 6000 
8888 2200 6000 
5555 3000 6000 
4444 4600 8000 
3333 4200 8000 
7777 5000 4000 
/seat 

------------


blind/ 
1111: 50 
2222: 100 
/blind 

------------


hold/ 
HEARTS 6 
SPADES 6 
/hold 

------------


inquire/ 
2222 3700 6000 100 blind 
1111 3350 8000 50 blind 
total pot: 150 
/inquire 

------------



------------


flop/ 
DIAMONDS K 
HEARTS 2 
CLUBS 7 
/flop 

------------



------------


inquire/ 
2222 3700 6000 100 check 
1111 3300 8000 100 check 
6666 1700 6000 100 call 
7777 4900 4000 100 call 
3333 4100 8000 100 call 
4444 4500 8000 100 call 
5555 2900 6000 100 call 
8888 2100 6000 100 call 
total pot: 800 
/inquire 

------------



------------


turn/ 
SPADES 5 
/turn 

------------



------------


inquire/ 
2222 3700 6000 100 check 
1111 3300 8000 100 check 
6666 1700 6000 100 check 
7777 4900 4000 100 check 
3333 4100 8000 100 check 
4444 4500 8000 100 check 
5555 2900 6000 100 check 
8888 2100 6000 100 check 
total pot: 800 
/inquire 

------------



------------


river/ 
CLUBS 5 
/river 

------------



------------


inquire/ 
2222 3700 6000 100 check 
1111 3300 8000 100 check 
6666 1700 6000 100 check 
7777 4900 4000 100 check 
3333 4100 8000 100 check 
4444 4500 8000 100 check 
5555 2900 6000 100 check 
8888 2100 6000 100 check 
total pot: 800 
/inquire 

------------



------------


showdown/ 
common/ 
DIAMONDS K 
HEARTS 2 
CLUBS 7 
SPADES 5 
CLUBS 5 
/common 
4: 1111 CLUBS 2 HEARTS 8 TWO_PAIR 
6: 2222 HEARTS J HEARTS 9 ONE_PAIR 
3: 8888 HEARTS 6 SPADES 6 TWO_PAIR 
5: 5555 SPADES A SPADES 8 ONE_PAIR 
2: 4444 HEARTS 5 HEARTS 3 THREE_OF_A_KIND 
1: 3333 CLUBS 10 DIAMONDS 5 THREE_OF_A_KIND 
6: 7777 SPADES 9 DIAMONDS J ONE_PAIR 
7: 6666 CLUBS 4 HEARTS 10 ONE_PAIR 
/showdown 

------------



------------


pot-win/ 
3333: 800 
/pot-win 

------------


seat/ 
button: 1111 3300 8000 
small blind: 2222 3700 6000 
big blind: 8888 2100 6000 
5555 2900 6000 
4444 4500 8000 
3333 4900 8000 
7777 4900 4000 
6666 1700 6000 
/seat 

------------


blind/ 
2222: 50 
8888: 100 
/blind 

------------


hold/ 
HEARTS J 
HEARTS 9 
/hold 

------------



------------


inquire/ 
2222 3600 6000 100 call 
1111 3200 8000 100 call 
6666 1600 6000 100 call 
7777 4800 4000 100 call 
3333 4800 8000 100 call 
4444 4400 8000 100 call 
5555 2800 6000 100 call 
8888 2000 6000 100 blind 
total pot: 800 
/inquire 

------------



------------


flop/ 
DIAMONDS K 
HEARTS 2 
CLUBS 7 
/flop 

------------



------------


inquire/ 
2222 3600 6000 100 check 
1111 3200 8000 100 call 
6666 1600 6000 100 call 
7777 4800 4000 100 call 
3333 4800 8000 100 call 
4444 4400 8000 100 call 
5555 2800 6000 100 call 
8888 2000 6000 100 check 
total pot: 800 
/inquire 

------------



------------


turn/ 
SPADES 5 
/turn 

------------



------------


inquire/ 
2222 3600 6000 100 check 
1111 3200 8000 100 check 
6666 1600 6000 100 check 
7777 4800 4000 100 check 
3333 4800 8000 100 check 
4444 4400 8000 100 check 
5555 2800 6000 100 check 
8888 2000 6000 100 check 
total pot: 800 
/inquire 

------------



------------


river/ 
CLUBS 5 
/river 

------------



------------


inquire/ 
2222 3600 6000 100 check 
1111 3200 8000 100 check 
6666 1600 6000 100 check 
7777 4800 4000 100 check 
3333 4800 8000 100 check 
4444 4400 8000 100 check 
5555 2800 6000 100 check 
8888 2000 6000 100 check 
total pot: 800 
/inquire 

------------



------------


showdown/ 
common/ 
DIAMONDS K 
HEARTS 2 
CLUBS 7 
SPADES 5 
CLUBS 5 
/common 
4: 2222 CLUBS 2 HEARTS 8 TWO_PAIR 
6: 8888 HEARTS J HEARTS 9 ONE_PAIR 
3: 5555 HEARTS 6 SPADES 6 TWO_PAIR 
5: 4444 SPADES A SPADES 8 ONE_PAIR 
2: 3333 HEARTS 5 HEARTS 3 THREE_OF_A_KIND 
1: 7777 CLUBS 10 DIAMONDS 5 THREE_OF_A_KIND 
6: 6666 SPADES 9 DIAMONDS J ONE_PAIR 
7: 1111 CLUBS 4 HEARTS 10 ONE_PAIR 
/showdown 

------------



------------


pot-win/ 
7777: 800 
/pot-win 

------------


seat/ 
button: 2222 3600 6000 
small blind: 8888 2000 6000 
big blind: 5555 2800 6000 
4444 4400 8000 
3333 4800 8000 
7777 5600 4000 
6666 1600 6000 
1111 3200 8000 
/seat 

------------


blind/ 
8888: 50 
5555: 100 
/blind 

------------


hold/ 
CLUBS 2 
HEARTS 8 
/hold 

------------



------------


inquire/ 
2222 3500 6000 100 call 
1111 3100 8000 100 call 
6666 1500 6000 100 call 
7777 5500 4000 100 call 
3333 4700 8000 100 call 
4444 4300 8000 100 call 
5555 2700 6000 100 blind 
8888 1950 6000 50 blind 
total pot: 750 
/inquire 

------------



------------


flop/ 
DIAMONDS K 
HEARTS 2 
CLUBS 7 
/flop 

------------



------------


inquire/ 
2222 3500 6000 100 call 
1111 3100 8000 100 call 
6666 1500 6000 100 call 
7777 5500 4000 100 call 
3333 4700 8000 100 call 
4444 4300 8000 100 call 
5555 2700 6000 100 check 
8888 1900 6000 100 call 
total pot: 800 
/inquire 

------------



------------


turn/ 
SPADES 5 
/turn 

------------



------------


inquire/ 
2222 3500 6000 100 check 
1111 3100 8000 100 check 
6666 1500 6000 100 check 
7777 5500 4000 100 check 
3333 4700 8000 100 check 
4444 4300 8000 100 check 
5555 2700 6000 100 check 
8888 1900 6000 100 check 
total pot: 800 
/inquire 

------------



------------


river/ 
CLUBS 5 
/river 

------------



------------


inquire/ 
2222 3500 6000 100 check 
1111 3100 8000 100 check 
6666 1500 6000 100 check 
7777 5500 4000 100 check 
3333 4700 8000 100 check 
4444 4300 8000 100 check 
5555 2700 6000 100 check 
8888 1900 6000 100 check 
total pot: 800 
/inquire 

------------



------------


showdown/ 
common/ 
DIAMONDS K 
HEARTS 2 
CLUBS 7 
SPADES 5 
CLUBS 5 
/common 
4: 8888 CLUBS 2 HEARTS 8 TWO_PAIR 
6: 5555 HEARTS J HEARTS 9 ONE_PAIR 
3: 4444 HEARTS 6 SPADES 6 TWO_PAIR 
5: 3333 SPADES A SPADES 8 ONE_PAIR 
2: 7777 HEARTS 5 HEARTS 3 THREE_OF_A_KIND 
1: 6666 CLUBS 10 DIAMONDS 5 THREE_OF_A_KIND 
6: 1111 SPADES 9 DIAMONDS J ONE_PAIR 
7: 2222 CLUBS 4 HEARTS 10 ONE_PAIR 
/showdown 

------------



------------


pot-win/ 
6666: 800 
/pot-win 

------------


seat/ 
button: 8888 1900 6000 
small blind: 5555 2700 6000 
big blind: 4444 4300 8000 
3333 4700 8000 
7777 5500 4000 
6666 2300 6000 
1111 3100 8000 
2222 3500 6000 
/seat 

------------


blind/ 
5555: 50 
4444: 100 
/blind 

------------


hold/ 
CLUBS 4 
HEARTS 10 
/hold 

------------



------------


inquire/ 
2222 3400 6000 100 call 
1111 3000 8000 100 call 
6666 2200 6000 100 call 
7777 5400 4000 100 call 
3333 4600 8000 100 call 
4444 4200 8000 100 blind 
5555 2650 6000 50 blind 
total pot: 650 
/inquire 

------------



------------


flop/ 
DIAMONDS K 
HEARTS 2 
CLUBS 7 
/flop 

------------



------------


inquire/ 
2222 3400 6000 100 check 
1111 3000 8000 100 check 
6666 2200 6000 100 check 
7777 5400 4000 100 check 
3333 4600 8000 100 check 
4444 4200 8000 100 check 
5555 2600 6000 100 check 
8888 1800 6000 100 call 
total pot: 800 
/inquire 

------------



------------


turn/ 
SPADES 5 
/turn 

------------



------------


inquire/ 
2222 3400 6000 100 check 
1111 3000 8000 100 check 
6666 2200 6000 100 check 
7777 5400 4000 100 check 
3333 4600 8000 100 check 
4444 4200 8000 100 check 
5555 2600 6000 100 check 
8888 1800 6000 100 check 
total pot: 800 
/inquire 

------------



------------


river/ 
CLUBS 5 
/river 

------------



------------


inquire/ 
2222 3400 6000 100 check 
1111 3000 8000 100 check 
6666 2200 6000 100 check 
7777 5400 4000 100 check 
3333 4600 8000 100 check 
4444 4200 8000 100 check 
5555 2600 6000 100 check 
8888 1800 6000 100 check 
total pot: 800 
/inquire 

------------



------------


showdown/ 
common/ 
DIAMONDS K 
HEARTS 2 
CLUBS 7 
SPADES 5 
CLUBS 5 
/common 
4: 5555 CLUBS 2 HEARTS 8 TWO_PAIR 
6: 4444 HEARTS J HEARTS 9 ONE_PAIR 
3: 3333 HEARTS 6 SPADES 6 TWO_PAIR 
5: 7777 SPADES A SPADES 8 ONE_PAIR 
2: 6666 HEARTS 5 HEARTS 3 THREE_OF_A_KIND 
1: 1111 CLUBS 10 DIAMONDS 5 THREE_OF_A_KIND 
6: 2222 SPADES 9 DIAMONDS J ONE_PAIR 
7: 8888 CLUBS 4 HEARTS 10 ONE_PAIR 
/showdown 

------------



------------


pot-win/ 
1111: 800 
/pot-win 

------------


seat/ 
button: 5555 2600 6000 
small blind: 4444 4200 8000 
big blind: 3333 4600 8000 
7777 5400 4000 
6666 2200 6000 
1111 3800 8000 
2222 3400 6000 
8888 1800 6000 
/seat 

------------


blind/ 
4444: 50 
3333: 100 
/blind 

------------


hold/ 
SPADES 9 
DIAMONDS J 
/hold 

------------



------------


inquire/ 
2222 3300 6000 100 call 
1111 3700 8000 100 call 
6666 2100 6000 100 call 
7777 5300 4000 100 call 
3333 4500 8000 100 blind 
4444 4150 8000 50 blind 
total pot: 550 
/inquire 

------------



------------


flop/ 
DIAMONDS K 
HEARTS 2 
CLUBS 7 
/flop 

------------



------------


inquire/ 
2222 3300 6000 100 check 
1111 3700 8000 100 check 
6666 2100 6000 100 check 
7777 5300 4000 100 check 
3333 4500 8000 100 check 
4444 4100 8000 100 check 
5555 2500 6000 100 call 
8888 1700 6000 100 call 
total pot: 800 
/inquire 

------------



------------


turn/ 
SPADES 5 
/turn 

------------



------------


inquire/ 
2222 3300 6000 100 check 
1111 3700 8000 100 check 
6666 2100 6000 100 check 
7777 5300 4000 100 check 
3333 4500 8000 100 check 
4444 4100 8000 100 check 
5555 2500 6000 100 check 
8888 1700 6000 100 check 
total pot: 800 
/inquire 

------------



------------


river/ 
CLUBS 5 
/river 

------------



------------


inquire/ 
2222 3300 6000 100 check 
1111 3700 8000 100 check 
6666 2100 6000 100 check 
7777 5300 4000 100 check 
3333 4500 8000 100 check 
4444 4100 8000 100 check 
5555 2500 6000 100 check 
8888 1700 6000 100 check 
total pot: 800 
/inquire 

------------



------------


showdown/ 
common/ 
DIAMONDS K 
HEARTS 2 
CLUBS 7 
SPADES 5 
CLUBS 5 
/common 
4: 4444 CLUBS 2 HEARTS 8 TWO_PAIR 
6: 3333 HEARTS J HEARTS 9 ONE_PAIR 
3: 7777 HEARTS 6 SPADES 6 TWO_PAIR 
5: 6666 SPADES A SPADES 8 ONE_PAIR 
2: 1111 HEARTS 5 HEARTS 3 THREE_OF_A_KIND 
1: 2222 CLUBS 10 DIAMONDS 5 THREE_OF_A_KIND 
6: 8888 SPADES 9 DIAMONDS J ONE_PAIR 
7: 5555 CLUBS 4 HEARTS 10 ONE_PAIR 
/showdown 

------------



------------


pot-win/ 
2222: 800 
/pot-win 

------------


seat/ 
button: 4444 4100 8000 
small blind: 3333 4500 8000 
big blind: 7777 5300 4000 
6666 2100 6000 
1111 3700 8000 
2222 4100 6000 
8888 1700 6000 
5555 2500 6000 
/seat 

------------


blind/ 
3333: 50 
7777: 100 
/blind 

------------


hold/ 
CLUBS 10 
DIAMONDS 5 
/hold 

------------



------------


inquire/ 
2222 4000 6000 100 call 
1111 3600 8000 100 call 
6666 2000 6000 100 call 
7777 5200 4000 100 blind 
3333 4450 8000 50 blind 
total pot: 450 
/inquire 

------------



------------


flop/ 
DIAMONDS K 
HEARTS 2 
CLUBS 7 
/flop 

------------



------------


inquire/ 
2222 4000 6000 100 check 
1111 3600 8000 100 check 
6666 2000 6000 100 check 
7777 5200 4000 100 check 
3333 4400 8000 100 check 
4444 4000 8000 100 call 
5555 2400 6000 100 call 
8888 1600 6000 100 call 
total pot: 800 
/inquire 

------------



------------


turn/ 
SPADES 5 
/turn 

------------



------------


inquire/ 
2222 4000 6000 100 check 
1111 3600 8000 100 check 
6666 2000 6000 100 check 
7777 5200 4000 100 check 
3333 4400 8000 100 check 
4444 4000 8000 100 check 
5555 2400 6000 100 check 
8888 1600 6000 100 check 
total pot: 800 
/inquire 

------------



------------


river/ 
CLUBS 5 
/river 

------------



------------


inquire/ 
2222 4000 6000 100 check 
1111 3600 8000 100 check 
6666 2000 6000 100 check 
7777 5200 4000 100 check 
3333 4400 8000 100 check 
4444 4000 8000 100 check 
5555 2400 6000 100 check 
8888 1600 6000 100 check 
total pot: 800 
/inquire 

------------



------------


showdown/ 
common/ 
DIAMONDS K 
HEARTS 2 
CLUBS 7 
SPADES 5 
CLUBS 5 
/common 
4: 3333 CLUBS 2 HEARTS 8 TWO_PAIR 
6: 7777 HEARTS J HEARTS 9 ONE_PAIR 
3: 6666 HEARTS 6 SPADES 6 TWO_PAIR 
5: 1111 SPADES A SPADES 8 ONE_PAIR 
2: 2222 HEARTS 5 HEARTS 3 THREE_OF_A_KIND 
1: 8888 CLUBS 10 DIAMONDS 5 THREE_OF_A_KIND 
6: 5555 SPADES 9 DIAMONDS J ONE_PAIR 
7: 4444 CLUBS 4 HEARTS 10 ONE_PAIR 
/showdown 

------------



------------


pot-win/ 
8888: 800 
/pot-win 

------------


seat/ 
button: 3333 4400 8000 
small blind: 7777 5200 4000 
big blind: 6666 2000 6000 
1111 3600 8000 
2222 4000 6000 
8888 2400 6000 
5555 2400 6000 
4444 4000 8000 
/seat 

------------


blind/ 
7777: 50 
6666: 100 
/blind 

------------


hold/ 
SPADES K 
HEARTS 10 
/hold 

------------



------------


inquire/ 
2222 3900 6000 100 call 
1111 3500 8000 100 call 
6666 1900 6000 100 blind 
7777 5150 4000 50 blind 
total pot: 350 
/inquire 

------------



------------


flop/ 
CLUBS 2 
CLUBS 6 
HEARTS 4 
/flop 

------------



------------


inquire/ 
2222 3900 6000 100 check 
1111 3500 8000 100 check 
6666 1900 6000 100 check 
7777 5100 4000 100 check 
3333 4300 8000 100 call 
4444 3900 8000 100 call 
5555 2300 6000 100 call 
8888 2300 6000 100 call 
total pot: 800 
/inquire 

------------



------------


turn/ 
DIAMONDS 2 
/turn 

------------



------------


inquire/ 
2222 3900 6000 100 check 
1111 3500 8000 100 check 
6666 1900 6000 100 check 
7777 5100 4000 100 check 
3333 4300 8000 100 check 
4444 3900 8000 100 check 
5555 2300 6000 100 check 
8888 2300 6000 100 check 
total pot: 800 
/inquire 

------------



------------


river/ 
HEARTS 3 
/river 

------------



------------


inquire/ 
2222 3900 6000 100 check 
1111 3500 8000 100 check 
6666 1900 6000 100 check 
7777 5100 4000 100 check 
3333 4300 8000 100 check 
4444 3900 8000 100 check 
5555 2300 6000 100 check 
8888 2300 6000 100 check 
total pot: 800 
/inquire 

------------



------------


showdown/ 
common/ 
CLUBS 2 
CLUBS 6 
HEARTS 4 
DIAMONDS 2 
HEARTS 3 
/common 
1: 7777 HEARTS 9 HEARTS 5 STRAIGHT 
6: 6666 CLUBS 7 HEARTS J ONE_PAIR 
1: 1111 HEARTS A CLUBS 5 STRAIGHT 
7: 2222 SPADES 7 DIAMONDS 8 ONE_PAIR 
4: 8888 SPADES K HEARTS 10 ONE_PAIR 
2: 5555 SPADES 3 CLUBS K TWO_PAIR 
3: 4444 CLUBS 3 SPADES 10 TWO_PAIR 
5: 3333 DIAMONDS J DIAMONDS 9 ONE_PAIR 
/showdown 

------------



------------


pot-win/ 
7777: 400 
1111: 400 
/pot-win 

------------


seat/ 
button: 7777 5500 4000 
small blind: 6666 1900 6000 
big blind: 1111 3900 8000 
2222 3900 6000 
8888 2300 6000 
5555 2300 6000 
4444 3900 8000 
3333 4300 8000 
/seat 

------------


blind/ 
6666: 50 
1111: 100 
/blind 

------------


hold/ 
SPADES 7 
DIAMONDS 8 
/hold 

------------


inquire/ 
2222 3800 6000 100 call 
1111 3800 8000 100 blind 
6666 1850 6000 50 blind 
total pot: 250 
/inquire 

------------



------------


flop/ 
CLUBS 2 
CLUBS 6 
HEARTS 4 
/flop 

------------



------------


inquire/ 
2222 3800 6000 100 check 
1111 3800 8000 100 check 
6666 1800 6000 100 check 
7777 5400 4000 100 call 
3333 4200 8000 100 call 
4444 3800 8000 100 call 
5555 2200 6000 100 call 
8888 2200 6000 100 call 
total pot: 800 
/inquire 

------------



------------


turn/ 
DIAMONDS 2 
/turn 

------------



------------


inquire/ 
2222 3800 6000 100 check 
1111 3800 8000 100 check 
6666 1800 6000 100 check 
7777 5400 4000 100 check 
3333 4200 8000 100 check 
4444 3800 8000 100 check 
5555 2200 6000 100 check 
8888 2200 6000 100 check 
total pot: 800 
/inquire 

------------



------------


river/ 
HEARTS 3 
/river 

------------



------------


inquire/ 
2222 3800 6000 100 check 
1111 3800 8000 100 check 
6666 1800 6000 100 check 
7777 5400 4000 100 check 
3333 4200 8000 100 check 
4444 3800 8000 100 check 
5555 2200 6000 100 check 
8888 2200 6000 100 check 
total pot: 800 
/inquire 

------------



------------


showdown/ 
common/ 
CLUBS 2 
CLUBS 6 
HEARTS 4 
DIAMONDS 2 
HEARTS 3 
/common 
1: 6666 HEARTS 9 HEARTS 5 STRAIGHT 
6: 1111 CLUBS 7 HEARTS J ONE_PAIR 
1: 2222 HEARTS A CLUBS 5 STRAIGHT 
7: 8888 SPADES 7 DIAMONDS 8 ONE_PAIR 
4: 5555 SPADES K HEARTS 10 ONE_PAIR 
2: 4444 SPADES 3 CLUBS K TWO_PAIR 
3: 3333 CLUBS 3 SPADES 10 TWO_PAIR 
5: 7777 DIAMONDS J DIAMONDS 9 ONE_PAIR 
/showdown 

------------



------------


pot-win/ 
6666: 400 
2222: 400 
/pot-win 

------------


seat/ 
button: 6666 2200 6000 
small blind: 1111 3800 8000 
big blind: 2222 4200 6000 
8888 2200 6000 
5555 2200 6000 
4444 3800 8000 
3333 4200 8000 
7777 5400 4000 
/seat 

------------


blind/ 
1111: 50 
2222: 100 
/blind 

------------


hold/ 
HEARTS A 
CLUBS 5 
/hold 

------------


inquire/ 
2222 4100 6000 100 blind 
1111 3750 8000 50 blind 
total pot: 150 
/inquire 

------------



------------


flop/ 
CLUBS 2 
CLUBS 6 
HEARTS 4 
/flop 

------------



------------


inquire/ 
2222 4100 6000 100 check 
1111 3700 8000 100 check 
6666 2100 6000 100 call 
7777 5300 4000 100 call 
3333 4100 8000 100 call 
4444 3700 8000 100 call 
5555 2100 6000 100 call 
8888 2100 6000 100 call 
total pot: 800 
/inquire 

------------



------------


turn/ 
DIAMONDS 2 
/turn 

------------



------------


inquire/ 
2222 4100 6000 100 check 
1111 3700 8000 100 check 
6666 2100 6000 100 check 
7777 5300 4000 100 check 
3333 4100 8000 100 check 
4444 3700 8000 100 check 
5555 2100 6000 100 check 
8888 2100 6000 100 check 
total pot: 800 
/inquire 

------------



------------


river/ 
HEARTS 3 
/river 

------------



------------


inquire/ 
2222 4100 6000 100 check 
1111 3700 8000 100 check 
6666 2100 6000 100 check 
7777 5300 4000 100 check 
3333 4100 8000 100 check 
4444 3700 8000 100 check 
5555 2100 6000 100 check 
8888 2100 6000 100 check 
total pot: 800 
/inquire 

------------



------------


showdown/ 
common/ 
CLUBS 2 
CLUBS 6 
HEARTS 4 
DIAMONDS 2 
HEARTS 3 
/common 
1: 1111 HEARTS 9 HEARTS 5 STRAIGHT 
6: 2222 CLUBS 7 HEARTS J ONE_PAIR 
1: 8888 HEARTS A CLUBS 5 STRAIGHT 
7: 5555 SPADES 7 DIAMONDS 8 ONE_PAIR 
4: 4444 SPADES K HEARTS 10 ONE_PAIR 
2: 3333 SPADES 3 CLUBS K TWO_PAIR 
3: 7777 CLUBS 3 SPADES 10 TWO_PAIR 
5: 6666 DIAMONDS J DIAMONDS 9 ONE_PAIR 
/showdown 

------------



------------


pot-win/ 
1111: 400 
8888: 400 
/pot-win 

------------


seat/ 
button: 1111 4100 8000 
small blind: 2222 4100 6000 
big blind: 8888 2500 6000 
5555 2100 6000 
4444 3700 8000 
3333 4100 8000 
7777 5300 4000 
6666 2100 6000 
/seat 

------------


blind/ 
2222: 50 
8888: 100 
/blind 

------------


hold/ 
CLUBS 7 
HEARTS J 
/hold 

------------



------------


inquire/ 
2222 4000 6000 100 call 
1111 4000 8000 100 call 
6666 2000 6000 100 call 
7777 5200 4000 100 call 
3333 4000 8000 100 call 
4444 3600 8000 100 call 
5555 2000 6000 100 call 
8888 2400 6000 100 blind 
total pot: 800 
/inquire 

------------



------------


flop/ 
CLUBS 2 
CLUBS 6 
HEARTS 4 
/flop 

------------



------------


inquire/ 
2222 4000 6000 100 check 
1111 4000 8000 100 call 
6666 2000 6000 100 call 
7777 5200 4000 100 call 
3333 4000 8000 100 call 
4444 3600 8000 100 call 
5555 2000 6000 100 call 
8888 2400 6000 100 check 
total pot: 800 
/inquire 

------------



------------


turn/ 
DIAMONDS 2 
/turn 

------------



------------


inquire/ 
2222 4000 6000 100 check 
1111 4000 8000 100 check 
6666 2000 6000 100 check 
7777 5200 4000 100 check 
3333 4000 8000 100 check 
4444 3600 8000 100 check 
5555 2000 6000 100 check 
8888 2400 6000 100 check 
total pot: 800 
/inquire 

------------



------------


river/ 
HEARTS 3 
/river 

------------



------------


inquire/ 
2222 4000 6000 100 check 
1111 4000 8000 100 check 
6666 2000 6000 100 check 
7777 5200 4000 100 check 
3333 4000 8000 100 check 
4444 3600 8000 100 check 
5555 2000 6000 100 check 
8888 2400 6000 100 check 
total pot: 800 
/inquire 

------------



------------


showdown/ 
common/ 
CLUBS 2 
CLUBS 6 
HEARTS 4 
DIAMONDS 2 
HEARTS 3 
/common 
1: 2222 HEARTS 9 HEARTS 5 STRAIGHT 
6: 8888 CLUBS 7 HEARTS J ONE_PAIR 
1: 5555 HEARTS A CLUBS 5 STRAIGHT 
7: 4444 SPADES 7 DIAMONDS 8 ONE_PAIR 
4: 3333 SPADES K HEARTS 10 ONE_PAIR 
2: 7777 SPADES 3 CLUBS K TWO_PAIR 
3: 6666 CLUBS 3 SPADES 10 TWO_PAIR 
5: 1111 DIAMONDS J DIAMONDS 9 ONE_PAIR 
/showdown 

------------



------------


pot-win/ 
2222: 400 
5555: 400 
/pot-win 

------------


seat/ 
button: 2222 4400 6000 
small blind: 8888 2400 6000 
big blind: 5555 2400 6000 
4444 3600 8000 
3333 4000 8000 
7777 5200 4000 
6666 2000 6000 
1111 4000 8000 
/seat 

------------


blind/ 
8888: 50 
5555: 100 
/blind 

------------


hold/ 
HEARTS 9 
HEARTS 5 
/hold 

------------



------------


inquire/ 
2222 4300 6000 100 call 
1111 3900 8000 100 call 
6666 1900 6000 100 call 
7777 5100 4000 100 call 
3333 3900 8000 100 call 
4444 3500 8000 100 call 
5555 2300 6000 100 blind 
8888 2350 6000 50 blind 
total pot: 750 
/inquire 

------------



------------


flop/ 
CLUBS 2 
CLUBS 6 
HEARTS 4 
/flop 

------------



------------


inquire/ 
2222 4300 6000 100 call 
1111 3900 8000 100 call 
6666 1900 6000 100 call 
7777 5100 4000 100 call 
3333 3900 8000 100 call 
4444 3500 8000 100 call 
5555 2300 6000 100 check 
8888 2300 6000 100 call 
total pot: 800 
/inquire 

------------



------------


turn/ 
DIAMONDS 2 
/turn 

------------



------------


inquire/ 
2222 4300 6000 100 check 
1111 3900 8000 100 check 
6666 1900 6000 100 check 
7777 5100 4000 100 check 
3333 3900 8000 100 check 
4444 3500 8000 100 check 
5555 2300 6000 100 check 
8888 2300 6000 100 check 
total pot: 800 
/inquire 

------------



------------


river/ 
HEARTS 3 
/river 

------------



------------


inquire/ 
2222 4300 6000 100 check 
1111 3900 8000 100 check 
6666 1900 6000 100 check 
7777 5100 4000 100 check 
3333 3900 8000 100 check 
4444 3500 8000 100 check 
5555 2300 6000 100 check 
8888 2300 6000 100 check 
total pot: 800 
/inquire 

------------



------------


showdown/ 
common/ 
CLUBS 2 
CLUBS 6 
HEARTS 4 
DIAMONDS 2 
HEARTS 3 
/common 
1: 8888 HEARTS 9 HEARTS 5 STRAIGHT 
6: 5555 CLUBS 7 HEARTS J ONE_PAIR 
1: 4444 HEARTS A CLUBS 5 STRAIGHT 
7: 3333 SPADES 7 DIAMONDS 8 ONE_PAIR 
4: 7777 SPADES K HEARTS 10 ONE_PAIR 
2: 6666 SPADES 3 CLUBS K TWO_PAIR 
3: 1111 CLUBS 3 SPADES 10 TWO_PAIR 
5: 2222 DIAMONDS J DIAMONDS 9 ONE_PAIR 
/showdown 

------------



------------


pot-win/ 
8888: 400 
4444: 400 
/pot-win 

------------


seat/ 
button: 8888 2700 6000 
small blind: 5555 2300 6000 
big blind: 4444 3900 8000 
3333 3900 8000 
7777 5100 4000 
6666 1900 6000 
1111 3900 8000 
2222 4300 6000 
/seat 

------------


blind/ 
5555: 50 
4444: 100 
/blind 

------------


hold/ 
SPADES 10 
DIAMONDS Q 
/hold 

------------



------------


inquire/ 
2222 4200 6000 100 call 
1111 3800 8000 100 call 
6666 1800 6000 100 call 
7777 5000 4000 100 call 
3333 3800 8000 100 call 
4444 3800 8000 100 blind 
5555 2250 6000 50 blind 
total pot: 650 
/inquire 

------------



------------


flop/ 
HEARTS K 
HEARTS 6 
SPADES 3 
/flop 

------------



------------


inquire/ 
2222 4200 6000 100 check 
1111 3800 8000 100 check 
6666 1800 6000 100 check 
7777 5000 4000 100 check 
3333 3800 8000 100 check 
4444 3800 8000 100 check 
5555 2200 6000 100 check 
8888 2600 6000 100 call 
total pot: 800 
/inquire 

------------



------------


turn/ 
HEARTS 10 
/turn 

------------



------------


inquire/ 
2222 4200 6000 100 check 
1111 3800 8000 100 check 
6666 1800 6000 100 check 
7777 5000 4000 100 check 
3333 3800 8000 100 check 
4444 3800 8000 100 check 
5555 2200 6000 100 check 
8888 2600 6000 100 check 
total pot: 800 
/inquire 

------------



------------


river/ 
CLUBS 3 
/river 

------------



------------


inquire/ 
2222 4200 6000 100 check 
1111 3800 8000 100 check 
6666 1800 6000 100 check 
7777 5000 4000 100 check 
3333 3800 8000 100 check 
4444 3800 8000 100 check 
5555 2200 6000 100 check 
8888 2600 6000 100 check 
total pot: 800 
/inquire 

------------



------------


showdown/ 
common/ 
HEARTS K 
HEARTS 6 
SPADES 3 
HEARTS 10 
CLUBS 3 
/common 
7: 5555 DIAMONDS 2 CLUBS Q ONE_PAIR 
2: 4444 DIAMONDS A DIAMONDS 3 THREE_OF_A_KIND 
5: 3333 HEARTS 5 CLUBS 6 TWO_PAIR 
8: 7777 SPADES 7 DIAMONDS J ONE_PAIR 
1: 6666 DIAMONDS 10 CLUBS 10 FULL_HOUSE 
6: 1111 CLUBS A SPADES J ONE_PAIR 
3: 2222 DIAMONDS K SPADES Q TWO_PAIR 
4: 8888 SPADES 10 DIAMONDS Q TWO_PAIR 
/showdown 

------------



------------


pot-win/ 
6666: 800 
/pot-win 

------------


seat/ 
button: 5555 2200 6000 
small blind: 4444 3800 8000 
big blind: 3333 3800 8000 
7777 5000 4000 
6666 2600 6000 
1111 3800 8000 
2222 4200 6000 
8888 2600 6000 
/seat 

------------


blind/ 
4444: 50 
3333: 100 
/blind 

------------


hold/ 
DIAMONDS K 
SPADES Q 
/hold 

------------



------------


inquire/ 
2222 4100 6000 100 call 
1111 3700 8000 100 call 
6666 2500 6000 100 call 
7777 4900 4000 100 call 
3333 3700 8000 100 blind 
4444 3750 8000 50 blind 
total pot: 550 
/inquire 

------------



------------


flop/ 
HEARTS K 
HEARTS 6 
SPADES 3 
/flop 

------------



------------


inquire/ 
2222 4100 6000 100 check 
1111 3700 8000 100 check 
6666 2500 6000 100 check 
7777 4900 4000 100 check 
3333 3700 8000 100 check 
4444 3700 8000 100 check 
5555 2100 6000 100 call 
8888 2500 6000 100 call 
total pot: 800 
/inquire 

------------



------------


turn/ 
HEARTS 10 
/turn 

------------



------------


inquire/ 
2222 4100 6000 100 check 
1111 3700 8000 100 check 
6666 2500 6000 100 check 
7777 4900 4000 100 check 
3333 3700 8000 100 check 
4444 3700 8000 100 check 
5555 2100 6000 100 check 
8888 2500 6000 100 check 
total pot: 800 
/inquire 

------------



------------


river/ 
CLUBS 3 
/river 

------------



------------


inquire/ 
2222 4100 6000 100 check 
1111 3700 8000 100 check 
6666 2500 6000 100 check 
7777 4900 4000 100 check 
3333 3700 8000 100 check 
4444 3700 8000 100 check 
5555 2100 6000 100 check 
8888 2500 6000 100 check 
total pot: 800 
/inquire 

------------



------------


showdown/ 
common/ 
HEARTS K 
HEARTS 6 
SPADES 3 
HEARTS 10 
CLUBS 3 
/common 
7: 4444 DIAMONDS 2 CLUBS Q ONE_PAIR 
2: 3333 DIAMONDS A DIAMONDS 3 THREE_OF_A_KIND 
5: 7777 HEARTS 5 CLUBS 6 TWO_PAIR 
8: 6666 SPADES 7 DIAMONDS J ONE_PAIR 
1: 1111 DIAMONDS 10 CLUBS 10 FULL_HOUSE 
6: 2222 CLUBS A SPADES J ONE_PAIR 
3: 8888 DIAMONDS K SPADES Q TWO_PAIR 
4: 5555 SPADES 10 DIAMONDS Q TWO_PAIR 
/showdown 

------------



------------


pot-win/ 
1111: 800 
/pot-win 

------------


seat/ 
button: 4444 3700 8000 
small blind: 3333 3700 8000 
big blind: 7777 4900 4000 
6666 2500 6000 
1111 4500 8000 
2222 4100 6000 
8888 2500 6000 
5555 2100 6000 
/seat 

------------


blind/ 
3333: 50 
7777: 100 
/blind 

------------


hold/ 
CLUBS A 
SPADES J 
/hold 

------------



------------


inquire/ 
2222 4000 6000 100 call 
1111 4400 8000 100 call 
6666 2400 6000 100 call 
7777 4800 4000 100 blind 
3333 3650 8000 50 blind 
total pot: 450 
/inquire 

------------



------------


flop/ 
HEARTS K 
HEARTS 6 
SPADES 3 
/flop 

------------



------------


inquire/ 
2222 4000 6000 100 check 
1111 4400 8000 100 check 
6666 2400 6000 100 check 
7777 4800 4000 100 check 
3333 3600 8000 100 check 
4444 3600 8000 100 call 
5555 2000 6000 100 call 
8888 2400 6000 100 call 
total pot: 800 
/inquire 

------------



------------


turn/ 
HEARTS 10 
/turn 

------------



------------


inquire/ 
2222 4000 6000 100 check 
1111 4400 8000 100 check 
6666 2400 6000 100 check 
7777 4800 4000 100 check 
3333 3600 8000 100 check 
4444 3600 8000 100 check 
5555 2000 6000 100 check 
8888 2400 6000 100 check 
total pot: 800 
/inquire 

------------



------------


river/ 
CLUBS 3 
/river 

------------



------------


inquire/ 
2222 4000 6000 100 check 
1111 4400 8000 100 check 
6666 2400 6000 100 check 
7777 4800 4000 100 check 
3333 3600 8000 100 check 
4444 3600 8000 100 check 
5555 2000 6000 100 check 
8888 2400 6000 100 check 
total pot: 800 
/inquire 

------------



------------


showdown/ 
common/ 
HEARTS K 
HEARTS 6 
SPADES 3 
HEARTS 10 
CLUBS 3 
/common 
7: 3333 DIAMONDS 2 CLUBS Q ONE_PAIR 
2: 7777 DIAMONDS A DIAMONDS 3 THREE_OF_A_KIND 
5: 6666 HEARTS 5 CLUBS 6 TWO_PAIR 
8: 1111 SPADES 7 DIAMONDS J ONE_PAIR 
1: 2222 DIAMONDS 10 CLUBS 10 FULL_HOUSE 
6: 8888 CLUBS A SPADES J ONE_PAIR 
3: 5555 DIAMONDS K SPADES Q TWO_PAIR 
4: 4444 SPADES 10 DIAMONDS Q TWO_PAIR 
/showdown 

------------



------------


pot-win/ 
2222: 800 
/pot-win 

------------


seat/ 
button: 3333 3600 8000 
small blind: 7777 4800 4000 
big blind: 6666 2400 6000 
1111 4400 8000 
2222 4800 6000 
8888 2400 6000 
5555 2000 6000 
4444 3600 8000 
/seat 

------------


blind/ 
7777: 50 
6666: 100 
/blind 

------------


hold/ 
DIAMONDS 10 
CLUBS 10 
/hold 

------------



------------


inquire/ 
2222 4700 6000 100 call 
1111 4300 8000 100 call 
6666 2300 6000 100 blind 
7777 4750 4000 50 blind 
total pot: 350 
/inquire 

------------



------------


flop/ 
HEARTS K 
HEARTS 6 
SPADES 3 
/flop 

------------



------------


inquire/ 
2222 4700 6000 100 check 
1111 4300 8000 100 check 
6666 2300 6000 100 check 
7777 4700 4000 100 check 
3333 3500 8000 100 call 
4444 3500 8000 100 call 
5555 1900 6000 100 call 
8888 2300 6000 100 call 
total pot: 800 
/inquire 

------------



------------


turn/ 
HEARTS 10 
/turn 

------------



------------


inquire/ 
2222 4700 6000 100 check 
1111 4300 8000 100 check 
6666 2300 6000 100 check 
7777 4700 4000 100 check 
3333 3500 8000 100 check 
4444 3500 8000 100 check 
5555 1900 6000 100 check 
8888 2300 6000 100 check 
total pot: 800 
/inquire 

------------



------------


river/ 
CLUBS 3 
/river 

------------



------------


inquire/ 
2222 4700 6000 100 check 
1111 4300 8000 100 check 
6666 2300 6000 100 check 
7777 4700 4000 100 check 
3333 3500 8000 100 check 
4444 3500 8000 100 check 
5555 1900 6000 100 check 
8888 2300 6000 100 check 
total pot: 800 
/inquire 

------------



------------


showdown/ 
common/ 
HEARTS K 
HEARTS 6 
SPADES 3 
HEARTS 10 
CLUBS 3 
/common 
7: 7777 DIAMONDS 2 CLUBS Q ONE_PAIR 
2: 6666 DIAMONDS A DIAMONDS 3 THREE_OF_A_KIND 
5: 1111 HEARTS 5 CLUBS 6 TWO_PAIR 
8: 2222 SPADES 7 DIAMONDS J ONE_PAIR 
1: 8888 DIAMONDS 10 CLUBS 10 FULL_HOUSE 
6: 5555 CLUBS A SPADES J ONE_PAIR 
3: 4444 DIAMONDS K SPADES Q TWO_PAIR 
4: 3333 SPADES 10 DIAMONDS Q TWO_PAIR 
/showdown 

------------



------------


pot-win/ 
8888: 800 
/pot-win 

------------


seat/ 
button: 7777 4700 4000 
small blind: 6666 2300 6000 
big blind: 1111 4300 8000 
2222 4700 6000 
8888 3100 6000 
5555 1900 6000 
4444 3500 8000 
3333 3500 8000 
/seat 

------------


blind/ 
6666: 50 
1111: 100 
/blind 

------------


hold/ 
SPADES 7 
DIAMONDS J 
/hold 

------------



------------


inquire/ 
2222 4600 6000 100 call 
1111 4200 8000 100 blind 
6666 2250 6000 50 blind 
total pot: 250 
/inquire 

------------



------------


flop/ 
HEARTS K 
HEARTS 6 
SPADES 3 
/flop 

------------



------------


inquire/ 
2222 4600 6000 100 check 
1111 4200 8000 100 check 
6666 2200 6000 100 check 
7777 4600 4000 100 call 
3333 3400 8000 100 call 
4444 3400 8000 100 call 
5555 1800 6000 100 call 
8888 3000 6000 100 call 
total pot: 800 
/inquire 

------------



------------


turn/ 
HEARTS 10 
/turn 

------------



------------


inquire/ 
2222 4600 6000 100 check 
1111 4200 8000 100 check 
6666 2200 6000 100 check 
7777 4600 4000 100 check 
3333 3400 8000 100 check 
4444 3400 8000 100 check 
5555 1800 6000 100 check 
8888 3000 6000 100 check 
total pot: 800 
/inquire 

------------



------------


river/ 
CLUBS 3 
/river 

------------



------------


inquire/ 
2222 4600 6000 100 check 
1111 4200 8000 100 check 
6666 2200 6000 100 check 
7777 4600 4000 100 check 
3333 3400 8000 100 check 
4444 3400 8000 100 check 
5555 1800 6000 100 check 
8888 3000 6000 100 check 
total pot: 800 
/inquire 

------------



------------


showdown/ 
common/ 
HEARTS K 
HEARTS 6 
SPADES 3 
HEARTS 10 
CLUBS 3 
/common 
7: 6666 DIAMONDS 2 CLUBS Q ONE_PAIR 
2: 1111 DIAMONDS A DIAMONDS 3 THREE_OF_A_KIND 
5: 2222 HEARTS 5 CLUBS 6 TWO_PAIR 
8: 8888 SPADES 7 DIAMONDS J ONE_PAIR 
1: 5555 DIAMONDS 10 CLUBS 10 FULL_HOUSE 
6: 4444 CLUBS A SPADES J ONE_PAIR 
3: 3333 DIAMONDS K SPADES Q TWO_PAIR 
4: 7777 SPADES 10 DIAMONDS Q TWO_PAIR 
/showdown 

------------



------------


pot-win/ 
5555: 800 
/pot-win 

------------


seat/ 
button: 6666 2200 6000 
small blind: 1111 4200 8000 
big blind: 2222 4600 6000 
8888 3000 6000 
5555 2600 6000 
4444 3400 8000 
3333 3400 8000 
7777 4600 4000 
/seat 

------------


blind/ 
1111: 50 
2222: 100 
/blind 

------------


hold/ 
HEARTS 5 
CLUBS 6 
/hold 

------------


inquire/ 
2222 4500 6000 100 blind 
1111 4150 8000 50 blind 
total pot: 150 
/inquire 

------------



------------


flop/ 
HEARTS K 
HEARTS 6 
SPADES 3 
/flop 

------------



------------


inquire/ 
2222 4500 6000 100 check 
1111 4100 8000 100 check 
6666 2100 6000 100 call 
7777 4500 4000 100 call 
3333 3300 8000 100 call 
4444 3300 8000 100 call 
5555 2500 6000 100 call 
8888 2900 6000 100 call 
total pot: 800 
/inquire 

------------



------------


turn/ 
HEARTS 10 
/turn 

------------



------------


inquire/ 
2222 4500 6000 100 check 
1111 4100 8000 100 check 
6666 2100 6000 100 check 
7777 4500 4000 100 check 
3333 3300 8000 100 check 
4444 3300 8000 100 check 
5555 2500 6000 100 check 
8888 2900 6000 100 check 
total pot: 800 
/inquire 

------------



------------


river/ 
CLUBS 3 
/river 

------------



------------


inquire/ 
2222 4500 6000 100 check 
1111 4100 8000 100 check 
6666 2100 6000 100 check 
7777 4500 4000 100 check 
3333 3300 8000 100 check 
4444 3300 8000 100 check 
5555 2500 6000 100 check 
8888 2900 6000 100 check 
total pot: 800 
/inquire 

------------



------------


showdown/ 
common/ 
HEARTS K 
HEARTS 6 
SPADES 3 
HEARTS 10 
CLUBS 3 
/common 
7: 1111 DIAMONDS 2 CLUBS Q ONE_PAIR 
2: 2222 DIAMONDS A DIAMONDS 3 THREE_OF_A_KIND 
5: 8888 HEARTS 5 CLUBS 6 TWO_PAIR 
8: 5555 SPADES 7 DIAMONDS J ONE_PAIR 
1: 4444 DIAMONDS 10 CLUBS 10 FULL_HOUSE 
6: 3333 CLUBS A SPADES J ONE_PAIR 
3: 7777 DIAMONDS K SPADES Q TWO_PAIR 
4: 6666 SPADES 10 DIAMONDS Q TWO_PAIR 
/showdown 

------------



------------


pot-win/ 
4444: 800 
/pot-win 

------------


seat/ 
button: 1111 4100 8000 
small blind: 2222 4500 6000 
big blind: 8888 2900 6000 
5555 2500 6000 
4444 4100 8000 
3333 3300 8000 
7777 4500 4000 
6666 2100 6000 
/seat 

------------


blind/ 
2222: 50 
8888: 100 
/blind 

------------


hold/ 
HEARTS A 
SPADES Q 
/hold 

------------



------------


inquire/ 
2222 4400 6000 100 call 
1111 4000 8000 100 call 
6666 2000 6000 100 call 
7777 4400 4000 100 call 
3333 3200 8000 100 call 
4444 4000 8000 100 call 
5555 2400 6000 100 call 
8888 2800 6000 100 blind 
total pot: 800 
/inquire 

------------



------------


flop/ 
HEARTS Q 
DIAMONDS 3 
HEARTS 2 
/flop 

------------



------------


inquire/ 
2222 4400 6000 100 check 
1111 4000 8000 100 call 
6666 2000 6000 100 call 
7777 4400 4000 100 call 
3333 3200 8000 100 call 
4444 4000 8000 100 call 
5555 2400 6000 100 call 
8888 2800 6000 100 check 
total pot: 800 
/inquire 

------------



------------


turn/ 
SPADES J 
/turn 

------------



------------


inquire/ 
2222 4400 6000 100 check 
1111 4000 8000 100 check 
6666 2000 6000 100 check 
7777 4400 4000 100 check 
3333 3200 8000 100 check 
4444 4000 8000 100 check 
5555 2400 6000 100 check 
8888 2800 6000 100 check 
total pot: 800 
/inquire 

------------



------------


river/ 
CLUBS 4 
/river 

------------



------------


inquire/ 
2222 4400 6000 100 check 
1111 4000 8000 100 check 
6666 2000 6000 100 check 
7777 4400 4000 100 check 
3333 3200 8000 100 check 
4444 4000 8000 100 check 
5555 2400 6000 100 check 
8888 2800 6000 100 check 
total pot: 800 
/inquire 

------------



------------


showdown/ 
common/ 
HEARTS Q 
DIAMONDS 3 
HEARTS 2 
SPADES J 
CLUBS 4 
/common 
6: 2222 HEARTS 5 DIAMONDS 9 HIGH_CARD 
2: 8888 HEARTS A SPADES Q ONE_PAIR 
8: 5555 DIAMONDS 8 CLUBS 6 HIGH_CARD 
1: 4444 CLUBS K DIAMONDS K ONE_PAIR 
7: 3333 CLUBS 8 CLUBS 7 HIGH_CARD 
5: 7777 SPADES K DIAMONDS 7 HIGH_CARD 
4: 6666 SPADES A HEARTS 6 HIGH_CARD 
3: 1111 HEARTS 10 CLUBS J ONE_PAIR 
/showdown 

------------



------------


pot-win/ 
4444: 800 
/pot-win 

------------


seat/ 
button: 2222 4400 6000 
small blind: 8888 2800 6000 
big blind: 5555 2400 6000 
4444 4800 8000 
3333 3200 8000 
7777 4400 4000 
6666 2000 6000 
1111 4000 8000 
/seat 

------------


blind/ 
8888: 50 
5555: 100 
/blind 

------------


hold/ 
HEARTS 5 
DIAMONDS 9 
/hold 

------------



------------


inquire/ 
2222 4300 6000 100 call 
1111 3900 8000 100 call 
6666 1900 6000 100 call 
7777 4300 4000 100 call 
3333 3100 8000 100 call 
4444 4700 8000 100 call 
5555 2300 6000 100 blind 
8888 2750 6000 50 blind 
total pot: 750 
/inquire 

------------



------------


flop/ 
HEARTS Q 
DIAMONDS 3 
HEARTS 2 
/flop 

------------



------------


inquire/ 
2222 4300 6000 100 call 
1111 3900 8000 100 call 
6666 1900 6000 100 call 
7777 4300 4000 100 call 
3333 3100 8000 100 call 
4444 4700 8000 100 call 
5555 2300 6000 100 check 
8888 2700 6000 100 call 
total pot: 800 
/inquire 

------------



------------


turn/ 
SPADES J 
/turn 

------------



------------


inquire/ 
2222 4300 6000 100 check 
1111 3900 8000 100 check 
6666 1900 6000 100 check 
7777 4300 4000 100 check 
3333 3100 8000 100 check 
4444 4700 8000 100 check 
5555 2300 6000 100 check 
8888 2700 6000 100 check 
total pot: 800 
/inquire 

------------



------------


river/ 
CLUBS 4 
/river 

------------



------------


inquire/ 
2222 4300 6000 100 check 
1111 3900 8000 100 check 
6666 1900 6000 100 check 
7777 4300 4000 100 check 
3333 3100 8000 100 check 
4444 4700 8000 100 check 
5555 2300 6000 100 check 
8888 2700 6000 100 check 
total pot: 800 
/inquire 

------------



------------


showdown/ 
common/ 
HEARTS Q 
DIAMONDS 3 
HEARTS 2 
SPADES J 
CLUBS 4 
/common 
6: 8888 HEARTS 5 DIAMONDS 9 HIGH_CARD 
2: 5555 HEARTS A SPADES Q ONE_PAIR 
8: 4444 DIAMONDS 8 CLUBS 6 HIGH_CARD 
1: 3333 CLUBS K DIAMONDS K ONE_PAIR 
7: 7777 CLUBS 8 CLUBS 7 HIGH_CARD 
5: 6666 SPADES K DIAMONDS 7 HIGH_CARD 
4: 1111 SPADES A HEARTS 6 HIGH_CARD 
3: 2222 HEARTS 10 CLUBS J ONE_PAIR 
/showdown 

------------



------------


pot-win/ 
3333: 800 
/pot-win 

------------


seat/ 
button: 8888 2700 6000 
small blind: 5555 2300 6000 
big blind: 4444 4700 8000 
3333 3900 8000 
7777 4300 4000 
6666 1900 6000 
1111 3900 8000 
2222 4300 6000 
/seat 

------------


blind/ 
5555: 50 
4444: 100 
/blind 

------------


hold/ 
HEARTS 10 
CLUBS J 
/hold 

------------



------------


inquire/ 
2222 4200 6000 100 call 
1111 3800 8000 100 call 
6666 1800 6000 100 call 
7777 4200 4000 100 call 
3333 3800 8000 100 call 
4444 4600 8000 100 blind 
5555 2250 6000 50 blind 
total pot: 650 
/inquire 

------------



------------


flop/ 
HEARTS Q 
DIAMONDS 3 
HEARTS 2 
/flop 

------------



------------


inquire/ 
2222 4200 6000 100 check 
1111 3800 8000 100 check 
6666 1800 6000 100 check 
7777 4200 4000 100 check 
3333 3800 8000 100 check 
4444 4600 8000 100 check 
5555 2200 6000 100 check 
8888 2600 6000 100 call 
total pot: 800 
/inquire 

------------



------------


turn/ 
SPADES J 
/turn 

------------



------------


inquire/ 
2222 4200 6000 100 check 
1111 3800 8000 100 check 
6666 1800 6000 100 check 
7777 4200 4000 100 check 
3333 3800 8000 100 check 
4444 4600 8000 100 check 
5555 2200 6000 100 check 
8888 2600 6000 100 check 
total pot: 800 
/inquire 

------------



------------


river/ 
CLUBS 4 
/river 

------------



------------


inquire/ 
2222 4200 6000 100 check 
1111 3800 8000 100 check 
6666 1800 6000 100 check 
7777 4200 4000 100 check 
3333 3800 8000 100 check 
4444 4600 8000 100 check 
5555 2200 6000 100 check 
8888 2600 6000 100 check 
total pot: 800 
/inquire 

------------



------------


showdown/ 
common/ 
HEARTS Q 
DIAMONDS 3 
HEARTS 2 
SPADES J 
CLUBS 4 
/common 
6: 5555 HEARTS 5 DIAMONDS 9 HIGH_CARD 
2: 4444 HEARTS A SPADES Q ONE_PAIR 
8: 3333 DIAMONDS 8 CLUBS 6 HIGH_CARD 
1: 7777 CLUBS K DIAMONDS K ONE_PAIR 
7: 6666 CLUBS 8 CLUBS 7 HIGH_CARD 
5: 1111 SPADES K DIAMONDS 7 HIGH_CARD 
4: 2222 SPADES A HEARTS 6 HIGH_CARD 
3: 8888 HEARTS 10 CLUBS J ONE_PAIR 
/showdown 

------------



------------


pot-win/ 
7777: 800 
/pot-win 

------------


seat/ 
button: 5555 2200 6000 
small blind: 4444 4600 8000 
big blind: 3333 3800 8000 
7777 5000 4000 
6666 1800 6000 
1111 3800 8000 
2222 4200 6000 
8888 2600 6000 
/seat 

------------


blind/ 
4444: 50 
3333: 100 
/blind 

------------


hold/ 
SPADES A 
HEARTS 6 
/hold 

------------



------------


inquire/ 
2222 4100 6000 100 call 
1111 3700 8000 100 call 
6666 1700 6000 100 call 
7777 4900 4000 100 call 
3333 3700 8000 100 blind 
4444 4550 8000 50 blind 
total pot: 550 
/inquire 

------------



------------


flop/ 
HEARTS Q 
DIAMONDS 3 
HEARTS 2 
/flop 

------------



------------


inquire/ 
2222 4100 6000 100 check 
1111 3700 8000 100 check 
6666 1700 6000 100 check 
7777 4900 4000 100 check 
3333 3700 8000 100 check 
4444 4500 8000 100 check 
5555 2100 6000 100 call 
8888 2500 6000 100 call 
total pot: 800 
/inquire 

------------



------------


turn/ 
SPADES J 
/turn 

------------



------------


inquire/ 
2222 4100 6000 100 check 
1111 3700 8000 100 check 
6666 1700 6000 100 check 
7777 4900 4000 100 check 
3333 3700 8000 100 check 
4444 4500 8000 100 check 
5555 2100 6000 100 check 
8888 2500 6000 100 check 
total pot: 800 
/inquire 

------------



------------


river/ 
CLUBS 4 
/river 

------------



------------


inquire/ 
2222 4100 6000 100 check 
1111 3700 8000 100 check 
6666 1700 6000 100 check 
7777 4900 4000 100 check 
3333 3700 8000 100 check 
4444 4500 8000 100 check 
5555 2100 6000 100 check 
8888 2500 6000 100 check 
total pot: 800 
/inquire 

------------



------------


showdown/ 
common/ 
HEARTS Q 
DIAMONDS 3 
HEARTS 2 
SPADES J 
CLUBS 4 
/common 
6: 4444 HEARTS 5 DIAMONDS 9 HIGH_CARD 
2: 3333 HEARTS A SPADES Q ONE_PAIR 
8: 7777 DIAMONDS 8 CLUBS 6 HIGH_CARD 
1: 6666 CLUBS K DIAMONDS K ONE_PAIR 
7: 1111 CLUBS 8 CLUBS 7 HIGH_CARD 
5: 2222 SPADES K DIAMONDS 7 HIGH_CARD 
4: 8888 SPADES A HEARTS 6 HIGH_CARD 
3: 5555 HEARTS 10 CLUBS J ONE_PAIR 
/showdown 

------------



------------


pot-win/ 
6666: 800 
/pot-win 

------------


seat/ 
button: 4444 4500 8000 
small blind: 3333 3700 8000 
big blind: 7777 4900 4000 
6666 2500 6000 
1111 3700 8000 
2222 4100 6000 
8888 2500 6000 
5555 2100 6000 
/seat 

------------


blind/ 
3333: 50 
7777: 100 
/blind 

------------


hold/ 
SPADES K 
DIAMONDS 7 
/hold 

------------



------------


inquire/ 
2222 4000 6000 100 call 
1111 3600 8000 100 call 
6666 2400 6000 100 call 
7777 4800 4000 100 blind 
3333 3650 8000 50 blind 
total pot: 450 
/inquire 

------------



------------


flop/ 
HEARTS Q 
DIAMONDS 3 
HEARTS 2 
/flop 

------------



------------


inquire/ 
2222 4000 6000 100 check 
1111 3600 8000 100 check 
6666 2400 6000 100 check 
7777 4800 4000 100 check 
3333 3600 8000 100 check 
4444 4400 8000 100 call 
5555 2000 6000 100 call 
8888 2400 6000 100 call 
total pot: 800 
/inquire 

------------



------------


turn/ 
SPADES J 
/turn 

------------



------------


inquire/ 
2222 4000 6000 100 check 
1111 3600 8000 100 check 
6666 2400 6000 100 check 
7777 4800 4000 100 check 
3333 3600 8000 100 check 
4444 4400 8000 100 check 
5555 2000 6000 100 check 
8888 2400 6000 100 check 
total pot: 800 
/inquire 

------------



------------


river/ 
CLUBS 4 
/river 

------------



------------


inquire/ 
2222 4000 6000 100 check 
1111 3600 8000 100 check 
6666 2400 6000 100 check 
7777 4800 4000 100 check 
3333 3600 8000 100 check 
4444 4400 8000 100 check 
5555 2000 6000 100 check 
8888 2400 6000 100 check 
total pot: 800 
/inquire 

------------



------------


showdown/ 
common/ 
HEARTS Q 
DIAMONDS 3 
HEARTS 2 
SPADES J 
CLUBS 4 
/common 
6: 3333 HEARTS 5 DIAMONDS 9 HIGH_CARD 
2: 7777 HEARTS A SPADES Q ONE_PAIR 
8: 6666 DIAMONDS 8 CLUBS 6 HIGH_CARD 
1: 1111 CLUBS K DIAMONDS K ONE_PAIR 
7: 2222 CLUBS 8 CLUBS 7 HIGH_CARD 
5: 8888 SPADES K DIAMONDS 7 HIGH_CARD 
4: 5555 SPADES A HEARTS 6 HIGH_CARD 
3: 4444 HEARTS 10 CLUBS J ONE_PAIR 
/showdown 

------------



------------


pot-win/ 
1111: 800 
/pot-win 

------------


seat/ 
button: 3333 3600 8000 
small blind: 7777 4800 4000 
big blind: 6666 2400 6000 
1111 4400 8000 
2222 4000 6000 
8888 2400 6000 
5555 2000 6000 
4444 4400 8000 
/seat 

------------


blind/ 
7777: 50 
6666: 100 
/blind 

------------


hold/ 
CLUBS 8 
CLUBS 7 
/hold 

------------



------------


inquire/ 
2222 3900 6000 100 call 
1111 4300 8000 100 call 
6666 2300 6000 100 blind 
7777 4750 4000 50 blind 
total pot: 350 
/inquire 

------------



------------


flop/ 
HEARTS Q 
DIAMONDS 3 
HEARTS 2 
/flop 

------------



------------


inquire/ 
2222 3900 6000 100 check 
1111 4300 8000 100 check 
6666 2300 6000 100 check 
7777 4700 4000 100 check 
3333 3500 8000 100 call 
4444 4300 8000 100 call 
5555 1900 6000 100 call 
8888 2300 6000 100 call 
total pot: 800 
/inquire 

------------



------------


turn/ 
SPADES J 
/turn 

------------



------------


inquire/ 
2222 3900 6000 100 check 
1111 4300 8000 100 check 
6666 2300 6000 100 check 
7777 4700 4000 100 check 
3333 3500 8000 100 check 
4444 4300 8000 100 check 
5555 1900 6000 100 check 
8888 2300 6000 100 check 
total pot: 800 
/inquire 

------------



------------


river/ 
CLUBS 4 
/river 

------------



------------


inquire/ 
2222 3900 6000 100 check 
1111 4300 8000 100 check 
6666 2300 6000 100 check 
7777 4700 4000 100 check 
3333 3500 8000 100 check 
4444 4300 8000 100 check 
5555 1900 6000 100 check 
8888 2300 6000 100 check 
total pot: 800 
/inquire 

------------



------------


showdown/ 
common/ 
HEARTS Q 
DIAMONDS 3 
HEARTS 2 
SPADES J 
CLUBS 4 
/common 
6: 7777 HEARTS 5 DIAMONDS 9 HIGH_CARD 
2: 6666 HEARTS A SPADES Q ONE_PAIR 
8: 1111 DIAMONDS 8 CLUBS 6 HIGH_CARD 
1: 2222 CLUBS K DIAMONDS K ONE_PAIR 
7: 8888 CLUBS 8 CLUBS 7 HIGH_CARD 
5: 5555 SPADES K DIAMONDS 7 HIGH_CARD 
4: 4444 SPADES A HEARTS 6 HIGH_CARD 
3: 3333 HEARTS 10 CLUBS J ONE_PAIR 
/showdown 

------------



------------


pot-win/ 
2222: 800 
/pot-win 

------------


seat/ 
button: 7777 4700 4000 
small blind: 6666 2300 6000 
big blind: 1111 4300 8000 
2222 4700 6000 
8888 2300 6000 
5555 1900 6000 
4444 4300 8000 
3333 3500 8000 
/seat 

------------


blind/ 
6666: 50 
1111: 100 
/blind 

------------


hold/ 
SPADES 8 
HEARTS K 
/hold 

------------


inquire/ 
2222 4600 6000 100 call 
1111 4200 8000 100 blind 
6666 2250 6000 50 blind 
total pot: 250 
/inquire 

------------



------------


flop/ 
SPADES 7 
SPADES 10 
CLUBS K 
/flop 

------------



------------


inquire/ 
2222 4600 6000 100 check 
1111 4200 8000 100 check 
6666 2200 6000 100 check 
7777 4600 4000 100 call 
3333 3400 8000 100 call 
4444 4200 8000 100 call 
5555 1800 6000 100 call 
8888 2200 6000 100 call 
total pot: 800 
/inquire 

------------



------------


turn/ 
DIAMONDS Q 
/turn 

------------



------------


inquire/ 
2222 4600 6000 100 check 
1111 4200 8000 100 check 
6666 2200 6000 100 check 
7777 4600 4000 100 check 
3333 3400 8000 100 check 
4444 4200 8000 100 check 
5555 1800 6000 100 check 
8888 2200 6000 100 check 
total pot: 800 
/inquire 

------------



------------


river/ 
CLUBS 7 
/river 

------------



------------


inquire/ 
2222 4600 6000 100 check 
1111 4200 8000 100 check 
6666 2200 6000 100 check 
7777 4600 4000 100 check 
3333 3400 8000 100 check 
4444 4200 8000 100 check 
5555 1800 6000 100 check 
8888 2200 6000 100 check 
total pot: 800 
/inquire 

------------



------------


showdown/ 
common/ 
SPADES 7 
SPADES 10 
CLUBS K 
DIAMONDS Q 
CLUBS 7 
/common 
5: 6666 DIAMONDS A DIAMONDS 9 ONE_PAIR 
4: 1111 CLUBS 5 SPADES 5 TWO_PAIR 
3: 2222 SPADES K DIAMONDS J TWO_PAIR 
3: 8888 SPADES 8 HEARTS K TWO_PAIR 
6: 5555 HEARTS 2 DIAMONDS 6 ONE_PAIR 
6: 4444 SPADES 4 DIAMONDS 8 ONE_PAIR 
2: 3333 HEARTS 7 HEARTS 8 THREE_OF_A_KIND 
1: 7777 HEARTS J HEARTS A STRAIGHT 
/showdown 

------------



------------


pot-win/ 
7777: 800 
/pot-win 

------------


seat/ 
button: 6666 2200 6000 
small blind: 1111 4200 8000 
big blind: 2222 4600 6000 
8888 2200 6000 
5555 1800 6000 
4444 4200 8000 
3333 3400 8000 
7777 5400 4000 
/seat 

------------


blind/ 
1111: 50 
2222: 100 
/blind 

------------


hold/ 
SPADES K 
DIAMONDS J 
/hold 

------------


inquire/ 
2222 4500 6000 100 blind 
1111 4150 8000 50 blind 
total pot: 150 
/inquire 

------------



------------


flop/ 
SPADES 7 
SPADES 10 
CLUBS K 
/flop 

------------



------------


inquire/ 
2222 4500 6000 100 check 
1111 4100 8000 100 check 
6666 2100 6000 100 call 
7777 5300 4000 100 call 
3333 3300 8000 100 call 
4444 4100 8000 100 call 
5555 1700 6000 100 call 
8888 2100 6000 100 call 
total pot: 800 
/inquire 

------------



------------


turn/ 
DIAMONDS Q 
/turn 

------------



------------


inquire/ 
2222 4500 6000 100 check 
1111 4100 8000 100 check 
6666 2100 6000 100 check 
7777 5300 4000 100 check 
3333 3300 8000 100 check 
4444 4100 8000 100 check 
5555 1700 6000 100 check 
8888 2100 6000 100 check 
total pot: 800 
/inquire 

------------



------------


river/ 
CLUBS 7 
/river 

------------



------------


inquire/ 
2222 4500 6000 100 check 
1111 4100 8000 100 check 
6666 2100 6000 100 check 
7777 5300 4000 100 check 
3333 3300 8000 100 check 
4444 4100 8000 100 check 
5555 1700 6000 100 check 
8888 2100 6000 100 check 
total pot: 800 
/inquire 

------------



------------


showdown/ 
common/ 
SPADES 7 
SPADES 10 
CLUBS K 
DIAMONDS Q 
CLUBS 7 
/common 
5: 1111 DIAMONDS A DIAMONDS 9 ONE_PAIR 
4: 2222 CLUBS 5 SPADES 5 TWO_PAIR 
3: 8888 SPADES K DIAMONDS J TWO_PAIR 
3: 5555 SPADES 8 HEARTS K TWO_PAIR 
6: 4444 HEARTS 2 DIAMONDS 6 ONE_PAIR 
6: 3333 SPADES 4 DIAMONDS 8 ONE_PAIR 
2: 7777 HEARTS 7 HEARTS 8 THREE_OF_A_KIND 
1: 6666 HEARTS J HEARTS A STRAIGHT 
/showdown 

------------



------------


pot-win/ 
6666: 800 
/pot-win 

------------


seat/ 
button: 1111 4100 8000 
small blind: 2222 4500 6000 
big blind: 8888 2100 6000 
5555 1700 6000 
4444 4100 8000 
3333 3300 8000 
7777 5300 4000 
6666 2900 6000 
/seat 

------------


blind/ 
2222: 50 
8888: 100 
/blind 

------------


hold/ 
CLUBS 5 
SPADES 5 
/hold 

------------



------------


inquire/ 
2222 4400 6000 100 call 
1111 4000 8000 100 call 
6666 2800 6000 100 call 
7777 5200 4000 100 call 
3333 3200 8000 100 call 
4444 4000 8000 100 call 
5555 1600 6000 100 call 
8888 2000 6000 100 blind 
total pot: 800 
/inquire 

------------



------------


flop/ 
SPADES 7 
SPADES 10 
CLUBS K 
/flop 

------------



------------


inquire/ 
2222 4400 6000 100 check 
1111 4000 8000 100 call 
6666 2800 6000 100 call 
7777 5200 4000 100 call 
3333 3200 8000 100 call 
4444 4000 8000 100 call 
5555 1600 6000 100 call 
8888 2000 6000 100 check 
total pot: 800 
/inquire 

------------



------------


turn/ 
DIAMONDS Q 
/turn 

------------



------------


inquire/ 
2222 4400 6000 100 check 
1111 4000 8000 100 check 
6666 2800 6000 100 check 
7777 5200 4000 100 check 
3333 3200 8000 100 check 
4444 4000 8000 100 check 
5555 1600 6000 100 check 
8888 2000 6000 100 check 
total pot: 800 
/inquire 

------------



------------


river/ 
CLUBS 7 
/river 

------------



------------


inquire/ 
2222 4400 6000 100 check 
1111 4000 8000 100 check 
6666 2800 6000 100 check 
7777 5200 4000 100 check 
3333 3200 8000 100 check 
4444 4000 8000 100 check 
5555 1600 6000 100 check 
8888 2000 6000 100 check 
total pot: 800 
/inquire 

------------



------------


showdown/ 
common/ 
SPADES 7 
SPADES 10 
CLUBS K 
DIAMONDS Q 
CLUBS 7 
/common 
5: 2222 DIAMONDS A DIAMONDS 9 ONE_PAIR 
4: 8888 CLUBS 5 SPADES 5 TWO_PAIR 
3: 5555 SPADES K DIAMONDS J TWO_PAIR 
3: 4444 SPADES 8 HEARTS K TWO_PAIR 
6: 3333 HEARTS 2 DIAMONDS 6 ONE_PAIR 
6: 7777 SPADES 4 DIAMONDS 8 ONE_PAIR 
2: 6666 HEARTS 7 HEARTS 8 THREE_OF_A_KIND 
1: 1111 HEARTS J HEARTS A STRAIGHT 
/showdown 

------------



------------


pot-win/ 
1111: 800 
/pot-win 

------------


game-over 

------------


