

===VERSION 1.24===
---GAME START @ 2015-5-24-14-19-7---

wait registration for 30 seconds
reg:2222 BUG need_notify 
reg:6666 BUG need_notify 
reg:3333 BUG need_notify 
reg:1111 BUG need_notify 
reg:8888 BUG need_notify 
reg:7777 BUG need_notify 
reg:4444 BUG need_notify 
reg:5555 BUG need_notify 
close registration

-----1 Hand-----

----- clean player data in socket -----
seat/ 
button: 6666 2000 8000 
small blind: 8888 2000 8000 
big blind: 1111 2000 8000 
4444 2000 8000 
5555 2000 8000 
3333 2000 8000 
7777 2000 8000 
2222 2000 8000 
/seat 
blind/ 
8888: 50 
1111: 100 
/blind 
player 8888:hold/ 
SPADES K 
CLUBS 6 
/hold 
player 1111:hold/ 
SPADES A 
CLUBS 9 
/hold 
player 4444:hold/ 
DIAMONDS 4 
DIAMONDS 3 
/hold 
player 5555:hold/ 
SPADES 6 
SPADES 2 
/hold 
player 3333:hold/ 
SPADES Q 
SPADES 3 
/hold 
player 7777:hold/ 
CLUBS Q 
CLUBS A 
/hold 
player 2222:hold/ 
SPADES 4 
DIAMONDS 10 
/hold 
player 6666:hold/ 
HEARTS Q 
HEARTS 10 
/hold 

---pre flop round bet---
valid player: 8, all in player: 0, fold player: 0
send inquire msg to player 4444 
inquire/ 
1111 1900 8000 100 blind 
8888 1950 8000 50 blind 
total pot: 150 
/inquire 
recv from player 4444: fold 

send inquire msg to player 5555 
inquire/ 
4444 2000 8000 0 fold 
1111 1900 8000 100 blind 
8888 1950 8000 50 blind 
total pot: 150 
/inquire 
recv from player 5555: check 

send inquire msg to player 3333 
inquire/ 
5555 1900 8000 100 call 
4444 2000 8000 0 fold 
1111 1900 8000 100 blind 
8888 1950 8000 50 blind 
total pot: 250 
/inquire 
recv from player 3333: call 

send inquire msg to player 7777 
inquire/ 
3333 1900 8000 100 call 
5555 1900 8000 100 call 
4444 2000 8000 0 fold 
1111 1900 8000 100 blind 
8888 1950 8000 50 blind 
total pot: 350 
/inquire 
recv from player 7777: check 

send inquire msg to player 2222 
inquire/ 
7777 1900 8000 100 call 
3333 1900 8000 100 call 
5555 1900 8000 100 call 
4444 2000 8000 0 fold 
1111 1900 8000 100 blind 
8888 1950 8000 50 blind 
total pot: 450 
/inquire 
recv from player 2222: raise 200 

send inquire msg to player 6666 
inquire/ 
2222 1700 8000 300 raise 
7777 1900 8000 100 call 
3333 1900 8000 100 call 
5555 1900 8000 100 call 
4444 2000 8000 0 fold 
1111 1900 8000 100 blind 
8888 1950 8000 50 blind 
total pot: 750 
/inquire 
recv from player 6666: call 

send inquire msg to player 8888 
inquire/ 
6666 1700 8000 300 call 
2222 1700 8000 300 raise 
7777 1900 8000 100 call 
3333 1900 8000 100 call 
5555 1900 8000 100 call 
4444 2000 8000 0 fold 
1111 1900 8000 100 blind 
8888 1950 8000 50 blind 
total pot: 1050 
/inquire 
recv from player 8888: call 

send inquire msg to player 1111 
inquire/ 
8888 1700 8000 300 call 
6666 1700 8000 300 call 
2222 1700 8000 300 raise 
7777 1900 8000 100 call 
3333 1900 8000 100 call 
5555 1900 8000 100 call 
4444 2000 8000 0 fold 
1111 1900 8000 100 blind 
total pot: 1300 
/inquire 
recv from player 1111: raise 200 

send notify msg to player 4444 
notify/ 
1111 1500 8000 500 raise 
8888 1700 8000 300 call 
6666 1700 8000 300 call 
2222 1700 8000 300 raise 
7777 1900 8000 100 call 
3333 1900 8000 100 call 
5555 1900 8000 100 call 
4444 2000 8000 0 fold 
total pot: 1700 
/notify 
send inquire msg to player 5555 
inquire/ 
4444 2000 8000 0 fold 
1111 1500 8000 500 raise 
8888 1700 8000 300 call 
6666 1700 8000 300 call 
2222 1700 8000 300 raise 
7777 1900 8000 100 call 
3333 1900 8000 100 call 
5555 1900 8000 100 call 
total pot: 1700 
/inquire 
recv from player 5555: check 

send inquire msg to player 3333 
inquire/ 
5555 1500 8000 500 call 
4444 2000 8000 0 fold 
1111 1500 8000 500 raise 
8888 1700 8000 300 call 
6666 1700 8000 300 call 
2222 1700 8000 300 raise 
7777 1900 8000 100 call 
3333 1900 8000 100 call 
total pot: 2100 
/inquire 
recv from player 3333: all_in 

send inquire msg to player 7777 
inquire/ 
3333 0 8000 2000 all_in 
5555 1500 8000 500 call 
4444 2000 8000 0 fold 
1111 1500 8000 500 raise 
8888 1700 8000 300 call 
6666 1700 8000 300 call 
2222 1700 8000 300 raise 
7777 1900 8000 100 call 
total pot: 4000 
/inquire 
recv from player 7777: check 

send inquire msg to player 2222 
inquire/ 
7777 0 8000 2000 all_in 
3333 0 8000 2000 all_in 
5555 1500 8000 500 call 
4444 2000 8000 0 fold 
1111 1500 8000 500 raise 
8888 1700 8000 300 call 
6666 1700 8000 300 call 
2222 1700 8000 300 raise 
total pot: 5900 
/inquire 
recv from player 2222: raise 200 

send inquire msg to player 6666 
inquire/ 
2222 0 8000 2000 all_in 
7777 0 8000 2000 all_in 
3333 0 8000 2000 all_in 
5555 1500 8000 500 call 
4444 2000 8000 0 fold 
1111 1500 8000 500 raise 
8888 1700 8000 300 call 
6666 1700 8000 300 call 
total pot: 7600 
/inquire 
recv from player 6666: call 

send inquire msg to player 8888 
inquire/ 
6666 0 8000 2000 all_in 
2222 0 8000 2000 all_in 
7777 0 8000 2000 all_in 
3333 0 8000 2000 all_in 
5555 1500 8000 500 call 
4444 2000 8000 0 fold 
1111 1500 8000 500 raise 
8888 1700 8000 300 call 
total pot: 9300 
/inquire 
recv from player 8888: call 

send inquire msg to player 1111 
inquire/ 
8888 0 8000 2000 all_in 
6666 0 8000 2000 all_in 
2222 0 8000 2000 all_in 
7777 0 8000 2000 all_in 
3333 0 8000 2000 all_in 
5555 1500 8000 500 call 
4444 2000 8000 0 fold 
1111 1500 8000 500 raise 
total pot: 11000 
/inquire 
recv from player 1111: raise 200 

send notify msg to player 4444 
notify/ 
1111 0 8000 2000 all_in 
8888 0 8000 2000 all_in 
6666 0 8000 2000 all_in 
2222 0 8000 2000 all_in 
7777 0 8000 2000 all_in 
3333 0 8000 2000 all_in 
5555 1500 8000 500 call 
4444 2000 8000 0 fold 
total pot: 12500 
/notify 
send inquire msg to player 5555 
inquire/ 
4444 2000 8000 0 fold 
1111 0 8000 2000 all_in 
8888 0 8000 2000 all_in 
6666 0 8000 2000 all_in 
2222 0 8000 2000 all_in 
7777 0 8000 2000 all_in 
3333 0 8000 2000 all_in 
5555 1500 8000 500 call 
total pot: 12500 
/inquire 
recv from player 5555: check 

flop/ 
HEARTS 4 
DIAMONDS K 
SPADES 5 
/flop 

---flop round bet---
valid player: 8, all in player: 7, fold player: 1
turn/ 
HEARTS 7 
/turn 

---turn round bet---
valid player: 8, all in player: 7, fold player: 1
river/ 
DIAMONDS 9 
/river 

---river round bet---
valid player: 8, all in player: 7, fold player: 1

----- notify msg last round -----
send notify msg to player 3333 
notify/ 
5555 0 8000 2000 all_in 
4444 2000 8000 0 fold 
1111 0 8000 2000 all_in 
8888 0 8000 2000 all_in 
6666 0 8000 2000 all_in 
2222 0 8000 2000 all_in 
7777 0 8000 2000 all_in 
3333 0 8000 2000 all_in 
total pot: 14000 
/notify 
send notify msg to player 7777 
notify/ 
3333 0 8000 2000 all_in 
5555 0 8000 2000 all_in 
4444 2000 8000 0 fold 
1111 0 8000 2000 all_in 
8888 0 8000 2000 all_in 
6666 0 8000 2000 all_in 
2222 0 8000 2000 all_in 
7777 0 8000 2000 all_in 
total pot: 14000 
/notify 
send notify msg to player 2222 
notify/ 
7777 0 8000 2000 all_in 
3333 0 8000 2000 all_in 
5555 0 8000 2000 all_in 
4444 2000 8000 0 fold 
1111 0 8000 2000 all_in 
8888 0 8000 2000 all_in 
6666 0 8000 2000 all_in 
2222 0 8000 2000 all_in 
total pot: 14000 
/notify 
send notify msg to player 6666 
notify/ 
2222 0 8000 2000 all_in 
7777 0 8000 2000 all_in 
3333 0 8000 2000 all_in 
5555 0 8000 2000 all_in 
4444 2000 8000 0 fold 
1111 0 8000 2000 all_in 
8888 0 8000 2000 all_in 
6666 0 8000 2000 all_in 
total pot: 14000 
/notify 
send notify msg to player 8888 
notify/ 
6666 0 8000 2000 all_in 
2222 0 8000 2000 all_in 
7777 0 8000 2000 all_in 
3333 0 8000 2000 all_in 
5555 0 8000 2000 all_in 
4444 2000 8000 0 fold 
1111 0 8000 2000 all_in 
8888 0 8000 2000 all_in 
total pot: 14000 
/notify 
send notify msg to player 1111 
notify/ 
8888 0 8000 2000 all_in 
6666 0 8000 2000 all_in 
2222 0 8000 2000 all_in 
7777 0 8000 2000 all_in 
3333 0 8000 2000 all_in 
5555 0 8000 2000 all_in 
4444 2000 8000 0 fold 
1111 0 8000 2000 all_in 
total pot: 14000 
/notify 
send notify msg to player 4444 
notify/ 
1111 0 8000 2000 all_in 
8888 0 8000 2000 all_in 
6666 0 8000 2000 all_in 
2222 0 8000 2000 all_in 
7777 0 8000 2000 all_in 
3333 0 8000 2000 all_in 
5555 0 8000 2000 all_in 
4444 2000 8000 0 fold 
total pot: 14000 
/notify 
send notify msg to player 5555 
notify/ 
4444 2000 8000 0 fold 
1111 0 8000 2000 all_in 
8888 0 8000 2000 all_in 
6666 0 8000 2000 all_in 
2222 0 8000 2000 all_in 
7777 0 8000 2000 all_in 
3333 0 8000 2000 all_in 
5555 0 8000 2000 all_in 
total pot: 14000 
/notify 

---show down---
showdown/ 
common/ 
HEARTS 4 
DIAMONDS K 
SPADES 5 
HEARTS 7 
DIAMONDS 9 
/common 
1: 8888 SPADES K CLUBS 6 ONE_PAIR 
2: 1111 SPADES A CLUBS 9 ONE_PAIR 
7: 5555 SPADES 6 SPADES 2 HIGH_CARD 
6: 3333 SPADES Q SPADES 3 HIGH_CARD 
4: 7777 CLUBS Q CLUBS A HIGH_CARD 
3: 2222 SPADES 4 DIAMONDS 10 ONE_PAIR 
5: 6666 HEARTS Q HEARTS 10 HIGH_CARD 
/showdown 

---Allocate pot---
pot-win/ 
8888: 14000 
/pot-win 
it is player 8888's turn to be button

-----2 Hand-----

----- clean player data in socket -----
seat/ 
button: 8888 14000 8000 
small blind: 1111 2000 6000 
big blind: 4444 2000 8000 
5555 2000 6000 
3333 2000 6000 
7777 2000 6000 
2222 2000 6000 
6666 2000 6000 
/seat 
blind/ 
1111: 50 
4444: 100 
/blind 
player 1111:hold/ 
DIAMONDS K 
HEARTS 6 
/hold 
player 4444:hold/ 
DIAMONDS 10 
HEARTS 10 
/hold 
player 5555:hold/ 
SPADES 8 
HEARTS 8 
/hold 
player 3333:hold/ 
SPADES 9 
SPADES K 
/hold 
player 7777:hold/ 
DIAMONDS A 
HEARTS Q 
/hold 
player 2222:hold/ 
DIAMONDS 9 
DIAMONDS 5 
/hold 
player 6666:hold/ 
CLUBS 10 
SPADES 6 
/hold 
player 8888:hold/ 
SPADES 10 
SPADES J 
/hold 

---pre flop round bet---
valid player: 8, all in player: 0, fold player: 0
send inquire msg to player 5555 
inquire/ 
4444 1900 8000 100 blind 
1111 1950 6000 50 blind 
total pot: 150 
/inquire 
recv from player 5555: check 

send inquire msg to player 3333 
inquire/ 
5555 1900 6000 100 call 
4444 1900 8000 100 blind 
1111 1950 6000 50 blind 
total pot: 250 
/inquire 
recv from player 3333: check 

send inquire msg to player 7777 
inquire/ 
3333 1900 6000 100 call 
5555 1900 6000 100 call 
4444 1900 8000 100 blind 
1111 1950 6000 50 blind 
total pot: 350 
/inquire 
recv from player 7777: check 

send inquire msg to player 2222 
inquire/ 
7777 1900 6000 100 call 
3333 1900 6000 100 call 
5555 1900 6000 100 call 
4444 1900 8000 100 blind 
1111 1950 6000 50 blind 
total pot: 450 
/inquire 
recv from player 2222: raise 200 

send inquire msg to player 6666 
inquire/ 
2222 1700 6000 300 raise 
7777 1900 6000 100 call 
3333 1900 6000 100 call 
5555 1900 6000 100 call 
4444 1900 8000 100 blind 
1111 1950 6000 50 blind 
total pot: 750 
/inquire 
recv from player 6666: call 

send inquire msg to player 8888 
inquire/ 
6666 1700 6000 300 call 
2222 1700 6000 300 raise 
7777 1900 6000 100 call 
3333 1900 6000 100 call 
5555 1900 6000 100 call 
4444 1900 8000 100 blind 
1111 1950 6000 50 blind 
total pot: 1050 
/inquire 
recv from player 8888: call 

send inquire msg to player 1111 
inquire/ 
8888 13700 8000 300 call 
6666 1700 6000 300 call 
2222 1700 6000 300 raise 
7777 1900 6000 100 call 
3333 1900 6000 100 call 
5555 1900 6000 100 call 
4444 1900 8000 100 blind 
1111 1950 6000 50 blind 
total pot: 1350 
/inquire 
recv from player 1111: check 

send inquire msg to player 4444 
inquire/ 
1111 1700 6000 300 call 
8888 13700 8000 300 call 
6666 1700 6000 300 call 
2222 1700 6000 300 raise 
7777 1900 6000 100 call 
3333 1900 6000 100 call 
5555 1900 6000 100 call 
4444 1900 8000 100 blind 
total pot: 1600 
/inquire 
recv from player 4444: fold 

send inquire msg to player 5555 
inquire/ 
4444 1900 8000 100 fold 
1111 1700 6000 300 call 
8888 13700 8000 300 call 
6666 1700 6000 300 call 
2222 1700 6000 300 raise 
7777 1900 6000 100 call 
3333 1900 6000 100 call 
5555 1900 6000 100 call 
total pot: 1600 
/inquire 
recv from player 5555: check 

send inquire msg to player 3333 
inquire/ 
5555 1700 6000 300 call 
4444 1900 8000 100 fold 
1111 1700 6000 300 call 
8888 13700 8000 300 call 
6666 1700 6000 300 call 
2222 1700 6000 300 raise 
7777 1900 6000 100 call 
3333 1900 6000 100 call 
total pot: 1800 
/inquire 
recv from player 3333: call 

send inquire msg to player 7777 
inquire/ 
3333 1700 6000 300 call 
5555 1700 6000 300 call 
4444 1900 8000 100 fold 
1111 1700 6000 300 call 
8888 13700 8000 300 call 
6666 1700 6000 300 call 
2222 1700 6000 300 raise 
7777 1900 6000 100 call 
total pot: 2000 
/inquire 
recv from player 7777: check 

flop/ 
SPADES A 
DIAMONDS Q 
HEARTS K 
/flop 

---flop round bet---
valid player: 8, all in player: 0, fold player: 1
send inquire msg to player 1111 
inquire/ 
8888 13700 8000 300 call 
6666 1700 6000 300 call 
2222 1700 6000 300 raise 
7777 1700 6000 300 call 
3333 1700 6000 300 call 
5555 1700 6000 300 call 
4444 1900 8000 100 fold 
1111 1700 6000 300 call 
total pot: 2200 
/inquire 
recv from player 1111: call 

send notify msg to player 4444 
notify/ 
1111 1700 6000 300 check 
8888 13700 8000 300 call 
6666 1700 6000 300 call 
2222 1700 6000 300 raise 
7777 1700 6000 300 call 
3333 1700 6000 300 call 
5555 1700 6000 300 call 
4444 1900 8000 100 fold 
total pot: 2200 
/notify 
send inquire msg to player 5555 
inquire/ 
4444 1900 8000 100 fold 
1111 1700 6000 300 check 
8888 13700 8000 300 call 
6666 1700 6000 300 call 
2222 1700 6000 300 raise 
7777 1700 6000 300 call 
3333 1700 6000 300 call 
5555 1700 6000 300 call 
total pot: 2200 
/inquire 
recv from player 5555: check 

send inquire msg to player 3333 
inquire/ 
5555 1700 6000 300 check 
4444 1900 8000 100 fold 
1111 1700 6000 300 check 
8888 13700 8000 300 call 
6666 1700 6000 300 call 
2222 1700 6000 300 raise 
7777 1700 6000 300 call 
3333 1700 6000 300 call 
total pot: 2200 
/inquire 
recv from player 3333: all_in 

send inquire msg to player 7777 
inquire/ 
3333 0 6000 2000 all_in 
5555 1700 6000 300 check 
4444 1900 8000 100 fold 
1111 1700 6000 300 check 
8888 13700 8000 300 call 
6666 1700 6000 300 call 
2222 1700 6000 300 raise 
7777 1700 6000 300 call 
total pot: 3900 
/inquire 
recv from player 7777: check 

send inquire msg to player 2222 
inquire/ 
7777 0 6000 2000 all_in 
3333 0 6000 2000 all_in 
5555 1700 6000 300 check 
4444 1900 8000 100 fold 
1111 1700 6000 300 check 
8888 13700 8000 300 call 
6666 1700 6000 300 call 
2222 1700 6000 300 raise 
total pot: 5600 
/inquire 
recv from player 2222: raise 200 

send inquire msg to player 6666 
inquire/ 
2222 0 6000 2000 all_in 
7777 0 6000 2000 all_in 
3333 0 6000 2000 all_in 
5555 1700 6000 300 check 
4444 1900 8000 100 fold 
1111 1700 6000 300 check 
8888 13700 8000 300 call 
6666 1700 6000 300 call 
total pot: 7300 
/inquire 
recv from player 6666: call 

send inquire msg to player 8888 
inquire/ 
6666 0 6000 2000 all_in 
2222 0 6000 2000 all_in 
7777 0 6000 2000 all_in 
3333 0 6000 2000 all_in 
5555 1700 6000 300 check 
4444 1900 8000 100 fold 
1111 1700 6000 300 check 
8888 13700 8000 300 call 
total pot: 9000 
/inquire 
recv from player 8888: raise 100 

send inquire msg to player 1111 
inquire/ 
8888 10300 8000 3700 raise 
6666 0 6000 2000 all_in 
2222 0 6000 2000 all_in 
7777 0 6000 2000 all_in 
3333 0 6000 2000 all_in 
5555 1700 6000 300 check 
4444 1900 8000 100 fold 
1111 1700 6000 300 check 
total pot: 12400 
/inquire 
recv from player 1111: raise 200 

send notify msg to player 4444 
notify/ 
1111 0 6000 2000 all_in 
8888 10300 8000 3700 raise 
6666 0 6000 2000 all_in 
2222 0 6000 2000 all_in 
7777 0 6000 2000 all_in 
3333 0 6000 2000 all_in 
5555 1700 6000 300 check 
4444 1900 8000 100 fold 
total pot: 14100 
/notify 
send inquire msg to player 5555 
inquire/ 
4444 1900 8000 100 fold 
1111 0 6000 2000 all_in 
8888 10300 8000 3700 raise 
6666 0 6000 2000 all_in 
2222 0 6000 2000 all_in 
7777 0 6000 2000 all_in 
3333 0 6000 2000 all_in 
5555 1700 6000 300 check 
total pot: 14100 
/inquire 
recv from player 5555: check 

turn/ 
SPADES Q 
/turn 

---turn round bet---
valid player: 8, all in player: 6, fold player: 1
river/ 
CLUBS 6 
/river 

---river round bet---
valid player: 8, all in player: 6, fold player: 1

----- notify msg last round -----
send notify msg to player 3333 
notify/ 
5555 0 6000 2000 all_in 
4444 1900 8000 100 fold 
1111 0 6000 2000 all_in 
8888 10300 8000 3700 raise 
6666 0 6000 2000 all_in 
2222 0 6000 2000 all_in 
7777 0 6000 2000 all_in 
3333 0 6000 2000 all_in 
total pot: 15800 
/notify 
send notify msg to player 7777 
notify/ 
3333 0 6000 2000 all_in 
5555 0 6000 2000 all_in 
4444 1900 8000 100 fold 
1111 0 6000 2000 all_in 
8888 10300 8000 3700 raise 
6666 0 6000 2000 all_in 
2222 0 6000 2000 all_in 
7777 0 6000 2000 all_in 
total pot: 15800 
/notify 
send notify msg to player 2222 
notify/ 
7777 0 6000 2000 all_in 
3333 0 6000 2000 all_in 
5555 0 6000 2000 all_in 
4444 1900 8000 100 fold 
1111 0 6000 2000 all_in 
8888 10300 8000 3700 raise 
6666 0 6000 2000 all_in 
2222 0 6000 2000 all_in 
total pot: 15800 
/notify 
send notify msg to player 6666 
notify/ 
2222 0 6000 2000 all_in 
7777 0 6000 2000 all_in 
3333 0 6000 2000 all_in 
5555 0 6000 2000 all_in 
4444 1900 8000 100 fold 
1111 0 6000 2000 all_in 
8888 10300 8000 3700 raise 
6666 0 6000 2000 all_in 
total pot: 15800 
/notify 
send notify msg to player 8888 
notify/ 
6666 0 6000 2000 all_in 
2222 0 6000 2000 all_in 
7777 0 6000 2000 all_in 
3333 0 6000 2000 all_in 
5555 0 6000 2000 all_in 
4444 1900 8000 100 fold 
1111 0 6000 2000 all_in 
8888 10300 8000 3700 raise 
total pot: 15800 
/notify 
send notify msg to player 1111 
notify/ 
8888 10300 8000 3700 raise 
6666 0 6000 2000 all_in 
2222 0 6000 2000 all_in 
7777 0 6000 2000 all_in 
3333 0 6000 2000 all_in 
5555 0 6000 2000 all_in 
4444 1900 8000 100 fold 
1111 0 6000 2000 all_in 
total pot: 15800 
/notify 
send notify msg to player 4444 
notify/ 
1111 0 6000 2000 all_in 
8888 10300 8000 3700 raise 
6666 0 6000 2000 all_in 
2222 0 6000 2000 all_in 
7777 0 6000 2000 all_in 
3333 0 6000 2000 all_in 
5555 0 6000 2000 all_in 
4444 1900 8000 100 fold 
total pot: 15800 
/notify 
send notify msg to player 5555 
notify/ 
4444 1900 8000 100 fold 
1111 0 6000 2000 all_in 
8888 10300 8000 3700 raise 
6666 0 6000 2000 all_in 
2222 0 6000 2000 all_in 
7777 0 6000 2000 all_in 
3333 0 6000 2000 all_in 
5555 0 6000 2000 all_in 
total pot: 15800 
/notify 

---show down---
showdown/ 
common/ 
SPADES A 
DIAMONDS Q 
HEARTS K 
SPADES Q 
CLUBS 6 
/common 
3: 1111 DIAMONDS K HEARTS 6 TWO_PAIR 
4: 5555 SPADES 8 HEARTS 8 TWO_PAIR 
3: 3333 SPADES 9 SPADES K TWO_PAIR 
1: 7777 DIAMONDS A HEARTS Q FULL_HOUSE 
6: 2222 DIAMONDS 9 DIAMONDS 5 ONE_PAIR 
5: 6666 CLUBS 10 SPADES 6 TWO_PAIR 
2: 8888 SPADES 10 SPADES J STRAIGHT 
/showdown 

---Allocate pot---
pot-win/ 
7777: 14100 
8888: 1700 
/pot-win 
it is player 1111's turn to be button

-----3 Hand-----

----- clean player data in socket -----
seat/ 
button: 1111 2000 4000 
small blind: 4444 1900 8000 
big blind: 5555 2000 4000 
3333 2000 4000 
7777 14100 6000 
2222 2000 4000 
6666 2000 4000 
8888 12000 8000 
/seat 
blind/ 
4444: 50 
5555: 100 
/blind 
player 4444:hold/ 
HEARTS 5 
DIAMONDS Q 
/hold 
player 5555:hold/ 
SPADES 3 
DIAMONDS 2 
/hold 
player 3333:hold/ 
HEARTS 8 
SPADES K 
/hold 
player 7777:hold/ 
HEARTS Q 
SPADES 4 
/hold 
player 2222:hold/ 
HEARTS K 
SPADES 5 
/hold 
player 6666:hold/ 
CLUBS Q 
SPADES J 
/hold 
player 8888:hold/ 
DIAMONDS J 
DIAMONDS 10 
/hold 
player 1111:hold/ 
DIAMONDS 4 
DIAMONDS A 
/hold 

---pre flop round bet---
valid player: 8, all in player: 0, fold player: 0
send inquire msg to player 3333 
inquire/ 
5555 1900 4000 100 blind 
4444 1850 8000 50 blind 
total pot: 150 
/inquire 
recv from player 3333: all_in 

send inquire msg to player 7777 
inquire/ 
3333 0 4000 2000 all_in 
5555 1900 4000 100 blind 
4444 1850 8000 50 blind 
total pot: 2150 
/inquire 
recv from player 7777: check 

send inquire msg to player 2222 
inquire/ 
7777 12100 6000 2000 call 
3333 0 4000 2000 all_in 
5555 1900 4000 100 blind 
4444 1850 8000 50 blind 
total pot: 4150 
/inquire 
recv from player 2222: raise 200 

send inquire msg to player 6666 
inquire/ 
2222 0 4000 2000 all_in 
7777 12100 6000 2000 call 
3333 0 4000 2000 all_in 
5555 1900 4000 100 blind 
4444 1850 8000 50 blind 
total pot: 6150 
/inquire 
recv from player 6666: call 

send inquire msg to player 8888 
inquire/ 
6666 0 4000 2000 all_in 
2222 0 4000 2000 all_in 
7777 12100 6000 2000 call 
3333 0 4000 2000 all_in 
5555 1900 4000 100 blind 
4444 1850 8000 50 blind 
total pot: 8150 
/inquire 
recv from player 8888: call 

send inquire msg to player 1111 
inquire/ 
8888 10000 8000 2000 call 
6666 0 4000 2000 all_in 
2222 0 4000 2000 all_in 
7777 12100 6000 2000 call 
3333 0 4000 2000 all_in 
5555 1900 4000 100 blind 
4444 1850 8000 50 blind 
total pot: 10150 
/inquire 
recv from player 1111: call 

send inquire msg to player 4444 
inquire/ 
1111 0 4000 2000 all_in 
8888 10000 8000 2000 call 
6666 0 4000 2000 all_in 
2222 0 4000 2000 all_in 
7777 12100 6000 2000 call 
3333 0 4000 2000 all_in 
5555 1900 4000 100 blind 
4444 1850 8000 50 blind 
total pot: 12150 
/inquire 
recv from player 4444: fold 

send inquire msg to player 5555 
inquire/ 
4444 1850 8000 50 fold 
1111 0 4000 2000 all_in 
8888 10000 8000 2000 call 
6666 0 4000 2000 all_in 
2222 0 4000 2000 all_in 
7777 12100 6000 2000 call 
3333 0 4000 2000 all_in 
5555 1900 4000 100 blind 
total pot: 12150 
/inquire 
recv from player 5555: check 

flop/ 
DIAMONDS 3 
HEARTS 10 
CLUBS 2 
/flop 

---flop round bet---
valid player: 8, all in player: 5, fold player: 1
send notify msg to player 4444 
notify/ 
1111 0 4000 2000 all_in 
8888 10000 8000 2000 call 
6666 0 4000 2000 all_in 
2222 0 4000 2000 all_in 
7777 12100 6000 2000 call 
3333 0 4000 2000 all_in 
5555 0 4000 2000 all_in 
4444 1850 8000 50 fold 
total pot: 14050 
/notify 
send notify msg to player 5555 
notify/ 
4444 1850 8000 50 fold 
1111 0 4000 2000 all_in 
8888 10000 8000 2000 call 
6666 0 4000 2000 all_in 
2222 0 4000 2000 all_in 
7777 12100 6000 2000 call 
3333 0 4000 2000 all_in 
5555 0 4000 2000 all_in 
total pot: 14050 
/notify 
send notify msg to player 3333 
notify/ 
5555 0 4000 2000 all_in 
4444 1850 8000 50 fold 
1111 0 4000 2000 all_in 
8888 10000 8000 2000 call 
6666 0 4000 2000 all_in 
2222 0 4000 2000 all_in 
7777 12100 6000 2000 call 
3333 0 4000 2000 all_in 
total pot: 14050 
/notify 
send inquire msg to player 7777 
inquire/ 
3333 0 4000 2000 all_in 
5555 0 4000 2000 all_in 
4444 1850 8000 50 fold 
1111 0 4000 2000 all_in 
8888 10000 8000 2000 call 
6666 0 4000 2000 all_in 
2222 0 4000 2000 all_in 
7777 12100 6000 2000 call 
total pot: 14050 
/inquire 
recv from player 7777: check 

send notify msg to player 2222 
notify/ 
7777 12100 6000 2000 check 
3333 0 4000 2000 all_in 
5555 0 4000 2000 all_in 
4444 1850 8000 50 fold 
1111 0 4000 2000 all_in 
8888 10000 8000 2000 call 
6666 0 4000 2000 all_in 
2222 0 4000 2000 all_in 
total pot: 14050 
/notify 
send notify msg to player 6666 
notify/ 
2222 0 4000 2000 all_in 
7777 12100 6000 2000 check 
3333 0 4000 2000 all_in 
5555 0 4000 2000 all_in 
4444 1850 8000 50 fold 
1111 0 4000 2000 all_in 
8888 10000 8000 2000 call 
6666 0 4000 2000 all_in 
total pot: 14050 
/notify 
send inquire msg to player 8888 
inquire/ 
6666 0 4000 2000 all_in 
2222 0 4000 2000 all_in 
7777 12100 6000 2000 check 
3333 0 4000 2000 all_in 
5555 0 4000 2000 all_in 
4444 1850 8000 50 fold 
1111 0 4000 2000 all_in 
8888 10000 8000 2000 call 
total pot: 14050 
/inquire 
recv from player 8888: check 

turn/ 
CLUBS 8 
/turn 

---turn round bet---
valid player: 8, all in player: 5, fold player: 1
send notify msg to player 4444 
notify/ 
1111 0 4000 2000 all_in 
8888 10000 8000 2000 check 
6666 0 4000 2000 all_in 
2222 0 4000 2000 all_in 
7777 12100 6000 2000 check 
3333 0 4000 2000 all_in 
5555 0 4000 2000 all_in 
4444 1850 8000 50 fold 
total pot: 14050 
/notify 
send notify msg to player 5555 
notify/ 
4444 1850 8000 50 fold 
1111 0 4000 2000 all_in 
8888 10000 8000 2000 check 
6666 0 4000 2000 all_in 
2222 0 4000 2000 all_in 
7777 12100 6000 2000 check 
3333 0 4000 2000 all_in 
5555 0 4000 2000 all_in 
total pot: 14050 
/notify 
send notify msg to player 3333 
notify/ 
5555 0 4000 2000 all_in 
4444 1850 8000 50 fold 
1111 0 4000 2000 all_in 
8888 10000 8000 2000 check 
6666 0 4000 2000 all_in 
2222 0 4000 2000 all_in 
7777 12100 6000 2000 check 
3333 0 4000 2000 all_in 
total pot: 14050 
/notify 
send inquire msg to player 7777 
inquire/ 
3333 0 4000 2000 all_in 
5555 0 4000 2000 all_in 
4444 1850 8000 50 fold 
1111 0 4000 2000 all_in 
8888 10000 8000 2000 check 
6666 0 4000 2000 all_in 
2222 0 4000 2000 all_in 
7777 12100 6000 2000 check 
total pot: 14050 
/inquire 
recv from player 7777: check 

send notify msg to player 2222 
notify/ 
7777 12100 6000 2000 check 
3333 0 4000 2000 all_in 
5555 0 4000 2000 all_in 
4444 1850 8000 50 fold 
1111 0 4000 2000 all_in 
8888 10000 8000 2000 check 
6666 0 4000 2000 all_in 
2222 0 4000 2000 all_in 
total pot: 14050 
/notify 
send notify msg to player 6666 
notify/ 
2222 0 4000 2000 all_in 
7777 12100 6000 2000 check 
3333 0 4000 2000 all_in 
5555 0 4000 2000 all_in 
4444 1850 8000 50 fold 
1111 0 4000 2000 all_in 
8888 10000 8000 2000 check 
6666 0 4000 2000 all_in 
total pot: 14050 
/notify 
send inquire msg to player 8888 
inquire/ 
6666 0 4000 2000 all_in 
2222 0 4000 2000 all_in 
7777 12100 6000 2000 check 
3333 0 4000 2000 all_in 
5555 0 4000 2000 all_in 
4444 1850 8000 50 fold 
1111 0 4000 2000 all_in 
8888 10000 8000 2000 check 
total pot: 14050 
/inquire 
recv from player 8888: check 

river/ 
DIAMONDS 6 
/river 

---river round bet---
valid player: 8, all in player: 5, fold player: 1
send notify msg to player 4444 
notify/ 
1111 0 4000 2000 all_in 
8888 10000 8000 2000 check 
6666 0 4000 2000 all_in 
2222 0 4000 2000 all_in 
7777 12100 6000 2000 check 
3333 0 4000 2000 all_in 
5555 0 4000 2000 all_in 
4444 1850 8000 50 fold 
total pot: 14050 
/notify 
send notify msg to player 5555 
notify/ 
4444 1850 8000 50 fold 
1111 0 4000 2000 all_in 
8888 10000 8000 2000 check 
6666 0 4000 2000 all_in 
2222 0 4000 2000 all_in 
7777 12100 6000 2000 check 
3333 0 4000 2000 all_in 
5555 0 4000 2000 all_in 
total pot: 14050 
/notify 
send notify msg to player 3333 
notify/ 
5555 0 4000 2000 all_in 
4444 1850 8000 50 fold 
1111 0 4000 2000 all_in 
8888 10000 8000 2000 check 
6666 0 4000 2000 all_in 
2222 0 4000 2000 all_in 
7777 12100 6000 2000 check 
3333 0 4000 2000 all_in 
total pot: 14050 
/notify 
send inquire msg to player 7777 
inquire/ 
3333 0 4000 2000 all_in 
5555 0 4000 2000 all_in 
4444 1850 8000 50 fold 
1111 0 4000 2000 all_in 
8888 10000 8000 2000 check 
6666 0 4000 2000 all_in 
2222 0 4000 2000 all_in 
7777 12100 6000 2000 check 
total pot: 14050 
/inquire 
recv from player 7777: check 

send notify msg to player 2222 
notify/ 
7777 12100 6000 2000 check 
3333 0 4000 2000 all_in 
5555 0 4000 2000 all_in 
4444 1850 8000 50 fold 
1111 0 4000 2000 all_in 
8888 10000 8000 2000 check 
6666 0 4000 2000 all_in 
2222 0 4000 2000 all_in 
total pot: 14050 
/notify 
send notify msg to player 6666 
notify/ 
2222 0 4000 2000 all_in 
7777 12100 6000 2000 check 
3333 0 4000 2000 all_in 
5555 0 4000 2000 all_in 
4444 1850 8000 50 fold 
1111 0 4000 2000 all_in 
8888 10000 8000 2000 check 
6666 0 4000 2000 all_in 
total pot: 14050 
/notify 
send inquire msg to player 8888 
inquire/ 
6666 0 4000 2000 all_in 
2222 0 4000 2000 all_in 
7777 12100 6000 2000 check 
3333 0 4000 2000 all_in 
5555 0 4000 2000 all_in 
4444 1850 8000 50 fold 
1111 0 4000 2000 all_in 
8888 10000 8000 2000 check 
total pot: 14050 
/inquire 
recv from player 8888: check 


----- notify msg last round -----
send notify msg to player 1111 
notify/ 
8888 10000 8000 2000 check 
6666 0 4000 2000 all_in 
2222 0 4000 2000 all_in 
7777 12100 6000 2000 check 
3333 0 4000 2000 all_in 
5555 0 4000 2000 all_in 
4444 1850 8000 50 fold 
1111 0 4000 2000 all_in 
total pot: 14050 
/notify 
send notify msg to player 4444 
notify/ 
1111 0 4000 2000 all_in 
8888 10000 8000 2000 check 
6666 0 4000 2000 all_in 
2222 0 4000 2000 all_in 
7777 12100 6000 2000 check 
3333 0 4000 2000 all_in 
5555 0 4000 2000 all_in 
4444 1850 8000 50 fold 
total pot: 14050 
/notify 
send notify msg to player 5555 
notify/ 
4444 1850 8000 50 fold 
1111 0 4000 2000 all_in 
8888 10000 8000 2000 check 
6666 0 4000 2000 all_in 
2222 0 4000 2000 all_in 
7777 12100 6000 2000 check 
3333 0 4000 2000 all_in 
5555 0 4000 2000 all_in 
total pot: 14050 
/notify 
send notify msg to player 3333 
notify/ 
5555 0 4000 2000 all_in 
4444 1850 8000 50 fold 
1111 0 4000 2000 all_in 
8888 10000 8000 2000 check 
6666 0 4000 2000 all_in 
2222 0 4000 2000 all_in 
7777 12100 6000 2000 check 
3333 0 4000 2000 all_in 
total pot: 14050 
/notify 
send notify msg to player 7777 
notify/ 
3333 0 4000 2000 all_in 
5555 0 4000 2000 all_in 
4444 1850 8000 50 fold 
1111 0 4000 2000 all_in 
8888 10000 8000 2000 check 
6666 0 4000 2000 all_in 
2222 0 4000 2000 all_in 
7777 12100 6000 2000 check 
total pot: 14050 
/notify 
send notify msg to player 2222 
notify/ 
7777 12100 6000 2000 check 
3333 0 4000 2000 all_in 
5555 0 4000 2000 all_in 
4444 1850 8000 50 fold 
1111 0 4000 2000 all_in 
8888 10000 8000 2000 check 
6666 0 4000 2000 all_in 
2222 0 4000 2000 all_in 
total pot: 14050 
/notify 
send notify msg to player 6666 
notify/ 
2222 0 4000 2000 all_in 
7777 12100 6000 2000 check 
3333 0 4000 2000 all_in 
5555 0 4000 2000 all_in 
4444 1850 8000 50 fold 
1111 0 4000 2000 all_in 
8888 10000 8000 2000 check 
6666 0 4000 2000 all_in 
total pot: 14050 
/notify 
send notify msg to player 8888 
notify/ 
6666 0 4000 2000 all_in 
2222 0 4000 2000 all_in 
7777 12100 6000 2000 check 
3333 0 4000 2000 all_in 
5555 0 4000 2000 all_in 
4444 1850 8000 50 fold 
1111 0 4000 2000 all_in 
8888 10000 8000 2000 check 
total pot: 14050 
/notify 

---show down---
showdown/ 
common/ 
DIAMONDS 3 
HEARTS 10 
CLUBS 2 
CLUBS 8 
DIAMONDS 6 
/common 
1: 5555 SPADES 3 DIAMONDS 2 TWO_PAIR 
3: 3333 HEARTS 8 SPADES K ONE_PAIR 
7: 7777 HEARTS Q SPADES 4 HIGH_CARD 
5: 2222 HEARTS K SPADES 5 HIGH_CARD 
6: 6666 CLUBS Q SPADES J HIGH_CARD 
2: 8888 DIAMONDS J DIAMONDS 10 ONE_PAIR 
4: 1111 DIAMONDS 4 DIAMONDS A HIGH_CARD 
/showdown 

---Allocate pot---
pot-win/ 
5555: 14050 
/pot-win 
it is player 4444's turn to be button

-----4 Hand-----

----- clean player data in socket -----
seat/ 
button: 4444 1850 8000 
small blind: 5555 14050 4000 
big blind: 3333 2000 2000 
7777 12100 6000 
2222 2000 2000 
6666 2000 2000 
8888 10000 8000 
1111 2000 2000 
/seat 
blind/ 
5555: 50 
3333: 100 
/blind 
player 5555:hold/ 
HEARTS 4 
SPADES 6 
/hold 
player 3333:hold/ 
DIAMONDS J 
HEARTS J 
/hold 
player 7777:hold/ 
CLUBS 6 
HEARTS 2 
/hold 
player 2222:hold/ 
HEARTS A 
SPADES 5 
/hold 
player 6666:hold/ 
HEARTS 3 
DIAMONDS 10 
/hold 
player 8888:hold/ 
DIAMONDS Q 
HEARTS Q 
/hold 
player 1111:hold/ 
HEARTS K 
HEARTS 7 
/hold 
player 4444:hold/ 
CLUBS A 
DIAMONDS 6 
/hold 

---pre flop round bet---
valid player: 8, all in player: 0, fold player: 0
send inquire msg to player 7777 
inquire/ 
3333 1900 2000 100 blind 
5555 14000 4000 50 blind 
total pot: 150 
/inquire 
recv from player 7777: check 

send inquire msg to player 2222 
inquire/ 
7777 12000 6000 100 call 
3333 1900 2000 100 blind 
5555 14000 4000 50 blind 
total pot: 250 
/inquire 
recv from player 2222: raise 200 

send inquire msg to player 6666 
inquire/ 
2222 1700 2000 300 raise 
7777 12000 6000 100 call 
3333 1900 2000 100 blind 
5555 14000 4000 50 blind 
total pot: 550 
/inquire 
recv from player 6666: call 

send inquire msg to player 8888 
inquire/ 
6666 1700 2000 300 call 
2222 1700 2000 300 raise 
7777 12000 6000 100 call 
3333 1900 2000 100 blind 
5555 14000 4000 50 blind 
total pot: 850 
/inquire 
recv from player 8888: raise 200 

send inquire msg to player 1111 
inquire/ 
8888 9500 8000 500 raise 
6666 1700 2000 300 call 
2222 1700 2000 300 raise 
7777 12000 6000 100 call 
3333 1900 2000 100 blind 
5555 14000 4000 50 blind 
total pot: 1350 
/inquire 
recv from player 1111: call 

send inquire msg to player 4444 
inquire/ 
1111 1500 2000 500 call 
8888 9500 8000 500 raise 
6666 1700 2000 300 call 
2222 1700 2000 300 raise 
7777 12000 6000 100 call 
3333 1900 2000 100 blind 
5555 14000 4000 50 blind 
total pot: 1850 
/inquire 
recv from player 4444: fold 

send inquire msg to player 5555 
inquire/ 
4444 1850 8000 0 fold 
1111 1500 2000 500 call 
8888 9500 8000 500 raise 
6666 1700 2000 300 call 
2222 1700 2000 300 raise 
7777 12000 6000 100 call 
3333 1900 2000 100 blind 
5555 14000 4000 50 blind 
total pot: 1850 
/inquire 
recv from player 5555: check 

send inquire msg to player 3333 
inquire/ 
5555 13550 4000 500 call 
4444 1850 8000 0 fold 
1111 1500 2000 500 call 
8888 9500 8000 500 raise 
6666 1700 2000 300 call 
2222 1700 2000 300 raise 
7777 12000 6000 100 call 
3333 1900 2000 100 blind 
total pot: 2300 
/inquire 
recv from player 3333: all_in 

send inquire msg to player 7777 
inquire/ 
3333 0 2000 2000 all_in 
5555 13550 4000 500 call 
4444 1850 8000 0 fold 
1111 1500 2000 500 call 
8888 9500 8000 500 raise 
6666 1700 2000 300 call 
2222 1700 2000 300 raise 
7777 12000 6000 100 call 
total pot: 4200 
/inquire 
recv from player 7777: check 

send inquire msg to player 2222 
inquire/ 
7777 10100 6000 2000 call 
3333 0 2000 2000 all_in 
5555 13550 4000 500 call 
4444 1850 8000 0 fold 
1111 1500 2000 500 call 
8888 9500 8000 500 raise 
6666 1700 2000 300 call 
2222 1700 2000 300 raise 
total pot: 6100 
/inquire 
recv from player 2222: raise 200 

send inquire msg to player 6666 
inquire/ 
2222 0 2000 2000 all_in 
7777 10100 6000 2000 call 
3333 0 2000 2000 all_in 
5555 13550 4000 500 call 
4444 1850 8000 0 fold 
1111 1500 2000 500 call 
8888 9500 8000 500 raise 
6666 1700 2000 300 call 
total pot: 7800 
/inquire 
recv from player 6666: call 

send inquire msg to player 8888 
inquire/ 
6666 0 2000 2000 all_in 
2222 0 2000 2000 all_in 
7777 10100 6000 2000 call 
3333 0 2000 2000 all_in 
5555 13550 4000 500 call 
4444 1850 8000 0 fold 
1111 1500 2000 500 call 
8888 9500 8000 500 raise 
total pot: 9500 
/inquire 
recv from player 8888: raise 200 

send inquire msg to player 1111 
inquire/ 
8888 6500 8000 3500 raise 
6666 0 2000 2000 all_in 
2222 0 2000 2000 all_in 
7777 10100 6000 2000 call 
3333 0 2000 2000 all_in 
5555 13550 4000 500 call 
4444 1850 8000 0 fold 
1111 1500 2000 500 call 
total pot: 12500 
/inquire 
recv from player 1111: all_in 

send notify msg to player 4444 
notify/ 
1111 0 2000 2000 all_in 
8888 6500 8000 3500 raise 
6666 0 2000 2000 all_in 
2222 0 2000 2000 all_in 
7777 10100 6000 2000 call 
3333 0 2000 2000 all_in 
5555 13550 4000 500 call 
4444 1850 8000 0 fold 
total pot: 14000 
/notify 
send inquire msg to player 5555 
inquire/ 
4444 1850 8000 0 fold 
1111 0 2000 2000 all_in 
8888 6500 8000 3500 raise 
6666 0 2000 2000 all_in 
2222 0 2000 2000 all_in 
7777 10100 6000 2000 call 
3333 0 2000 2000 all_in 
5555 13550 4000 500 call 
total pot: 14000 
/inquire 
recv from player 5555: check 

send notify msg to player 3333 
notify/ 
5555 10550 4000 3500 call 
4444 1850 8000 0 fold 
1111 0 2000 2000 all_in 
8888 6500 8000 3500 raise 
6666 0 2000 2000 all_in 
2222 0 2000 2000 all_in 
7777 10100 6000 2000 call 
3333 0 2000 2000 all_in 
total pot: 17000 
/notify 
send inquire msg to player 7777 
inquire/ 
3333 0 2000 2000 all_in 
5555 10550 4000 3500 call 
4444 1850 8000 0 fold 
1111 0 2000 2000 all_in 
8888 6500 8000 3500 raise 
6666 0 2000 2000 all_in 
2222 0 2000 2000 all_in 
7777 10100 6000 2000 call 
total pot: 17000 
/inquire 
recv from player 7777: check 

flop/ 
DIAMONDS 4 
SPADES 8 
CLUBS K 
/flop 

---flop round bet---
valid player: 8, all in player: 4, fold player: 1
send inquire msg to player 5555 
inquire/ 
4444 1850 8000 0 fold 
1111 0 2000 2000 all_in 
8888 6500 8000 3500 raise 
6666 0 2000 2000 all_in 
2222 0 2000 2000 all_in 
7777 8600 6000 3500 call 
3333 0 2000 2000 all_in 
5555 10550 4000 3500 call 
total pot: 18500 
/inquire 
recv from player 5555: check 

send notify msg to player 3333 
notify/ 
5555 10550 4000 3500 check 
4444 1850 8000 0 fold 
1111 0 2000 2000 all_in 
8888 6500 8000 3500 raise 
6666 0 2000 2000 all_in 
2222 0 2000 2000 all_in 
7777 8600 6000 3500 call 
3333 0 2000 2000 all_in 
total pot: 18500 
/notify 
send inquire msg to player 7777 
inquire/ 
3333 0 2000 2000 all_in 
5555 10550 4000 3500 check 
4444 1850 8000 0 fold 
1111 0 2000 2000 all_in 
8888 6500 8000 3500 raise 
6666 0 2000 2000 all_in 
2222 0 2000 2000 all_in 
7777 8600 6000 3500 call 
total pot: 18500 
/inquire 
recv from player 7777: check 

send notify msg to player 2222 
notify/ 
7777 8600 6000 3500 check 
3333 0 2000 2000 all_in 
5555 10550 4000 3500 check 
4444 1850 8000 0 fold 
1111 0 2000 2000 all_in 
8888 6500 8000 3500 raise 
6666 0 2000 2000 all_in 
2222 0 2000 2000 all_in 
total pot: 18500 
/notify 
send notify msg to player 6666 
notify/ 
2222 0 2000 2000 all_in 
7777 8600 6000 3500 check 
3333 0 2000 2000 all_in 
5555 10550 4000 3500 check 
4444 1850 8000 0 fold 
1111 0 2000 2000 all_in 
8888 6500 8000 3500 raise 
6666 0 2000 2000 all_in 
total pot: 18500 
/notify 
send inquire msg to player 8888 
inquire/ 
6666 0 2000 2000 all_in 
2222 0 2000 2000 all_in 
7777 8600 6000 3500 check 
3333 0 2000 2000 all_in 
5555 10550 4000 3500 check 
4444 1850 8000 0 fold 
1111 0 2000 2000 all_in 
8888 6500 8000 3500 raise 
total pot: 18500 
/inquire 
recv from player 8888: raise 100 

send notify msg to player 1111 
notify/ 
8888 6400 8000 3600 raise 
6666 0 2000 2000 all_in 
2222 0 2000 2000 all_in 
7777 8600 6000 3500 check 
3333 0 2000 2000 all_in 
5555 10550 4000 3500 check 
4444 1850 8000 0 fold 
1111 0 2000 2000 all_in 
total pot: 18600 
/notify 
send notify msg to player 4444 
notify/ 
1111 0 2000 2000 all_in 
8888 6400 8000 3600 raise 
6666 0 2000 2000 all_in 
2222 0 2000 2000 all_in 
7777 8600 6000 3500 check 
3333 0 2000 2000 all_in 
5555 10550 4000 3500 check 
4444 1850 8000 0 fold 
total pot: 18600 
/notify 
send inquire msg to player 5555 
inquire/ 
4444 1850 8000 0 fold 
1111 0 2000 2000 all_in 
8888 6400 8000 3600 raise 
6666 0 2000 2000 all_in 
2222 0 2000 2000 all_in 
7777 8600 6000 3500 check 
3333 0 2000 2000 all_in 
5555 10550 4000 3500 check 
total pot: 18600 
/inquire 
recv from player 5555: check 

send notify msg to player 3333 
notify/ 
5555 10450 4000 3600 call 
4444 1850 8000 0 fold 
1111 0 2000 2000 all_in 
8888 6400 8000 3600 raise 
6666 0 2000 2000 all_in 
2222 0 2000 2000 all_in 
7777 8600 6000 3500 check 
3333 0 2000 2000 all_in 
total pot: 18700 
/notify 
send inquire msg to player 7777 
inquire/ 
3333 0 2000 2000 all_in 
5555 10450 4000 3600 call 
4444 1850 8000 0 fold 
1111 0 2000 2000 all_in 
8888 6400 8000 3600 raise 
6666 0 2000 2000 all_in 
2222 0 2000 2000 all_in 
7777 8600 6000 3500 check 
total pot: 18700 
/inquire 
recv from player 7777: check 

turn/ 
SPADES K 
/turn 

---turn round bet---
valid player: 8, all in player: 4, fold player: 1
send inquire msg to player 5555 
inquire/ 
4444 1850 8000 0 fold 
1111 0 2000 2000 all_in 
8888 6400 8000 3600 raise 
6666 0 2000 2000 all_in 
2222 0 2000 2000 all_in 
7777 8500 6000 3600 call 
3333 0 2000 2000 all_in 
5555 10450 4000 3600 call 
total pot: 18800 
/inquire 
recv from player 5555: check 

send notify msg to player 3333 
notify/ 
5555 10450 4000 3600 check 
4444 1850 8000 0 fold 
1111 0 2000 2000 all_in 
8888 6400 8000 3600 raise 
6666 0 2000 2000 all_in 
2222 0 2000 2000 all_in 
7777 8500 6000 3600 call 
3333 0 2000 2000 all_in 
total pot: 18800 
/notify 
send inquire msg to player 7777 
inquire/ 
3333 0 2000 2000 all_in 
5555 10450 4000 3600 check 
4444 1850 8000 0 fold 
1111 0 2000 2000 all_in 
8888 6400 8000 3600 raise 
6666 0 2000 2000 all_in 
2222 0 2000 2000 all_in 
7777 8500 6000 3600 call 
total pot: 18800 
/inquire 
recv from player 7777: check 

send notify msg to player 2222 
notify/ 
7777 8500 6000 3600 check 
3333 0 2000 2000 all_in 
5555 10450 4000 3600 check 
4444 1850 8000 0 fold 
1111 0 2000 2000 all_in 
8888 6400 8000 3600 raise 
6666 0 2000 2000 all_in 
2222 0 2000 2000 all_in 
total pot: 18800 
/notify 
send notify msg to player 6666 
notify/ 
2222 0 2000 2000 all_in 
7777 8500 6000 3600 check 
3333 0 2000 2000 all_in 
5555 10450 4000 3600 check 
4444 1850 8000 0 fold 
1111 0 2000 2000 all_in 
8888 6400 8000 3600 raise 
6666 0 2000 2000 all_in 
total pot: 18800 
/notify 
send inquire msg to player 8888 
inquire/ 
6666 0 2000 2000 all_in 
2222 0 2000 2000 all_in 
7777 8500 6000 3600 check 
3333 0 2000 2000 all_in 
5555 10450 4000 3600 check 
4444 1850 8000 0 fold 
1111 0 2000 2000 all_in 
8888 6400 8000 3600 raise 
total pot: 18800 
/inquire 
recv from player 8888: check 

river/ 
CLUBS J 
/river 

---river round bet---
valid player: 8, all in player: 4, fold player: 1
send inquire msg to player 5555 
inquire/ 
4444 1850 8000 0 fold 
1111 0 2000 2000 all_in 
8888 6400 8000 3600 check 
6666 0 2000 2000 all_in 
2222 0 2000 2000 all_in 
7777 8500 6000 3600 check 
3333 0 2000 2000 all_in 
5555 10450 4000 3600 check 
total pot: 18800 
/inquire 
recv from player 5555: check 

send notify msg to player 3333 
notify/ 
5555 10450 4000 3600 check 
4444 1850 8000 0 fold 
1111 0 2000 2000 all_in 
8888 6400 8000 3600 check 
6666 0 2000 2000 all_in 
2222 0 2000 2000 all_in 
7777 8500 6000 3600 check 
3333 0 2000 2000 all_in 
total pot: 18800 
/notify 
send inquire msg to player 7777 
inquire/ 
3333 0 2000 2000 all_in 
5555 10450 4000 3600 check 
4444 1850 8000 0 fold 
1111 0 2000 2000 all_in 
8888 6400 8000 3600 check 
6666 0 2000 2000 all_in 
2222 0 2000 2000 all_in 
7777 8500 6000 3600 check 
total pot: 18800 
/inquire 
recv from player 7777: check 

send notify msg to player 2222 
notify/ 
7777 8500 6000 3600 check 
3333 0 2000 2000 all_in 
5555 10450 4000 3600 check 
4444 1850 8000 0 fold 
1111 0 2000 2000 all_in 
8888 6400 8000 3600 check 
6666 0 2000 2000 all_in 
2222 0 2000 2000 all_in 
total pot: 18800 
/notify 
send notify msg to player 6666 
notify/ 
2222 0 2000 2000 all_in 
7777 8500 6000 3600 check 
3333 0 2000 2000 all_in 
5555 10450 4000 3600 check 
4444 1850 8000 0 fold 
1111 0 2000 2000 all_in 
8888 6400 8000 3600 check 
6666 0 2000 2000 all_in 
total pot: 18800 
/notify 
send inquire msg to player 8888 
inquire/ 
6666 0 2000 2000 all_in 
2222 0 2000 2000 all_in 
7777 8500 6000 3600 check 
3333 0 2000 2000 all_in 
5555 10450 4000 3600 check 
4444 1850 8000 0 fold 
1111 0 2000 2000 all_in 
8888 6400 8000 3600 check 
total pot: 18800 
/inquire 
recv from player 8888: check 


----- notify msg last round -----
send notify msg to player 1111 
notify/ 
8888 6400 8000 3600 check 
6666 0 2000 2000 all_in 
2222 0 2000 2000 all_in 
7777 8500 6000 3600 check 
3333 0 2000 2000 all_in 
5555 10450 4000 3600 check 
4444 1850 8000 0 fold 
1111 0 2000 2000 all_in 
total pot: 18800 
/notify 
send notify msg to player 4444 
notify/ 
1111 0 2000 2000 all_in 
8888 6400 8000 3600 check 
6666 0 2000 2000 all_in 
2222 0 2000 2000 all_in 
7777 8500 6000 3600 check 
3333 0 2000 2000 all_in 
5555 10450 4000 3600 check 
4444 1850 8000 0 fold 
total pot: 18800 
/notify 
send notify msg to player 5555 
notify/ 
4444 1850 8000 0 fold 
1111 0 2000 2000 all_in 
8888 6400 8000 3600 check 
6666 0 2000 2000 all_in 
2222 0 2000 2000 all_in 
7777 8500 6000 3600 check 
3333 0 2000 2000 all_in 
5555 10450 4000 3600 check 
total pot: 18800 
/notify 
send notify msg to player 3333 
notify/ 
5555 10450 4000 3600 check 
4444 1850 8000 0 fold 
1111 0 2000 2000 all_in 
8888 6400 8000 3600 check 
6666 0 2000 2000 all_in 
2222 0 2000 2000 all_in 
7777 8500 6000 3600 check 
3333 0 2000 2000 all_in 
total pot: 18800 
/notify 
send notify msg to player 7777 
notify/ 
3333 0 2000 2000 all_in 
5555 10450 4000 3600 check 
4444 1850 8000 0 fold 
1111 0 2000 2000 all_in 
8888 6400 8000 3600 check 
6666 0 2000 2000 all_in 
2222 0 2000 2000 all_in 
7777 8500 6000 3600 check 
total pot: 18800 
/notify 
send notify msg to player 2222 
notify/ 
7777 8500 6000 3600 check 
3333 0 2000 2000 all_in 
5555 10450 4000 3600 check 
4444 1850 8000 0 fold 
1111 0 2000 2000 all_in 
8888 6400 8000 3600 check 
6666 0 2000 2000 all_in 
2222 0 2000 2000 all_in 
total pot: 18800 
/notify 
send notify msg to player 6666 
notify/ 
2222 0 2000 2000 all_in 
7777 8500 6000 3600 check 
3333 0 2000 2000 all_in 
5555 10450 4000 3600 check 
4444 1850 8000 0 fold 
1111 0 2000 2000 all_in 
8888 6400 8000 3600 check 
6666 0 2000 2000 all_in 
total pot: 18800 
/notify 
send notify msg to player 8888 
notify/ 
6666 0 2000 2000 all_in 
2222 0 2000 2000 all_in 
7777 8500 6000 3600 check 
3333 0 2000 2000 all_in 
5555 10450 4000 3600 check 
4444 1850 8000 0 fold 
1111 0 2000 2000 all_in 
8888 6400 8000 3600 check 
total pot: 18800 
/notify 

---show down---
showdown/ 
common/ 
DIAMONDS 4 
SPADES 8 
CLUBS K 
SPADES K 
CLUBS J 
/common 
4: 5555 HEARTS 4 SPADES 6 TWO_PAIR 
1: 3333 DIAMONDS J HEARTS J FULL_HOUSE 
7: 7777 CLUBS 6 HEARTS 2 ONE_PAIR 
5: 2222 HEARTS A SPADES 5 ONE_PAIR 
6: 6666 HEARTS 3 DIAMONDS 10 ONE_PAIR 
3: 8888 DIAMONDS Q HEARTS Q TWO_PAIR 
2: 1111 HEARTS K HEARTS 7 THREE_OF_A_KIND 
/showdown 

---Allocate pot---
pot-win/ 
3333: 14000 
8888: 4800 
/pot-win 
it is player 5555's turn to be button

-----5 Hand-----

----- clean player data in socket -----
seat/ 
button: 5555 10450 4000 
small blind: 3333 14000 2000 
big blind: 7777 8500 6000 
2222 2000 0 
6666 2000 0 
8888 11200 8000 
1111 2000 0 
4444 1850 8000 
/seat 
blind/ 
3333: 50 
7777: 100 
/blind 
player 3333:hold/ 
HEARTS J 
HEARTS 6 
/hold 
player 7777:hold/ 
CLUBS 6 
CLUBS 8 
/hold 
player 2222:hold/ 
HEARTS A 
DIAMONDS 10 
/hold 
player 6666:hold/ 
DIAMONDS 3 
SPADES 5 
/hold 
player 8888:hold/ 
SPADES 7 
DIAMONDS Q 
/hold 
player 1111:hold/ 
SPADES 2 
DIAMONDS A 
/hold 
player 4444:hold/ 
SPADES A 
DIAMONDS J 
/hold 
player 5555:hold/ 
HEARTS 5 
HEARTS 2 
/hold 

---pre flop round bet---
valid player: 8, all in player: 0, fold player: 0
send inquire msg to player 2222 
inquire/ 
7777 8400 6000 100 blind 
3333 13950 2000 50 blind 
total pot: 150 
/inquire 
recv from player 2222: raise 200 

send inquire msg to player 6666 
inquire/ 
2222 1700 0 300 raise 
7777 8400 6000 100 blind 
3333 13950 2000 50 blind 
total pot: 450 
/inquire 
recv from player 6666: call 

send inquire msg to player 8888 
inquire/ 
6666 1700 0 300 call 
2222 1700 0 300 raise 
7777 8400 6000 100 blind 
3333 13950 2000 50 blind 
total pot: 750 
/inquire 
recv from player 8888: call 

send inquire msg to player 1111 
inquire/ 
8888 10900 8000 300 call 
6666 1700 0 300 call 
2222 1700 0 300 raise 
7777 8400 6000 100 blind 
3333 13950 2000 50 blind 
total pot: 1050 
/inquire 
recv from player 1111: fold 

send inquire msg to player 4444 
inquire/ 
1111 2000 0 0 fold 
8888 10900 8000 300 call 
6666 1700 0 300 call 
2222 1700 0 300 raise 
7777 8400 6000 100 blind 
3333 13950 2000 50 blind 
total pot: 1050 
/inquire 
recv from player 4444: fold 

send inquire msg to player 5555 
inquire/ 
4444 1850 8000 0 fold 
1111 2000 0 0 fold 
8888 10900 8000 300 call 
6666 1700 0 300 call 
2222 1700 0 300 raise 
7777 8400 6000 100 blind 
3333 13950 2000 50 blind 
total pot: 1050 
/inquire 
recv from player 5555: check 

send inquire msg to player 3333 
inquire/ 
5555 10150 4000 300 call 
4444 1850 8000 0 fold 
1111 2000 0 0 fold 
8888 10900 8000 300 call 
6666 1700 0 300 call 
2222 1700 0 300 raise 
7777 8400 6000 100 blind 
3333 13950 2000 50 blind 
total pot: 1350 
/inquire 
recv from player 3333: call 

send inquire msg to player 7777 
inquire/ 
3333 13700 2000 300 call 
5555 10150 4000 300 call 
4444 1850 8000 0 fold 
1111 2000 0 0 fold 
8888 10900 8000 300 call 
6666 1700 0 300 call 
2222 1700 0 300 raise 
7777 8400 6000 100 blind 
total pot: 1600 
/inquire 
recv from player 7777: check 

flop/ 
SPADES 4 
DIAMONDS 9 
HEARTS 3 
/flop 

---flop round bet---
valid player: 8, all in player: 0, fold player: 2
send inquire msg to player 3333 
inquire/ 
5555 10150 4000 300 call 
4444 1850 8000 0 fold 
1111 2000 0 0 fold 
8888 10900 8000 300 call 
6666 1700 0 300 call 
2222 1700 0 300 raise 
7777 8200 6000 300 call 
3333 13700 2000 300 call 
total pot: 1800 
/inquire 
recv from player 3333: raise 200 

send inquire msg to player 7777 
inquire/ 
3333 13500 2000 500 raise 
5555 10150 4000 300 call 
4444 1850 8000 0 fold 
1111 2000 0 0 fold 
8888 10900 8000 300 call 
6666 1700 0 300 call 
2222 1700 0 300 raise 
7777 8200 6000 300 call 
total pot: 2000 
/inquire 
recv from player 7777: check 

send inquire msg to player 2222 
inquire/ 
7777 8000 6000 500 call 
3333 13500 2000 500 raise 
5555 10150 4000 300 call 
4444 1850 8000 0 fold 
1111 2000 0 0 fold 
8888 10900 8000 300 call 
6666 1700 0 300 call 
2222 1700 0 300 raise 
total pot: 2200 
/inquire 
recv from player 2222: raise 200 

send inquire msg to player 6666 
inquire/ 
2222 1300 0 700 raise 
7777 8000 6000 500 call 
3333 13500 2000 500 raise 
5555 10150 4000 300 call 
4444 1850 8000 0 fold 
1111 2000 0 0 fold 
8888 10900 8000 300 call 
6666 1700 0 300 call 
total pot: 2600 
/inquire 
recv from player 6666: call 

send inquire msg to player 8888 
inquire/ 
6666 1300 0 700 call 
2222 1300 0 700 raise 
7777 8000 6000 500 call 
3333 13500 2000 500 raise 
5555 10150 4000 300 call 
4444 1850 8000 0 fold 
1111 2000 0 0 fold 
8888 10900 8000 300 call 
total pot: 3000 
/inquire 
recv from player 8888: fold 

send notify msg to player 1111 
notify/ 
8888 10900 8000 300 fold 
6666 1300 0 700 call 
2222 1300 0 700 raise 
7777 8000 6000 500 call 
3333 13500 2000 500 raise 
5555 10150 4000 300 call 
4444 1850 8000 0 fold 
1111 2000 0 0 fold 
total pot: 3000 
/notify 
send notify msg to player 4444 
notify/ 
1111 2000 0 0 fold 
8888 10900 8000 300 fold 
6666 1300 0 700 call 
2222 1300 0 700 raise 
7777 8000 6000 500 call 
3333 13500 2000 500 raise 
5555 10150 4000 300 call 
4444 1850 8000 0 fold 
total pot: 3000 
/notify 
send inquire msg to player 5555 
inquire/ 
4444 1850 8000 0 fold 
1111 2000 0 0 fold 
8888 10900 8000 300 fold 
6666 1300 0 700 call 
2222 1300 0 700 raise 
7777 8000 6000 500 call 
3333 13500 2000 500 raise 
5555 10150 4000 300 call 
total pot: 3000 
/inquire 
recv from player 5555: check 

send inquire msg to player 3333 
inquire/ 
5555 9750 4000 700 call 
4444 1850 8000 0 fold 
1111 2000 0 0 fold 
8888 10900 8000 300 fold 
6666 1300 0 700 call 
2222 1300 0 700 raise 
7777 8000 6000 500 call 
3333 13500 2000 500 raise 
total pot: 3400 
/inquire 
recv from player 3333: all_in 

send inquire msg to player 7777 
inquire/ 
3333 0 2000 14000 all_in 
5555 9750 4000 700 call 
4444 1850 8000 0 fold 
1111 2000 0 0 fold 
8888 10900 8000 300 fold 
6666 1300 0 700 call 
2222 1300 0 700 raise 
7777 8000 6000 500 call 
total pot: 16900 
/inquire 
recv from player 7777: check 

send inquire msg to player 2222 
inquire/ 
7777 0 6000 8500 all_in 
3333 0 2000 14000 all_in 
5555 9750 4000 700 call 
4444 1850 8000 0 fold 
1111 2000 0 0 fold 
8888 10900 8000 300 fold 
6666 1300 0 700 call 
2222 1300 0 700 raise 
total pot: 24900 
/inquire 
recv from player 2222: raise 200 

send inquire msg to player 6666 
inquire/ 
2222 0 0 2000 all_in 
7777 0 6000 8500 all_in 
3333 0 2000 14000 all_in 
5555 9750 4000 700 call 
4444 1850 8000 0 fold 
1111 2000 0 0 fold 
8888 10900 8000 300 fold 
6666 1300 0 700 call 
total pot: 26200 
/inquire 
recv from player 6666: call 

send notify msg to player 8888 
notify/ 
6666 0 0 2000 all_in 
2222 0 0 2000 all_in 
7777 0 6000 8500 all_in 
3333 0 2000 14000 all_in 
5555 9750 4000 700 call 
4444 1850 8000 0 fold 
1111 2000 0 0 fold 
8888 10900 8000 300 fold 
total pot: 27500 
/notify 
send notify msg to player 1111 
notify/ 
8888 10900 8000 300 fold 
6666 0 0 2000 all_in 
2222 0 0 2000 all_in 
7777 0 6000 8500 all_in 
3333 0 2000 14000 all_in 
5555 9750 4000 700 call 
4444 1850 8000 0 fold 
1111 2000 0 0 fold 
total pot: 27500 
/notify 
send notify msg to player 4444 
notify/ 
1111 2000 0 0 fold 
8888 10900 8000 300 fold 
6666 0 0 2000 all_in 
2222 0 0 2000 all_in 
7777 0 6000 8500 all_in 
3333 0 2000 14000 all_in 
5555 9750 4000 700 call 
4444 1850 8000 0 fold 
total pot: 27500 
/notify 
send inquire msg to player 5555 
inquire/ 
4444 1850 8000 0 fold 
1111 2000 0 0 fold 
8888 10900 8000 300 fold 
6666 0 0 2000 all_in 
2222 0 0 2000 all_in 
7777 0 6000 8500 all_in 
3333 0 2000 14000 all_in 
5555 9750 4000 700 call 
total pot: 27500 
/inquire 
recv from player 5555: check 

turn/ 
SPADES 8 
/turn 

---turn round bet---
valid player: 8, all in player: 5, fold player: 3
river/ 
CLUBS Q 
/river 

---river round bet---
valid player: 8, all in player: 5, fold player: 3

----- notify msg last round -----
send notify msg to player 3333 
notify/ 
5555 0 4000 10450 all_in 
4444 1850 8000 0 fold 
1111 2000 0 0 fold 
8888 10900 8000 300 fold 
6666 0 0 2000 all_in 
2222 0 0 2000 all_in 
7777 0 6000 8500 all_in 
3333 0 2000 14000 all_in 
total pot: 37250 
/notify 
send notify msg to player 7777 
notify/ 
3333 0 2000 14000 all_in 
5555 0 4000 10450 all_in 
4444 1850 8000 0 fold 
1111 2000 0 0 fold 
8888 10900 8000 300 fold 
6666 0 0 2000 all_in 
2222 0 0 2000 all_in 
7777 0 6000 8500 all_in 
total pot: 37250 
/notify 
send notify msg to player 2222 
notify/ 
7777 0 6000 8500 all_in 
3333 0 2000 14000 all_in 
5555 0 4000 10450 all_in 
4444 1850 8000 0 fold 
1111 2000 0 0 fold 
8888 10900 8000 300 fold 
6666 0 0 2000 all_in 
2222 0 0 2000 all_in 
total pot: 37250 
/notify 
send notify msg to player 6666 
notify/ 
2222 0 0 2000 all_in 
7777 0 6000 8500 all_in 
3333 0 2000 14000 all_in 
5555 0 4000 10450 all_in 
4444 1850 8000 0 fold 
1111 2000 0 0 fold 
8888 10900 8000 300 fold 
6666 0 0 2000 all_in 
total pot: 37250 
/notify 
send notify msg to player 8888 
notify/ 
6666 0 0 2000 all_in 
2222 0 0 2000 all_in 
7777 0 6000 8500 all_in 
3333 0 2000 14000 all_in 
5555 0 4000 10450 all_in 
4444 1850 8000 0 fold 
1111 2000 0 0 fold 
8888 10900 8000 300 fold 
total pot: 37250 
/notify 
send notify msg to player 1111 
notify/ 
8888 10900 8000 300 fold 
6666 0 0 2000 all_in 
2222 0 0 2000 all_in 
7777 0 6000 8500 all_in 
3333 0 2000 14000 all_in 
5555 0 4000 10450 all_in 
4444 1850 8000 0 fold 
1111 2000 0 0 fold 
total pot: 37250 
/notify 
send notify msg to player 4444 
notify/ 
1111 2000 0 0 fold 
8888 10900 8000 300 fold 
6666 0 0 2000 all_in 
2222 0 0 2000 all_in 
7777 0 6000 8500 all_in 
3333 0 2000 14000 all_in 
5555 0 4000 10450 all_in 
4444 1850 8000 0 fold 
total pot: 37250 
/notify 
send notify msg to player 5555 
notify/ 
4444 1850 8000 0 fold 
1111 2000 0 0 fold 
8888 10900 8000 300 fold 
6666 0 0 2000 all_in 
2222 0 0 2000 all_in 
7777 0 6000 8500 all_in 
3333 0 2000 14000 all_in 
5555 0 4000 10450 all_in 
total pot: 37250 
/notify 

---show down---
showdown/ 
common/ 
SPADES 4 
DIAMONDS 9 
HEARTS 3 
SPADES 8 
CLUBS Q 
/common 
4: 3333 HEARTS J HEARTS 6 HIGH_CARD 
1: 7777 CLUBS 6 CLUBS 8 ONE_PAIR 
3: 2222 HEARTS A DIAMONDS 10 HIGH_CARD 
2: 6666 DIAMONDS 3 SPADES 5 ONE_PAIR 
5: 5555 HEARTS 5 HEARTS 2 HIGH_CARD 
/showdown 

---Allocate pot---
pot-win/ 
7777: 29800 
3333: 7450 
/pot-win 
it is player 3333's turn to be button

-----6 Hand-----

----- clean player data in socket -----
seat/ 
button: 3333 7450 2000 
small blind: 7777 29800 6000 
big blind: 8888 10900 8000 
1111 2000 0 
4444 1850 8000 
5555 2000 2000 
/seat 
blind/ 
7777: 50 
8888: 100 
/blind 
player 7777:hold/ 
SPADES K 
SPADES A 
/hold 
player 8888:hold/ 
DIAMONDS 10 
CLUBS 9 
/hold 
player 1111:hold/ 
CLUBS 7 
SPADES 5 
/hold 
player 4444:hold/ 
CLUBS K 
DIAMONDS 8 
/hold 
player 5555:hold/ 
SPADES Q 
HEARTS K 
/hold 
player 3333:hold/ 
SPADES 10 
HEARTS 8 
/hold 

---pre flop round bet---
valid player: 6, all in player: 0, fold player: 0
send inquire msg to player 1111 
inquire/ 
8888 10800 8000 100 blind 
7777 29750 6000 50 blind 
total pot: 150 
/inquire 
recv from player 1111: all_in 

send inquire msg to player 4444 
inquire/ 
1111 0 0 2000 all_in 
8888 10800 8000 100 blind 
7777 29750 6000 50 blind 
total pot: 2150 
/inquire 
recv from player 4444: fold 

send inquire msg to player 5555 
inquire/ 
4444 1850 8000 0 fold 
1111 0 0 2000 all_in 
8888 10800 8000 100 blind 
7777 29750 6000 50 blind 
total pot: 2150 
/inquire 
recv from player 5555: check 

send inquire msg to player 3333 
inquire/ 
5555 0 2000 2000 all_in 
4444 1850 8000 0 fold 
1111 0 0 2000 all_in 
8888 10800 8000 100 blind 
7777 29750 6000 50 blind 
total pot: 4150 
/inquire 
recv from player 3333: raise 200 

send inquire msg to player 7777 
inquire/ 
3333 3550 2000 3900 raise 
5555 0 2000 2000 all_in 
4444 1850 8000 0 fold 
1111 0 0 2000 all_in 
8888 10800 8000 100 blind 
7777 29750 6000 50 blind 
total pot: 8050 
/inquire 
recv from player 7777: check 

send inquire msg to player 8888 
inquire/ 
7777 25900 6000 3900 call 
3333 3550 2000 3900 raise 
5555 0 2000 2000 all_in 
4444 1850 8000 0 fold 
1111 0 0 2000 all_in 
8888 10800 8000 100 blind 
total pot: 11900 
/inquire 
recv from player 8888: call 

flop/ 
CLUBS 4 
DIAMONDS J 
SPADES J 
/flop 

---flop round bet---
valid player: 6, all in player: 2, fold player: 1
send inquire msg to player 7777 
inquire/ 
3333 3550 2000 3900 raise 
5555 0 2000 2000 all_in 
4444 1850 8000 0 fold 
1111 0 0 2000 all_in 
8888 7000 8000 3900 call 
7777 25900 6000 3900 call 
total pot: 15700 
/inquire 
recv from player 7777: check 

send inquire msg to player 8888 
inquire/ 
7777 25900 6000 3900 check 
3333 3550 2000 3900 raise 
5555 0 2000 2000 all_in 
4444 1850 8000 0 fold 
1111 0 0 2000 all_in 
8888 7000 8000 3900 call 
total pot: 15700 
/inquire 
recv from player 8888: fold 

send notify msg to player 1111 
notify/ 
8888 7000 8000 3900 fold 
7777 25900 6000 3900 check 
3333 3550 2000 3900 raise 
5555 0 2000 2000 all_in 
4444 1850 8000 0 fold 
1111 0 0 2000 all_in 
total pot: 15700 
/notify 
send notify msg to player 4444 
notify/ 
1111 0 0 2000 all_in 
8888 7000 8000 3900 fold 
7777 25900 6000 3900 check 
3333 3550 2000 3900 raise 
5555 0 2000 2000 all_in 
4444 1850 8000 0 fold 
total pot: 15700 
/notify 
send notify msg to player 5555 
notify/ 
4444 1850 8000 0 fold 
1111 0 0 2000 all_in 
8888 7000 8000 3900 fold 
7777 25900 6000 3900 check 
3333 3550 2000 3900 raise 
5555 0 2000 2000 all_in 
total pot: 15700 
/notify 
send inquire msg to player 3333 
inquire/ 
5555 0 2000 2000 all_in 
4444 1850 8000 0 fold 
1111 0 0 2000 all_in 
8888 7000 8000 3900 fold 
7777 25900 6000 3900 check 
3333 3550 2000 3900 raise 
total pot: 15700 
/inquire 
recv from player 3333: all_in 

send inquire msg to player 7777 
inquire/ 
3333 0 2000 7450 all_in 
5555 0 2000 2000 all_in 
4444 1850 8000 0 fold 
1111 0 0 2000 all_in 
8888 7000 8000 3900 fold 
7777 25900 6000 3900 check 
total pot: 19250 
/inquire 
recv from player 7777: check 

turn/ 
CLUBS 3 
/turn 

---turn round bet---
valid player: 6, all in player: 3, fold player: 2
river/ 
CLUBS 8 
/river 

---river round bet---
valid player: 6, all in player: 3, fold player: 2

----- notify msg last round -----
send notify msg to player 8888 
notify/ 
7777 22350 6000 7450 call 
3333 0 2000 7450 all_in 
5555 0 2000 2000 all_in 
4444 1850 8000 0 fold 
1111 0 0 2000 all_in 
8888 7000 8000 3900 fold 
total pot: 22800 
/notify 
send notify msg to player 1111 
notify/ 
8888 7000 8000 3900 fold 
7777 22350 6000 7450 call 
3333 0 2000 7450 all_in 
5555 0 2000 2000 all_in 
4444 1850 8000 0 fold 
1111 0 0 2000 all_in 
total pot: 22800 
/notify 
send notify msg to player 4444 
notify/ 
1111 0 0 2000 all_in 
8888 7000 8000 3900 fold 
7777 22350 6000 7450 call 
3333 0 2000 7450 all_in 
5555 0 2000 2000 all_in 
4444 1850 8000 0 fold 
total pot: 22800 
/notify 
send notify msg to player 5555 
notify/ 
4444 1850 8000 0 fold 
1111 0 0 2000 all_in 
8888 7000 8000 3900 fold 
7777 22350 6000 7450 call 
3333 0 2000 7450 all_in 
5555 0 2000 2000 all_in 
total pot: 22800 
/notify 
send notify msg to player 3333 
notify/ 
5555 0 2000 2000 all_in 
4444 1850 8000 0 fold 
1111 0 0 2000 all_in 
8888 7000 8000 3900 fold 
7777 22350 6000 7450 call 
3333 0 2000 7450 all_in 
total pot: 22800 
/notify 
send notify msg to player 7777 
notify/ 
3333 0 2000 7450 all_in 
5555 0 2000 2000 all_in 
4444 1850 8000 0 fold 
1111 0 0 2000 all_in 
8888 7000 8000 3900 fold 
7777 22350 6000 7450 call 
total pot: 22800 
/notify 

---show down---
showdown/ 
common/ 
CLUBS 4 
DIAMONDS J 
SPADES J 
CLUBS 3 
CLUBS 8 
/common 
2: 7777 SPADES K SPADES A ONE_PAIR 
4: 1111 CLUBS 7 SPADES 5 ONE_PAIR 
3: 5555 SPADES Q HEARTS K ONE_PAIR 
1: 3333 SPADES 10 HEARTS 8 TWO_PAIR 
/showdown 

---Allocate pot---
pot-win/ 
3333: 22800 
/pot-win 
it is player 7777's turn to be button

-----7 Hand-----

----- clean player data in socket -----
seat/ 
button: 7777 22350 6000 
small blind: 8888 7000 8000 
big blind: 4444 1850 8000 
5555 2000 0 
3333 22800 2000 
/seat 
blind/ 
8888: 50 
4444: 100 
/blind 
player 8888:hold/ 
HEARTS 3 
SPADES 5 
/hold 
player 4444:hold/ 
DIAMONDS A 
CLUBS 8 
/hold 
player 5555:hold/ 
CLUBS 6 
HEARTS 9 
/hold 
player 3333:hold/ 
CLUBS 5 
HEARTS 7 
/hold 
player 7777:hold/ 
DIAMONDS 2 
SPADES 7 
/hold 

---pre flop round bet---
valid player: 5, all in player: 0, fold player: 0
send inquire msg to player 5555 
inquire/ 
4444 1750 8000 100 blind 
8888 6950 8000 50 blind 
total pot: 150 
/inquire 
recv from player 5555: check 

send inquire msg to player 3333 
inquire/ 
5555 1900 0 100 call 
4444 1750 8000 100 blind 
8888 6950 8000 50 blind 
total pot: 250 
/inquire 
recv from player 3333: raise 200 

send inquire msg to player 7777 
inquire/ 
3333 22500 2000 300 raise 
5555 1900 0 100 call 
4444 1750 8000 100 blind 
8888 6950 8000 50 blind 
total pot: 550 
/inquire 
recv from player 7777: check 

send inquire msg to player 8888 
inquire/ 
7777 22050 6000 300 call 
3333 22500 2000 300 raise 
5555 1900 0 100 call 
4444 1750 8000 100 blind 
8888 6950 8000 50 blind 
total pot: 850 
/inquire 
recv from player 8888: fold 

send inquire msg to player 4444 
inquire/ 
8888 6950 8000 50 fold 
7777 22050 6000 300 call 
3333 22500 2000 300 raise 
5555 1900 0 100 call 
4444 1750 8000 100 blind 
total pot: 850 
/inquire 
recv from player 4444: fold 

send inquire msg to player 5555 
inquire/ 
4444 1750 8000 100 fold 
8888 6950 8000 50 fold 
7777 22050 6000 300 call 
3333 22500 2000 300 raise 
5555 1900 0 100 call 
total pot: 850 
/inquire 
recv from player 5555: check 

flop/ 
CLUBS J 
SPADES A 
CLUBS Q 
/flop 

---flop round bet---
valid player: 5, all in player: 0, fold player: 2
send notify msg to player 8888 
notify/ 
7777 22050 6000 300 call 
3333 22500 2000 300 raise 
5555 1700 0 300 call 
4444 1750 8000 100 fold 
8888 6950 8000 50 fold 
total pot: 1050 
/notify 
send notify msg to player 4444 
notify/ 
8888 6950 8000 50 fold 
7777 22050 6000 300 call 
3333 22500 2000 300 raise 
5555 1700 0 300 call 
4444 1750 8000 100 fold 
total pot: 1050 
/notify 
send inquire msg to player 5555 
inquire/ 
4444 1750 8000 100 fold 
8888 6950 8000 50 fold 
7777 22050 6000 300 call 
3333 22500 2000 300 raise 
5555 1700 0 300 call 
total pot: 1050 
/inquire 
recv from player 5555: check 

send inquire msg to player 3333 
inquire/ 
5555 1700 0 300 check 
4444 1750 8000 100 fold 
8888 6950 8000 50 fold 
7777 22050 6000 300 call 
3333 22500 2000 300 raise 
total pot: 1050 
/inquire 
recv from player 3333: all_in 

send inquire msg to player 7777 
inquire/ 
3333 0 2000 22800 all_in 
5555 1700 0 300 check 
4444 1750 8000 100 fold 
8888 6950 8000 50 fold 
7777 22050 6000 300 call 
total pot: 23550 
/inquire 
recv from player 7777: check 

send notify msg to player 8888 
notify/ 
7777 0 6000 22350 all_in 
3333 0 2000 22800 all_in 
5555 1700 0 300 check 
4444 1750 8000 100 fold 
8888 6950 8000 50 fold 
total pot: 45600 
/notify 
send notify msg to player 4444 
notify/ 
8888 6950 8000 50 fold 
7777 0 6000 22350 all_in 
3333 0 2000 22800 all_in 
5555 1700 0 300 check 
4444 1750 8000 100 fold 
total pot: 45600 
/notify 
send inquire msg to player 5555 
inquire/ 
4444 1750 8000 100 fold 
8888 6950 8000 50 fold 
7777 0 6000 22350 all_in 
3333 0 2000 22800 all_in 
5555 1700 0 300 check 
total pot: 45600 
/inquire 
recv from player 5555: check 

turn/ 
CLUBS 10 
/turn 

---turn round bet---
valid player: 5, all in player: 3, fold player: 2
river/ 
CLUBS 9 
/river 

---river round bet---
valid player: 5, all in player: 3, fold player: 2

----- notify msg last round -----
send notify msg to player 3333 
notify/ 
5555 0 0 2000 all_in 
4444 1750 8000 100 fold 
8888 6950 8000 50 fold 
7777 0 6000 22350 all_in 
3333 0 2000 22800 all_in 
total pot: 47300 
/notify 
send notify msg to player 7777 
notify/ 
3333 0 2000 22800 all_in 
5555 0 0 2000 all_in 
4444 1750 8000 100 fold 
8888 6950 8000 50 fold 
7777 0 6000 22350 all_in 
total pot: 47300 
/notify 
send notify msg to player 8888 
notify/ 
7777 0 6000 22350 all_in 
3333 0 2000 22800 all_in 
5555 0 0 2000 all_in 
4444 1750 8000 100 fold 
8888 6950 8000 50 fold 
total pot: 47300 
/notify 
send notify msg to player 4444 
notify/ 
8888 6950 8000 50 fold 
7777 0 6000 22350 all_in 
3333 0 2000 22800 all_in 
5555 0 0 2000 all_in 
4444 1750 8000 100 fold 
total pot: 47300 
/notify 
send notify msg to player 5555 
notify/ 
4444 1750 8000 100 fold 
8888 6950 8000 50 fold 
7777 0 6000 22350 all_in 
3333 0 2000 22800 all_in 
5555 0 0 2000 all_in 
total pot: 47300 
/notify 

---show down---
showdown/ 
common/ 
CLUBS J 
SPADES A 
CLUBS Q 
CLUBS 10 
CLUBS 9 
/common 
1: 5555 CLUBS 6 HEARTS 9 FLUSH 
2: 3333 CLUBS 5 HEARTS 7 FLUSH 
3: 7777 DIAMONDS 2 SPADES 7 HIGH_CARD 
/showdown 

---Allocate pot---
pot-win/ 
5555: 6150 
3333: 41150 
/pot-win 
it is player 8888's turn to be button

-----8 Hand-----

----- clean player data in socket -----
seat/ 
button: 8888 6950 8000 
small blind: 4444 1750 8000 
big blind: 5555 6150 0 
3333 41150 2000 
7777 2000 4000 
/seat 
blind/ 
4444: 50 
5555: 100 
/blind 
player 4444:hold/ 
HEARTS 8 
CLUBS 9 
/hold 
player 5555:hold/ 
CLUBS K 
HEARTS 10 
/hold 
player 3333:hold/ 
CLUBS J 
CLUBS 8 
/hold 
player 7777:hold/ 
HEARTS 3 
SPADES 6 
/hold 
player 8888:hold/ 
CLUBS Q 
DIAMONDS 5 
/hold 

---pre flop round bet---
valid player: 5, all in player: 0, fold player: 0
send inquire msg to player 3333 
inquire/ 
5555 6050 0 100 blind 
4444 1700 8000 50 blind 
total pot: 150 
/inquire 
recv from player 3333: check 

send inquire msg to player 7777 
inquire/ 
3333 41050 2000 100 call 
5555 6050 0 100 blind 
4444 1700 8000 50 blind 
total pot: 250 
/inquire 
recv from player 7777: check 

send inquire msg to player 8888 
inquire/ 
7777 1900 4000 100 call 
3333 41050 2000 100 call 
5555 6050 0 100 blind 
4444 1700 8000 50 blind 
total pot: 350 
/inquire 
recv from player 8888: fold 

send inquire msg to player 4444 
inquire/ 
8888 6950 8000 0 fold 
7777 1900 4000 100 call 
3333 41050 2000 100 call 
5555 6050 0 100 blind 
4444 1700 8000 50 blind 
total pot: 350 
/inquire 
recv from player 4444: fold 

send inquire msg to player 5555 
inquire/ 
4444 1700 8000 50 fold 
8888 6950 8000 0 fold 
7777 1900 4000 100 call 
3333 41050 2000 100 call 
5555 6050 0 100 blind 
total pot: 350 
/inquire 
recv from player 5555: check 

flop/ 
HEARTS 5 
SPADES Q 
SPADES K 
/flop 

---flop round bet---
valid player: 5, all in player: 0, fold player: 2
send notify msg to player 4444 
notify/ 
8888 6950 8000 0 fold 
7777 1900 4000 100 call 
3333 41050 2000 100 call 
5555 6050 0 100 check 
4444 1700 8000 50 fold 
total pot: 350 
/notify 
send inquire msg to player 5555 
inquire/ 
4444 1700 8000 50 fold 
8888 6950 8000 0 fold 
7777 1900 4000 100 call 
3333 41050 2000 100 call 
5555 6050 0 100 check 
total pot: 350 
/inquire 
recv from player 5555: check 

send inquire msg to player 3333 
inquire/ 
5555 6050 0 100 check 
4444 1700 8000 50 fold 
8888 6950 8000 0 fold 
7777 1900 4000 100 call 
3333 41050 2000 100 call 
total pot: 350 
/inquire 
recv from player 3333: all_in 

send inquire msg to player 7777 
inquire/ 
3333 0 2000 41150 all_in 
5555 6050 0 100 check 
4444 1700 8000 50 fold 
8888 6950 8000 0 fold 
7777 1900 4000 100 call 
total pot: 41400 
/inquire 
recv from player 7777: check 

send notify msg to player 8888 
notify/ 
7777 0 4000 2000 all_in 
3333 0 2000 41150 all_in 
5555 6050 0 100 check 
4444 1700 8000 50 fold 
8888 6950 8000 0 fold 
total pot: 43300 
/notify 
send notify msg to player 4444 
notify/ 
8888 6950 8000 0 fold 
7777 0 4000 2000 all_in 
3333 0 2000 41150 all_in 
5555 6050 0 100 check 
4444 1700 8000 50 fold 
total pot: 43300 
/notify 
send inquire msg to player 5555 
inquire/ 
4444 1700 8000 50 fold 
8888 6950 8000 0 fold 
7777 0 4000 2000 all_in 
3333 0 2000 41150 all_in 
5555 6050 0 100 check 
total pot: 43300 
/inquire 
recv from player 5555: check 

turn/ 
SPADES A 
/turn 

---turn round bet---
valid player: 5, all in player: 3, fold player: 2
river/ 
HEARTS J 
/river 

---river round bet---
valid player: 5, all in player: 3, fold player: 2

----- notify msg last round -----
send notify msg to player 3333 
notify/ 
5555 0 0 6150 all_in 
4444 1700 8000 50 fold 
8888 6950 8000 0 fold 
7777 0 4000 2000 all_in 
3333 0 2000 41150 all_in 
total pot: 49350 
/notify 
send notify msg to player 7777 
notify/ 
3333 0 2000 41150 all_in 
5555 0 0 6150 all_in 
4444 1700 8000 50 fold 
8888 6950 8000 0 fold 
7777 0 4000 2000 all_in 
total pot: 49350 
/notify 
send notify msg to player 8888 
notify/ 
7777 0 4000 2000 all_in 
3333 0 2000 41150 all_in 
5555 0 0 6150 all_in 
4444 1700 8000 50 fold 
8888 6950 8000 0 fold 
total pot: 49350 
/notify 
send notify msg to player 4444 
notify/ 
8888 6950 8000 0 fold 
7777 0 4000 2000 all_in 
3333 0 2000 41150 all_in 
5555 0 0 6150 all_in 
4444 1700 8000 50 fold 
total pot: 49350 
/notify 
send notify msg to player 5555 
notify/ 
4444 1700 8000 50 fold 
8888 6950 8000 0 fold 
7777 0 4000 2000 all_in 
3333 0 2000 41150 all_in 
5555 0 0 6150 all_in 
total pot: 49350 
/notify 

---show down---
showdown/ 
common/ 
HEARTS 5 
SPADES Q 
SPADES K 
SPADES A 
HEARTS J 
/common 
1: 5555 CLUBS K HEARTS 10 STRAIGHT 
2: 3333 CLUBS J CLUBS 8 ONE_PAIR 
3: 7777 HEARTS 3 SPADES 6 HIGH_CARD 
/showdown 

---Allocate pot---
pot-win/ 
5555: 14350 
3333: 35000 
/pot-win 
it is player 4444's turn to be button

-----9 Hand-----

----- clean player data in socket -----
seat/ 
button: 4444 1700 8000 
small blind: 5555 14350 0 
big blind: 3333 35000 2000 
7777 2000 2000 
8888 6950 8000 
/seat 
blind/ 
5555: 50 
3333: 100 
/blind 
player 5555:hold/ 
DIAMONDS 7 
SPADES 7 
/hold 
player 3333:hold/ 
SPADES Q 
SPADES 3 
/hold 
player 7777:hold/ 
SPADES 2 
HEARTS 4 
/hold 
player 8888:hold/ 
HEARTS 9 
HEARTS 6 
/hold 
player 4444:hold/ 
DIAMONDS 3 
HEARTS Q 
/hold 

---pre flop round bet---
valid player: 5, all in player: 0, fold player: 0
send inquire msg to player 7777 
inquire/ 
3333 34900 2000 100 blind 
5555 14300 0 50 blind 
total pot: 150 
/inquire 
recv from player 7777: check 

send inquire msg to player 8888 
inquire/ 
7777 1900 2000 100 call 
3333 34900 2000 100 blind 
5555 14300 0 50 blind 
total pot: 250 
/inquire 
recv from player 8888: call 

send inquire msg to player 4444 
inquire/ 
8888 6850 8000 100 call 
7777 1900 2000 100 call 
3333 34900 2000 100 blind 
5555 14300 0 50 blind 
total pot: 350 
/inquire 
recv from player 4444: fold 

send inquire msg to player 5555 
inquire/ 
4444 1700 8000 0 fold 
8888 6850 8000 100 call 
7777 1900 2000 100 call 
3333 34900 2000 100 blind 
5555 14300 0 50 blind 
total pot: 350 
/inquire 
recv from player 5555: check 

send inquire msg to player 3333 
inquire/ 
5555 14250 0 100 call 
4444 1700 8000 0 fold 
8888 6850 8000 100 call 
7777 1900 2000 100 call 
3333 34900 2000 100 blind 
total pot: 400 
/inquire 
recv from player 3333: fold 

flop/ 
CLUBS 5 
CLUBS 9 
CLUBS 8 
/flop 

---flop round bet---
valid player: 5, all in player: 0, fold player: 2
send inquire msg to player 5555 
inquire/ 
4444 1700 8000 0 fold 
8888 6850 8000 100 call 
7777 1900 2000 100 call 
3333 34900 2000 100 fold 
5555 14250 0 100 call 
total pot: 400 
/inquire 
recv from player 5555: check 

send notify msg to player 3333 
notify/ 
5555 14250 0 100 check 
4444 1700 8000 0 fold 
8888 6850 8000 100 call 
7777 1900 2000 100 call 
3333 34900 2000 100 fold 
total pot: 400 
/notify 
send inquire msg to player 7777 
inquire/ 
3333 34900 2000 100 fold 
5555 14250 0 100 check 
4444 1700 8000 0 fold 
8888 6850 8000 100 call 
7777 1900 2000 100 call 
total pot: 400 
/inquire 
recv from player 7777: check 

send inquire msg to player 8888 
inquire/ 
7777 1900 2000 100 check 
3333 34900 2000 100 fold 
5555 14250 0 100 check 
4444 1700 8000 0 fold 
8888 6850 8000 100 call 
total pot: 400 
/inquire 
recv from player 8888: check 

turn/ 
DIAMONDS 5 
/turn 

---turn round bet---
valid player: 5, all in player: 0, fold player: 2
send inquire msg to player 5555 
inquire/ 
4444 1700 8000 0 fold 
8888 6850 8000 100 check 
7777 1900 2000 100 check 
3333 34900 2000 100 fold 
5555 14250 0 100 check 
total pot: 400 
/inquire 
recv from player 5555: check 

send notify msg to player 3333 
notify/ 
5555 14250 0 100 check 
4444 1700 8000 0 fold 
8888 6850 8000 100 check 
7777 1900 2000 100 check 
3333 34900 2000 100 fold 
total pot: 400 
/notify 
send inquire msg to player 7777 
inquire/ 
3333 34900 2000 100 fold 
5555 14250 0 100 check 
4444 1700 8000 0 fold 
8888 6850 8000 100 check 
7777 1900 2000 100 check 
total pot: 400 
/inquire 
recv from player 7777: check 

send inquire msg to player 8888 
inquire/ 
7777 1900 2000 100 check 
3333 34900 2000 100 fold 
5555 14250 0 100 check 
4444 1700 8000 0 fold 
8888 6850 8000 100 check 
total pot: 400 
/inquire 
recv from player 8888: check 

river/ 
HEARTS 7 
/river 

---river round bet---
valid player: 5, all in player: 0, fold player: 2
send inquire msg to player 5555 
inquire/ 
4444 1700 8000 0 fold 
8888 6850 8000 100 check 
7777 1900 2000 100 check 
3333 34900 2000 100 fold 
5555 14250 0 100 check 
total pot: 400 
/inquire 
recv from player 5555: check 

send notify msg to player 3333 
notify/ 
5555 14250 0 100 check 
4444 1700 8000 0 fold 
8888 6850 8000 100 check 
7777 1900 2000 100 check 
3333 34900 2000 100 fold 
total pot: 400 
/notify 
send inquire msg to player 7777 
inquire/ 
3333 34900 2000 100 fold 
5555 14250 0 100 check 
4444 1700 8000 0 fold 
8888 6850 8000 100 check 
7777 1900 2000 100 check 
total pot: 400 
/inquire 
recv from player 7777: check 

send inquire msg to player 8888 
inquire/ 
7777 1900 2000 100 check 
3333 34900 2000 100 fold 
5555 14250 0 100 check 
4444 1700 8000 0 fold 
8888 6850 8000 100 check 
total pot: 400 
/inquire 
recv from player 8888: check 


----- notify msg last round -----
send notify msg to player 4444 
notify/ 
8888 6850 8000 100 check 
7777 1900 2000 100 check 
3333 34900 2000 100 fold 
5555 14250 0 100 check 
4444 1700 8000 0 fold 
total pot: 400 
/notify 
send notify msg to player 5555 
notify/ 
4444 1700 8000 0 fold 
8888 6850 8000 100 check 
7777 1900 2000 100 check 
3333 34900 2000 100 fold 
5555 14250 0 100 check 
total pot: 400 
/notify 
send notify msg to player 3333 
notify/ 
5555 14250 0 100 check 
4444 1700 8000 0 fold 
8888 6850 8000 100 check 
7777 1900 2000 100 check 
3333 34900 2000 100 fold 
total pot: 400 
/notify 
send notify msg to player 7777 
notify/ 
3333 34900 2000 100 fold 
5555 14250 0 100 check 
4444 1700 8000 0 fold 
8888 6850 8000 100 check 
7777 1900 2000 100 check 
total pot: 400 
/notify 
send notify msg to player 8888 
notify/ 
7777 1900 2000 100 check 
3333 34900 2000 100 fold 
5555 14250 0 100 check 
4444 1700 8000 0 fold 
8888 6850 8000 100 check 
total pot: 400 
/notify 

---show down---
showdown/ 
common/ 
CLUBS 5 
CLUBS 9 
CLUBS 8 
DIAMONDS 5 
HEARTS 7 
/common 
1: 5555 DIAMONDS 7 SPADES 7 FULL_HOUSE 
3: 7777 SPADES 2 HEARTS 4 ONE_PAIR 
2: 8888 HEARTS 9 HEARTS 6 STRAIGHT 
/showdown 

---Allocate pot---
pot-win/ 
5555: 400 
/pot-win 
it is player 5555's turn to be button

-----10 Hand-----

----- clean player data in socket -----
seat/ 
button: 5555 14650 0 
small blind: 3333 34900 2000 
big blind: 7777 1900 2000 
8888 6850 8000 
4444 1700 8000 
/seat 
blind/ 
3333: 50 
7777: 100 
/blind 
player 3333:hold/ 
DIAMONDS 5 
DIAMONDS 8 
/hold 
player 7777:hold/ 
SPADES 7 
HEARTS 8 
/hold 
player 8888:hold/ 
DIAMONDS J 
HEARTS J 
/hold 
player 4444:hold/ 
CLUBS 10 
SPADES Q 
/hold 
player 5555:hold/ 
HEARTS Q 
SPADES 3 
/hold 

---pre flop round bet---
valid player: 5, all in player: 0, fold player: 0
send inquire msg to player 8888 
inquire/ 
7777 1800 2000 100 blind 
3333 34850 2000 50 blind 
total pot: 150 
/inquire 
recv from player 8888: raise 200 

send inquire msg to player 4444 
inquire/ 
8888 6550 8000 300 raise 
7777 1800 2000 100 blind 
3333 34850 2000 50 blind 
total pot: 450 
/inquire 
recv from player 4444: fold 

send inquire msg to player 5555 
inquire/ 
4444 1700 8000 0 fold 
8888 6550 8000 300 raise 
7777 1800 2000 100 blind 
3333 34850 2000 50 blind 
total pot: 450 
/inquire 
recv from player 5555: check 

send inquire msg to player 3333 
inquire/ 
5555 14350 0 300 call 
4444 1700 8000 0 fold 
8888 6550 8000 300 raise 
7777 1800 2000 100 blind 
3333 34850 2000 50 blind 
total pot: 750 
/inquire 
recv from player 3333: all_in 

send inquire msg to player 7777 
inquire/ 
3333 0 2000 34900 all_in 
5555 14350 0 300 call 
4444 1700 8000 0 fold 
8888 6550 8000 300 raise 
7777 1800 2000 100 blind 
total pot: 35600 
/inquire 
recv from player 7777: check 

send inquire msg to player 8888 
inquire/ 
7777 0 2000 1900 all_in 
3333 0 2000 34900 all_in 
5555 14350 0 300 call 
4444 1700 8000 0 fold 
8888 6550 8000 300 raise 
total pot: 37400 
/inquire 
recv from player 8888: raise 200 

send notify msg to player 4444 
notify/ 
8888 0 8000 6850 all_in 
7777 0 2000 1900 all_in 
3333 0 2000 34900 all_in 
5555 14350 0 300 call 
4444 1700 8000 0 fold 
total pot: 43950 
/notify 
send inquire msg to player 5555 
inquire/ 
4444 1700 8000 0 fold 
8888 0 8000 6850 all_in 
7777 0 2000 1900 all_in 
3333 0 2000 34900 all_in 
5555 14350 0 300 call 
total pot: 43950 
/inquire 
recv from player 5555: check 

flop/ 
DIAMONDS 2 
SPADES 8 
SPADES A 
/flop 

---flop round bet---
valid player: 5, all in player: 4, fold player: 1
turn/ 
HEARTS A 
/turn 

---turn round bet---
valid player: 5, all in player: 4, fold player: 1
river/ 
CLUBS J 
/river 

---river round bet---
valid player: 5, all in player: 4, fold player: 1

----- notify msg last round -----
send notify msg to player 3333 
notify/ 
5555 0 0 14650 all_in 
4444 1700 8000 0 fold 
8888 0 8000 6850 all_in 
7777 0 2000 1900 all_in 
3333 0 2000 34900 all_in 
total pot: 58300 
/notify 
send notify msg to player 7777 
notify/ 
3333 0 2000 34900 all_in 
5555 0 0 14650 all_in 
4444 1700 8000 0 fold 
8888 0 8000 6850 all_in 
7777 0 2000 1900 all_in 
total pot: 58300 
/notify 
send notify msg to player 8888 
notify/ 
7777 0 2000 1900 all_in 
3333 0 2000 34900 all_in 
5555 0 0 14650 all_in 
4444 1700 8000 0 fold 
8888 0 8000 6850 all_in 
total pot: 58300 
/notify 
send notify msg to player 4444 
notify/ 
8888 0 8000 6850 all_in 
7777 0 2000 1900 all_in 
3333 0 2000 34900 all_in 
5555 0 0 14650 all_in 
4444 1700 8000 0 fold 
total pot: 58300 
/notify 
send notify msg to player 5555 
notify/ 
4444 1700 8000 0 fold 
8888 0 8000 6850 all_in 
7777 0 2000 1900 all_in 
3333 0 2000 34900 all_in 
5555 0 0 14650 all_in 
total pot: 58300 
/notify 

---show down---
showdown/ 
common/ 
DIAMONDS 2 
SPADES 8 
SPADES A 
HEARTS A 
CLUBS J 
/common 
2: 3333 DIAMONDS 5 DIAMONDS 8 TWO_PAIR 
2: 7777 SPADES 7 HEARTS 8 TWO_PAIR 
1: 8888 DIAMONDS J HEARTS J FULL_HOUSE 
3: 5555 HEARTS Q SPADES 3 ONE_PAIR 
/showdown 

---Allocate pot---
pot-win/ 
8888: 22450 
3333: 35850 
/pot-win 
it is player 3333's turn to be button

-----11 Hand-----

----- clean player data in socket -----
seat/ 
button: 3333 35850 2000 
small blind: 7777 2000 0 
big blind: 8888 22450 8000 
4444 1700 8000 
/seat 
blind/ 
7777: 50 
8888: 100 
/blind 
player 7777:hold/ 
CLUBS 4 
DIAMONDS 6 
/hold 
player 8888:hold/ 
CLUBS 9 
DIAMONDS 9 
/hold 
player 4444:hold/ 
DIAMONDS J 
DIAMONDS 2 
/hold 
player 3333:hold/ 
CLUBS 10 
SPADES J 
/hold 

---pre flop round bet---
valid player: 4, all in player: 0, fold player: 0
send inquire msg to player 4444 
inquire/ 
8888 22350 8000 100 blind 
7777 1950 0 50 blind 
total pot: 150 
/inquire 
recv from player 4444: fold 

send inquire msg to player 3333 
inquire/ 
4444 1700 8000 0 fold 
8888 22350 8000 100 blind 
7777 1950 0 50 blind 
total pot: 150 
/inquire 
recv from player 3333: check 

send inquire msg to player 7777 
inquire/ 
3333 35750 2000 100 call 
4444 1700 8000 0 fold 
8888 22350 8000 100 blind 
7777 1950 0 50 blind 
total pot: 250 
/inquire 
recv from player 7777: check 

send inquire msg to player 8888 
inquire/ 
7777 1900 0 100 call 
3333 35750 2000 100 call 
4444 1700 8000 0 fold 
8888 22350 8000 100 blind 
total pot: 300 
/inquire 
recv from player 8888: call 

flop/ 
HEARTS 3 
HEARTS 4 
SPADES 2 
/flop 

---flop round bet---
valid player: 4, all in player: 0, fold player: 1
send inquire msg to player 7777 
inquire/ 
3333 35750 2000 100 call 
4444 1700 8000 0 fold 
8888 22350 8000 100 check 
7777 1900 0 100 call 
total pot: 300 
/inquire 
recv from player 7777: check 

send inquire msg to player 8888 
inquire/ 
7777 1900 0 100 check 
3333 35750 2000 100 call 
4444 1700 8000 0 fold 
8888 22350 8000 100 check 
total pot: 300 
/inquire 
recv from player 8888: raise 100 

send notify msg to player 4444 
notify/ 
8888 22250 8000 200 raise 
7777 1900 0 100 check 
3333 35750 2000 100 call 
4444 1700 8000 0 fold 
total pot: 400 
/notify 
send inquire msg to player 3333 
inquire/ 
4444 1700 8000 0 fold 
8888 22250 8000 200 raise 
7777 1900 0 100 check 
3333 35750 2000 100 call 
total pot: 400 
/inquire 
recv from player 3333: fold 

send inquire msg to player 7777 
inquire/ 
3333 35750 2000 100 fold 
4444 1700 8000 0 fold 
8888 22250 8000 200 raise 
7777 1900 0 100 check 
total pot: 400 
/inquire 
recv from player 7777: check 

turn/ 
CLUBS J 
/turn 

---turn round bet---
valid player: 4, all in player: 0, fold player: 2
send inquire msg to player 7777 
inquire/ 
3333 35750 2000 100 fold 
4444 1700 8000 0 fold 
8888 22250 8000 200 raise 
7777 1800 0 200 call 
total pot: 500 
/inquire 
recv from player 7777: check 

send inquire msg to player 8888 
inquire/ 
7777 1800 0 200 check 
3333 35750 2000 100 fold 
4444 1700 8000 0 fold 
8888 22250 8000 200 raise 
total pot: 500 
/inquire 
recv from player 8888: raise 100 

send notify msg to player 4444 
notify/ 
8888 22150 8000 300 raise 
7777 1800 0 200 check 
3333 35750 2000 100 fold 
4444 1700 8000 0 fold 
total pot: 600 
/notify 
send notify msg to player 3333 
notify/ 
4444 1700 8000 0 fold 
8888 22150 8000 300 raise 
7777 1800 0 200 check 
3333 35750 2000 100 fold 
total pot: 600 
/notify 
send inquire msg to player 7777 
inquire/ 
3333 35750 2000 100 fold 
4444 1700 8000 0 fold 
8888 22150 8000 300 raise 
7777 1800 0 200 check 
total pot: 600 
/inquire 
recv from player 7777: check 

river/ 
HEARTS J 
/river 

---river round bet---
valid player: 4, all in player: 0, fold player: 2
send inquire msg to player 7777 
inquire/ 
3333 35750 2000 100 fold 
4444 1700 8000 0 fold 
8888 22150 8000 300 raise 
7777 1700 0 300 call 
total pot: 700 
/inquire 
recv from player 7777: check 

send inquire msg to player 8888 
inquire/ 
7777 1700 0 300 check 
3333 35750 2000 100 fold 
4444 1700 8000 0 fold 
8888 22150 8000 300 raise 
total pot: 700 
/inquire 
recv from player 8888: raise 100 

send notify msg to player 4444 
notify/ 
8888 22050 8000 400 raise 
7777 1700 0 300 check 
3333 35750 2000 100 fold 
4444 1700 8000 0 fold 
total pot: 800 
/notify 
send notify msg to player 3333 
notify/ 
4444 1700 8000 0 fold 
8888 22050 8000 400 raise 
7777 1700 0 300 check 
3333 35750 2000 100 fold 
total pot: 800 
/notify 
send inquire msg to player 7777 
inquire/ 
3333 35750 2000 100 fold 
4444 1700 8000 0 fold 
8888 22050 8000 400 raise 
7777 1700 0 300 check 
total pot: 800 
/inquire 
recv from player 7777: check 


----- notify msg last round -----
send notify msg to player 8888 
notify/ 
7777 1600 0 400 call 
3333 35750 2000 100 fold 
4444 1700 8000 0 fold 
8888 22050 8000 400 raise 
total pot: 900 
/notify 
send notify msg to player 4444 
notify/ 
8888 22050 8000 400 raise 
7777 1600 0 400 call 
3333 35750 2000 100 fold 
4444 1700 8000 0 fold 
total pot: 900 
/notify 
send notify msg to player 3333 
notify/ 
4444 1700 8000 0 fold 
8888 22050 8000 400 raise 
7777 1600 0 400 call 
3333 35750 2000 100 fold 
total pot: 900 
/notify 
send notify msg to player 7777 
notify/ 
3333 35750 2000 100 fold 
4444 1700 8000 0 fold 
8888 22050 8000 400 raise 
7777 1600 0 400 call 
total pot: 900 
/notify 

---show down---
showdown/ 
common/ 
HEARTS 3 
HEARTS 4 
SPADES 2 
CLUBS J 
HEARTS J 
/common 
2: 7777 CLUBS 4 DIAMONDS 6 TWO_PAIR 
1: 8888 CLUBS 9 DIAMONDS 9 TWO_PAIR 
/showdown 

---Allocate pot---
pot-win/ 
8888: 900 
/pot-win 
it is player 7777's turn to be button

-----12 Hand-----

----- clean player data in socket -----
seat/ 
button: 7777 1600 0 
small blind: 8888 22950 8000 
big blind: 4444 1700 8000 
3333 35750 2000 
/seat 
blind/ 
8888: 50 
4444: 100 
/blind 
player 8888:hold/ 
CLUBS J 
DIAMONDS 10 
/hold 
player 4444:hold/ 
DIAMONDS 6 
DIAMONDS Q 
/hold 
player 3333:hold/ 
DIAMONDS A 
HEARTS Q 
/hold 
player 7777:hold/ 
CLUBS 2 
SPADES 5 
/hold 

---pre flop round bet---
valid player: 4, all in player: 0, fold player: 0
send inquire msg to player 3333 
inquire/ 
4444 1600 8000 100 blind 
8888 22900 8000 50 blind 
total pot: 150 
/inquire 
recv from player 3333: raise 200 

send inquire msg to player 7777 
inquire/ 
3333 35450 2000 300 raise 
4444 1600 8000 100 blind 
8888 22900 8000 50 blind 
total pot: 450 
/inquire 
recv from player 7777: check 

send inquire msg to player 8888 
inquire/ 
7777 1300 0 300 call 
3333 35450 2000 300 raise 
4444 1600 8000 100 blind 
8888 22900 8000 50 blind 
total pot: 750 
/inquire 
recv from player 8888: call 

send inquire msg to player 4444 
inquire/ 
8888 22650 8000 300 call 
7777 1300 0 300 call 
3333 35450 2000 300 raise 
4444 1600 8000 100 blind 
total pot: 1000 
/inquire 
recv from player 4444: fold 

flop/ 
HEARTS 2 
CLUBS 9 
HEARTS 10 
/flop 

---flop round bet---
valid player: 4, all in player: 0, fold player: 1
send inquire msg to player 8888 
inquire/ 
7777 1300 0 300 call 
3333 35450 2000 300 raise 
4444 1600 8000 100 fold 
8888 22650 8000 300 call 
total pot: 1000 
/inquire 
recv from player 8888: raise 100 

send notify msg to player 4444 
notify/ 
8888 22550 8000 400 raise 
7777 1300 0 300 call 
3333 35450 2000 300 raise 
4444 1600 8000 100 fold 
total pot: 1100 
/notify 
send inquire msg to player 3333 
inquire/ 
4444 1600 8000 100 fold 
8888 22550 8000 400 raise 
7777 1300 0 300 call 
3333 35450 2000 300 raise 
total pot: 1100 
/inquire 
recv from player 3333: all_in 

send inquire msg to player 7777 
inquire/ 
3333 0 2000 35750 all_in 
4444 1600 8000 100 fold 
8888 22550 8000 400 raise 
7777 1300 0 300 call 
total pot: 36550 
/inquire 
recv from player 7777: check 

send inquire msg to player 8888 
inquire/ 
7777 0 0 1600 all_in 
3333 0 2000 35750 all_in 
4444 1600 8000 100 fold 
8888 22550 8000 400 raise 
total pot: 37850 
/inquire 
recv from player 8888: raise 100 

turn/ 
HEARTS A 
/turn 

---turn round bet---
valid player: 4, all in player: 3, fold player: 1
river/ 
CLUBS A 
/river 

---river round bet---
valid player: 4, all in player: 3, fold player: 1

----- notify msg last round -----
send notify msg to player 4444 
notify/ 
8888 0 8000 22950 all_in 
7777 0 0 1600 all_in 
3333 0 2000 35750 all_in 
4444 1600 8000 100 fold 
total pot: 60400 
/notify 
send notify msg to player 3333 
notify/ 
4444 1600 8000 100 fold 
8888 0 8000 22950 all_in 
7777 0 0 1600 all_in 
3333 0 2000 35750 all_in 
total pot: 60400 
/notify 
send notify msg to player 7777 
notify/ 
3333 0 2000 35750 all_in 
4444 1600 8000 100 fold 
8888 0 8000 22950 all_in 
7777 0 0 1600 all_in 
total pot: 60400 
/notify 
send notify msg to player 8888 
notify/ 
7777 0 0 1600 all_in 
3333 0 2000 35750 all_in 
4444 1600 8000 100 fold 
8888 0 8000 22950 all_in 
total pot: 60400 
/notify 

---show down---
showdown/ 
common/ 
HEARTS 2 
CLUBS 9 
HEARTS 10 
HEARTS A 
CLUBS A 
/common 
2: 8888 CLUBS J DIAMONDS 10 TWO_PAIR 
1: 3333 DIAMONDS A HEARTS Q THREE_OF_A_KIND 
3: 7777 CLUBS 2 SPADES 5 TWO_PAIR 
/showdown 

---Allocate pot---
pot-win/ 
3333: 60400 
/pot-win 
it is player 8888's turn to be button

-----13 Hand-----

----- clean player data in socket -----
seat/ 
button: 8888 2000 6000 
small blind: 4444 1600 8000 
big blind: 3333 60400 2000 
/seat 
blind/ 
4444: 50 
3333: 100 
/blind 
player 4444:hold/ 
CLUBS 10 
HEARTS 3 
/hold 
player 3333:hold/ 
HEARTS K 
DIAMONDS 4 
/hold 
player 8888:hold/ 
CLUBS A 
CLUBS 2 
/hold 

---pre flop round bet---
valid player: 3, all in player: 0, fold player: 0
send inquire msg to player 8888 
inquire/ 
3333 60300 2000 100 blind 
4444 1550 8000 50 blind 
total pot: 150 
/inquire 
recv from player 8888: fold 

send inquire msg to player 4444 
inquire/ 
8888 2000 6000 0 fold 
3333 60300 2000 100 blind 
4444 1550 8000 50 blind 
total pot: 150 
/inquire 
recv from player 4444: fold 

send inquire msg to player 3333 
inquire/ 
4444 1550 8000 50 fold 
8888 2000 6000 0 fold 
3333 60300 2000 100 blind 
total pot: 150 
/inquire 
recv from player 3333: all_in 


---flop round bet---
valid player: 3, all in player: 1, fold player: 2

---turn round bet---
valid player: 3, all in player: 1, fold player: 2

---river round bet---
valid player: 3, all in player: 1, fold player: 2

----- notify msg last round -----
send notify msg to player 8888 
notify/ 
3333 0 2000 60400 all_in 
4444 1550 8000 50 fold 
8888 2000 6000 0 fold 
total pot: 60450 
/notify 
send notify msg to player 4444 
notify/ 
8888 2000 6000 0 fold 
3333 0 2000 60400 all_in 
4444 1550 8000 50 fold 
total pot: 60450 
/notify 
send notify msg to player 3333 
notify/ 
4444 1550 8000 50 fold 
8888 2000 6000 0 fold 
3333 0 2000 60400 all_in 
total pot: 60450 
/notify 

--- 1 players not fold, don't need show down---

---Allocate pot---
Only player at seat 1 not fold, win all the pot 60450
pot-win/ 
3333: 60450 
/pot-win 
it is player 4444's turn to be button

-----14 Hand-----

----- clean player data in socket -----
seat/ 
button: 4444 1550 8000 
small blind: 3333 60450 2000 
big blind: 8888 2000 6000 
/seat 
blind/ 
3333: 50 
8888: 100 
/blind 
player 3333:hold/ 
CLUBS 2 
DIAMONDS J 
/hold 
player 8888:hold/ 
CLUBS 6 
SPADES A 
/hold 
player 4444:hold/ 
DIAMONDS 5 
HEARTS 2 
/hold 

---pre flop round bet---
valid player: 3, all in player: 0, fold player: 0
send inquire msg to player 4444 
inquire/ 
8888 1900 6000 100 blind 
3333 60400 2000 50 blind 
total pot: 150 
/inquire 
recv from player 4444: fold 

send inquire msg to player 3333 
inquire/ 
4444 1550 8000 0 fold 
8888 1900 6000 100 blind 
3333 60400 2000 50 blind 
total pot: 150 
/inquire 
recv from player 3333: call 

send inquire msg to player 8888 
inquire/ 
3333 60350 2000 100 call 
4444 1550 8000 0 fold 
8888 1900 6000 100 blind 
total pot: 200 
/inquire 
recv from player 8888: call 

flop/ 
HEARTS A 
DIAMONDS 3 
DIAMONDS A 
/flop 

---flop round bet---
valid player: 3, all in player: 0, fold player: 1
send inquire msg to player 3333 
inquire/ 
4444 1550 8000 0 fold 
8888 1900 6000 100 check 
3333 60350 2000 100 call 
total pot: 200 
/inquire 
recv from player 3333: raise 200 

send inquire msg to player 8888 
inquire/ 
3333 60150 2000 300 raise 
4444 1550 8000 0 fold 
8888 1900 6000 100 check 
total pot: 400 
/inquire 
recv from player 8888: raise 100 

send notify msg to player 4444 
notify/ 
8888 1500 6000 500 raise 
3333 60150 2000 300 raise 
4444 1550 8000 0 fold 
total pot: 800 
/notify 
send inquire msg to player 3333 
inquire/ 
4444 1550 8000 0 fold 
8888 1500 6000 500 raise 
3333 60150 2000 300 raise 
total pot: 800 
/inquire 
recv from player 3333: raise 200 

send inquire msg to player 8888 
inquire/ 
3333 59750 2000 700 raise 
4444 1550 8000 0 fold 
8888 1500 6000 500 raise 
total pot: 1200 
/inquire 
recv from player 8888: raise 100 

send notify msg to player 4444 
notify/ 
8888 1100 6000 900 raise 
3333 59750 2000 700 raise 
4444 1550 8000 0 fold 
total pot: 1600 
/notify 
send inquire msg to player 3333 
inquire/ 
4444 1550 8000 0 fold 
8888 1100 6000 900 raise 
3333 59750 2000 700 raise 
total pot: 1600 
/inquire 
recv from player 3333: call 

turn/ 
SPADES 9 
/turn 

---turn round bet---
valid player: 3, all in player: 0, fold player: 1
send inquire msg to player 3333 
inquire/ 
4444 1550 8000 0 fold 
8888 1100 6000 900 raise 
3333 59550 2000 900 call 
total pot: 1800 
/inquire 
recv from player 3333: fold 

send inquire msg to player 8888 
inquire/ 
3333 59550 2000 900 fold 
4444 1550 8000 0 fold 
8888 1100 6000 900 raise 
total pot: 1800 
/inquire 
recv from player 8888: check 


---river round bet---
valid player: 3, all in player: 0, fold player: 2

----- notify msg last round -----
send notify msg to player 4444 
notify/ 
8888 1100 6000 900 check 
3333 59550 2000 900 fold 
4444 1550 8000 0 fold 
total pot: 1800 
/notify 
send notify msg to player 3333 
notify/ 
4444 1550 8000 0 fold 
8888 1100 6000 900 check 
3333 59550 2000 900 fold 
total pot: 1800 
/notify 
send notify msg to player 8888 
notify/ 
3333 59550 2000 900 fold 
4444 1550 8000 0 fold 
8888 1100 6000 900 check 
total pot: 1800 
/notify 

--- 1 players not fold, don't need show down---

---Allocate pot---
Only player at seat 1 not fold, win all the pot 1800
pot-win/ 
8888: 1800 
/pot-win 
it is player 3333's turn to be button

-----15 Hand-----

----- clean player data in socket -----
seat/ 
button: 3333 59550 2000 
small blind: 8888 2900 6000 
big blind: 4444 1550 8000 
/seat 
blind/ 
8888: 50 
4444: 100 
/blind 
player 8888:hold/ 
HEARTS A 
DIAMONDS 5 
/hold 
player 4444:hold/ 
DIAMONDS Q 
CLUBS 2 
/hold 
player 3333:hold/ 
DIAMONDS J 
HEARTS 5 
/hold 

---pre flop round bet---
valid player: 3, all in player: 0, fold player: 0
send inquire msg to player 3333 
inquire/ 
4444 1450 8000 100 blind 
8888 2850 6000 50 blind 
total pot: 150 
/inquire 
recv from player 3333: call 

send inquire msg to player 8888 
inquire/ 
3333 59450 2000 100 call 
4444 1450 8000 100 blind 
8888 2850 6000 50 blind 
total pot: 250 
/inquire 
recv from player 8888: call 

send inquire msg to player 4444 
inquire/ 
8888 2800 6000 100 call 
3333 59450 2000 100 call 
4444 1450 8000 100 blind 
total pot: 300 
/inquire 
recv from player 4444: fold 

flop/ 
DIAMONDS 3 
DIAMONDS 6 
DIAMONDS 9 
/flop 

---flop round bet---
valid player: 3, all in player: 0, fold player: 1
send inquire msg to player 8888 
inquire/ 
3333 59450 2000 100 call 
4444 1450 8000 100 fold 
8888 2800 6000 100 call 
total pot: 300 
/inquire 
recv from player 8888: check 

send notify msg to player 4444 
notify/ 
8888 2800 6000 100 check 
3333 59450 2000 100 call 
4444 1450 8000 100 fold 
total pot: 300 
/notify 
send inquire msg to player 3333 
inquire/ 
4444 1450 8000 100 fold 
8888 2800 6000 100 check 
3333 59450 2000 100 call 
total pot: 300 
/inquire 
recv from player 3333: fold 


---turn round bet---
valid player: 3, all in player: 0, fold player: 2

---river round bet---
valid player: 3, all in player: 0, fold player: 2

----- notify msg last round -----
send notify msg to player 8888 
notify/ 
3333 59450 2000 100 fold 
4444 1450 8000 100 fold 
8888 2800 6000 100 check 
total pot: 300 
/notify 
send notify msg to player 4444 
notify/ 
8888 2800 6000 100 check 
3333 59450 2000 100 fold 
4444 1450 8000 100 fold 
total pot: 300 
/notify 
send notify msg to player 3333 
notify/ 
4444 1450 8000 100 fold 
8888 2800 6000 100 check 
3333 59450 2000 100 fold 
total pot: 300 
/notify 

--- 1 players not fold, don't need show down---

---Allocate pot---
Only player at seat 0 not fold, win all the pot 300
pot-win/ 
8888: 300 
/pot-win 
it is player 8888's turn to be button

-----16 Hand-----

----- clean player data in socket -----
seat/ 
button: 8888 3100 6000 
small blind: 4444 1450 8000 
big blind: 3333 59450 2000 
/seat 
blind/ 
4444: 50 
3333: 100 
/blind 
player 4444:hold/ 
DIAMONDS 4 
DIAMONDS 9 
/hold 
player 3333:hold/ 
CLUBS 7 
HEARTS 7 
/hold 
player 8888:hold/ 
SPADES Q 
CLUBS 2 
/hold 

---pre flop round bet---
valid player: 3, all in player: 0, fold player: 0
send inquire msg to player 8888 
inquire/ 
3333 59350 2000 100 blind 
4444 1400 8000 50 blind 
total pot: 150 
/inquire 
recv from player 8888: fold 

send inquire msg to player 4444 
inquire/ 
8888 3100 6000 0 fold 
3333 59350 2000 100 blind 
4444 1400 8000 50 blind 
total pot: 150 
/inquire 
recv from player 4444: fold 

send inquire msg to player 3333 
inquire/ 
4444 1400 8000 50 fold 
8888 3100 6000 0 fold 
3333 59350 2000 100 blind 
total pot: 150 
/inquire 
recv from player 3333: call 


---flop round bet---
valid player: 3, all in player: 0, fold player: 2

---turn round bet---
valid player: 3, all in player: 0, fold player: 2

---river round bet---
valid player: 3, all in player: 0, fold player: 2

----- notify msg last round -----
send notify msg to player 8888 
notify/ 
3333 59350 2000 100 check 
4444 1400 8000 50 fold 
8888 3100 6000 0 fold 
total pot: 150 
/notify 
send notify msg to player 4444 
notify/ 
8888 3100 6000 0 fold 
3333 59350 2000 100 check 
4444 1400 8000 50 fold 
total pot: 150 
/notify 
send notify msg to player 3333 
notify/ 
4444 1400 8000 50 fold 
8888 3100 6000 0 fold 
3333 59350 2000 100 check 
total pot: 150 
/notify 

--- 1 players not fold, don't need show down---

---Allocate pot---
Only player at seat 1 not fold, win all the pot 150
pot-win/ 
3333: 150 
/pot-win 
it is player 4444's turn to be button

-----17 Hand-----

----- clean player data in socket -----
seat/ 
button: 4444 1400 8000 
small blind: 3333 59500 2000 
big blind: 8888 3100 6000 
/seat 
blind/ 
3333: 50 
8888: 100 
/blind 
player 3333:hold/ 
SPADES A 
CLUBS 7 
/hold 
player 8888:hold/ 
CLUBS K 
HEARTS 7 
/hold 
player 4444:hold/ 
CLUBS Q 
HEARTS 2 
/hold 

---pre flop round bet---
valid player: 3, all in player: 0, fold player: 0
send inquire msg to player 4444 
inquire/ 
8888 3000 6000 100 blind 
3333 59450 2000 50 blind 
total pot: 150 
/inquire 
recv from player 4444: fold 

send inquire msg to player 3333 
inquire/ 
4444 1400 8000 0 fold 
8888 3000 6000 100 blind 
3333 59450 2000 50 blind 
total pot: 150 
/inquire 
recv from player 3333: fold 

send inquire msg to player 8888 
inquire/ 
3333 59450 2000 50 fold 
4444 1400 8000 0 fold 
8888 3000 6000 100 blind 
total pot: 150 
/inquire 
recv from player 8888: call 


---flop round bet---
valid player: 3, all in player: 0, fold player: 2

---turn round bet---
valid player: 3, all in player: 0, fold player: 2

---river round bet---
valid player: 3, all in player: 0, fold player: 2

----- notify msg last round -----
send notify msg to player 4444 
notify/ 
8888 3000 6000 100 check 
3333 59450 2000 50 fold 
4444 1400 8000 0 fold 
total pot: 150 
/notify 
send notify msg to player 3333 
notify/ 
4444 1400 8000 0 fold 
8888 3000 6000 100 check 
3333 59450 2000 50 fold 
total pot: 150 
/notify 
send notify msg to player 8888 
notify/ 
3333 59450 2000 50 fold 
4444 1400 8000 0 fold 
8888 3000 6000 100 check 
total pot: 150 
/notify 

--- 1 players not fold, don't need show down---

---Allocate pot---
Only player at seat 1 not fold, win all the pot 150
pot-win/ 
8888: 150 
/pot-win 
it is player 3333's turn to be button

-----18 Hand-----

----- clean player data in socket -----
seat/ 
button: 3333 59450 2000 
small blind: 8888 3150 6000 
big blind: 4444 1400 8000 
/seat 
blind/ 
8888: 50 
4444: 100 
/blind 
player 8888:hold/ 
HEARTS 10 
DIAMONDS 2 
/hold 
player 4444:hold/ 
HEARTS 7 
HEARTS 4 
/hold 
player 3333:hold/ 
SPADES Q 
CLUBS 3 
/hold 

---pre flop round bet---
valid player: 3, all in player: 0, fold player: 0
send inquire msg to player 3333 
inquire/ 
4444 1300 8000 100 blind 
8888 3100 6000 50 blind 
total pot: 150 
/inquire 
recv from player 3333: check 

send inquire msg to player 8888 
inquire/ 
3333 59350 2000 100 call 
4444 1300 8000 100 blind 
8888 3100 6000 50 blind 
total pot: 250 
/inquire 
recv from player 8888: fold 

send inquire msg to player 4444 
inquire/ 
8888 3100 6000 50 fold 
3333 59350 2000 100 call 
4444 1300 8000 100 blind 
total pot: 250 
/inquire 
recv from player 4444: fold 


---flop round bet---
valid player: 3, all in player: 0, fold player: 2

---turn round bet---
valid player: 3, all in player: 0, fold player: 2

---river round bet---
valid player: 3, all in player: 0, fold player: 2

----- notify msg last round -----
send notify msg to player 3333 
notify/ 
4444 1300 8000 100 fold 
8888 3100 6000 50 fold 
3333 59350 2000 100 call 
total pot: 250 
/notify 
send notify msg to player 8888 
notify/ 
3333 59350 2000 100 call 
4444 1300 8000 100 fold 
8888 3100 6000 50 fold 
total pot: 250 
/notify 
send notify msg to player 4444 
notify/ 
8888 3100 6000 50 fold 
3333 59350 2000 100 call 
4444 1300 8000 100 fold 
total pot: 250 
/notify 

--- 1 players not fold, don't need show down---

---Allocate pot---
Only player at seat 7 not fold, win all the pot 250
pot-win/ 
3333: 250 
/pot-win 
it is player 8888's turn to be button

-----19 Hand-----

----- clean player data in socket -----
seat/ 
button: 8888 3100 6000 
small blind: 4444 1300 8000 
big blind: 3333 59600 2000 
/seat 
blind/ 
4444: 50 
3333: 100 
/blind 
player 4444:hold/ 
DIAMONDS 5 
HEARTS Q 
/hold 
player 3333:hold/ 
HEARTS 4 
HEARTS 7 
/hold 
player 8888:hold/ 
HEARTS 5 
CLUBS 8 
/hold 

---pre flop round bet---
valid player: 3, all in player: 0, fold player: 0
send inquire msg to player 8888 
inquire/ 
3333 59500 2000 100 blind 
4444 1250 8000 50 blind 
total pot: 150 
/inquire 
recv from player 8888: fold 

send inquire msg to player 4444 
inquire/ 
8888 3100 6000 0 fold 
3333 59500 2000 100 blind 
4444 1250 8000 50 blind 
total pot: 150 
/inquire 
recv from player 4444: fold 

send inquire msg to player 3333 
inquire/ 
4444 1250 8000 50 fold 
8888 3100 6000 0 fold 
3333 59500 2000 100 blind 
total pot: 150 
/inquire 
recv from player 3333: fold 


---flop round bet---
valid player: 3, all in player: 0, fold player: 3

---turn round bet---
valid player: 3, all in player: 0, fold player: 3

---river round bet---
valid player: 3, all in player: 0, fold player: 3

----- notify msg last round -----
send notify msg to player 8888 
notify/ 
3333 59500 2000 100 fold 
4444 1250 8000 50 fold 
8888 3100 6000 0 fold 
total pot: 150 
/notify 
send notify msg to player 4444 
notify/ 
8888 3100 6000 0 fold 
3333 59500 2000 100 fold 
4444 1250 8000 50 fold 
total pot: 150 
/notify 
send notify msg to player 3333 
notify/ 
4444 1250 8000 50 fold 
8888 3100 6000 0 fold 
3333 59500 2000 100 fold 
total pot: 150 
/notify 

--- 0 players not fold, don't need show down---

---Allocate pot---
pot-win/ 
/pot-win 
it is player 4444's turn to be button

-----20 Hand-----

----- clean player data in socket -----
seat/ 
button: 4444 1250 8000 
small blind: 3333 59500 2000 
big blind: 8888 3100 6000 
/seat 
blind/ 
3333: 50 
8888: 100 
/blind 
player 3333:hold/ 
DIAMONDS 9 
HEARTS 7 
/hold 
player 8888:hold/ 
SPADES A 
SPADES 8 
/hold 
player 4444:hold/ 
SPADES 9 
CLUBS A 
/hold 

---pre flop round bet---
valid player: 3, all in player: 0, fold player: 0
send inquire msg to player 4444 
inquire/ 
8888 3000 6000 100 blind 
3333 59450 2000 50 blind 
total pot: 150 
/inquire 
recv from player 4444: fold 

send inquire msg to player 3333 
inquire/ 
4444 1250 8000 0 fold 
8888 3000 6000 100 blind 
3333 59450 2000 50 blind 
total pot: 150 
/inquire 
recv from player 3333: all_in 

send inquire msg to player 8888 
inquire/ 
3333 0 2000 59500 all_in 
4444 1250 8000 0 fold 
8888 3000 6000 100 blind 
total pot: 59600 
/inquire 
recv from player 8888: call 

flop/ 
CLUBS 3 
CLUBS 9 
DIAMONDS K 
/flop 

---flop round bet---
valid player: 3, all in player: 2, fold player: 1
turn/ 
DIAMONDS 4 
/turn 

---turn round bet---
valid player: 3, all in player: 2, fold player: 1
river/ 
DIAMONDS 5 
/river 

---river round bet---
valid player: 3, all in player: 2, fold player: 1

----- notify msg last round -----
send notify msg to player 4444 
notify/ 
8888 0 6000 3100 all_in 
3333 0 2000 59500 all_in 
4444 1250 8000 0 fold 
total pot: 62600 
/notify 
send notify msg to player 3333 
notify/ 
4444 1250 8000 0 fold 
8888 0 6000 3100 all_in 
3333 0 2000 59500 all_in 
total pot: 62600 
/notify 
send notify msg to player 8888 
notify/ 
3333 0 2000 59500 all_in 
4444 1250 8000 0 fold 
8888 0 6000 3100 all_in 
total pot: 62600 
/notify 

---show down---
showdown/ 
common/ 
CLUBS 3 
CLUBS 9 
DIAMONDS K 
DIAMONDS 4 
DIAMONDS 5 
/common 
1: 3333 DIAMONDS 9 HEARTS 7 ONE_PAIR 
2: 8888 SPADES A SPADES 8 HIGH_CARD 
/showdown 

---Allocate pot---
pot-win/ 
3333: 62600 
/pot-win 
it is player 3333's turn to be button

-----21 Hand-----

----- clean player data in socket -----
seat/ 
button: 3333 62600 2000 
small blind: 8888 2000 4000 
big blind: 4444 1250 8000 
/seat 
blind/ 
8888: 50 
4444: 100 
/blind 
player 8888:hold/ 
SPADES K 
CLUBS 7 
/hold 
player 4444:hold/ 
DIAMONDS 8 
HEARTS 3 
/hold 
player 3333:hold/ 
DIAMONDS 9 
HEARTS J 
/hold 

---pre flop round bet---
valid player: 3, all in player: 0, fold player: 0
send inquire msg to player 3333 
inquire/ 
4444 1150 8000 100 blind 
8888 1950 4000 50 blind 
total pot: 150 
/inquire 
recv from player 3333: raise 200 

send inquire msg to player 8888 
inquire/ 
3333 62300 2000 300 raise 
4444 1150 8000 100 blind 
8888 1950 4000 50 blind 
total pot: 450 
/inquire 
recv from player 8888: call 

send inquire msg to player 4444 
inquire/ 
8888 1700 4000 300 call 
3333 62300 2000 300 raise 
4444 1150 8000 100 blind 
total pot: 700 
/inquire 
recv from player 4444: fold 

flop/ 
SPADES 8 
DIAMONDS 2 
DIAMONDS K 
/flop 

---flop round bet---
valid player: 3, all in player: 0, fold player: 1
send inquire msg to player 8888 
inquire/ 
3333 62300 2000 300 raise 
4444 1150 8000 100 fold 
8888 1700 4000 300 call 
total pot: 700 
/inquire 
recv from player 8888: raise 100 

send notify msg to player 4444 
notify/ 
8888 1600 4000 400 raise 
3333 62300 2000 300 raise 
4444 1150 8000 100 fold 
total pot: 800 
/notify 
send inquire msg to player 3333 
inquire/ 
4444 1150 8000 100 fold 
8888 1600 4000 400 raise 
3333 62300 2000 300 raise 
total pot: 800 
/inquire 
recv from player 3333: check 

turn/ 
CLUBS 10 
/turn 

---turn round bet---
valid player: 3, all in player: 0, fold player: 1
send inquire msg to player 8888 
inquire/ 
3333 62200 2000 400 call 
4444 1150 8000 100 fold 
8888 1600 4000 400 raise 
total pot: 900 
/inquire 
recv from player 8888: raise 100 

send notify msg to player 4444 
notify/ 
8888 1500 4000 500 raise 
3333 62200 2000 400 call 
4444 1150 8000 100 fold 
total pot: 1000 
/notify 
send inquire msg to player 3333 
inquire/ 
4444 1150 8000 100 fold 
8888 1500 4000 500 raise 
3333 62200 2000 400 call 
total pot: 1000 
/inquire 
recv from player 3333: fold 


---river round bet---
valid player: 3, all in player: 0, fold player: 2

----- notify msg last round -----
send notify msg to player 8888 
notify/ 
3333 62200 2000 400 fold 
4444 1150 8000 100 fold 
8888 1500 4000 500 raise 
total pot: 1000 
/notify 
send notify msg to player 4444 
notify/ 
8888 1500 4000 500 raise 
3333 62200 2000 400 fold 
4444 1150 8000 100 fold 
total pot: 1000 
/notify 
send notify msg to player 3333 
notify/ 
4444 1150 8000 100 fold 
8888 1500 4000 500 raise 
3333 62200 2000 400 fold 
total pot: 1000 
/notify 

--- 1 players not fold, don't need show down---

---Allocate pot---
Only player at seat 0 not fold, win all the pot 1000
pot-win/ 
8888: 1000 
/pot-win 
it is player 8888's turn to be button

-----22 Hand-----

----- clean player data in socket -----
seat/ 
button: 8888 2500 4000 
small blind: 4444 1150 8000 
big blind: 3333 62200 2000 
/seat 
blind/ 
4444: 50 
3333: 100 
/blind 
player 4444:hold/ 
SPADES 6 
HEARTS J 
/hold 
player 3333:hold/ 
HEARTS 2 
HEARTS 6 
/hold 
player 8888:hold/ 
DIAMONDS 2 
SPADES 3 
/hold 

---pre flop round bet---
valid player: 3, all in player: 0, fold player: 0
send inquire msg to player 8888 
inquire/ 
3333 62100 2000 100 blind 
4444 1100 8000 50 blind 
total pot: 150 
/inquire 
recv from player 8888: fold 

send inquire msg to player 4444 
inquire/ 
8888 2500 4000 0 fold 
3333 62100 2000 100 blind 
4444 1100 8000 50 blind 
total pot: 150 
/inquire 
recv from player 4444: fold 

send inquire msg to player 3333 
inquire/ 
4444 1100 8000 50 fold 
8888 2500 4000 0 fold 
3333 62100 2000 100 blind 
total pot: 150 
/inquire 
recv from player 3333: fold 


---flop round bet---
valid player: 3, all in player: 0, fold player: 3

---turn round bet---
valid player: 3, all in player: 0, fold player: 3

---river round bet---
valid player: 3, all in player: 0, fold player: 3

----- notify msg last round -----
send notify msg to player 8888 
notify/ 
3333 62100 2000 100 fold 
4444 1100 8000 50 fold 
8888 2500 4000 0 fold 
total pot: 150 
/notify 
send notify msg to player 4444 
notify/ 
8888 2500 4000 0 fold 
3333 62100 2000 100 fold 
4444 1100 8000 50 fold 
total pot: 150 
/notify 
send notify msg to player 3333 
notify/ 
4444 1100 8000 50 fold 
8888 2500 4000 0 fold 
3333 62100 2000 100 fold 
total pot: 150 
/notify 

--- 0 players not fold, don't need show down---

---Allocate pot---
pot-win/ 
/pot-win 
it is player 4444's turn to be button

-----23 Hand-----

----- clean player data in socket -----
seat/ 
button: 4444 1100 8000 
small blind: 3333 62100 2000 
big blind: 8888 2500 4000 
/seat 
blind/ 
3333: 50 
8888: 100 
/blind 
player 3333:hold/ 
SPADES 10 
SPADES 6 
/hold 
player 8888:hold/ 
CLUBS Q 
HEARTS 3 
/hold 
player 4444:hold/ 
DIAMONDS 10 
DIAMONDS 6 
/hold 

---pre flop round bet---
valid player: 3, all in player: 0, fold player: 0
send inquire msg to player 4444 
inquire/ 
8888 2400 4000 100 blind 
3333 62050 2000 50 blind 
total pot: 150 
/inquire 
recv from player 4444: fold 

send inquire msg to player 3333 
inquire/ 
4444 1100 8000 0 fold 
8888 2400 4000 100 blind 
3333 62050 2000 50 blind 
total pot: 150 
/inquire 
recv from player 3333: all_in 

send inquire msg to player 8888 
inquire/ 
3333 0 2000 62100 all_in 
4444 1100 8000 0 fold 
8888 2400 4000 100 blind 
total pot: 62200 
/inquire 
recv from player 8888: fold 


---flop round bet---
valid player: 3, all in player: 1, fold player: 2

---turn round bet---
valid player: 3, all in player: 1, fold player: 2

---river round bet---
valid player: 3, all in player: 1, fold player: 2

----- notify msg last round -----
send notify msg to player 4444 
notify/ 
8888 2400 4000 100 fold 
3333 0 2000 62100 all_in 
4444 1100 8000 0 fold 
total pot: 62200 
/notify 
send notify msg to player 3333 
notify/ 
4444 1100 8000 0 fold 
8888 2400 4000 100 fold 
3333 0 2000 62100 all_in 
total pot: 62200 
/notify 
send notify msg to player 8888 
notify/ 
3333 0 2000 62100 all_in 
4444 1100 8000 0 fold 
8888 2400 4000 100 fold 
total pot: 62200 
/notify 

--- 1 players not fold, don't need show down---

---Allocate pot---
Only player at seat 0 not fold, win all the pot 62200
pot-win/ 
3333: 62200 
/pot-win 
it is player 3333's turn to be button

-----24 Hand-----

----- clean player data in socket -----
seat/ 
button: 3333 62200 2000 
small blind: 8888 2400 4000 
big blind: 4444 1100 8000 
/seat 
blind/ 
8888: 50 
4444: 100 
/blind 
player 8888:hold/ 
CLUBS 3 
DIAMONDS Q 
/hold 
player 4444:hold/ 
CLUBS J 
SPADES 6 
/hold 
player 3333:hold/ 
SPADES 9 
CLUBS 4 
/hold 

---pre flop round bet---
valid player: 3, all in player: 0, fold player: 0
send inquire msg to player 3333 
inquire/ 
4444 1000 8000 100 blind 
8888 2350 4000 50 blind 
total pot: 150 
/inquire 
recv from player 3333: all_in 

send inquire msg to player 8888 
inquire/ 
3333 0 2000 62200 all_in 
4444 1000 8000 100 blind 
8888 2350 4000 50 blind 
total pot: 62350 
/inquire 
recv from player 8888: fold 

send inquire msg to player 4444 
inquire/ 
8888 2350 4000 50 fold 
3333 0 2000 62200 all_in 
4444 1000 8000 100 blind 
total pot: 62350 
/inquire 
recv from player 4444: fold 


---flop round bet---
valid player: 3, all in player: 1, fold player: 2

---turn round bet---
valid player: 3, all in player: 1, fold player: 2

---river round bet---
valid player: 3, all in player: 1, fold player: 2

----- notify msg last round -----
send notify msg to player 3333 
notify/ 
4444 1000 8000 100 fold 
8888 2350 4000 50 fold 
3333 0 2000 62200 all_in 
total pot: 62350 
/notify 
send notify msg to player 8888 
notify/ 
3333 0 2000 62200 all_in 
4444 1000 8000 100 fold 
8888 2350 4000 50 fold 
total pot: 62350 
/notify 
send notify msg to player 4444 
notify/ 
8888 2350 4000 50 fold 
3333 0 2000 62200 all_in 
4444 1000 8000 100 fold 
total pot: 62350 
/notify 

--- 1 players not fold, don't need show down---

---Allocate pot---
Only player at seat 7 not fold, win all the pot 62350
pot-win/ 
3333: 62350 
/pot-win 
it is player 8888's turn to be button

-----25 Hand-----

----- clean player data in socket -----
seat/ 
button: 8888 2350 4000 
small blind: 4444 1000 8000 
big blind: 3333 62350 2000 
/seat 
blind/ 
4444: 50 
3333: 100 
/blind 
player 4444:hold/ 
CLUBS 7 
CLUBS Q 
/hold 
player 3333:hold/ 
DIAMONDS 4 
DIAMONDS 8 
/hold 
player 8888:hold/ 
SPADES 9 
CLUBS 10 
/hold 

---pre flop round bet---
valid player: 3, all in player: 0, fold player: 0
send inquire msg to player 8888 
inquire/ 
3333 62250 2000 100 blind 
4444 950 8000 50 blind 
total pot: 150 
/inquire 
recv from player 8888: call 

send inquire msg to player 4444 
inquire/ 
8888 2250 4000 100 call 
3333 62250 2000 100 blind 
4444 950 8000 50 blind 
total pot: 250 
/inquire 
recv from player 4444: fold 

send inquire msg to player 3333 
inquire/ 
4444 950 8000 50 fold 
8888 2250 4000 100 call 
3333 62250 2000 100 blind 
total pot: 250 
/inquire 
recv from player 3333: fold 


---flop round bet---
valid player: 3, all in player: 0, fold player: 2

---turn round bet---
valid player: 3, all in player: 0, fold player: 2

---river round bet---
valid player: 3, all in player: 0, fold player: 2

----- notify msg last round -----
send notify msg to player 8888 
notify/ 
3333 62250 2000 100 fold 
4444 950 8000 50 fold 
8888 2250 4000 100 call 
total pot: 250 
/notify 
send notify msg to player 4444 
notify/ 
8888 2250 4000 100 call 
3333 62250 2000 100 fold 
4444 950 8000 50 fold 
total pot: 250 
/notify 
send notify msg to player 3333 
notify/ 
4444 950 8000 50 fold 
8888 2250 4000 100 call 
3333 62250 2000 100 fold 
total pot: 250 
/notify 

--- 1 players not fold, don't need show down---

---Allocate pot---
Only player at seat 7 not fold, win all the pot 250
pot-win/ 
8888: 250 
/pot-win 
it is player 4444's turn to be button

-----26 Hand-----

----- clean player data in socket -----
seat/ 
button: 4444 950 8000 
small blind: 3333 62250 2000 
big blind: 8888 2500 4000 
/seat 
blind/ 
3333: 50 
8888: 100 
/blind 
player 3333:hold/ 
HEARTS 7 
SPADES 4 
/hold 
player 8888:hold/ 
HEARTS 4 
HEARTS 10 
/hold 
player 4444:hold/ 
SPADES K 
CLUBS J 
/hold 

---pre flop round bet---
valid player: 3, all in player: 0, fold player: 0
send inquire msg to player 4444 
inquire/ 
8888 2400 4000 100 blind 
3333 62200 2000 50 blind 
total pot: 150 
/inquire 
recv from player 4444: fold 

send inquire msg to player 3333 
inquire/ 
4444 950 8000 0 fold 
8888 2400 4000 100 blind 
3333 62200 2000 50 blind 
total pot: 150 
/inquire 
recv from player 3333: all_in 

send inquire msg to player 8888 
inquire/ 
3333 0 2000 62250 all_in 
4444 950 8000 0 fold 
8888 2400 4000 100 blind 
total pot: 62350 
/inquire 
recv from player 8888: fold 


---flop round bet---
valid player: 3, all in player: 1, fold player: 2

---turn round bet---
valid player: 3, all in player: 1, fold player: 2

---river round bet---
valid player: 3, all in player: 1, fold player: 2

----- notify msg last round -----
send notify msg to player 4444 
notify/ 
8888 2400 4000 100 fold 
3333 0 2000 62250 all_in 
4444 950 8000 0 fold 
total pot: 62350 
/notify 
send notify msg to player 3333 
notify/ 
4444 950 8000 0 fold 
8888 2400 4000 100 fold 
3333 0 2000 62250 all_in 
total pot: 62350 
/notify 
send notify msg to player 8888 
notify/ 
3333 0 2000 62250 all_in 
4444 950 8000 0 fold 
8888 2400 4000 100 fold 
total pot: 62350 
/notify 

--- 1 players not fold, don't need show down---

---Allocate pot---
Only player at seat 0 not fold, win all the pot 62350
pot-win/ 
3333: 62350 
/pot-win 
it is player 3333's turn to be button

-----27 Hand-----

----- clean player data in socket -----
seat/ 
button: 3333 62350 2000 
small blind: 8888 2400 4000 
big blind: 4444 950 8000 
/seat 
blind/ 
8888: 50 
4444: 100 
/blind 
player 8888:hold/ 
DIAMONDS 10 
CLUBS Q 
/hold 
player 4444:hold/ 
SPADES 9 
SPADES 8 
/hold 
player 3333:hold/ 
SPADES 10 
SPADES 2 
/hold 

---pre flop round bet---
valid player: 3, all in player: 0, fold player: 0
send inquire msg to player 3333 
inquire/ 
4444 850 8000 100 blind 
8888 2350 4000 50 blind 
total pot: 150 
/inquire 
recv from player 3333: all_in 

send inquire msg to player 8888 
inquire/ 
3333 0 2000 62350 all_in 
4444 850 8000 100 blind 
8888 2350 4000 50 blind 
total pot: 62500 
/inquire 
recv from player 8888: call 

send inquire msg to player 4444 
inquire/ 
8888 0 4000 2400 all_in 
3333 0 2000 62350 all_in 
4444 850 8000 100 blind 
total pot: 64850 
/inquire 
recv from player 4444: fold 

flop/ 
HEARTS A 
SPADES J 
DIAMONDS 3 
/flop 

---flop round bet---
valid player: 3, all in player: 2, fold player: 1
turn/ 
HEARTS 8 
/turn 

---turn round bet---
valid player: 3, all in player: 2, fold player: 1
river/ 
SPADES 3 
/river 

---river round bet---
valid player: 3, all in player: 2, fold player: 1

----- notify msg last round -----
send notify msg to player 3333 
notify/ 
4444 850 8000 100 fold 
8888 0 4000 2400 all_in 
3333 0 2000 62350 all_in 
total pot: 64850 
/notify 
send notify msg to player 8888 
notify/ 
3333 0 2000 62350 all_in 
4444 850 8000 100 fold 
8888 0 4000 2400 all_in 
total pot: 64850 
/notify 
send notify msg to player 4444 
notify/ 
8888 0 4000 2400 all_in 
3333 0 2000 62350 all_in 
4444 850 8000 100 fold 
total pot: 64850 
/notify 

---show down---
showdown/ 
common/ 
HEARTS A 
SPADES J 
DIAMONDS 3 
HEARTS 8 
SPADES 3 
/common 
1: 8888 DIAMONDS 10 CLUBS Q ONE_PAIR 
2: 3333 SPADES 10 SPADES 2 ONE_PAIR 
/showdown 

---Allocate pot---
pot-win/ 
8888: 4900 
3333: 59950 
/pot-win 
it is player 8888's turn to be button

-----28 Hand-----

----- clean player data in socket -----
seat/ 
button: 8888 4900 4000 
small blind: 4444 850 8000 
big blind: 3333 59950 2000 
/seat 
blind/ 
4444: 50 
3333: 100 
/blind 
player 4444:hold/ 
DIAMONDS Q 
CLUBS 3 
/hold 
player 3333:hold/ 
SPADES 8 
HEARTS 7 
/hold 
player 8888:hold/ 
DIAMONDS J 
DIAMONDS 6 
/hold 

---pre flop round bet---
valid player: 3, all in player: 0, fold player: 0
send inquire msg to player 8888 
inquire/ 
3333 59850 2000 100 blind 
4444 800 8000 50 blind 
total pot: 150 
/inquire 
recv from player 8888: call 

send inquire msg to player 4444 
inquire/ 
8888 4800 4000 100 call 
3333 59850 2000 100 blind 
4444 800 8000 50 blind 
total pot: 250 
/inquire 
recv from player 4444: fold 

send inquire msg to player 3333 
inquire/ 
4444 800 8000 50 fold 
8888 4800 4000 100 call 
3333 59850 2000 100 blind 
total pot: 250 
/inquire 
recv from player 3333: fold 


---flop round bet---
valid player: 3, all in player: 0, fold player: 2

---turn round bet---
valid player: 3, all in player: 0, fold player: 2

---river round bet---
valid player: 3, all in player: 0, fold player: 2

----- notify msg last round -----
send notify msg to player 8888 
notify/ 
3333 59850 2000 100 fold 
4444 800 8000 50 fold 
8888 4800 4000 100 call 
total pot: 250 
/notify 
send notify msg to player 4444 
notify/ 
8888 4800 4000 100 call 
3333 59850 2000 100 fold 
4444 800 8000 50 fold 
total pot: 250 
/notify 
send notify msg to player 3333 
notify/ 
4444 800 8000 50 fold 
8888 4800 4000 100 call 
3333 59850 2000 100 fold 
total pot: 250 
/notify 

--- 1 players not fold, don't need show down---

---Allocate pot---
Only player at seat 7 not fold, win all the pot 250
pot-win/ 
8888: 250 
/pot-win 
it is player 4444's turn to be button

-----29 Hand-----

----- clean player data in socket -----
seat/ 
button: 4444 800 8000 
small blind: 3333 59850 2000 
big blind: 8888 5050 4000 
/seat 
blind/ 
3333: 50 
8888: 100 
/blind 
player 3333:hold/ 
CLUBS 5 
CLUBS Q 
/hold 
player 8888:hold/ 
HEARTS 3 
SPADES 8 
/hold 
player 4444:hold/ 
CLUBS 7 
DIAMONDS 2 
/hold 

---pre flop round bet---
valid player: 3, all in player: 0, fold player: 0
send inquire msg to player 4444 
inquire/ 
8888 4950 4000 100 blind 
3333 59800 2000 50 blind 
total pot: 150 
/inquire 
recv from player 4444: fold 

send inquire msg to player 3333 
inquire/ 
4444 800 8000 0 fold 
8888 4950 4000 100 blind 
3333 59800 2000 50 blind 
total pot: 150 
/inquire 
recv from player 3333: call 

send inquire msg to player 8888 
inquire/ 
3333 59750 2000 100 call 
4444 800 8000 0 fold 
8888 4950 4000 100 blind 
total pot: 200 
/inquire 
recv from player 8888: fold 


---flop round bet---
valid player: 3, all in player: 0, fold player: 2

---turn round bet---
valid player: 3, all in player: 0, fold player: 2

---river round bet---
valid player: 3, all in player: 0, fold player: 2

----- notify msg last round -----
send notify msg to player 4444 
notify/ 
8888 4950 4000 100 fold 
3333 59750 2000 100 call 
4444 800 8000 0 fold 
total pot: 200 
/notify 
send notify msg to player 3333 
notify/ 
4444 800 8000 0 fold 
8888 4950 4000 100 fold 
3333 59750 2000 100 call 
total pot: 200 
/notify 
send notify msg to player 8888 
notify/ 
3333 59750 2000 100 call 
4444 800 8000 0 fold 
8888 4950 4000 100 fold 
total pot: 200 
/notify 

--- 1 players not fold, don't need show down---

---Allocate pot---
Only player at seat 0 not fold, win all the pot 200
pot-win/ 
3333: 200 
/pot-win 
it is player 3333's turn to be button

-----30 Hand-----

----- clean player data in socket -----
seat/ 
button: 3333 59950 2000 
small blind: 8888 4950 4000 
big blind: 4444 800 8000 
/seat 
blind/ 
8888: 50 
4444: 100 
/blind 
player 8888:hold/ 
CLUBS 2 
HEARTS 9 
/hold 
player 4444:hold/ 
DIAMONDS Q 
HEARTS Q 
/hold 
player 3333:hold/ 
SPADES A 
CLUBS 5 
/hold 

---pre flop round bet---
valid player: 3, all in player: 0, fold player: 0
send inquire msg to player 3333 
inquire/ 
4444 700 8000 100 blind 
8888 4900 4000 50 blind 
total pot: 150 
/inquire 
recv from player 3333: raise 200 

send inquire msg to player 8888 
inquire/ 
3333 59650 2000 300 raise 
4444 700 8000 100 blind 
8888 4900 4000 50 blind 
total pot: 450 
/inquire 
recv from player 8888: fold 

send inquire msg to player 4444 
inquire/ 
8888 4900 4000 50 fold 
3333 59650 2000 300 raise 
4444 700 8000 100 blind 
total pot: 450 
/inquire 
recv from player 4444: fold 


---flop round bet---
valid player: 3, all in player: 0, fold player: 2

---turn round bet---
valid player: 3, all in player: 0, fold player: 2

---river round bet---
valid player: 3, all in player: 0, fold player: 2

----- notify msg last round -----
send notify msg to player 3333 
notify/ 
4444 700 8000 100 fold 
8888 4900 4000 50 fold 
3333 59650 2000 300 raise 
total pot: 450 
/notify 
send notify msg to player 8888 
notify/ 
3333 59650 2000 300 raise 
4444 700 8000 100 fold 
8888 4900 4000 50 fold 
total pot: 450 
/notify 
send notify msg to player 4444 
notify/ 
8888 4900 4000 50 fold 
3333 59650 2000 300 raise 
4444 700 8000 100 fold 
total pot: 450 
/notify 

--- 1 players not fold, don't need show down---

---Allocate pot---
Only player at seat 7 not fold, win all the pot 450
pot-win/ 
3333: 450 
/pot-win 
it is player 8888's turn to be button

-----31 Hand-----

----- clean player data in socket -----
seat/ 
button: 8888 4900 4000 
small blind: 4444 700 8000 
big blind: 3333 60100 2000 
/seat 
blind/ 
4444: 50 
3333: 100 
/blind 
player 4444:hold/ 
HEARTS 5 
HEARTS 3 
/hold 
player 3333:hold/ 
SPADES 9 
HEARTS 6 
/hold 
player 8888:hold/ 
SPADES J 
DIAMONDS 5 
/hold 

---pre flop round bet---
valid player: 3, all in player: 0, fold player: 0
send inquire msg to player 8888 
inquire/ 
3333 60000 2000 100 blind 
4444 650 8000 50 blind 
total pot: 150 
/inquire 
recv from player 8888: fold 

send inquire msg to player 4444 
inquire/ 
8888 4900 4000 0 fold 
3333 60000 2000 100 blind 
4444 650 8000 50 blind 
total pot: 150 
/inquire 
recv from player 4444: fold 

send inquire msg to player 3333 
inquire/ 
4444 650 8000 50 fold 
8888 4900 4000 0 fold 
3333 60000 2000 100 blind 
total pot: 150 
/inquire 
recv from player 3333: call 


---flop round bet---
valid player: 3, all in player: 0, fold player: 2

---turn round bet---
valid player: 3, all in player: 0, fold player: 2

---river round bet---
valid player: 3, all in player: 0, fold player: 2

----- notify msg last round -----
send notify msg to player 8888 
notify/ 
3333 60000 2000 100 check 
4444 650 8000 50 fold 
8888 4900 4000 0 fold 
total pot: 150 
/notify 
send notify msg to player 4444 
notify/ 
8888 4900 4000 0 fold 
3333 60000 2000 100 check 
4444 650 8000 50 fold 
total pot: 150 
/notify 
send notify msg to player 3333 
notify/ 
4444 650 8000 50 fold 
8888 4900 4000 0 fold 
3333 60000 2000 100 check 
total pot: 150 
/notify 

--- 1 players not fold, don't need show down---

---Allocate pot---
Only player at seat 1 not fold, win all the pot 150
pot-win/ 
3333: 150 
/pot-win 
it is player 4444's turn to be button

-----32 Hand-----

----- clean player data in socket -----
seat/ 
button: 4444 650 8000 
small blind: 3333 60150 2000 
big blind: 8888 4900 4000 
/seat 
blind/ 
3333: 50 
8888: 100 
/blind 
player 3333:hold/ 
DIAMONDS 2 
HEARTS 3 
/hold 
player 8888:hold/ 
DIAMONDS 9 
HEARTS 2 
/hold 
player 4444:hold/ 
CLUBS Q 
CLUBS 4 
/hold 

---pre flop round bet---
valid player: 3, all in player: 0, fold player: 0
send inquire msg to player 4444 
inquire/ 
8888 4800 4000 100 blind 
3333 60100 2000 50 blind 
total pot: 150 
/inquire 
recv from player 4444: fold 

send inquire msg to player 3333 
inquire/ 
4444 650 8000 0 fold 
8888 4800 4000 100 blind 
3333 60100 2000 50 blind 
total pot: 150 
/inquire 
recv from player 3333: check 

send inquire msg to player 8888 
inquire/ 
3333 60050 2000 100 call 
4444 650 8000 0 fold 
8888 4800 4000 100 blind 
total pot: 200 
/inquire 
recv from player 8888: fold 


---flop round bet---
valid player: 3, all in player: 0, fold player: 2

---turn round bet---
valid player: 3, all in player: 0, fold player: 2

---river round bet---
valid player: 3, all in player: 0, fold player: 2

----- notify msg last round -----
send notify msg to player 4444 
notify/ 
8888 4800 4000 100 fold 
3333 60050 2000 100 call 
4444 650 8000 0 fold 
total pot: 200 
/notify 
send notify msg to player 3333 
notify/ 
4444 650 8000 0 fold 
8888 4800 4000 100 fold 
3333 60050 2000 100 call 
total pot: 200 
/notify 
send notify msg to player 8888 
notify/ 
3333 60050 2000 100 call 
4444 650 8000 0 fold 
8888 4800 4000 100 fold 
total pot: 200 
/notify 

--- 1 players not fold, don't need show down---

---Allocate pot---
Only player at seat 0 not fold, win all the pot 200
pot-win/ 
3333: 200 
/pot-win 
it is player 3333's turn to be button

-----33 Hand-----

----- clean player data in socket -----
seat/ 
button: 3333 60250 2000 
small blind: 8888 4800 4000 
big blind: 4444 650 8000 
/seat 
blind/ 
8888: 50 
4444: 100 
/blind 
player 8888:hold/ 
CLUBS 3 
SPADES J 
/hold 
player 4444:hold/ 
CLUBS 4 
HEARTS 10 
/hold 
player 3333:hold/ 
HEARTS Q 
DIAMONDS 3 
/hold 

---pre flop round bet---
valid player: 3, all in player: 0, fold player: 0
send inquire msg to player 3333 
inquire/ 
4444 550 8000 100 blind 
8888 4750 4000 50 blind 
total pot: 150 
/inquire 
recv from player 3333: fold 

send inquire msg to player 8888 
inquire/ 
3333 60250 2000 0 fold 
4444 550 8000 100 blind 
8888 4750 4000 50 blind 
total pot: 150 
/inquire 
recv from player 8888: fold 

send inquire msg to player 4444 
inquire/ 
8888 4750 4000 50 fold 
3333 60250 2000 0 fold 
4444 550 8000 100 blind 
total pot: 150 
/inquire 
recv from player 4444: fold 


---flop round bet---
valid player: 3, all in player: 0, fold player: 3

---turn round bet---
valid player: 3, all in player: 0, fold player: 3

---river round bet---
valid player: 3, all in player: 0, fold player: 3

----- notify msg last round -----
send notify msg to player 3333 
notify/ 
4444 550 8000 100 fold 
8888 4750 4000 50 fold 
3333 60250 2000 0 fold 
total pot: 150 
/notify 
send notify msg to player 8888 
notify/ 
3333 60250 2000 0 fold 
4444 550 8000 100 fold 
8888 4750 4000 50 fold 
total pot: 150 
/notify 
send notify msg to player 4444 
notify/ 
8888 4750 4000 50 fold 
3333 60250 2000 0 fold 
4444 550 8000 100 fold 
total pot: 150 
/notify 

--- 0 players not fold, don't need show down---

---Allocate pot---
pot-win/ 
/pot-win 
it is player 8888's turn to be button

-----34 Hand-----

----- clean player data in socket -----
seat/ 
button: 8888 4750 4000 
small blind: 4444 550 8000 
big blind: 3333 60250 2000 
/seat 
blind/ 
4444: 50 
3333: 100 
/blind 
player 4444:hold/ 
CLUBS 10 
CLUBS 4 
/hold 
player 3333:hold/ 
HEARTS 2 
SPADES Q 
/hold 
player 8888:hold/ 
HEARTS 3 
SPADES 10 
/hold 

---pre flop round bet---
valid player: 3, all in player: 0, fold player: 0
send inquire msg to player 8888 
inquire/ 
3333 60150 2000 100 blind 
4444 500 8000 50 blind 
total pot: 150 
/inquire 
recv from player 8888: fold 

send inquire msg to player 4444 
inquire/ 
8888 4750 4000 0 fold 
3333 60150 2000 100 blind 
4444 500 8000 50 blind 
total pot: 150 
/inquire 
recv from player 4444: fold 

send inquire msg to player 3333 
inquire/ 
4444 500 8000 50 fold 
8888 4750 4000 0 fold 
3333 60150 2000 100 blind 
total pot: 150 
/inquire 
recv from player 3333: all_in 


---flop round bet---
valid player: 3, all in player: 1, fold player: 2

---turn round bet---
valid player: 3, all in player: 1, fold player: 2

---river round bet---
valid player: 3, all in player: 1, fold player: 2

----- notify msg last round -----
send notify msg to player 8888 
notify/ 
3333 0 2000 60250 all_in 
4444 500 8000 50 fold 
8888 4750 4000 0 fold 
total pot: 60300 
/notify 
send notify msg to player 4444 
notify/ 
8888 4750 4000 0 fold 
3333 0 2000 60250 all_in 
4444 500 8000 50 fold 
total pot: 60300 
/notify 
send notify msg to player 3333 
notify/ 
4444 500 8000 50 fold 
8888 4750 4000 0 fold 
3333 0 2000 60250 all_in 
total pot: 60300 
/notify 

--- 1 players not fold, don't need show down---

---Allocate pot---
Only player at seat 1 not fold, win all the pot 60300
pot-win/ 
3333: 60300 
/pot-win 
it is player 4444's turn to be button

-----35 Hand-----

----- clean player data in socket -----
seat/ 
button: 4444 500 8000 
small blind: 3333 60300 2000 
big blind: 8888 4750 4000 
/seat 
blind/ 
3333: 50 
8888: 100 
/blind 
player 3333:hold/ 
SPADES 10 
SPADES Q 
/hold 
player 8888:hold/ 
HEARTS J 
HEARTS 2 
/hold 
player 4444:hold/ 
CLUBS 10 
DIAMONDS K 
/hold 

---pre flop round bet---
valid player: 3, all in player: 0, fold player: 0
send inquire msg to player 4444 
inquire/ 
8888 4650 4000 100 blind 
3333 60250 2000 50 blind 
total pot: 150 
/inquire 
recv from player 4444: fold 

send inquire msg to player 3333 
inquire/ 
4444 500 8000 0 fold 
8888 4650 4000 100 blind 
3333 60250 2000 50 blind 
total pot: 150 
/inquire 
recv from player 3333: check 

send inquire msg to player 8888 
inquire/ 
3333 60200 2000 100 call 
4444 500 8000 0 fold 
8888 4650 4000 100 blind 
total pot: 200 
/inquire 
recv from player 8888: fold 


---flop round bet---
valid player: 3, all in player: 0, fold player: 2

---turn round bet---
valid player: 3, all in player: 0, fold player: 2

---river round bet---
valid player: 3, all in player: 0, fold player: 2

----- notify msg last round -----
send notify msg to player 4444 
notify/ 
8888 4650 4000 100 fold 
3333 60200 2000 100 call 
4444 500 8000 0 fold 
total pot: 200 
/notify 
send notify msg to player 3333 
notify/ 
4444 500 8000 0 fold 
8888 4650 4000 100 fold 
3333 60200 2000 100 call 
total pot: 200 
/notify 
send notify msg to player 8888 
notify/ 
3333 60200 2000 100 call 
4444 500 8000 0 fold 
8888 4650 4000 100 fold 
total pot: 200 
/notify 

--- 1 players not fold, don't need show down---

---Allocate pot---
Only player at seat 0 not fold, win all the pot 200
pot-win/ 
3333: 200 
/pot-win 
it is player 3333's turn to be button

-----36 Hand-----

----- clean player data in socket -----
seat/ 
button: 3333 60400 2000 
small blind: 8888 4650 4000 
big blind: 4444 500 8000 
/seat 
blind/ 
8888: 50 
4444: 100 
/blind 
player 8888:hold/ 
CLUBS 3 
HEARTS 8 
/hold 
player 4444:hold/ 
SPADES A 
HEARTS 5 
/hold 
player 3333:hold/ 
SPADES 10 
SPADES 9 
/hold 

---pre flop round bet---
valid player: 3, all in player: 0, fold player: 0
send inquire msg to player 3333 
inquire/ 
4444 400 8000 100 blind 
8888 4600 4000 50 blind 
total pot: 150 
/inquire 
recv from player 3333: check 

send inquire msg to player 8888 
inquire/ 
3333 60300 2000 100 call 
4444 400 8000 100 blind 
8888 4600 4000 50 blind 
total pot: 250 
/inquire 
recv from player 8888: fold 

send inquire msg to player 4444 
inquire/ 
8888 4600 4000 50 fold 
3333 60300 2000 100 call 
4444 400 8000 100 blind 
total pot: 250 
/inquire 
recv from player 4444: fold 


---flop round bet---
valid player: 3, all in player: 0, fold player: 2

---turn round bet---
valid player: 3, all in player: 0, fold player: 2

---river round bet---
valid player: 3, all in player: 0, fold player: 2

----- notify msg last round -----
send notify msg to player 3333 
notify/ 
4444 400 8000 100 fold 
8888 4600 4000 50 fold 
3333 60300 2000 100 call 
total pot: 250 
/notify 
send notify msg to player 8888 
notify/ 
3333 60300 2000 100 call 
4444 400 8000 100 fold 
8888 4600 4000 50 fold 
total pot: 250 
/notify 
send notify msg to player 4444 
notify/ 
8888 4600 4000 50 fold 
3333 60300 2000 100 call 
4444 400 8000 100 fold 
total pot: 250 
/notify 

--- 1 players not fold, don't need show down---

---Allocate pot---
Only player at seat 7 not fold, win all the pot 250
pot-win/ 
3333: 250 
/pot-win 
it is player 8888's turn to be button

-----37 Hand-----

----- clean player data in socket -----
seat/ 
button: 8888 4600 4000 
small blind: 4444 400 8000 
big blind: 3333 60550 2000 
/seat 
blind/ 
4444: 50 
3333: 100 
/blind 
player 4444:hold/ 
SPADES K 
SPADES 7 
/hold 
player 3333:hold/ 
SPADES J 
DIAMONDS Q 
/hold 
player 8888:hold/ 
HEARTS 3 
DIAMONDS K 
/hold 

---pre flop round bet---
valid player: 3, all in player: 0, fold player: 0
send inquire msg to player 8888 
inquire/ 
3333 60450 2000 100 blind 
4444 350 8000 50 blind 
total pot: 150 
/inquire 
recv from player 8888: fold 

send inquire msg to player 4444 
inquire/ 
8888 4600 4000 0 fold 
3333 60450 2000 100 blind 
4444 350 8000 50 blind 
total pot: 150 
/inquire 
recv from player 4444: fold 

send inquire msg to player 3333 
inquire/ 
4444 350 8000 50 fold 
8888 4600 4000 0 fold 
3333 60450 2000 100 blind 
total pot: 150 
/inquire 
recv from player 3333: raise 200 


---flop round bet---
valid player: 3, all in player: 0, fold player: 2

---turn round bet---
valid player: 3, all in player: 0, fold player: 2

---river round bet---
valid player: 3, all in player: 0, fold player: 2

----- notify msg last round -----
send notify msg to player 8888 
notify/ 
3333 60250 2000 300 raise 
4444 350 8000 50 fold 
8888 4600 4000 0 fold 
total pot: 350 
/notify 
send notify msg to player 4444 
notify/ 
8888 4600 4000 0 fold 
3333 60250 2000 300 raise 
4444 350 8000 50 fold 
total pot: 350 
/notify 
send notify msg to player 3333 
notify/ 
4444 350 8000 50 fold 
8888 4600 4000 0 fold 
3333 60250 2000 300 raise 
total pot: 350 
/notify 

--- 1 players not fold, don't need show down---

---Allocate pot---
Only player at seat 1 not fold, win all the pot 350
pot-win/ 
3333: 350 
/pot-win 
it is player 4444's turn to be button

-----38 Hand-----

----- clean player data in socket -----
seat/ 
button: 4444 350 8000 
small blind: 3333 60600 2000 
big blind: 8888 4600 4000 
/seat 
blind/ 
3333: 50 
8888: 100 
/blind 
player 3333:hold/ 
HEARTS 5 
DIAMONDS Q 
/hold 
player 8888:hold/ 
HEARTS A 
CLUBS 4 
/hold 
player 4444:hold/ 
HEARTS 4 
HEARTS 6 
/hold 

---pre flop round bet---
valid player: 3, all in player: 0, fold player: 0
send inquire msg to player 4444 
inquire/ 
8888 4500 4000 100 blind 
3333 60550 2000 50 blind 
total pot: 150 
/inquire 
recv from player 4444: fold 

send inquire msg to player 3333 
inquire/ 
4444 350 8000 0 fold 
8888 4500 4000 100 blind 
3333 60550 2000 50 blind 
total pot: 150 
/inquire 
recv from player 3333: raise 200 

send inquire msg to player 8888 
inquire/ 
3333 60300 2000 300 raise 
4444 350 8000 0 fold 
8888 4500 4000 100 blind 
total pot: 400 
/inquire 
recv from player 8888: call 

flop/ 
HEARTS Q 
SPADES 3 
DIAMONDS 9 
/flop 

---flop round bet---
valid player: 3, all in player: 0, fold player: 1
send inquire msg to player 3333 
inquire/ 
4444 350 8000 0 fold 
8888 4300 4000 300 call 
3333 60300 2000 300 raise 
total pot: 600 
/inquire 
recv from player 3333: all_in 

send inquire msg to player 8888 
inquire/ 
3333 0 2000 60600 all_in 
4444 350 8000 0 fold 
8888 4300 4000 300 call 
total pot: 60900 
/inquire 
recv from player 8888: fold 


---turn round bet---
valid player: 3, all in player: 1, fold player: 2

---river round bet---
valid player: 3, all in player: 1, fold player: 2

----- notify msg last round -----
send notify msg to player 4444 
notify/ 
8888 4300 4000 300 fold 
3333 0 2000 60600 all_in 
4444 350 8000 0 fold 
total pot: 60900 
/notify 
send notify msg to player 3333 
notify/ 
4444 350 8000 0 fold 
8888 4300 4000 300 fold 
3333 0 2000 60600 all_in 
total pot: 60900 
/notify 
send notify msg to player 8888 
notify/ 
3333 0 2000 60600 all_in 
4444 350 8000 0 fold 
8888 4300 4000 300 fold 
total pot: 60900 
/notify 

--- 1 players not fold, don't need show down---

---Allocate pot---
Only player at seat 0 not fold, win all the pot 60900
pot-win/ 
3333: 60900 
/pot-win 
it is player 3333's turn to be button

-----39 Hand-----

----- clean player data in socket -----
seat/ 
button: 3333 60900 2000 
small blind: 8888 4300 4000 
big blind: 4444 350 8000 
/seat 
blind/ 
8888: 50 
4444: 100 
/blind 
player 8888:hold/ 
SPADES 5 
DIAMONDS 3 
/hold 
player 4444:hold/ 
DIAMONDS 5 
CLUBS 5 
/hold 
player 3333:hold/ 
DIAMONDS Q 
SPADES 6 
/hold 

---pre flop round bet---
valid player: 3, all in player: 0, fold player: 0
send inquire msg to player 3333 
inquire/ 
4444 250 8000 100 blind 
8888 4250 4000 50 blind 
total pot: 150 
/inquire 
recv from player 3333: raise 200 

send inquire msg to player 8888 
inquire/ 
3333 60600 2000 300 raise 
4444 250 8000 100 blind 
8888 4250 4000 50 blind 
total pot: 450 
/inquire 
recv from player 8888: fold 

send inquire msg to player 4444 
inquire/ 
8888 4250 4000 50 fold 
3333 60600 2000 300 raise 
4444 250 8000 100 blind 
total pot: 450 
/inquire 
recv from player 4444: fold 


---flop round bet---
valid player: 3, all in player: 0, fold player: 2

---turn round bet---
valid player: 3, all in player: 0, fold player: 2

---river round bet---
valid player: 3, all in player: 0, fold player: 2

----- notify msg last round -----
send notify msg to player 3333 
notify/ 
4444 250 8000 100 fold 
8888 4250 4000 50 fold 
3333 60600 2000 300 raise 
total pot: 450 
/notify 
send notify msg to player 8888 
notify/ 
3333 60600 2000 300 raise 
4444 250 8000 100 fold 
8888 4250 4000 50 fold 
total pot: 450 
/notify 
send notify msg to player 4444 
notify/ 
8888 4250 4000 50 fold 
3333 60600 2000 300 raise 
4444 250 8000 100 fold 
total pot: 450 
/notify 

--- 1 players not fold, don't need show down---

---Allocate pot---
Only player at seat 7 not fold, win all the pot 450
pot-win/ 
3333: 450 
/pot-win 
it is player 8888's turn to be button

-----40 Hand-----

----- clean player data in socket -----
seat/ 
button: 8888 4250 4000 
small blind: 4444 250 8000 
big blind: 3333 61050 2000 
/seat 
blind/ 
4444: 50 
3333: 100 
/blind 
player 4444:hold/ 
HEARTS 4 
HEARTS 7 
/hold 
player 3333:hold/ 
HEARTS 6 
DIAMONDS 8 
/hold 
player 8888:hold/ 
CLUBS 4 
DIAMONDS 3 
/hold 

---pre flop round bet---
valid player: 3, all in player: 0, fold player: 0
send inquire msg to player 8888 
inquire/ 
3333 60950 2000 100 blind 
4444 200 8000 50 blind 
total pot: 150 
/inquire 
recv from player 8888: fold 

send inquire msg to player 4444 
inquire/ 
8888 4250 4000 0 fold 
3333 60950 2000 100 blind 
4444 200 8000 50 blind 
total pot: 150 
/inquire 
recv from player 4444: fold 

send inquire msg to player 3333 
inquire/ 
4444 200 8000 50 fold 
8888 4250 4000 0 fold 
3333 60950 2000 100 blind 
total pot: 150 
/inquire 
recv from player 3333: check 


---flop round bet---
valid player: 3, all in player: 0, fold player: 2

---turn round bet---
valid player: 3, all in player: 0, fold player: 2

---river round bet---
valid player: 3, all in player: 0, fold player: 2

----- notify msg last round -----
send notify msg to player 8888 
notify/ 
3333 60950 2000 100 check 
4444 200 8000 50 fold 
8888 4250 4000 0 fold 
total pot: 150 
/notify 
send notify msg to player 4444 
notify/ 
8888 4250 4000 0 fold 
3333 60950 2000 100 check 
4444 200 8000 50 fold 
total pot: 150 
/notify 
send notify msg to player 3333 
notify/ 
4444 200 8000 50 fold 
8888 4250 4000 0 fold 
3333 60950 2000 100 check 
total pot: 150 
/notify 

--- 1 players not fold, don't need show down---

---Allocate pot---
Only player at seat 1 not fold, win all the pot 150
pot-win/ 
3333: 150 
/pot-win 
it is player 4444's turn to be button

-----41 Hand-----

----- clean player data in socket -----
seat/ 
button: 4444 200 8000 
small blind: 3333 61100 2000 
big blind: 8888 4250 4000 
/seat 
blind/ 
3333: 50 
8888: 100 
/blind 
player 3333:hold/ 
DIAMONDS 3 
DIAMONDS 5 
/hold 
player 8888:hold/ 
DIAMONDS 4 
HEARTS 2 
/hold 
player 4444:hold/ 
DIAMONDS 2 
HEARTS Q 
/hold 

---pre flop round bet---
valid player: 3, all in player: 0, fold player: 0
send inquire msg to player 4444 
inquire/ 
8888 4150 4000 100 blind 
3333 61050 2000 50 blind 
total pot: 150 
/inquire 
recv from player 4444: fold 

send inquire msg to player 3333 
inquire/ 
4444 200 8000 0 fold 
8888 4150 4000 100 blind 
3333 61050 2000 50 blind 
total pot: 150 
/inquire 
recv from player 3333: call 

send inquire msg to player 8888 
inquire/ 
3333 61000 2000 100 call 
4444 200 8000 0 fold 
8888 4150 4000 100 blind 
total pot: 200 
/inquire 
recv from player 8888: fold 


---flop round bet---
valid player: 3, all in player: 0, fold player: 2

---turn round bet---
valid player: 3, all in player: 0, fold player: 2

---river round bet---
valid player: 3, all in player: 0, fold player: 2

----- notify msg last round -----
send notify msg to player 4444 
notify/ 
8888 4150 4000 100 fold 
3333 61000 2000 100 call 
4444 200 8000 0 fold 
total pot: 200 
/notify 
send notify msg to player 3333 
notify/ 
4444 200 8000 0 fold 
8888 4150 4000 100 fold 
3333 61000 2000 100 call 
total pot: 200 
/notify 
send notify msg to player 8888 
notify/ 
3333 61000 2000 100 call 
4444 200 8000 0 fold 
8888 4150 4000 100 fold 
total pot: 200 
/notify 

--- 1 players not fold, don't need show down---

---Allocate pot---
Only player at seat 0 not fold, win all the pot 200
pot-win/ 
3333: 200 
/pot-win 
it is player 3333's turn to be button

-----42 Hand-----

----- clean player data in socket -----
seat/ 
button: 3333 61200 2000 
small blind: 8888 4150 4000 
big blind: 4444 200 8000 
/seat 
blind/ 
8888: 50 
4444: 100 
/blind 
player 8888:hold/ 
CLUBS 5 
SPADES 9 
/hold 
player 4444:hold/ 
HEARTS 4 
DIAMONDS Q 
/hold 
player 3333:hold/ 
DIAMONDS 6 
SPADES 7 
/hold 

---pre flop round bet---
valid player: 3, all in player: 0, fold player: 0
send inquire msg to player 3333 
inquire/ 
4444 100 8000 100 blind 
8888 4100 4000 50 blind 
total pot: 150 
/inquire 
recv from player 3333: check 

send inquire msg to player 8888 
inquire/ 
3333 61100 2000 100 call 
4444 100 8000 100 blind 
8888 4100 4000 50 blind 
total pot: 250 
/inquire 
recv from player 8888: fold 

send inquire msg to player 4444 
inquire/ 
8888 4100 4000 50 fold 
3333 61100 2000 100 call 
4444 100 8000 100 blind 
total pot: 250 
/inquire 
recv from player 4444: fold 


---flop round bet---
valid player: 3, all in player: 0, fold player: 2

---turn round bet---
valid player: 3, all in player: 0, fold player: 2

---river round bet---
valid player: 3, all in player: 0, fold player: 2

----- notify msg last round -----
send notify msg to player 3333 
notify/ 
4444 100 8000 100 fold 
8888 4100 4000 50 fold 
3333 61100 2000 100 call 
total pot: 250 
/notify 
send notify msg to player 8888 
notify/ 
3333 61100 2000 100 call 
4444 100 8000 100 fold 
8888 4100 4000 50 fold 
total pot: 250 
/notify 
send notify msg to player 4444 
notify/ 
8888 4100 4000 50 fold 
3333 61100 2000 100 call 
4444 100 8000 100 fold 
total pot: 250 
/notify 

--- 1 players not fold, don't need show down---

---Allocate pot---
Only player at seat 7 not fold, win all the pot 250
pot-win/ 
3333: 250 
/pot-win 
it is player 8888's turn to be button

-----43 Hand-----

----- clean player data in socket -----
seat/ 
button: 8888 4100 4000 
small blind: 4444 100 8000 
big blind: 3333 61350 2000 
/seat 
blind/ 
4444: 50 
3333: 100 
/blind 
player 4444:hold/ 
CLUBS J 
DIAMONDS Q 
/hold 
player 3333:hold/ 
DIAMONDS 3 
CLUBS 3 
/hold 
player 8888:hold/ 
HEARTS K 
SPADES 9 
/hold 

---pre flop round bet---
valid player: 3, all in player: 0, fold player: 0
send inquire msg to player 8888 
inquire/ 
3333 61250 2000 100 blind 
4444 50 8000 50 blind 
total pot: 150 
/inquire 
recv from player 8888: call 

send inquire msg to player 4444 
inquire/ 
8888 4000 4000 100 call 
3333 61250 2000 100 blind 
4444 50 8000 50 blind 
total pot: 250 
/inquire 
recv from player 4444: fold 

send inquire msg to player 3333 
inquire/ 
4444 50 8000 50 fold 
8888 4000 4000 100 call 
3333 61250 2000 100 blind 
total pot: 250 
/inquire 
recv from player 3333: raise 200 

send inquire msg to player 8888 
inquire/ 
3333 61050 2000 300 raise 
4444 50 8000 50 fold 
8888 4000 4000 100 call 
total pot: 450 
/inquire 
recv from player 8888: call 

flop/ 
DIAMONDS 4 
SPADES 6 
CLUBS 7 
/flop 

---flop round bet---
valid player: 3, all in player: 0, fold player: 1
send notify msg to player 4444 
notify/ 
8888 3800 4000 300 call 
3333 61050 2000 300 raise 
4444 50 8000 50 fold 
total pot: 650 
/notify 
send inquire msg to player 3333 
inquire/ 
4444 50 8000 50 fold 
8888 3800 4000 300 call 
3333 61050 2000 300 raise 
total pot: 650 
/inquire 
recv from player 3333: all_in 

send inquire msg to player 8888 
inquire/ 
3333 0 2000 61350 all_in 
4444 50 8000 50 fold 
8888 3800 4000 300 call 
total pot: 61700 
/inquire 
recv from player 8888: fold 


---turn round bet---
valid player: 3, all in player: 1, fold player: 2

---river round bet---
valid player: 3, all in player: 1, fold player: 2

----- notify msg last round -----
send notify msg to player 4444 
notify/ 
8888 3800 4000 300 fold 
3333 0 2000 61350 all_in 
4444 50 8000 50 fold 
total pot: 61700 
/notify 
send notify msg to player 3333 
notify/ 
4444 50 8000 50 fold 
8888 3800 4000 300 fold 
3333 0 2000 61350 all_in 
total pot: 61700 
/notify 
send notify msg to player 8888 
notify/ 
3333 0 2000 61350 all_in 
4444 50 8000 50 fold 
8888 3800 4000 300 fold 
total pot: 61700 
/notify 

--- 1 players not fold, don't need show down---

---Allocate pot---
Only player at seat 1 not fold, win all the pot 61700
pot-win/ 
3333: 61700 
/pot-win 
it is player 4444's turn to be button

-----44 Hand-----

----- clean player data in socket -----
seat/ 
button: 4444 2000 6050 
small blind: 3333 61700 2000 
big blind: 8888 3800 4000 
/seat 
blind/ 
3333: 50 
8888: 100 
/blind 
player 3333:hold/ 
CLUBS 5 
DIAMONDS 9 
/hold 
player 8888:hold/ 
DIAMONDS Q 
HEARTS Q 
/hold 
player 4444:hold/ 
SPADES K 
CLUBS 2 
/hold 

---pre flop round bet---
valid player: 3, all in player: 0, fold player: 0
send inquire msg to player 4444 
inquire/ 
8888 3700 4000 100 blind 
3333 61650 2000 50 blind 
total pot: 150 
/inquire 
recv from player 4444: fold 

send inquire msg to player 3333 
inquire/ 
4444 2000 6050 0 fold 
8888 3700 4000 100 blind 
3333 61650 2000 50 blind 
total pot: 150 
/inquire 
recv from player 3333: raise 200 

send inquire msg to player 8888 
inquire/ 
3333 61400 2000 300 raise 
4444 2000 6050 0 fold 
8888 3700 4000 100 blind 
total pot: 400 
/inquire 
recv from player 8888: raise 200 

send notify msg to player 4444 
notify/ 
8888 3300 4000 500 raise 
3333 61400 2000 300 raise 
4444 2000 6050 0 fold 
total pot: 800 
/notify 
send inquire msg to player 3333 
inquire/ 
4444 2000 6050 0 fold 
8888 3300 4000 500 raise 
3333 61400 2000 300 raise 
total pot: 800 
/inquire 
recv from player 3333: all_in 

send inquire msg to player 8888 
inquire/ 
3333 0 2000 61700 all_in 
4444 2000 6050 0 fold 
8888 3300 4000 500 raise 
total pot: 62200 
/inquire 
recv from player 8888: raise 200 

flop/ 
HEARTS 9 
CLUBS K 
HEARTS A 
/flop 

---flop round bet---
valid player: 3, all in player: 2, fold player: 1
turn/ 
CLUBS 6 
/turn 

---turn round bet---
valid player: 3, all in player: 2, fold player: 1
river/ 
DIAMONDS A 
/river 

---river round bet---
valid player: 3, all in player: 2, fold player: 1

----- notify msg last round -----
send notify msg to player 4444 
notify/ 
8888 0 4000 3800 all_in 
3333 0 2000 61700 all_in 
4444 2000 6050 0 fold 
total pot: 65500 
/notify 
send notify msg to player 3333 
notify/ 
4444 2000 6050 0 fold 
8888 0 4000 3800 all_in 
3333 0 2000 61700 all_in 
total pot: 65500 
/notify 
send notify msg to player 8888 
notify/ 
3333 0 2000 61700 all_in 
4444 2000 6050 0 fold 
8888 0 4000 3800 all_in 
total pot: 65500 
/notify 

---show down---
showdown/ 
common/ 
HEARTS 9 
CLUBS K 
HEARTS A 
CLUBS 6 
DIAMONDS A 
/common 
2: 3333 CLUBS 5 DIAMONDS 9 TWO_PAIR 
1: 8888 DIAMONDS Q HEARTS Q TWO_PAIR 
/showdown 

---Allocate pot---
pot-win/ 
8888: 7600 
3333: 57900 
/pot-win 
it is player 3333's turn to be button

-----45 Hand-----

----- clean player data in socket -----
seat/ 
button: 3333 57900 2000 
small blind: 8888 7600 4000 
big blind: 4444 2000 6050 
/seat 
blind/ 
8888: 50 
4444: 100 
/blind 
player 8888:hold/ 
SPADES 7 
HEARTS 4 
/hold 
player 4444:hold/ 
SPADES J 
DIAMONDS 6 
/hold 
player 3333:hold/ 
DIAMONDS 5 
SPADES K 
/hold 

---pre flop round bet---
valid player: 3, all in player: 0, fold player: 0
send inquire msg to player 3333 
inquire/ 
4444 1900 6050 100 blind 
8888 7550 4000 50 blind 
total pot: 150 
/inquire 
recv from player 3333: check 

send inquire msg to player 8888 
inquire/ 
3333 57800 2000 100 call 
4444 1900 6050 100 blind 
8888 7550 4000 50 blind 
total pot: 250 
/inquire 
recv from player 8888: fold 

send inquire msg to player 4444 
inquire/ 
8888 7550 4000 50 fold 
3333 57800 2000 100 call 
4444 1900 6050 100 blind 
total pot: 250 
/inquire 
recv from player 4444: fold 


---flop round bet---
valid player: 3, all in player: 0, fold player: 2

---turn round bet---
valid player: 3, all in player: 0, fold player: 2

---river round bet---
valid player: 3, all in player: 0, fold player: 2

----- notify msg last round -----
send notify msg to player 3333 
notify/ 
4444 1900 6050 100 fold 
8888 7550 4000 50 fold 
3333 57800 2000 100 call 
total pot: 250 
/notify 
send notify msg to player 8888 
notify/ 
3333 57800 2000 100 call 
4444 1900 6050 100 fold 
8888 7550 4000 50 fold 
total pot: 250 
/notify 
send notify msg to player 4444 
notify/ 
8888 7550 4000 50 fold 
3333 57800 2000 100 call 
4444 1900 6050 100 fold 
total pot: 250 
/notify 

--- 1 players not fold, don't need show down---

---Allocate pot---
Only player at seat 7 not fold, win all the pot 250
pot-win/ 
3333: 250 
/pot-win 
it is player 8888's turn to be button

-----46 Hand-----

----- clean player data in socket -----
seat/ 
button: 8888 7550 4000 
small blind: 4444 1900 6050 
big blind: 3333 58050 2000 
/seat 
blind/ 
4444: 50 
3333: 100 
/blind 
player 4444:hold/ 
SPADES A 
DIAMONDS 2 
/hold 
player 3333:hold/ 
HEARTS 7 
CLUBS 9 
/hold 
player 8888:hold/ 
HEARTS 4 
DIAMONDS 3 
/hold 

---pre flop round bet---
valid player: 3, all in player: 0, fold player: 0
send inquire msg to player 8888 
inquire/ 
3333 57950 2000 100 blind 
4444 1850 6050 50 blind 
total pot: 150 
/inquire 
recv from player 8888: fold 

send inquire msg to player 4444 
inquire/ 
8888 7550 4000 0 fold 
3333 57950 2000 100 blind 
4444 1850 6050 50 blind 
total pot: 150 
/inquire 
recv from player 4444: fold 

send inquire msg to player 3333 
inquire/ 
4444 1850 6050 50 fold 
8888 7550 4000 0 fold 
3333 57950 2000 100 blind 
total pot: 150 
/inquire 
recv from player 3333: call 


---flop round bet---
valid player: 3, all in player: 0, fold player: 2

---turn round bet---
valid player: 3, all in player: 0, fold player: 2

---river round bet---
valid player: 3, all in player: 0, fold player: 2

----- notify msg last round -----
send notify msg to player 8888 
notify/ 
3333 57950 2000 100 check 
4444 1850 6050 50 fold 
8888 7550 4000 0 fold 
total pot: 150 
/notify 
send notify msg to player 4444 
notify/ 
8888 7550 4000 0 fold 
3333 57950 2000 100 check 
4444 1850 6050 50 fold 
total pot: 150 
/notify 
send notify msg to player 3333 
notify/ 
4444 1850 6050 50 fold 
8888 7550 4000 0 fold 
3333 57950 2000 100 check 
total pot: 150 
/notify 

--- 1 players not fold, don't need show down---

---Allocate pot---
Only player at seat 1 not fold, win all the pot 150
pot-win/ 
3333: 150 
/pot-win 
it is player 4444's turn to be button

-----47 Hand-----

----- clean player data in socket -----
seat/ 
button: 4444 1850 6050 
small blind: 3333 58100 2000 
big blind: 8888 7550 4000 
/seat 
blind/ 
3333: 50 
8888: 100 
/blind 
player 3333:hold/ 
HEARTS 2 
CLUBS 7 
/hold 
player 8888:hold/ 
HEARTS J 
CLUBS 3 
/hold 
player 4444:hold/ 
DIAMONDS 9 
DIAMONDS Q 
/hold 

---pre flop round bet---
valid player: 3, all in player: 0, fold player: 0
send inquire msg to player 4444 
inquire/ 
8888 7450 4000 100 blind 
3333 58050 2000 50 blind 
total pot: 150 
/inquire 
recv from player 4444: fold 

send inquire msg to player 3333 
inquire/ 
4444 1850 6050 0 fold 
8888 7450 4000 100 blind 
3333 58050 2000 50 blind 
total pot: 150 
/inquire 
recv from player 3333: call 

send inquire msg to player 8888 
inquire/ 
3333 58000 2000 100 call 
4444 1850 6050 0 fold 
8888 7450 4000 100 blind 
total pot: 200 
/inquire 
recv from player 8888: fold 


---flop round bet---
valid player: 3, all in player: 0, fold player: 2

---turn round bet---
valid player: 3, all in player: 0, fold player: 2

---river round bet---
valid player: 3, all in player: 0, fold player: 2

----- notify msg last round -----
send notify msg to player 4444 
notify/ 
8888 7450 4000 100 fold 
3333 58000 2000 100 call 
4444 1850 6050 0 fold 
total pot: 200 
/notify 
send notify msg to player 3333 
notify/ 
4444 1850 6050 0 fold 
8888 7450 4000 100 fold 
3333 58000 2000 100 call 
total pot: 200 
/notify 
send notify msg to player 8888 
notify/ 
3333 58000 2000 100 call 
4444 1850 6050 0 fold 
8888 7450 4000 100 fold 
total pot: 200 
/notify 

--- 1 players not fold, don't need show down---

---Allocate pot---
Only player at seat 0 not fold, win all the pot 200
pot-win/ 
3333: 200 
/pot-win 
it is player 3333's turn to be button

-----48 Hand-----

----- clean player data in socket -----
seat/ 
button: 3333 58200 2000 
small blind: 8888 7450 4000 
big blind: 4444 1850 6050 
/seat 
blind/ 
8888: 50 
4444: 100 
/blind 
player 8888:hold/ 
DIAMONDS J 
HEARTS 5 
/hold 
player 4444:hold/ 
HEARTS 7 
CLUBS A 
/hold 
player 3333:hold/ 
SPADES K 
DIAMONDS 7 
/hold 

---pre flop round bet---
valid player: 3, all in player: 0, fold player: 0
send inquire msg to player 3333 
inquire/ 
4444 1750 6050 100 blind 
8888 7400 4000 50 blind 
total pot: 150 
/inquire 
recv from player 3333: raise 200 

send inquire msg to player 8888 
inquire/ 
3333 57900 2000 300 raise 
4444 1750 6050 100 blind 
8888 7400 4000 50 blind 
total pot: 450 
/inquire 
recv from player 8888: fold 

send inquire msg to player 4444 
inquire/ 
8888 7400 4000 50 fold 
3333 57900 2000 300 raise 
4444 1750 6050 100 blind 
total pot: 450 
/inquire 
recv from player 4444: fold 


---flop round bet---
valid player: 3, all in player: 0, fold player: 2

---turn round bet---
valid player: 3, all in player: 0, fold player: 2

---river round bet---
valid player: 3, all in player: 0, fold player: 2

----- notify msg last round -----
send notify msg to player 3333 
notify/ 
4444 1750 6050 100 fold 
8888 7400 4000 50 fold 
3333 57900 2000 300 raise 
total pot: 450 
/notify 
send notify msg to player 8888 
notify/ 
3333 57900 2000 300 raise 
4444 1750 6050 100 fold 
8888 7400 4000 50 fold 
total pot: 450 
/notify 
send notify msg to player 4444 
notify/ 
8888 7400 4000 50 fold 
3333 57900 2000 300 raise 
4444 1750 6050 100 fold 
total pot: 450 
/notify 

--- 1 players not fold, don't need show down---

---Allocate pot---
Only player at seat 7 not fold, win all the pot 450
pot-win/ 
3333: 450 
/pot-win 
it is player 8888's turn to be button

-----49 Hand-----

----- clean player data in socket -----
seat/ 
button: 8888 7400 4000 
small blind: 4444 1750 6050 
big blind: 3333 58350 2000 
/seat 
blind/ 
4444: 50 
3333: 100 
/blind 
player 4444:hold/ 
CLUBS K 
DIAMONDS 3 
/hold 
player 3333:hold/ 
CLUBS A 
CLUBS 8 
/hold 
player 8888:hold/ 
CLUBS 2 
SPADES Q 
/hold 

---pre flop round bet---
valid player: 3, all in player: 0, fold player: 0
send inquire msg to player 8888 
inquire/ 
3333 58250 2000 100 blind 
4444 1700 6050 50 blind 
total pot: 150 
/inquire 
recv from player 8888: fold 

send inquire msg to player 4444 
inquire/ 
8888 7400 4000 0 fold 
3333 58250 2000 100 blind 
4444 1700 6050 50 blind 
total pot: 150 
/inquire 
recv from player 4444: fold 

send inquire msg to player 3333 
inquire/ 
4444 1700 6050 50 fold 
8888 7400 4000 0 fold 
3333 58250 2000 100 blind 
total pot: 150 
/inquire 
recv from player 3333: raise 200 


---flop round bet---
valid player: 3, all in player: 0, fold player: 2

---turn round bet---
valid player: 3, all in player: 0, fold player: 2

---river round bet---
valid player: 3, all in player: 0, fold player: 2

----- notify msg last round -----
send notify msg to player 8888 
notify/ 
3333 58050 2000 300 raise 
4444 1700 6050 50 fold 
8888 7400 4000 0 fold 
total pot: 350 
/notify 
send notify msg to player 4444 
notify/ 
8888 7400 4000 0 fold 
3333 58050 2000 300 raise 
4444 1700 6050 50 fold 
total pot: 350 
/notify 
send notify msg to player 3333 
notify/ 
4444 1700 6050 50 fold 
8888 7400 4000 0 fold 
3333 58050 2000 300 raise 
total pot: 350 
/notify 

--- 1 players not fold, don't need show down---

---Allocate pot---
Only player at seat 1 not fold, win all the pot 350
pot-win/ 
3333: 350 
/pot-win 
it is player 4444's turn to be button

-----50 Hand-----

----- clean player data in socket -----
seat/ 
button: 4444 1700 6050 
small blind: 3333 58400 2000 
big blind: 8888 7400 4000 
/seat 
blind/ 
3333: 50 
8888: 100 
/blind 
player 3333:hold/ 
DIAMONDS A 
CLUBS 5 
/hold 
player 8888:hold/ 
SPADES K 
HEARTS 10 
/hold 
player 4444:hold/ 
DIAMONDS 9 
SPADES 6 
/hold 

---pre flop round bet---
valid player: 3, all in player: 0, fold player: 0
send inquire msg to player 4444 
inquire/ 
8888 7300 4000 100 blind 
3333 58350 2000 50 blind 
total pot: 150 
/inquire 
recv from player 4444: fold 

send inquire msg to player 3333 
inquire/ 
4444 1700 6050 0 fold 
8888 7300 4000 100 blind 
3333 58350 2000 50 blind 
total pot: 150 
/inquire 
recv from player 3333: fold 

send inquire msg to player 8888 
inquire/ 
3333 58350 2000 50 fold 
4444 1700 6050 0 fold 
8888 7300 4000 100 blind 
total pot: 150 
/inquire 
recv from player 8888: call 


---flop round bet---
valid player: 3, all in player: 0, fold player: 2

---turn round bet---
valid player: 3, all in player: 0, fold player: 2

---river round bet---
valid player: 3, all in player: 0, fold player: 2

----- notify msg last round -----
send notify msg to player 4444 
notify/ 
8888 7300 4000 100 check 
3333 58350 2000 50 fold 
4444 1700 6050 0 fold 
total pot: 150 
/notify 
send notify msg to player 3333 
notify/ 
4444 1700 6050 0 fold 
8888 7300 4000 100 check 
3333 58350 2000 50 fold 
total pot: 150 
/notify 
send notify msg to player 8888 
notify/ 
3333 58350 2000 50 fold 
4444 1700 6050 0 fold 
8888 7300 4000 100 check 
total pot: 150 
/notify 

--- 1 players not fold, don't need show down---

---Allocate pot---
Only player at seat 1 not fold, win all the pot 150
pot-win/ 
8888: 150 
/pot-win 
it is player 3333's turn to be button

-----51 Hand-----

----- clean player data in socket -----
seat/ 
button: 3333 58350 2000 
small blind: 8888 7450 4000 
big blind: 4444 1700 6050 
/seat 
blind/ 
8888: 50 
4444: 100 
/blind 
player 8888:hold/ 
CLUBS 4 
CLUBS 7 
/hold 
player 4444:hold/ 
HEARTS 6 
DIAMONDS 2 
/hold 
player 3333:hold/ 
CLUBS 6 
DIAMONDS 3 
/hold 

---pre flop round bet---
valid player: 3, all in player: 0, fold player: 0
send inquire msg to player 3333 
inquire/ 
4444 1600 6050 100 blind 
8888 7400 4000 50 blind 
total pot: 150 
/inquire 
recv from player 3333: call 

send inquire msg to player 8888 
inquire/ 
3333 58250 2000 100 call 
4444 1600 6050 100 blind 
8888 7400 4000 50 blind 
total pot: 250 
/inquire 
recv from player 8888: fold 

send inquire msg to player 4444 
inquire/ 
8888 7400 4000 50 fold 
3333 58250 2000 100 call 
4444 1600 6050 100 blind 
total pot: 250 
/inquire 
recv from player 4444: fold 


---flop round bet---
valid player: 3, all in player: 0, fold player: 2

---turn round bet---
valid player: 3, all in player: 0, fold player: 2

---river round bet---
valid player: 3, all in player: 0, fold player: 2

----- notify msg last round -----
send notify msg to player 3333 
notify/ 
4444 1600 6050 100 fold 
8888 7400 4000 50 fold 
3333 58250 2000 100 call 
total pot: 250 
/notify 
send notify msg to player 8888 
notify/ 
3333 58250 2000 100 call 
4444 1600 6050 100 fold 
8888 7400 4000 50 fold 
total pot: 250 
/notify 
send notify msg to player 4444 
notify/ 
8888 7400 4000 50 fold 
3333 58250 2000 100 call 
4444 1600 6050 100 fold 
total pot: 250 
/notify 

--- 1 players not fold, don't need show down---

---Allocate pot---
Only player at seat 7 not fold, win all the pot 250
pot-win/ 
3333: 250 
/pot-win 
it is player 8888's turn to be button

-----52 Hand-----

----- clean player data in socket -----
seat/ 
button: 8888 7400 4000 
small blind: 4444 1600 6050 
big blind: 3333 58500 2000 
/seat 
blind/ 
4444: 50 
3333: 100 
/blind 
player 4444:hold/ 
SPADES 5 
HEARTS 4 
/hold 
player 3333:hold/ 
SPADES 9 
SPADES J 
/hold 
player 8888:hold/ 
DIAMONDS K 
DIAMONDS 7 
/hold 

---pre flop round bet---
valid player: 3, all in player: 0, fold player: 0
send inquire msg to player 8888 
inquire/ 
3333 58400 2000 100 blind 
4444 1550 6050 50 blind 
total pot: 150 
/inquire 
recv from player 8888: call 

send inquire msg to player 4444 
inquire/ 
8888 7300 4000 100 call 
3333 58400 2000 100 blind 
4444 1550 6050 50 blind 
total pot: 250 
/inquire 
recv from player 4444: fold 

send inquire msg to player 3333 
inquire/ 
4444 1550 6050 50 fold 
8888 7300 4000 100 call 
3333 58400 2000 100 blind 
total pot: 250 
/inquire 
recv from player 3333: all_in 

send inquire msg to player 8888 
inquire/ 
3333 0 2000 58500 all_in 
4444 1550 6050 50 fold 
8888 7300 4000 100 call 
total pot: 58650 
/inquire 
recv from player 8888: call 

flop/ 
HEARTS 10 
DIAMONDS 3 
CLUBS 5 
/flop 

---flop round bet---
valid player: 3, all in player: 2, fold player: 1
turn/ 
HEARTS J 
/turn 

---turn round bet---
valid player: 3, all in player: 2, fold player: 1
river/ 
HEARTS 2 
/river 

---river round bet---
valid player: 3, all in player: 2, fold player: 1

----- notify msg last round -----
send notify msg to player 4444 
notify/ 
8888 0 4000 7400 all_in 
3333 0 2000 58500 all_in 
4444 1550 6050 50 fold 
total pot: 65950 
/notify 
send notify msg to player 3333 
notify/ 
4444 1550 6050 50 fold 
8888 0 4000 7400 all_in 
3333 0 2000 58500 all_in 
total pot: 65950 
/notify 
send notify msg to player 8888 
notify/ 
3333 0 2000 58500 all_in 
4444 1550 6050 50 fold 
8888 0 4000 7400 all_in 
total pot: 65950 
/notify 

---show down---
showdown/ 
common/ 
HEARTS 10 
DIAMONDS 3 
CLUBS 5 
HEARTS J 
HEARTS 2 
/common 
1: 3333 SPADES 9 SPADES J ONE_PAIR 
2: 8888 DIAMONDS K DIAMONDS 7 HIGH_CARD 
/showdown 

---Allocate pot---
pot-win/ 
3333: 65950 
/pot-win 
it is player 4444's turn to be button

-----53 Hand-----

----- clean player data in socket -----
seat/ 
button: 4444 1550 6050 
small blind: 3333 65950 2000 
big blind: 8888 2000 2000 
/seat 
blind/ 
3333: 50 
8888: 100 
/blind 
player 3333:hold/ 
HEARTS 4 
CLUBS 6 
/hold 
player 8888:hold/ 
DIAMONDS 7 
CLUBS 4 
/hold 
player 4444:hold/ 
DIAMONDS 6 
DIAMONDS J 
/hold 

---pre flop round bet---
valid player: 3, all in player: 0, fold player: 0
send inquire msg to player 4444 
inquire/ 
8888 1900 2000 100 blind 
3333 65900 2000 50 blind 
total pot: 150 
/inquire 
recv from player 4444: fold 

send inquire msg to player 3333 
inquire/ 
4444 1550 6050 0 fold 
8888 1900 2000 100 blind 
3333 65900 2000 50 blind 
total pot: 150 
/inquire 
recv from player 3333: call 

send inquire msg to player 8888 
inquire/ 
3333 65850 2000 100 call 
4444 1550 6050 0 fold 
8888 1900 2000 100 blind 
total pot: 200 
/inquire 
recv from player 8888: fold 


---flop round bet---
valid player: 3, all in player: 0, fold player: 2

---turn round bet---
valid player: 3, all in player: 0, fold player: 2

---river round bet---
valid player: 3, all in player: 0, fold player: 2

----- notify msg last round -----
send notify msg to player 4444 
notify/ 
8888 1900 2000 100 fold 
3333 65850 2000 100 call 
4444 1550 6050 0 fold 
total pot: 200 
/notify 
send notify msg to player 3333 
notify/ 
4444 1550 6050 0 fold 
8888 1900 2000 100 fold 
3333 65850 2000 100 call 
total pot: 200 
/notify 
send notify msg to player 8888 
notify/ 
3333 65850 2000 100 call 
4444 1550 6050 0 fold 
8888 1900 2000 100 fold 
total pot: 200 
/notify 

--- 1 players not fold, don't need show down---

---Allocate pot---
Only player at seat 0 not fold, win all the pot 200
pot-win/ 
3333: 200 
/pot-win 
it is player 3333's turn to be button

-----54 Hand-----

----- clean player data in socket -----
seat/ 
button: 3333 66050 2000 
small blind: 8888 1900 2000 
big blind: 4444 1550 6050 
/seat 
blind/ 
8888: 50 
4444: 100 
/blind 
player 8888:hold/ 
DIAMONDS 9 
CLUBS 4 
/hold 
player 4444:hold/ 
SPADES 4 
CLUBS A 
/hold 
player 3333:hold/ 
DIAMONDS 6 
CLUBS K 
/hold 

---pre flop round bet---
valid player: 3, all in player: 0, fold player: 0
send inquire msg to player 3333 
inquire/ 
4444 1450 6050 100 blind 
8888 1850 2000 50 blind 
total pot: 150 
/inquire 
recv from player 3333: check 

send inquire msg to player 8888 
inquire/ 
3333 65950 2000 100 call 
4444 1450 6050 100 blind 
8888 1850 2000 50 blind 
total pot: 250 
/inquire 
recv from player 8888: fold 

send inquire msg to player 4444 
inquire/ 
8888 1850 2000 50 fold 
3333 65950 2000 100 call 
4444 1450 6050 100 blind 
total pot: 250 
/inquire 
recv from player 4444: fold 


---flop round bet---
valid player: 3, all in player: 0, fold player: 2

---turn round bet---
valid player: 3, all in player: 0, fold player: 2

---river round bet---
valid player: 3, all in player: 0, fold player: 2

----- notify msg last round -----
send notify msg to player 3333 
notify/ 
4444 1450 6050 100 fold 
8888 1850 2000 50 fold 
3333 65950 2000 100 call 
total pot: 250 
/notify 
send notify msg to player 8888 
notify/ 
3333 65950 2000 100 call 
4444 1450 6050 100 fold 
8888 1850 2000 50 fold 
total pot: 250 
/notify 
send notify msg to player 4444 
notify/ 
8888 1850 2000 50 fold 
3333 65950 2000 100 call 
4444 1450 6050 100 fold 
total pot: 250 
/notify 

--- 1 players not fold, don't need show down---

---Allocate pot---
Only player at seat 7 not fold, win all the pot 250
pot-win/ 
3333: 250 
/pot-win 
it is player 8888's turn to be button

-----55 Hand-----

----- clean player data in socket -----
seat/ 
button: 8888 1850 2000 
small blind: 4444 1450 6050 
big blind: 3333 66200 2000 
/seat 
blind/ 
4444: 50 
3333: 100 
/blind 
player 4444:hold/ 
DIAMONDS 7 
HEARTS 9 
/hold 
player 3333:hold/ 
HEARTS 10 
SPADES 4 
/hold 
player 8888:hold/ 
CLUBS 9 
DIAMONDS 5 
/hold 

---pre flop round bet---
valid player: 3, all in player: 0, fold player: 0
send inquire msg to player 8888 
inquire/ 
3333 66100 2000 100 blind 
4444 1400 6050 50 blind 
total pot: 150 
/inquire 
recv from player 8888: fold 

send inquire msg to player 4444 
inquire/ 
8888 1850 2000 0 fold 
3333 66100 2000 100 blind 
4444 1400 6050 50 blind 
total pot: 150 
/inquire 
recv from player 4444: fold 

send inquire msg to player 3333 
inquire/ 
4444 1400 6050 50 fold 
8888 1850 2000 0 fold 
3333 66100 2000 100 blind 
total pot: 150 
/inquire 
recv from player 3333: all_in 


---flop round bet---
valid player: 3, all in player: 1, fold player: 2

---turn round bet---
valid player: 3, all in player: 1, fold player: 2

---river round bet---
valid player: 3, all in player: 1, fold player: 2

----- notify msg last round -----
send notify msg to player 8888 
notify/ 
3333 0 2000 66200 all_in 
4444 1400 6050 50 fold 
8888 1850 2000 0 fold 
total pot: 66250 
/notify 
send notify msg to player 4444 
notify/ 
8888 1850 2000 0 fold 
3333 0 2000 66200 all_in 
4444 1400 6050 50 fold 
total pot: 66250 
/notify 
send notify msg to player 3333 
notify/ 
4444 1400 6050 50 fold 
8888 1850 2000 0 fold 
3333 0 2000 66200 all_in 
total pot: 66250 
/notify 

--- 1 players not fold, don't need show down---

---Allocate pot---
Only player at seat 1 not fold, win all the pot 66250
pot-win/ 
3333: 66250 
/pot-win 
it is player 4444's turn to be button

-----56 Hand-----

----- clean player data in socket -----
seat/ 
button: 4444 1400 6050 
small blind: 3333 66250 2000 
big blind: 8888 1850 2000 
/seat 
blind/ 
3333: 50 
8888: 100 
/blind 
player 3333:hold/ 
HEARTS A 
HEARTS 9 
/hold 
player 8888:hold/ 
SPADES A 
DIAMONDS 10 
/hold 
player 4444:hold/ 
DIAMONDS 3 
DIAMONDS K 
/hold 

---pre flop round bet---
valid player: 3, all in player: 0, fold player: 0
send inquire msg to player 4444 
inquire/ 
8888 1750 2000 100 blind 
3333 66200 2000 50 blind 
total pot: 150 
/inquire 
recv from player 4444: fold 

send inquire msg to player 3333 
inquire/ 
4444 1400 6050 0 fold 
8888 1750 2000 100 blind 
3333 66200 2000 50 blind 
total pot: 150 
/inquire 
recv from player 3333: all_in 

send inquire msg to player 8888 
inquire/ 
3333 0 2000 66250 all_in 
4444 1400 6050 0 fold 
8888 1750 2000 100 blind 
total pot: 66350 
/inquire 
recv from player 8888: call 

flop/ 
SPADES 7 
SPADES 3 
SPADES 8 
/flop 

---flop round bet---
valid player: 3, all in player: 2, fold player: 1
turn/ 
DIAMONDS J 
/turn 

---turn round bet---
valid player: 3, all in player: 2, fold player: 1
river/ 
CLUBS 2 
/river 

---river round bet---
valid player: 3, all in player: 2, fold player: 1

----- notify msg last round -----
send notify msg to player 4444 
notify/ 
8888 0 2000 1850 all_in 
3333 0 2000 66250 all_in 
4444 1400 6050 0 fold 
total pot: 68100 
/notify 
send notify msg to player 3333 
notify/ 
4444 1400 6050 0 fold 
8888 0 2000 1850 all_in 
3333 0 2000 66250 all_in 
total pot: 68100 
/notify 
send notify msg to player 8888 
notify/ 
3333 0 2000 66250 all_in 
4444 1400 6050 0 fold 
8888 0 2000 1850 all_in 
total pot: 68100 
/notify 

---show down---
showdown/ 
common/ 
SPADES 7 
SPADES 3 
SPADES 8 
DIAMONDS J 
CLUBS 2 
/common 
2: 3333 HEARTS A HEARTS 9 HIGH_CARD 
1: 8888 SPADES A DIAMONDS 10 HIGH_CARD 
/showdown 

---Allocate pot---
pot-win/ 
8888: 3700 
3333: 64400 
/pot-win 
it is player 3333's turn to be button

-----57 Hand-----

----- clean player data in socket -----
seat/ 
button: 3333 64400 2000 
small blind: 8888 3700 2000 
big blind: 4444 1400 6050 
/seat 
blind/ 
8888: 50 
4444: 100 
/blind 
player 8888:hold/ 
DIAMONDS 3 
HEARTS Q 
/hold 
player 4444:hold/ 
CLUBS 4 
SPADES J 
/hold 
player 3333:hold/ 
SPADES 6 
CLUBS A 
/hold 

---pre flop round bet---
valid player: 3, all in player: 0, fold player: 0
send inquire msg to player 3333 
inquire/ 
4444 1300 6050 100 blind 
8888 3650 2000 50 blind 
total pot: 150 
/inquire 
recv from player 3333: check 

send inquire msg to player 8888 
inquire/ 
3333 64300 2000 100 call 
4444 1300 6050 100 blind 
8888 3650 2000 50 blind 
total pot: 250 
/inquire 
recv from player 8888: fold 

send inquire msg to player 4444 
inquire/ 
8888 3650 2000 50 fold 
3333 64300 2000 100 call 
4444 1300 6050 100 blind 
total pot: 250 
/inquire 
recv from player 4444: fold 


---flop round bet---
valid player: 3, all in player: 0, fold player: 2

---turn round bet---
valid player: 3, all in player: 0, fold player: 2

---river round bet---
valid player: 3, all in player: 0, fold player: 2

----- notify msg last round -----
send notify msg to player 3333 
notify/ 
4444 1300 6050 100 fold 
8888 3650 2000 50 fold 
3333 64300 2000 100 call 
total pot: 250 
/notify 
send notify msg to player 8888 
notify/ 
3333 64300 2000 100 call 
4444 1300 6050 100 fold 
8888 3650 2000 50 fold 
total pot: 250 
/notify 
send notify msg to player 4444 
notify/ 
8888 3650 2000 50 fold 
3333 64300 2000 100 call 
4444 1300 6050 100 fold 
total pot: 250 
/notify 

--- 1 players not fold, don't need show down---

---Allocate pot---
Only player at seat 7 not fold, win all the pot 250
pot-win/ 
3333: 250 
/pot-win 
it is player 8888's turn to be button

-----58 Hand-----

----- clean player data in socket -----
seat/ 
button: 8888 3650 2000 
small blind: 4444 1300 6050 
big blind: 3333 64550 2000 
/seat 
blind/ 
4444: 50 
3333: 100 
/blind 
player 4444:hold/ 
HEARTS A 
CLUBS Q 
/hold 
player 3333:hold/ 
HEARTS 10 
DIAMONDS J 
/hold 
player 8888:hold/ 
SPADES 5 
HEARTS J 
/hold 

---pre flop round bet---
valid player: 3, all in player: 0, fold player: 0
send inquire msg to player 8888 
inquire/ 
3333 64450 2000 100 blind 
4444 1250 6050 50 blind 
total pot: 150 
/inquire 
recv from player 8888: fold 

send inquire msg to player 4444 
inquire/ 
8888 3650 2000 0 fold 
3333 64450 2000 100 blind 
4444 1250 6050 50 blind 
total pot: 150 
/inquire 
recv from player 4444: fold 

send inquire msg to player 3333 
inquire/ 
4444 1250 6050 50 fold 
8888 3650 2000 0 fold 
3333 64450 2000 100 blind 
total pot: 150 
/inquire 
recv from player 3333: all_in 


---flop round bet---
valid player: 3, all in player: 1, fold player: 2

---turn round bet---
valid player: 3, all in player: 1, fold player: 2

---river round bet---
valid player: 3, all in player: 1, fold player: 2

----- notify msg last round -----
send notify msg to player 8888 
notify/ 
3333 0 2000 64550 all_in 
4444 1250 6050 50 fold 
8888 3650 2000 0 fold 
total pot: 64600 
/notify 
send notify msg to player 4444 
notify/ 
8888 3650 2000 0 fold 
3333 0 2000 64550 all_in 
4444 1250 6050 50 fold 
total pot: 64600 
/notify 
send notify msg to player 3333 
notify/ 
4444 1250 6050 50 fold 
8888 3650 2000 0 fold 
3333 0 2000 64550 all_in 
total pot: 64600 
/notify 

--- 1 players not fold, don't need show down---

---Allocate pot---
Only player at seat 1 not fold, win all the pot 64600
pot-win/ 
3333: 64600 
/pot-win 
it is player 4444's turn to be button

-----59 Hand-----

----- clean player data in socket -----
seat/ 
button: 4444 1250 6050 
small blind: 3333 64600 2000 
big blind: 8888 3650 2000 
/seat 
blind/ 
3333: 50 
8888: 100 
/blind 
player 3333:hold/ 
HEARTS 5 
CLUBS 9 
/hold 
player 8888:hold/ 
HEARTS 3 
SPADES 9 
/hold 
player 4444:hold/ 
DIAMONDS J 
SPADES 8 
/hold 

---pre flop round bet---
valid player: 3, all in player: 0, fold player: 0
send inquire msg to player 4444 
inquire/ 
8888 3550 2000 100 blind 
3333 64550 2000 50 blind 
total pot: 150 
/inquire 
recv from player 4444: fold 

send inquire msg to player 3333 
inquire/ 
4444 1250 6050 0 fold 
8888 3550 2000 100 blind 
3333 64550 2000 50 blind 
total pot: 150 
/inquire 
recv from player 3333: check 

send inquire msg to player 8888 
inquire/ 
3333 64500 2000 100 call 
4444 1250 6050 0 fold 
8888 3550 2000 100 blind 
total pot: 200 
/inquire 
recv from player 8888: fold 


---flop round bet---
valid player: 3, all in player: 0, fold player: 2

---turn round bet---
valid player: 3, all in player: 0, fold player: 2

---river round bet---
valid player: 3, all in player: 0, fold player: 2

----- notify msg last round -----
send notify msg to player 4444 
notify/ 
8888 3550 2000 100 fold 
3333 64500 2000 100 call 
4444 1250 6050 0 fold 
total pot: 200 
/notify 
send notify msg to player 3333 
notify/ 
4444 1250 6050 0 fold 
8888 3550 2000 100 fold 
3333 64500 2000 100 call 
total pot: 200 
/notify 
send notify msg to player 8888 
notify/ 
3333 64500 2000 100 call 
4444 1250 6050 0 fold 
8888 3550 2000 100 fold 
total pot: 200 
/notify 

--- 1 players not fold, don't need show down---

---Allocate pot---
Only player at seat 0 not fold, win all the pot 200
pot-win/ 
3333: 200 
/pot-win 
it is player 3333's turn to be button

-----60 Hand-----

----- clean player data in socket -----
seat/ 
button: 3333 64700 2000 
small blind: 8888 3550 2000 
big blind: 4444 1250 6050 
/seat 
blind/ 
8888: 50 
4444: 100 
/blind 
player 8888:hold/ 
HEARTS A 
HEARTS K 
/hold 
player 4444:hold/ 
SPADES 3 
DIAMONDS 3 
/hold 
player 3333:hold/ 
CLUBS Q 
CLUBS 3 
/hold 

---pre flop round bet---
valid player: 3, all in player: 0, fold player: 0
send inquire msg to player 3333 
inquire/ 
4444 1150 6050 100 blind 
8888 3500 2000 50 blind 
total pot: 150 
/inquire 
recv from player 3333: call 

send inquire msg to player 8888 
inquire/ 
3333 64600 2000 100 call 
4444 1150 6050 100 blind 
8888 3500 2000 50 blind 
total pot: 250 
/inquire 
recv from player 8888: raise 200 

send inquire msg to player 4444 
inquire/ 
8888 3250 2000 300 raise 
3333 64600 2000 100 call 
4444 1150 6050 100 blind 
total pot: 500 
/inquire 
recv from player 4444: fold 

send inquire msg to player 3333 
inquire/ 
4444 1150 6050 100 fold 
8888 3250 2000 300 raise 
3333 64600 2000 100 call 
total pot: 500 
/inquire 
recv from player 3333: all_in 

send inquire msg to player 8888 
inquire/ 
3333 0 2000 64700 all_in 
4444 1150 6050 100 fold 
8888 3250 2000 300 raise 
total pot: 65100 
/inquire 
recv from player 8888: raise 200 

flop/ 
DIAMONDS 10 
DIAMONDS J 
SPADES 10 
/flop 

---flop round bet---
valid player: 3, all in player: 2, fold player: 1
turn/ 
DIAMONDS 2 
/turn 

---turn round bet---
valid player: 3, all in player: 2, fold player: 1
river/ 
DIAMONDS A 
/river 

---river round bet---
valid player: 3, all in player: 2, fold player: 1

----- notify msg last round -----
send notify msg to player 4444 
notify/ 
8888 0 2000 3550 all_in 
3333 0 2000 64700 all_in 
4444 1150 6050 100 fold 
total pot: 68350 
/notify 
send notify msg to player 3333 
notify/ 
4444 1150 6050 100 fold 
8888 0 2000 3550 all_in 
3333 0 2000 64700 all_in 
total pot: 68350 
/notify 
send notify msg to player 8888 
notify/ 
3333 0 2000 64700 all_in 
4444 1150 6050 100 fold 
8888 0 2000 3550 all_in 
total pot: 68350 
/notify 

---show down---
showdown/ 
common/ 
DIAMONDS 10 
DIAMONDS J 
SPADES 10 
DIAMONDS 2 
DIAMONDS A 
/common 
1: 8888 HEARTS A HEARTS K TWO_PAIR 
2: 3333 CLUBS Q CLUBS 3 ONE_PAIR 
/showdown 

---Allocate pot---
pot-win/ 
8888: 7200 
3333: 61150 
/pot-win 
it is player 8888's turn to be button

-----61 Hand-----

----- clean player data in socket -----
seat/ 
button: 8888 7200 2000 
small blind: 4444 1150 6050 
big blind: 3333 61150 2000 
/seat 
blind/ 
4444: 50 
3333: 100 
/blind 
player 4444:hold/ 
HEARTS 4 
HEARTS 5 
/hold 
player 3333:hold/ 
CLUBS J 
DIAMONDS 8 
/hold 
player 8888:hold/ 
HEARTS 7 
CLUBS 10 
/hold 

---pre flop round bet---
valid player: 3, all in player: 0, fold player: 0
send inquire msg to player 8888 
inquire/ 
3333 61050 2000 100 blind 
4444 1100 6050 50 blind 
total pot: 150 
/inquire 
recv from player 8888: fold 

send inquire msg to player 4444 
inquire/ 
8888 7200 2000 0 fold 
3333 61050 2000 100 blind 
4444 1100 6050 50 blind 
total pot: 150 
/inquire 
recv from player 4444: fold 

send inquire msg to player 3333 
inquire/ 
4444 1100 6050 50 fold 
8888 7200 2000 0 fold 
3333 61050 2000 100 blind 
total pot: 150 
/inquire 
recv from player 3333: raise 200 


---flop round bet---
valid player: 3, all in player: 0, fold player: 2

---turn round bet---
valid player: 3, all in player: 0, fold player: 2

---river round bet---
valid player: 3, all in player: 0, fold player: 2

----- notify msg last round -----
send notify msg to player 8888 
notify/ 
3333 60850 2000 300 raise 
4444 1100 6050 50 fold 
8888 7200 2000 0 fold 
total pot: 350 
/notify 
send notify msg to player 4444 
notify/ 
8888 7200 2000 0 fold 
3333 60850 2000 300 raise 
4444 1100 6050 50 fold 
total pot: 350 
/notify 
send notify msg to player 3333 
notify/ 
4444 1100 6050 50 fold 
8888 7200 2000 0 fold 
3333 60850 2000 300 raise 
total pot: 350 
/notify 

--- 1 players not fold, don't need show down---

---Allocate pot---
Only player at seat 1 not fold, win all the pot 350
pot-win/ 
3333: 350 
/pot-win 
it is player 4444's turn to be button

-----62 Hand-----

----- clean player data in socket -----
seat/ 
button: 4444 1100 6050 
small blind: 3333 61200 2000 
big blind: 8888 7200 2000 
/seat 
blind/ 
3333: 50 
8888: 100 
/blind 
player 3333:hold/ 
HEARTS A 
CLUBS 7 
/hold 
player 8888:hold/ 
SPADES J 
SPADES K 
/hold 
player 4444:hold/ 
DIAMONDS 9 
DIAMONDS J 
/hold 

---pre flop round bet---
valid player: 3, all in player: 0, fold player: 0
send inquire msg to player 4444 
inquire/ 
8888 7100 2000 100 blind 
3333 61150 2000 50 blind 
total pot: 150 
/inquire 
recv from player 4444: fold 

send inquire msg to player 3333 
inquire/ 
4444 1100 6050 0 fold 
8888 7100 2000 100 blind 
3333 61150 2000 50 blind 
total pot: 150 
/inquire 
recv from player 3333: check 

send inquire msg to player 8888 
inquire/ 
3333 61100 2000 100 call 
4444 1100 6050 0 fold 
8888 7100 2000 100 blind 
total pot: 200 
/inquire 
recv from player 8888: call 

flop/ 
HEARTS 3 
CLUBS K 
CLUBS 4 
/flop 

---flop round bet---
valid player: 3, all in player: 0, fold player: 1
send inquire msg to player 3333 
inquire/ 
4444 1100 6050 0 fold 
8888 7100 2000 100 check 
3333 61100 2000 100 call 
total pot: 200 
/inquire 
recv from player 3333: check 

send inquire msg to player 8888 
inquire/ 
3333 61100 2000 100 check 
4444 1100 6050 0 fold 
8888 7100 2000 100 check 
total pot: 200 
/inquire 
recv from player 8888: raise 100 

send notify msg to player 4444 
notify/ 
8888 7000 2000 200 raise 
3333 61100 2000 100 check 
4444 1100 6050 0 fold 
total pot: 300 
/notify 
send inquire msg to player 3333 
inquire/ 
4444 1100 6050 0 fold 
8888 7000 2000 200 raise 
3333 61100 2000 100 check 
total pot: 300 
/inquire 
recv from player 3333: raise 200 

send inquire msg to player 8888 
inquire/ 
3333 60800 2000 400 raise 
4444 1100 6050 0 fold 
8888 7000 2000 200 raise 
total pot: 600 
/inquire 
recv from player 8888: raise 100 

send notify msg to player 4444 
notify/ 
8888 6600 2000 600 raise 
3333 60800 2000 400 raise 
4444 1100 6050 0 fold 
total pot: 1000 
/notify 
send inquire msg to player 3333 
inquire/ 
4444 1100 6050 0 fold 
8888 6600 2000 600 raise 
3333 60800 2000 400 raise 
total pot: 1000 
/inquire 
recv from player 3333: all_in 

send inquire msg to player 8888 
inquire/ 
3333 0 2000 61200 all_in 
4444 1100 6050 0 fold 
8888 6600 2000 600 raise 
total pot: 61800 
/inquire 
recv from player 8888: raise 100 

turn/ 
CLUBS 10 
/turn 

---turn round bet---
valid player: 3, all in player: 2, fold player: 1
river/ 
DIAMONDS Q 
/river 

---river round bet---
valid player: 3, all in player: 2, fold player: 1

----- notify msg last round -----
send notify msg to player 4444 
notify/ 
8888 0 2000 7200 all_in 
3333 0 2000 61200 all_in 
4444 1100 6050 0 fold 
total pot: 68400 
/notify 
send notify msg to player 3333 
notify/ 
4444 1100 6050 0 fold 
8888 0 2000 7200 all_in 
3333 0 2000 61200 all_in 
total pot: 68400 
/notify 
send notify msg to player 8888 
notify/ 
3333 0 2000 61200 all_in 
4444 1100 6050 0 fold 
8888 0 2000 7200 all_in 
total pot: 68400 
/notify 

---show down---
showdown/ 
common/ 
HEARTS 3 
CLUBS K 
CLUBS 4 
CLUBS 10 
DIAMONDS Q 
/common 
2: 3333 HEARTS A CLUBS 7 HIGH_CARD 
1: 8888 SPADES J SPADES K ONE_PAIR 
/showdown 

---Allocate pot---
pot-win/ 
8888: 14400 
3333: 54000 
/pot-win 
it is player 3333's turn to be button

-----63 Hand-----

----- clean player data in socket -----
seat/ 
button: 3333 54000 2000 
small blind: 8888 14400 2000 
big blind: 4444 1100 6050 
/seat 
blind/ 
8888: 50 
4444: 100 
/blind 
player 8888:hold/ 
DIAMONDS A 
DIAMONDS 10 
/hold 
player 4444:hold/ 
DIAMONDS 8 
SPADES Q 
/hold 
player 3333:hold/ 
SPADES 3 
CLUBS 2 
/hold 

---pre flop round bet---
valid player: 3, all in player: 0, fold player: 0
send inquire msg to player 3333 
inquire/ 
4444 1000 6050 100 blind 
8888 14350 2000 50 blind 
total pot: 150 
/inquire 
recv from player 3333: call 

send inquire msg to player 8888 
inquire/ 
3333 53900 2000 100 call 
4444 1000 6050 100 blind 
8888 14350 2000 50 blind 
total pot: 250 
/inquire 
recv from player 8888: call 

send inquire msg to player 4444 
inquire/ 
8888 14300 2000 100 call 
3333 53900 2000 100 call 
4444 1000 6050 100 blind 
total pot: 300 
/inquire 
recv from player 4444: fold 

flop/ 
HEARTS 10 
CLUBS 3 
SPADES A 
/flop 

---flop round bet---
valid player: 3, all in player: 0, fold player: 1
send inquire msg to player 8888 
inquire/ 
3333 53900 2000 100 call 
4444 1000 6050 100 fold 
8888 14300 2000 100 call 
total pot: 300 
/inquire 
recv from player 8888: raise 100 

send notify msg to player 4444 
notify/ 
8888 14200 2000 200 raise 
3333 53900 2000 100 call 
4444 1000 6050 100 fold 
total pot: 400 
/notify 
send inquire msg to player 3333 
inquire/ 
4444 1000 6050 100 fold 
8888 14200 2000 200 raise 
3333 53900 2000 100 call 
total pot: 400 
/inquire 
recv from player 3333: call 

turn/ 
DIAMONDS 2 
/turn 

---turn round bet---
valid player: 3, all in player: 0, fold player: 1
send inquire msg to player 8888 
inquire/ 
3333 53800 2000 200 call 
4444 1000 6050 100 fold 
8888 14200 2000 200 raise 
total pot: 500 
/inquire 
recv from player 8888: raise 100 

send notify msg to player 4444 
notify/ 
8888 14100 2000 300 raise 
3333 53800 2000 200 call 
4444 1000 6050 100 fold 
total pot: 600 
/notify 
send inquire msg to player 3333 
inquire/ 
4444 1000 6050 100 fold 
8888 14100 2000 300 raise 
3333 53800 2000 200 call 
total pot: 600 
/inquire 
recv from player 3333: call 

river/ 
CLUBS 7 
/river 

---river round bet---
valid player: 3, all in player: 0, fold player: 1
send inquire msg to player 8888 
inquire/ 
3333 53700 2000 300 call 
4444 1000 6050 100 fold 
8888 14100 2000 300 raise 
total pot: 700 
/inquire 
recv from player 8888: raise 100 

send notify msg to player 4444 
notify/ 
8888 14000 2000 400 raise 
3333 53700 2000 300 call 
4444 1000 6050 100 fold 
total pot: 800 
/notify 
send inquire msg to player 3333 
inquire/ 
4444 1000 6050 100 fold 
8888 14000 2000 400 raise 
3333 53700 2000 300 call 
total pot: 800 
/inquire 
recv from player 3333: all_in 

send inquire msg to player 8888 
inquire/ 
3333 0 2000 54000 all_in 
4444 1000 6050 100 fold 
8888 14000 2000 400 raise 
total pot: 54500 
/inquire 
recv from player 8888: raise 100 


----- notify msg last round -----
send notify msg to player 4444 
notify/ 
8888 0 2000 14400 all_in 
3333 0 2000 54000 all_in 
4444 1000 6050 100 fold 
total pot: 68500 
/notify 
send notify msg to player 3333 
notify/ 
4444 1000 6050 100 fold 
8888 0 2000 14400 all_in 
3333 0 2000 54000 all_in 
total pot: 68500 
/notify 
send notify msg to player 8888 
notify/ 
3333 0 2000 54000 all_in 
4444 1000 6050 100 fold 
8888 0 2000 14400 all_in 
total pot: 68500 
/notify 

---show down---
showdown/ 
common/ 
HEARTS 10 
CLUBS 3 
SPADES A 
DIAMONDS 2 
CLUBS 7 
/common 
1: 8888 DIAMONDS A DIAMONDS 10 TWO_PAIR 
2: 3333 SPADES 3 CLUBS 2 TWO_PAIR 
/showdown 

---Allocate pot---
pot-win/ 
8888: 28900 
3333: 39600 
/pot-win 
it is player 8888's turn to be button

-----64 Hand-----

----- clean player data in socket -----
seat/ 
button: 8888 28900 2000 
small blind: 4444 1000 6050 
big blind: 3333 39600 2000 
/seat 
blind/ 
4444: 50 
3333: 100 
/blind 
player 4444:hold/ 
SPADES 7 
DIAMONDS J 
/hold 
player 3333:hold/ 
DIAMONDS 4 
DIAMONDS 10 
/hold 
player 8888:hold/ 
HEARTS A 
SPADES 9 
/hold 

---pre flop round bet---
valid player: 3, all in player: 0, fold player: 0
send inquire msg to player 8888 
inquire/ 
3333 39500 2000 100 blind 
4444 950 6050 50 blind 
total pot: 150 
/inquire 
recv from player 8888: call 

send inquire msg to player 4444 
inquire/ 
8888 28800 2000 100 call 
3333 39500 2000 100 blind 
4444 950 6050 50 blind 
total pot: 250 
/inquire 
recv from player 4444: fold 

send inquire msg to player 3333 
inquire/ 
4444 950 6050 50 fold 
8888 28800 2000 100 call 
3333 39500 2000 100 blind 
total pot: 250 
/inquire 
recv from player 3333: raise 200 

send inquire msg to player 8888 
inquire/ 
3333 39300 2000 300 raise 
4444 950 6050 50 fold 
8888 28800 2000 100 call 
total pot: 450 
/inquire 
recv from player 8888: call 

flop/ 
CLUBS 5 
DIAMONDS 2 
DIAMONDS 8 
/flop 

---flop round bet---
valid player: 3, all in player: 0, fold player: 1
send notify msg to player 4444 
notify/ 
8888 28600 2000 300 call 
3333 39300 2000 300 raise 
4444 950 6050 50 fold 
total pot: 650 
/notify 
send inquire msg to player 3333 
inquire/ 
4444 950 6050 50 fold 
8888 28600 2000 300 call 
3333 39300 2000 300 raise 
total pot: 650 
/inquire 
recv from player 3333: fold 

send inquire msg to player 8888 
inquire/ 
3333 39300 2000 300 fold 
4444 950 6050 50 fold 
8888 28600 2000 300 call 
total pot: 650 
/inquire 
recv from player 8888: check 


---turn round bet---
valid player: 3, all in player: 0, fold player: 2

---river round bet---
valid player: 3, all in player: 0, fold player: 2

----- notify msg last round -----
send notify msg to player 4444 
notify/ 
8888 28600 2000 300 check 
3333 39300 2000 300 fold 
4444 950 6050 50 fold 
total pot: 650 
/notify 
send notify msg to player 3333 
notify/ 
4444 950 6050 50 fold 
8888 28600 2000 300 check 
3333 39300 2000 300 fold 
total pot: 650 
/notify 
send notify msg to player 8888 
notify/ 
3333 39300 2000 300 fold 
4444 950 6050 50 fold 
8888 28600 2000 300 check 
total pot: 650 
/notify 

--- 1 players not fold, don't need show down---

---Allocate pot---
Only player at seat 7 not fold, win all the pot 650
pot-win/ 
8888: 650 
/pot-win 
it is player 4444's turn to be button

-----65 Hand-----

----- clean player data in socket -----
seat/ 
button: 4444 950 6050 
small blind: 3333 39300 2000 
big blind: 8888 29250 2000 
/seat 
blind/ 
3333: 50 
8888: 100 
/blind 
player 3333:hold/ 
SPADES A 
HEARTS 8 
/hold 
player 8888:hold/ 
SPADES 7 
DIAMONDS 4 
/hold 
player 4444:hold/ 
DIAMONDS Q 
HEARTS 10 
/hold 

---pre flop round bet---
valid player: 3, all in player: 0, fold player: 0
send inquire msg to player 4444 
inquire/ 
8888 29150 2000 100 blind 
3333 39250 2000 50 blind 
total pot: 150 
/inquire 
recv from player 4444: fold 

send inquire msg to player 3333 
inquire/ 
4444 950 6050 0 fold 
8888 29150 2000 100 blind 
3333 39250 2000 50 blind 
total pot: 150 
/inquire 
recv from player 3333: fold 

send inquire msg to player 8888 
inquire/ 
3333 39250 2000 50 fold 
4444 950 6050 0 fold 
8888 29150 2000 100 blind 
total pot: 150 
/inquire 
recv from player 8888: fold 


---flop round bet---
valid player: 3, all in player: 0, fold player: 3

---turn round bet---
valid player: 3, all in player: 0, fold player: 3

---river round bet---
valid player: 3, all in player: 0, fold player: 3

----- notify msg last round -----
send notify msg to player 4444 
notify/ 
8888 29150 2000 100 fold 
3333 39250 2000 50 fold 
4444 950 6050 0 fold 
total pot: 150 
/notify 
send notify msg to player 3333 
notify/ 
4444 950 6050 0 fold 
8888 29150 2000 100 fold 
3333 39250 2000 50 fold 
total pot: 150 
/notify 
send notify msg to player 8888 
notify/ 
3333 39250 2000 50 fold 
4444 950 6050 0 fold 
8888 29150 2000 100 fold 
total pot: 150 
/notify 

--- 0 players not fold, don't need show down---

---Allocate pot---
pot-win/ 
/pot-win 
it is player 3333's turn to be button

-----66 Hand-----

----- clean player data in socket -----
seat/ 
button: 3333 39250 2000 
small blind: 8888 29150 2000 
big blind: 4444 950 6050 
/seat 
blind/ 
8888: 50 
4444: 100 
/blind 
player 8888:hold/ 
DIAMONDS Q 
DIAMONDS J 
/hold 
player 4444:hold/ 
CLUBS 4 
DIAMONDS 5 
/hold 
player 3333:hold/ 
CLUBS 7 
DIAMONDS 3 
/hold 

---pre flop round bet---
valid player: 3, all in player: 0, fold player: 0
send inquire msg to player 3333 
inquire/ 
4444 850 6050 100 blind 
8888 29100 2000 50 blind 
total pot: 150 
/inquire 
recv from player 3333: check 

send inquire msg to player 8888 
inquire/ 
3333 39150 2000 100 call 
4444 850 6050 100 blind 
8888 29100 2000 50 blind 
total pot: 250 
/inquire 
recv from player 8888: call 

send inquire msg to player 4444 
inquire/ 
8888 29050 2000 100 call 
3333 39150 2000 100 call 
4444 850 6050 100 blind 
total pot: 300 
/inquire 
recv from player 4444: fold 

flop/ 
DIAMONDS A 
SPADES J 
HEARTS Q 
/flop 

---flop round bet---
valid player: 3, all in player: 0, fold player: 1
send inquire msg to player 8888 
inquire/ 
3333 39150 2000 100 call 
4444 850 6050 100 fold 
8888 29050 2000 100 call 
total pot: 300 
/inquire 
recv from player 8888: raise 100 

send notify msg to player 4444 
notify/ 
8888 28950 2000 200 raise 
3333 39150 2000 100 call 
4444 850 6050 100 fold 
total pot: 400 
/notify 
send inquire msg to player 3333 
inquire/ 
4444 850 6050 100 fold 
8888 28950 2000 200 raise 
3333 39150 2000 100 call 
total pot: 400 
/inquire 
recv from player 3333: fold 


---turn round bet---
valid player: 3, all in player: 0, fold player: 2

---river round bet---
valid player: 3, all in player: 0, fold player: 2

----- notify msg last round -----
send notify msg to player 8888 
notify/ 
3333 39150 2000 100 fold 
4444 850 6050 100 fold 
8888 28950 2000 200 raise 
total pot: 400 
/notify 
send notify msg to player 4444 
notify/ 
8888 28950 2000 200 raise 
3333 39150 2000 100 fold 
4444 850 6050 100 fold 
total pot: 400 
/notify 
send notify msg to player 3333 
notify/ 
4444 850 6050 100 fold 
8888 28950 2000 200 raise 
3333 39150 2000 100 fold 
total pot: 400 
/notify 

--- 1 players not fold, don't need show down---

---Allocate pot---
Only player at seat 0 not fold, win all the pot 400
pot-win/ 
8888: 400 
/pot-win 
it is player 8888's turn to be button

-----67 Hand-----

----- clean player data in socket -----
seat/ 
button: 8888 29350 2000 
small blind: 4444 850 6050 
big blind: 3333 39150 2000 
/seat 
blind/ 
4444: 50 
3333: 100 
/blind 
player 4444:hold/ 
SPADES A 
DIAMONDS J 
/hold 
player 3333:hold/ 
CLUBS A 
HEARTS 10 
/hold 
player 8888:hold/ 
CLUBS 2 
CLUBS 5 
/hold 

---pre flop round bet---
valid player: 3, all in player: 0, fold player: 0
send inquire msg to player 8888 
inquire/ 
3333 39050 2000 100 blind 
4444 800 6050 50 blind 
total pot: 150 
/inquire 
recv from player 8888: fold 

send inquire msg to player 4444 
inquire/ 
8888 29350 2000 0 fold 
3333 39050 2000 100 blind 
4444 800 6050 50 blind 
total pot: 150 
/inquire 
recv from player 4444: fold 

send inquire msg to player 3333 
inquire/ 
4444 800 6050 50 fold 
8888 29350 2000 0 fold 
3333 39050 2000 100 blind 
total pot: 150 
/inquire 
recv from player 3333: all_in 


---flop round bet---
valid player: 3, all in player: 1, fold player: 2

---turn round bet---
valid player: 3, all in player: 1, fold player: 2

---river round bet---
valid player: 3, all in player: 1, fold player: 2

----- notify msg last round -----
send notify msg to player 8888 
notify/ 
3333 0 2000 39150 all_in 
4444 800 6050 50 fold 
8888 29350 2000 0 fold 
total pot: 39200 
/notify 
send notify msg to player 4444 
notify/ 
8888 29350 2000 0 fold 
3333 0 2000 39150 all_in 
4444 800 6050 50 fold 
total pot: 39200 
/notify 
send notify msg to player 3333 
notify/ 
4444 800 6050 50 fold 
8888 29350 2000 0 fold 
3333 0 2000 39150 all_in 
total pot: 39200 
/notify 

--- 1 players not fold, don't need show down---

---Allocate pot---
Only player at seat 1 not fold, win all the pot 39200
pot-win/ 
3333: 39200 
/pot-win 
it is player 4444's turn to be button

-----68 Hand-----

----- clean player data in socket -----
seat/ 
button: 4444 800 6050 
small blind: 3333 39200 2000 
big blind: 8888 29350 2000 
/seat 
blind/ 
3333: 50 
8888: 100 
/blind 
player 3333:hold/ 
CLUBS 5 
DIAMONDS 10 
/hold 
player 8888:hold/ 
HEARTS 4 
CLUBS 8 
/hold 
player 4444:hold/ 
HEARTS 3 
SPADES 2 
/hold 

---pre flop round bet---
valid player: 3, all in player: 0, fold player: 0
send inquire msg to player 4444 
inquire/ 
8888 29250 2000 100 blind 
3333 39150 2000 50 blind 
total pot: 150 
/inquire 
recv from player 4444: fold 

send inquire msg to player 3333 
inquire/ 
4444 800 6050 0 fold 
8888 29250 2000 100 blind 
3333 39150 2000 50 blind 
total pot: 150 
/inquire 
recv from player 3333: raise 200 

send inquire msg to player 8888 
inquire/ 
3333 38900 2000 300 raise 
4444 800 6050 0 fold 
8888 29250 2000 100 blind 
total pot: 400 
/inquire 
recv from player 8888: fold 


---flop round bet---
valid player: 3, all in player: 0, fold player: 2

---turn round bet---
valid player: 3, all in player: 0, fold player: 2

---river round bet---
valid player: 3, all in player: 0, fold player: 2

----- notify msg last round -----
send notify msg to player 4444 
notify/ 
8888 29250 2000 100 fold 
3333 38900 2000 300 raise 
4444 800 6050 0 fold 
total pot: 400 
/notify 
send notify msg to player 3333 
notify/ 
4444 800 6050 0 fold 
8888 29250 2000 100 fold 
3333 38900 2000 300 raise 
total pot: 400 
/notify 
send notify msg to player 8888 
notify/ 
3333 38900 2000 300 raise 
4444 800 6050 0 fold 
8888 29250 2000 100 fold 
total pot: 400 
/notify 

--- 1 players not fold, don't need show down---

---Allocate pot---
Only player at seat 0 not fold, win all the pot 400
pot-win/ 
3333: 400 
/pot-win 
it is player 3333's turn to be button

-----69 Hand-----

----- clean player data in socket -----
seat/ 
button: 3333 39300 2000 
small blind: 8888 29250 2000 
big blind: 4444 800 6050 
/seat 
blind/ 
8888: 50 
4444: 100 
/blind 
player 8888:hold/ 
CLUBS A 
SPADES K 
/hold 
player 4444:hold/ 
DIAMONDS 4 
HEARTS 7 
/hold 
player 3333:hold/ 
CLUBS 2 
SPADES Q 
/hold 

---pre flop round bet---
valid player: 3, all in player: 0, fold player: 0
send inquire msg to player 3333 
inquire/ 
4444 700 6050 100 blind 
8888 29200 2000 50 blind 
total pot: 150 
/inquire 
recv from player 3333: all_in 

send inquire msg to player 8888 
inquire/ 
3333 0 2000 39300 all_in 
4444 700 6050 100 blind 
8888 29200 2000 50 blind 
total pot: 39450 
/inquire 
recv from player 8888: raise 200 

send inquire msg to player 4444 
inquire/ 
8888 0 2000 29250 all_in 
3333 0 2000 39300 all_in 
4444 700 6050 100 blind 
total pot: 68650 
/inquire 
recv from player 4444: fold 

flop/ 
SPADES 4 
CLUBS 4 
DIAMONDS 6 
/flop 

---flop round bet---
valid player: 3, all in player: 2, fold player: 1
turn/ 
SPADES 3 
/turn 

---turn round bet---
valid player: 3, all in player: 2, fold player: 1
river/ 
SPADES 6 
/river 

---river round bet---
valid player: 3, all in player: 2, fold player: 1

----- notify msg last round -----
send notify msg to player 3333 
notify/ 
4444 700 6050 100 fold 
8888 0 2000 29250 all_in 
3333 0 2000 39300 all_in 
total pot: 68650 
/notify 
send notify msg to player 8888 
notify/ 
3333 0 2000 39300 all_in 
4444 700 6050 100 fold 
8888 0 2000 29250 all_in 
total pot: 68650 
/notify 
send notify msg to player 4444 
notify/ 
8888 0 2000 29250 all_in 
3333 0 2000 39300 all_in 
4444 700 6050 100 fold 
total pot: 68650 
/notify 

---show down---
showdown/ 
common/ 
SPADES 4 
CLUBS 4 
DIAMONDS 6 
SPADES 3 
SPADES 6 
/common 
1: 8888 CLUBS A SPADES K TWO_PAIR 
2: 3333 CLUBS 2 SPADES Q TWO_PAIR 
/showdown 

---Allocate pot---
pot-win/ 
8888: 58600 
3333: 10050 
/pot-win 
it is player 8888's turn to be button

-----70 Hand-----

----- clean player data in socket -----
seat/ 
button: 8888 58600 2000 
small blind: 4444 700 6050 
big blind: 3333 10050 2000 
/seat 
blind/ 
4444: 50 
3333: 100 
/blind 
player 4444:hold/ 
HEARTS 7 
SPADES 7 
/hold 
player 3333:hold/ 
SPADES 4 
DIAMONDS 9 
/hold 
player 8888:hold/ 
HEARTS 8 
SPADES 8 
/hold 

---pre flop round bet---
valid player: 3, all in player: 0, fold player: 0
send inquire msg to player 8888 
inquire/ 
3333 9950 2000 100 blind 
4444 650 6050 50 blind 
total pot: 150 
/inquire 
recv from player 8888: call 

send inquire msg to player 4444 
inquire/ 
8888 58500 2000 100 call 
3333 9950 2000 100 blind 
4444 650 6050 50 blind 
total pot: 250 
/inquire 
recv from player 4444: fold 

send inquire msg to player 3333 
inquire/ 
4444 650 6050 50 fold 
8888 58500 2000 100 call 
3333 9950 2000 100 blind 
total pot: 250 
/inquire 
recv from player 3333: call 

flop/ 
HEARTS 10 
HEARTS 4 
DIAMONDS 7 
/flop 

---flop round bet---
valid player: 3, all in player: 0, fold player: 1
send notify msg to player 4444 
notify/ 
8888 58500 2000 100 call 
3333 9950 2000 100 check 
4444 650 6050 50 fold 
total pot: 250 
/notify 
send inquire msg to player 3333 
inquire/ 
4444 650 6050 50 fold 
8888 58500 2000 100 call 
3333 9950 2000 100 check 
total pot: 250 
/inquire 
recv from player 3333: raise 200 

send inquire msg to player 8888 
inquire/ 
3333 9750 2000 300 raise 
4444 650 6050 50 fold 
8888 58500 2000 100 call 
total pot: 450 
/inquire 
recv from player 8888: raise 100 

send notify msg to player 4444 
notify/ 
8888 58100 2000 500 raise 
3333 9750 2000 300 raise 
4444 650 6050 50 fold 
total pot: 850 
/notify 
send inquire msg to player 3333 
inquire/ 
4444 650 6050 50 fold 
8888 58100 2000 500 raise 
3333 9750 2000 300 raise 
total pot: 850 
/inquire 
recv from player 3333: check 

turn/ 
CLUBS J 
/turn 

---turn round bet---
valid player: 3, all in player: 0, fold player: 1
send notify msg to player 4444 
notify/ 
8888 58100 2000 500 raise 
3333 9550 2000 500 call 
4444 650 6050 50 fold 
total pot: 1050 
/notify 
send inquire msg to player 3333 
inquire/ 
4444 650 6050 50 fold 
8888 58100 2000 500 raise 
3333 9550 2000 500 call 
total pot: 1050 
/inquire 
recv from player 3333: all_in 

send inquire msg to player 8888 
inquire/ 
3333 0 2000 10050 all_in 
4444 650 6050 50 fold 
8888 58100 2000 500 raise 
total pot: 10600 
/inquire 
recv from player 8888: raise 100 

river/ 
DIAMONDS K 
/river 

---river round bet---
valid player: 3, all in player: 1, fold player: 1

----- notify msg last round -----
send notify msg to player 4444 
notify/ 
8888 39000 2000 19600 raise 
3333 0 2000 10050 all_in 
4444 650 6050 50 fold 
total pot: 29700 
/notify 
send notify msg to player 3333 
notify/ 
4444 650 6050 50 fold 
8888 39000 2000 19600 raise 
3333 0 2000 10050 all_in 
total pot: 29700 
/notify 
send notify msg to player 8888 
notify/ 
3333 0 2000 10050 all_in 
4444 650 6050 50 fold 
8888 39000 2000 19600 raise 
total pot: 29700 
/notify 

---show down---
showdown/ 
common/ 
HEARTS 10 
HEARTS 4 
DIAMONDS 7 
CLUBS J 
DIAMONDS K 
/common 
2: 3333 SPADES 4 DIAMONDS 9 ONE_PAIR 
1: 8888 HEARTS 8 SPADES 8 ONE_PAIR 
/showdown 

---Allocate pot---
pot-win/ 
8888: 29700 
/pot-win 
it is player 4444's turn to be button

-----71 Hand-----

----- clean player data in socket -----
seat/ 
button: 4444 650 6050 
small blind: 3333 2000 0 
big blind: 8888 68700 2000 
/seat 
blind/ 
3333: 50 
8888: 100 
/blind 
player 3333:hold/ 
DIAMONDS 4 
SPADES 7 
/hold 
player 8888:hold/ 
DIAMONDS 3 
SPADES 8 
/hold 
player 4444:hold/ 
DIAMONDS A 
CLUBS 9 
/hold 

---pre flop round bet---
valid player: 3, all in player: 0, fold player: 0
send inquire msg to player 4444 
inquire/ 
8888 68600 2000 100 blind 
3333 1950 0 50 blind 
total pot: 150 
/inquire 
recv from player 4444: fold 

send inquire msg to player 3333 
inquire/ 
4444 650 6050 0 fold 
8888 68600 2000 100 blind 
3333 1950 0 50 blind 
total pot: 150 
/inquire 
recv from player 3333: raise 200 

send inquire msg to player 8888 
inquire/ 
3333 1700 0 300 raise 
4444 650 6050 0 fold 
8888 68600 2000 100 blind 
total pot: 400 
/inquire 
recv from player 8888: fold 


---flop round bet---
valid player: 3, all in player: 0, fold player: 2

---turn round bet---
valid player: 3, all in player: 0, fold player: 2

---river round bet---
valid player: 3, all in player: 0, fold player: 2

----- notify msg last round -----
send notify msg to player 4444 
notify/ 
8888 68600 2000 100 fold 
3333 1700 0 300 raise 
4444 650 6050 0 fold 
total pot: 400 
/notify 
send notify msg to player 3333 
notify/ 
4444 650 6050 0 fold 
8888 68600 2000 100 fold 
3333 1700 0 300 raise 
total pot: 400 
/notify 
send notify msg to player 8888 
notify/ 
3333 1700 0 300 raise 
4444 650 6050 0 fold 
8888 68600 2000 100 fold 
total pot: 400 
/notify 

--- 1 players not fold, don't need show down---

---Allocate pot---
Only player at seat 0 not fold, win all the pot 400
pot-win/ 
3333: 400 
/pot-win 
it is player 3333's turn to be button

-----72 Hand-----

----- clean player data in socket -----
seat/ 
button: 3333 2100 0 
small blind: 8888 68600 2000 
big blind: 4444 650 6050 
/seat 
blind/ 
8888: 50 
4444: 100 
/blind 
player 8888:hold/ 
DIAMONDS 5 
HEARTS 6 
/hold 
player 4444:hold/ 
HEARTS 2 
DIAMONDS 3 
/hold 
player 3333:hold/ 
HEARTS 3 
HEARTS K 
/hold 

---pre flop round bet---
valid player: 3, all in player: 0, fold player: 0
send inquire msg to player 3333 
inquire/ 
4444 550 6050 100 blind 
8888 68550 2000 50 blind 
total pot: 150 
/inquire 
recv from player 3333: all_in 

send inquire msg to player 8888 
inquire/ 
3333 0 0 2100 all_in 
4444 550 6050 100 blind 
8888 68550 2000 50 blind 
total pot: 2250 
/inquire 
recv from player 8888: fold 

send inquire msg to player 4444 
inquire/ 
8888 68550 2000 50 fold 
3333 0 0 2100 all_in 
4444 550 6050 100 blind 
total pot: 2250 
/inquire 
recv from player 4444: fold 


---flop round bet---
valid player: 3, all in player: 1, fold player: 2

---turn round bet---
valid player: 3, all in player: 1, fold player: 2

---river round bet---
valid player: 3, all in player: 1, fold player: 2

----- notify msg last round -----
send notify msg to player 3333 
notify/ 
4444 550 6050 100 fold 
8888 68550 2000 50 fold 
3333 0 0 2100 all_in 
total pot: 2250 
/notify 
send notify msg to player 8888 
notify/ 
3333 0 0 2100 all_in 
4444 550 6050 100 fold 
8888 68550 2000 50 fold 
total pot: 2250 
/notify 
send notify msg to player 4444 
notify/ 
8888 68550 2000 50 fold 
3333 0 0 2100 all_in 
4444 550 6050 100 fold 
total pot: 2250 
/notify 

--- 1 players not fold, don't need show down---

---Allocate pot---
Only player at seat 7 not fold, win all the pot 2250
pot-win/ 
3333: 2250 
/pot-win 
it is player 8888's turn to be button

-----73 Hand-----

----- clean player data in socket -----
seat/ 
button: 8888 68550 2000 
small blind: 4444 550 6050 
big blind: 3333 2250 0 
/seat 
blind/ 
4444: 50 
3333: 100 
/blind 
player 4444:hold/ 
DIAMONDS J 
HEARTS 7 
/hold 
player 3333:hold/ 
DIAMONDS 2 
SPADES J 
/hold 
player 8888:hold/ 
HEARTS 4 
CLUBS 6 
/hold 

---pre flop round bet---
valid player: 3, all in player: 0, fold player: 0
send inquire msg to player 8888 
inquire/ 
3333 2150 0 100 blind 
4444 500 6050 50 blind 
total pot: 150 
/inquire 
recv from player 8888: fold 

send inquire msg to player 4444 
inquire/ 
8888 68550 2000 0 fold 
3333 2150 0 100 blind 
4444 500 6050 50 blind 
total pot: 150 
/inquire 
recv from player 4444: fold 

send inquire msg to player 3333 
inquire/ 
4444 500 6050 50 fold 
8888 68550 2000 0 fold 
3333 2150 0 100 blind 
total pot: 150 
/inquire 
recv from player 3333: raise 200 


---flop round bet---
valid player: 3, all in player: 0, fold player: 2

---turn round bet---
valid player: 3, all in player: 0, fold player: 2

---river round bet---
valid player: 3, all in player: 0, fold player: 2

----- notify msg last round -----
send notify msg to player 8888 
notify/ 
3333 1950 0 300 raise 
4444 500 6050 50 fold 
8888 68550 2000 0 fold 
total pot: 350 
/notify 
send notify msg to player 4444 
notify/ 
8888 68550 2000 0 fold 
3333 1950 0 300 raise 
4444 500 6050 50 fold 
total pot: 350 
/notify 
send notify msg to player 3333 
notify/ 
4444 500 6050 50 fold 
8888 68550 2000 0 fold 
3333 1950 0 300 raise 
total pot: 350 
/notify 

--- 1 players not fold, don't need show down---

---Allocate pot---
Only player at seat 1 not fold, win all the pot 350
pot-win/ 
3333: 350 
/pot-win 
it is player 4444's turn to be button

-----74 Hand-----

----- clean player data in socket -----
seat/ 
button: 4444 500 6050 
small blind: 3333 2300 0 
big blind: 8888 68550 2000 
/seat 
blind/ 
3333: 50 
8888: 100 
/blind 
player 3333:hold/ 
CLUBS K 
SPADES A 
/hold 
player 8888:hold/ 
SPADES 8 
HEARTS 7 
/hold 
player 4444:hold/ 
CLUBS 9 
DIAMONDS K 
/hold 

---pre flop round bet---
valid player: 3, all in player: 0, fold player: 0
send inquire msg to player 4444 
inquire/ 
8888 68450 2000 100 blind 
3333 2250 0 50 blind 
total pot: 150 
/inquire 
recv from player 4444: fold 

send inquire msg to player 3333 
inquire/ 
4444 500 6050 0 fold 
8888 68450 2000 100 blind 
3333 2250 0 50 blind 
total pot: 150 
/inquire 
recv from player 3333: call 

send inquire msg to player 8888 
inquire/ 
3333 2200 0 100 call 
4444 500 6050 0 fold 
8888 68450 2000 100 blind 
total pot: 200 
/inquire 
recv from player 8888: fold 


---flop round bet---
valid player: 3, all in player: 0, fold player: 2

---turn round bet---
valid player: 3, all in player: 0, fold player: 2

---river round bet---
valid player: 3, all in player: 0, fold player: 2

----- notify msg last round -----
send notify msg to player 4444 
notify/ 
8888 68450 2000 100 fold 
3333 2200 0 100 call 
4444 500 6050 0 fold 
total pot: 200 
/notify 
send notify msg to player 3333 
notify/ 
4444 500 6050 0 fold 
8888 68450 2000 100 fold 
3333 2200 0 100 call 
total pot: 200 
/notify 
send notify msg to player 8888 
notify/ 
3333 2200 0 100 call 
4444 500 6050 0 fold 
8888 68450 2000 100 fold 
total pot: 200 
/notify 

--- 1 players not fold, don't need show down---

---Allocate pot---
Only player at seat 0 not fold, win all the pot 200
pot-win/ 
3333: 200 
/pot-win 
it is player 3333's turn to be button

-----75 Hand-----

----- clean player data in socket -----
seat/ 
button: 3333 2400 0 
small blind: 8888 68450 2000 
big blind: 4444 500 6050 
/seat 
blind/ 
8888: 50 
4444: 100 
/blind 
player 8888:hold/ 
DIAMONDS 9 
SPADES 8 
/hold 
player 4444:hold/ 
SPADES 7 
HEARTS 7 
/hold 
player 3333:hold/ 
SPADES 10 
DIAMONDS 10 
/hold 

---pre flop round bet---
valid player: 3, all in player: 0, fold player: 0
send inquire msg to player 3333 
inquire/ 
4444 400 6050 100 blind 
8888 68400 2000 50 blind 
total pot: 150 
/inquire 
recv from player 3333: raise 200 

send inquire msg to player 8888 
inquire/ 
3333 2100 0 300 raise 
4444 400 6050 100 blind 
8888 68400 2000 50 blind 
total pot: 450 
/inquire 
recv from player 8888: fold 

send inquire msg to player 4444 
inquire/ 
8888 68400 2000 50 fold 
3333 2100 0 300 raise 
4444 400 6050 100 blind 
total pot: 450 
/inquire 
recv from player 4444: fold 


---flop round bet---
valid player: 3, all in player: 0, fold player: 2

---turn round bet---
valid player: 3, all in player: 0, fold player: 2

---river round bet---
valid player: 3, all in player: 0, fold player: 2

----- notify msg last round -----
send notify msg to player 3333 
notify/ 
4444 400 6050 100 fold 
8888 68400 2000 50 fold 
3333 2100 0 300 raise 
total pot: 450 
/notify 
send notify msg to player 8888 
notify/ 
3333 2100 0 300 raise 
4444 400 6050 100 fold 
8888 68400 2000 50 fold 
total pot: 450 
/notify 
send notify msg to player 4444 
notify/ 
8888 68400 2000 50 fold 
3333 2100 0 300 raise 
4444 400 6050 100 fold 
total pot: 450 
/notify 

--- 1 players not fold, don't need show down---

---Allocate pot---
Only player at seat 7 not fold, win all the pot 450
pot-win/ 
3333: 450 
/pot-win 
it is player 8888's turn to be button

-----76 Hand-----

----- clean player data in socket -----
seat/ 
button: 8888 68400 2000 
small blind: 4444 400 6050 
big blind: 3333 2550 0 
/seat 
blind/ 
4444: 50 
3333: 100 
/blind 
player 4444:hold/ 
CLUBS 6 
SPADES 3 
/hold 
player 3333:hold/ 
HEARTS 2 
SPADES Q 
/hold 
player 8888:hold/ 
DIAMONDS 9 
DIAMONDS Q 
/hold 

---pre flop round bet---
valid player: 3, all in player: 0, fold player: 0
send inquire msg to player 8888 
inquire/ 
3333 2450 0 100 blind 
4444 350 6050 50 blind 
total pot: 150 
/inquire 
recv from player 8888: call 

send inquire msg to player 4444 
inquire/ 
8888 68300 2000 100 call 
3333 2450 0 100 blind 
4444 350 6050 50 blind 
total pot: 250 
/inquire 
recv from player 4444: fold 

send inquire msg to player 3333 
inquire/ 
4444 350 6050 50 fold 
8888 68300 2000 100 call 
3333 2450 0 100 blind 
total pot: 250 
/inquire 
recv from player 3333: check 

flop/ 
CLUBS 9 
DIAMONDS 8 
HEARTS J 
/flop 

---flop round bet---
valid player: 3, all in player: 0, fold player: 1
send notify msg to player 4444 
notify/ 
8888 68300 2000 100 call 
3333 2450 0 100 check 
4444 350 6050 50 fold 
total pot: 250 
/notify 
send inquire msg to player 3333 
inquire/ 
4444 350 6050 50 fold 
8888 68300 2000 100 call 
3333 2450 0 100 check 
total pot: 250 
/inquire 
recv from player 3333: check 

send inquire msg to player 8888 
inquire/ 
3333 2450 0 100 check 
4444 350 6050 50 fold 
8888 68300 2000 100 call 
total pot: 250 
/inquire 
recv from player 8888: raise 100 

send notify msg to player 4444 
notify/ 
8888 68200 2000 200 raise 
3333 2450 0 100 check 
4444 350 6050 50 fold 
total pot: 350 
/notify 
send inquire msg to player 3333 
inquire/ 
4444 350 6050 50 fold 
8888 68200 2000 200 raise 
3333 2450 0 100 check 
total pot: 350 
/inquire 
recv from player 3333: call 

turn/ 
DIAMONDS 3 
/turn 

---turn round bet---
valid player: 3, all in player: 0, fold player: 1
send notify msg to player 4444 
notify/ 
8888 68200 2000 200 raise 
3333 2350 0 200 call 
4444 350 6050 50 fold 
total pot: 450 
/notify 
send inquire msg to player 3333 
inquire/ 
4444 350 6050 50 fold 
8888 68200 2000 200 raise 
3333 2350 0 200 call 
total pot: 450 
/inquire 
recv from player 3333: raise 200 

send inquire msg to player 8888 
inquire/ 
3333 2150 0 400 raise 
4444 350 6050 50 fold 
8888 68200 2000 200 raise 
total pot: 650 
/inquire 
recv from player 8888: raise 100 

send notify msg to player 4444 
notify/ 
8888 67800 2000 600 raise 
3333 2150 0 400 raise 
4444 350 6050 50 fold 
total pot: 1050 
/notify 
send inquire msg to player 3333 
inquire/ 
4444 350 6050 50 fold 
8888 67800 2000 600 raise 
3333 2150 0 400 raise 
total pot: 1050 
/inquire 
recv from player 3333: raise 200 

send inquire msg to player 8888 
inquire/ 
3333 1750 0 800 raise 
4444 350 6050 50 fold 
8888 67800 2000 600 raise 
total pot: 1450 
/inquire 
recv from player 8888: raise 100 

send notify msg to player 4444 
notify/ 
8888 67400 2000 1000 raise 
3333 1750 0 800 raise 
4444 350 6050 50 fold 
total pot: 1850 
/notify 
send inquire msg to player 3333 
inquire/ 
4444 350 6050 50 fold 
8888 67400 2000 1000 raise 
3333 1750 0 800 raise 
total pot: 1850 
/inquire 
recv from player 3333: fold 


---river round bet---
valid player: 3, all in player: 0, fold player: 2

----- notify msg last round -----
send notify msg to player 8888 
notify/ 
3333 1750 0 800 fold 
4444 350 6050 50 fold 
8888 67400 2000 1000 raise 
total pot: 1850 
/notify 
send notify msg to player 4444 
notify/ 
8888 67400 2000 1000 raise 
3333 1750 0 800 fold 
4444 350 6050 50 fold 
total pot: 1850 
/notify 
send notify msg to player 3333 
notify/ 
4444 350 6050 50 fold 
8888 67400 2000 1000 raise 
3333 1750 0 800 fold 
total pot: 1850 
/notify 

--- 1 players not fold, don't need show down---

---Allocate pot---
Only player at seat 7 not fold, win all the pot 1850
pot-win/ 
8888: 1850 
/pot-win 
it is player 4444's turn to be button

-----77 Hand-----

----- clean player data in socket -----
seat/ 
button: 4444 350 6050 
small blind: 3333 1750 0 
big blind: 8888 69250 2000 
/seat 
blind/ 
3333: 50 
8888: 100 
/blind 
player 3333:hold/ 
DIAMONDS Q 
CLUBS J 
/hold 
player 8888:hold/ 
SPADES J 
CLUBS 8 
/hold 
player 4444:hold/ 
HEARTS J 
DIAMONDS 8 
/hold 

---pre flop round bet---
valid player: 3, all in player: 0, fold player: 0
send inquire msg to player 4444 
inquire/ 
8888 69150 2000 100 blind 
3333 1700 0 50 blind 
total pot: 150 
/inquire 
recv from player 4444: fold 

send inquire msg to player 3333 
inquire/ 
4444 350 6050 0 fold 
8888 69150 2000 100 blind 
3333 1700 0 50 blind 
total pot: 150 
/inquire 
recv from player 3333: check 

send inquire msg to player 8888 
inquire/ 
3333 1650 0 100 call 
4444 350 6050 0 fold 
8888 69150 2000 100 blind 
total pot: 200 
/inquire 
recv from player 8888: call 

flop/ 
HEARTS 8 
DIAMONDS J 
HEARTS A 
/flop 

---flop round bet---
valid player: 3, all in player: 0, fold player: 1
send inquire msg to player 3333 
inquire/ 
4444 350 6050 0 fold 
8888 69150 2000 100 check 
3333 1650 0 100 call 
total pot: 200 
/inquire 
recv from player 3333: check 

send inquire msg to player 8888 
inquire/ 
3333 1650 0 100 check 
4444 350 6050 0 fold 
8888 69150 2000 100 check 
total pot: 200 
/inquire 
recv from player 8888: raise 100 

send notify msg to player 4444 
notify/ 
8888 69050 2000 200 raise 
3333 1650 0 100 check 
4444 350 6050 0 fold 
total pot: 300 
/notify 
send inquire msg to player 3333 
inquire/ 
4444 350 6050 0 fold 
8888 69050 2000 200 raise 
3333 1650 0 100 check 
total pot: 300 
/inquire 
recv from player 3333: raise 200 

send inquire msg to player 8888 
inquire/ 
3333 1350 0 400 raise 
4444 350 6050 0 fold 
8888 69050 2000 200 raise 
total pot: 600 
/inquire 
recv from player 8888: raise 100 

send notify msg to player 4444 
notify/ 
8888 68650 2000 600 raise 
3333 1350 0 400 raise 
4444 350 6050 0 fold 
total pot: 1000 
/notify 
send inquire msg to player 3333 
inquire/ 
4444 350 6050 0 fold 
8888 68650 2000 600 raise 
3333 1350 0 400 raise 
total pot: 1000 
/inquire 
recv from player 3333: check 

turn/ 
DIAMONDS 7 
/turn 

---turn round bet---
valid player: 3, all in player: 0, fold player: 1
send inquire msg to player 3333 
inquire/ 
4444 350 6050 0 fold 
8888 68650 2000 600 raise 
3333 1150 0 600 call 
total pot: 1200 
/inquire 
recv from player 3333: raise 200 

send inquire msg to player 8888 
inquire/ 
3333 950 0 800 raise 
4444 350 6050 0 fold 
8888 68650 2000 600 raise 
total pot: 1400 
/inquire 
recv from player 8888: raise 100 

send notify msg to player 4444 
notify/ 
8888 68250 2000 1000 raise 
3333 950 0 800 raise 
4444 350 6050 0 fold 
total pot: 1800 
/notify 
send inquire msg to player 3333 
inquire/ 
4444 350 6050 0 fold 
8888 68250 2000 1000 raise 
3333 950 0 800 raise 
total pot: 1800 
/inquire 
recv from player 3333: fold 


---river round bet---
valid player: 3, all in player: 0, fold player: 2

----- notify msg last round -----
send notify msg to player 8888 
notify/ 
3333 950 0 800 fold 
4444 350 6050 0 fold 
8888 68250 2000 1000 raise 
total pot: 1800 
/notify 
send notify msg to player 4444 
notify/ 
8888 68250 2000 1000 raise 
3333 950 0 800 fold 
4444 350 6050 0 fold 
total pot: 1800 
/notify 
send notify msg to player 3333 
notify/ 
4444 350 6050 0 fold 
8888 68250 2000 1000 raise 
3333 950 0 800 fold 
total pot: 1800 
/notify 

--- 1 players not fold, don't need show down---

---Allocate pot---
Only player at seat 1 not fold, win all the pot 1800
pot-win/ 
8888: 1800 
/pot-win 
it is player 3333's turn to be button

-----78 Hand-----

----- clean player data in socket -----
seat/ 
button: 3333 950 0 
small blind: 8888 70050 2000 
big blind: 4444 350 6050 
/seat 
blind/ 
8888: 50 
4444: 100 
/blind 
player 8888:hold/ 
CLUBS A 
DIAMONDS Q 
/hold 
player 4444:hold/ 
HEARTS 2 
DIAMONDS J 
/hold 
player 3333:hold/ 
SPADES J 
CLUBS 3 
/hold 

---pre flop round bet---
valid player: 3, all in player: 0, fold player: 0
send inquire msg to player 3333 
inquire/ 
4444 250 6050 100 blind 
8888 70000 2000 50 blind 
total pot: 150 
/inquire 
recv from player 3333: raise 200 

send inquire msg to player 8888 
inquire/ 
3333 650 0 300 raise 
4444 250 6050 100 blind 
8888 70000 2000 50 blind 
total pot: 450 
/inquire 
recv from player 8888: raise 200 

send inquire msg to player 4444 
inquire/ 
8888 69550 2000 500 raise 
3333 650 0 300 raise 
4444 250 6050 100 blind 
total pot: 900 
/inquire 
recv from player 4444: fold 

send inquire msg to player 3333 
inquire/ 
4444 250 6050 100 fold 
8888 69550 2000 500 raise 
3333 650 0 300 raise 
total pot: 900 
/inquire 
recv from player 3333: fold 


---flop round bet---
valid player: 3, all in player: 0, fold player: 2

---turn round bet---
valid player: 3, all in player: 0, fold player: 2

---river round bet---
valid player: 3, all in player: 0, fold player: 2

----- notify msg last round -----
send notify msg to player 8888 
notify/ 
3333 650 0 300 fold 
4444 250 6050 100 fold 
8888 69550 2000 500 raise 
total pot: 900 
/notify 
send notify msg to player 4444 
notify/ 
8888 69550 2000 500 raise 
3333 650 0 300 fold 
4444 250 6050 100 fold 
total pot: 900 
/notify 
send notify msg to player 3333 
notify/ 
4444 250 6050 100 fold 
8888 69550 2000 500 raise 
3333 650 0 300 fold 
total pot: 900 
/notify 

--- 1 players not fold, don't need show down---

---Allocate pot---
Only player at seat 0 not fold, win all the pot 900
pot-win/ 
8888: 900 
/pot-win 
it is player 8888's turn to be button

-----79 Hand-----

----- clean player data in socket -----
seat/ 
button: 8888 70450 2000 
small blind: 4444 250 6050 
big blind: 3333 650 0 
/seat 
blind/ 
4444: 50 
3333: 100 
/blind 
player 4444:hold/ 
HEARTS 8 
HEARTS 6 
/hold 
player 3333:hold/ 
HEARTS 2 
HEARTS 5 
/hold 
player 8888:hold/ 
CLUBS 5 
CLUBS 4 
/hold 

---pre flop round bet---
valid player: 3, all in player: 0, fold player: 0
send inquire msg to player 8888 
inquire/ 
3333 550 0 100 blind 
4444 200 6050 50 blind 
total pot: 150 
/inquire 
recv from player 8888: fold 

send inquire msg to player 4444 
inquire/ 
8888 70450 2000 0 fold 
3333 550 0 100 blind 
4444 200 6050 50 blind 
total pot: 150 
/inquire 
recv from player 4444: fold 

send inquire msg to player 3333 
inquire/ 
4444 200 6050 50 fold 
8888 70450 2000 0 fold 
3333 550 0 100 blind 
total pot: 150 
/inquire 
recv from player 3333: fold 


---flop round bet---
valid player: 3, all in player: 0, fold player: 3

---turn round bet---
valid player: 3, all in player: 0, fold player: 3

---river round bet---
valid player: 3, all in player: 0, fold player: 3

----- notify msg last round -----
send notify msg to player 8888 
notify/ 
3333 550 0 100 fold 
4444 200 6050 50 fold 
8888 70450 2000 0 fold 
total pot: 150 
/notify 
send notify msg to player 4444 
notify/ 
8888 70450 2000 0 fold 
3333 550 0 100 fold 
4444 200 6050 50 fold 
total pot: 150 
/notify 
send notify msg to player 3333 
notify/ 
4444 200 6050 50 fold 
8888 70450 2000 0 fold 
3333 550 0 100 fold 
total pot: 150 
/notify 

--- 0 players not fold, don't need show down---

---Allocate pot---
pot-win/ 
/pot-win 
it is player 4444's turn to be button

-----80 Hand-----

----- clean player data in socket -----
seat/ 
button: 4444 200 6050 
small blind: 3333 550 0 
big blind: 8888 70450 2000 
/seat 
blind/ 
3333: 50 
8888: 100 
/blind 
player 3333:hold/ 
HEARTS 7 
HEARTS J 
/hold 
player 8888:hold/ 
CLUBS 7 
CLUBS Q 
/hold 
player 4444:hold/ 
CLUBS K 
CLUBS 9 
/hold 

---pre flop round bet---
valid player: 3, all in player: 0, fold player: 0
send inquire msg to player 4444 
inquire/ 
8888 70350 2000 100 blind 
3333 500 0 50 blind 
total pot: 150 
/inquire 
recv from player 4444: fold 

send inquire msg to player 3333 
inquire/ 
4444 200 6050 0 fold 
8888 70350 2000 100 blind 
3333 500 0 50 blind 
total pot: 150 
/inquire 
recv from player 3333: all_in 

send inquire msg to player 8888 
inquire/ 
3333 0 0 550 all_in 
4444 200 6050 0 fold 
8888 70350 2000 100 blind 
total pot: 650 
/inquire 
recv from player 8888: call 

flop/ 
DIAMONDS 7 
CLUBS 2 
CLUBS 3 
/flop 

---flop round bet---
valid player: 3, all in player: 1, fold player: 1
turn/ 
CLUBS J 
/turn 

---turn round bet---
valid player: 3, all in player: 1, fold player: 1
river/ 
DIAMONDS A 
/river 

---river round bet---
valid player: 3, all in player: 1, fold player: 1

----- notify msg last round -----
send notify msg to player 4444 
notify/ 
8888 69900 2000 550 call 
3333 0 0 550 all_in 
4444 200 6050 0 fold 
total pot: 1100 
/notify 
send notify msg to player 3333 
notify/ 
4444 200 6050 0 fold 
8888 69900 2000 550 call 
3333 0 0 550 all_in 
total pot: 1100 
/notify 
send notify msg to player 8888 
notify/ 
3333 0 0 550 all_in 
4444 200 6050 0 fold 
8888 69900 2000 550 call 
total pot: 1100 
/notify 

---show down---
showdown/ 
common/ 
DIAMONDS 7 
CLUBS 2 
CLUBS 3 
CLUBS J 
DIAMONDS A 
/common 
2: 3333 HEARTS 7 HEARTS J TWO_PAIR 
1: 8888 CLUBS 7 CLUBS Q FLUSH 
/showdown 

---Allocate pot---
pot-win/ 
8888: 1100 
/pot-win 
it is player 8888's turn to be button

-----81 Hand-----

----- clean player data in socket -----
seat/ 
button: 8888 71000 2000 
small blind: 4444 200 6050 
/seat 
blind/ 
4444: 50 
/blind 
player 4444:hold/ 
DIAMONDS A 
SPADES 2 
/hold 
player 8888:hold/ 
HEARTS 4 
DIAMONDS 9 
/hold 

---pre flop round bet---
valid player: 2, all in player: 0, fold player: 0
send inquire msg to player 8888 
inquire/ 
4444 150 6050 50 blind 
total pot: 50 
/inquire 
recv from player 8888: fold 

send inquire msg to player 4444 
inquire/ 
8888 71000 2000 0 fold 
4444 150 6050 50 blind 
total pot: 50 
/inquire 
recv from player 4444: fold 


---flop round bet---
valid player: 2, all in player: 0, fold player: 2

---turn round bet---
valid player: 2, all in player: 0, fold player: 2

---river round bet---
valid player: 2, all in player: 0, fold player: 2

----- notify msg last round -----
send notify msg to player 8888 
notify/ 
4444 150 6050 50 fold 
8888 71000 2000 0 fold 
total pot: 50 
/notify 
send notify msg to player 4444 
notify/ 
8888 71000 2000 0 fold 
4444 150 6050 50 fold 
total pot: 50 
/notify 

--- 0 players not fold, don't need show down---

---Allocate pot---
pot-win/ 
/pot-win 
it is player 4444's turn to be button

-----82 Hand-----

----- clean player data in socket -----
seat/ 
button: 4444 150 6050 
small blind: 8888 71000 2000 
/seat 
blind/ 
8888: 50 
/blind 
player 8888:hold/ 
HEARTS A 
DIAMONDS 5 
/hold 
player 4444:hold/ 
SPADES 5 
CLUBS 7 
/hold 

---pre flop round bet---
valid player: 2, all in player: 0, fold player: 0
send inquire msg to player 4444 
inquire/ 
8888 70950 2000 50 blind 
total pot: 50 
/inquire 
recv from player 4444: fold 

send inquire msg to player 8888 
inquire/ 
4444 150 6050 0 fold 
8888 70950 2000 50 blind 
total pot: 50 
/inquire 
recv from player 8888: call 


---flop round bet---
valid player: 2, all in player: 0, fold player: 1

---turn round bet---
valid player: 2, all in player: 0, fold player: 1

---river round bet---
valid player: 2, all in player: 0, fold player: 1

----- notify msg last round -----
send notify msg to player 4444 
notify/ 
8888 70950 2000 50 check 
4444 150 6050 0 fold 
total pot: 50 
/notify 
send notify msg to player 8888 
notify/ 
4444 150 6050 0 fold 
8888 70950 2000 50 check 
total pot: 50 
/notify 

--- 1 players not fold, don't need show down---

---Allocate pot---
Only player at seat 0 not fold, win all the pot 50
pot-win/ 
8888: 50 
/pot-win 
it is player 8888's turn to be button

-----83 Hand-----

----- clean player data in socket -----
seat/ 
button: 8888 71000 2000 
small blind: 4444 150 6050 
/seat 
blind/ 
4444: 50 
/blind 
player 4444:hold/ 
CLUBS J 
SPADES Q 
/hold 
player 8888:hold/ 
SPADES J 
HEARTS 6 
/hold 

---pre flop round bet---
valid player: 2, all in player: 0, fold player: 0
send inquire msg to player 8888 
inquire/ 
4444 100 6050 50 blind 
total pot: 50 
/inquire 
recv from player 8888: fold 

send inquire msg to player 4444 
inquire/ 
8888 71000 2000 0 fold 
4444 100 6050 50 blind 
total pot: 50 
/inquire 
recv from player 4444: fold 


---flop round bet---
valid player: 2, all in player: 0, fold player: 2

---turn round bet---
valid player: 2, all in player: 0, fold player: 2

---river round bet---
valid player: 2, all in player: 0, fold player: 2

----- notify msg last round -----
send notify msg to player 8888 
notify/ 
4444 100 6050 50 fold 
8888 71000 2000 0 fold 
total pot: 50 
/notify 
send notify msg to player 4444 
notify/ 
8888 71000 2000 0 fold 
4444 100 6050 50 fold 
total pot: 50 
/notify 

--- 0 players not fold, don't need show down---

---Allocate pot---
pot-win/ 
/pot-win 
it is player 4444's turn to be button

-----84 Hand-----

----- clean player data in socket -----
seat/ 
button: 4444 100 6050 
small blind: 8888 71000 2000 
/seat 
blind/ 
8888: 50 
/blind 
player 8888:hold/ 
DIAMONDS K 
SPADES 2 
/hold 
player 4444:hold/ 
DIAMONDS A 
DIAMONDS 2 
/hold 

---pre flop round bet---
valid player: 2, all in player: 0, fold player: 0
send inquire msg to player 4444 
inquire/ 
8888 70950 2000 50 blind 
total pot: 50 
/inquire 
recv from player 4444: fold 

send inquire msg to player 8888 
inquire/ 
4444 100 6050 0 fold 
8888 70950 2000 50 blind 
total pot: 50 
/inquire 
recv from player 8888: fold 


---flop round bet---
valid player: 2, all in player: 0, fold player: 2

---turn round bet---
valid player: 2, all in player: 0, fold player: 2

---river round bet---
valid player: 2, all in player: 0, fold player: 2

----- notify msg last round -----
send notify msg to player 4444 
notify/ 
8888 70950 2000 50 fold 
4444 100 6050 0 fold 
total pot: 50 
/notify 
send notify msg to player 8888 
notify/ 
4444 100 6050 0 fold 
8888 70950 2000 50 fold 
total pot: 50 
/notify 

--- 0 players not fold, don't need show down---

---Allocate pot---
pot-win/ 
/pot-win 
it is player 8888's turn to be button

-----85 Hand-----

----- clean player data in socket -----
seat/ 
button: 8888 70950 2000 
small blind: 4444 100 6050 
/seat 
blind/ 
4444: 50 
/blind 
player 4444:hold/ 
HEARTS 8 
HEARTS J 
/hold 
player 8888:hold/ 
SPADES 4 
CLUBS 5 
/hold 

---pre flop round bet---
valid player: 2, all in player: 0, fold player: 0
send inquire msg to player 8888 
inquire/ 
4444 50 6050 50 blind 
total pot: 50 
/inquire 
recv from player 8888: fold 

send inquire msg to player 4444 
inquire/ 
8888 70950 2000 0 fold 
4444 50 6050 50 blind 
total pot: 50 
/inquire 
recv from player 4444: fold 


---flop round bet---
valid player: 2, all in player: 0, fold player: 2

---turn round bet---
valid player: 2, all in player: 0, fold player: 2

---river round bet---
valid player: 2, all in player: 0, fold player: 2

----- notify msg last round -----
send notify msg to player 8888 
notify/ 
4444 50 6050 50 fold 
8888 70950 2000 0 fold 
total pot: 50 
/notify 
send notify msg to player 4444 
notify/ 
8888 70950 2000 0 fold 
4444 50 6050 50 fold 
total pot: 50 
/notify 

--- 0 players not fold, don't need show down---

---Allocate pot---
pot-win/ 
/pot-win 
it is player 4444's turn to be button

-----86 Hand-----

----- clean player data in socket -----
seat/ 
button: 4444 2000 4100 
small blind: 8888 70950 2000 
/seat 
blind/ 
8888: 50 
/blind 
player 8888:hold/ 
CLUBS Q 
SPADES A 
/hold 
player 4444:hold/ 
HEARTS 7 
HEARTS 10 
/hold 

---pre flop round bet---
valid player: 2, all in player: 0, fold player: 0
send inquire msg to player 4444 
inquire/ 
8888 70900 2000 50 blind 
total pot: 50 
/inquire 
recv from player 4444: fold 

send inquire msg to player 8888 
inquire/ 
4444 2000 4100 0 fold 
8888 70900 2000 50 blind 
total pot: 50 
/inquire 
recv from player 8888: raise 200 


---flop round bet---
valid player: 2, all in player: 0, fold player: 1

---turn round bet---
valid player: 2, all in player: 0, fold player: 1

---river round bet---
valid player: 2, all in player: 0, fold player: 1

----- notify msg last round -----
send notify msg to player 4444 
notify/ 
8888 70700 2000 250 raise 
4444 2000 4100 0 fold 
total pot: 250 
/notify 
send notify msg to player 8888 
notify/ 
4444 2000 4100 0 fold 
8888 70700 2000 250 raise 
total pot: 250 
/notify 

--- 1 players not fold, don't need show down---

---Allocate pot---
Only player at seat 0 not fold, win all the pot 250
pot-win/ 
8888: 250 
/pot-win 
it is player 8888's turn to be button

-----87 Hand-----

----- clean player data in socket -----
seat/ 
button: 8888 70950 2000 
small blind: 4444 2000 4100 
/seat 
blind/ 
4444: 50 
/blind 
player 4444:hold/ 
HEARTS 9 
HEARTS 4 
/hold 
player 8888:hold/ 
SPADES 7 
CLUBS 5 
/hold 

---pre flop round bet---
valid player: 2, all in player: 0, fold player: 0
send inquire msg to player 8888 
inquire/ 
4444 1950 4100 50 blind 
total pot: 50 
/inquire 
recv from player 8888: fold 

send inquire msg to player 4444 
inquire/ 
8888 70950 2000 0 fold 
4444 1950 4100 50 blind 
total pot: 50 
/inquire 
recv from player 4444: fold 


---flop round bet---
valid player: 2, all in player: 0, fold player: 2

---turn round bet---
valid player: 2, all in player: 0, fold player: 2

---river round bet---
valid player: 2, all in player: 0, fold player: 2

----- notify msg last round -----
send notify msg to player 8888 
notify/ 
4444 1950 4100 50 fold 
8888 70950 2000 0 fold 
total pot: 50 
/notify 
send notify msg to player 4444 
notify/ 
8888 70950 2000 0 fold 
4444 1950 4100 50 fold 
total pot: 50 
/notify 

--- 0 players not fold, don't need show down---

---Allocate pot---
pot-win/ 
/pot-win 
it is player 4444's turn to be button

-----88 Hand-----

----- clean player data in socket -----
seat/ 
button: 4444 1950 4100 
small blind: 8888 70950 2000 
/seat 
blind/ 
8888: 50 
/blind 
player 8888:hold/ 
HEARTS A 
SPADES K 
/hold 
player 4444:hold/ 
HEARTS 2 
HEARTS J 
/hold 

---pre flop round bet---
valid player: 2, all in player: 0, fold player: 0
send inquire msg to player 4444 
inquire/ 
8888 70900 2000 50 blind 
total pot: 50 
/inquire 
recv from player 4444: fold 

send inquire msg to player 8888 
inquire/ 
4444 1950 4100 0 fold 
8888 70900 2000 50 blind 
total pot: 50 
/inquire 
recv from player 8888: raise 200 


---flop round bet---
valid player: 2, all in player: 0, fold player: 1

---turn round bet---
valid player: 2, all in player: 0, fold player: 1

---river round bet---
valid player: 2, all in player: 0, fold player: 1

----- notify msg last round -----
send notify msg to player 4444 
notify/ 
8888 70700 2000 250 raise 
4444 1950 4100 0 fold 
total pot: 250 
/notify 
send notify msg to player 8888 
notify/ 
4444 1950 4100 0 fold 
8888 70700 2000 250 raise 
total pot: 250 
/notify 

--- 1 players not fold, don't need show down---

---Allocate pot---
Only player at seat 0 not fold, win all the pot 250
pot-win/ 
8888: 250 
/pot-win 
it is player 8888's turn to be button

-----89 Hand-----

----- clean player data in socket -----
seat/ 
button: 8888 70950 2000 
small blind: 4444 1950 4100 
/seat 
blind/ 
4444: 50 
/blind 
player 4444:hold/ 
CLUBS J 
SPADES 8 
/hold 
player 8888:hold/ 
SPADES J 
DIAMONDS 8 
/hold 

---pre flop round bet---
valid player: 2, all in player: 0, fold player: 0
send inquire msg to player 8888 
inquire/ 
4444 1900 4100 50 blind 
total pot: 50 
/inquire 
recv from player 8888: call 

send inquire msg to player 4444 
inquire/ 
8888 70900 2000 50 call 
4444 1900 4100 50 blind 
total pot: 100 
/inquire 
recv from player 4444: fold 


---flop round bet---
valid player: 2, all in player: 0, fold player: 1

---turn round bet---
valid player: 2, all in player: 0, fold player: 1

---river round bet---
valid player: 2, all in player: 0, fold player: 1

----- notify msg last round -----
send notify msg to player 8888 
notify/ 
4444 1900 4100 50 fold 
8888 70900 2000 50 call 
total pot: 100 
/notify 
send notify msg to player 4444 
notify/ 
8888 70900 2000 50 call 
4444 1900 4100 50 fold 
total pot: 100 
/notify 

--- 1 players not fold, don't need show down---

---Allocate pot---
Only player at seat 7 not fold, win all the pot 100
pot-win/ 
8888: 100 
/pot-win 
it is player 4444's turn to be button

-----90 Hand-----

----- clean player data in socket -----
seat/ 
button: 4444 1900 4100 
small blind: 8888 71000 2000 
/seat 
blind/ 
8888: 50 
/blind 
player 8888:hold/ 
DIAMONDS 5 
SPADES 8 
/hold 
player 4444:hold/ 
SPADES 10 
HEARTS 5 
/hold 

---pre flop round bet---
valid player: 2, all in player: 0, fold player: 0
send inquire msg to player 4444 
inquire/ 
8888 70950 2000 50 blind 
total pot: 50 
/inquire 
recv from player 4444: fold 

send inquire msg to player 8888 
inquire/ 
4444 1900 4100 0 fold 
8888 70950 2000 50 blind 
total pot: 50 
/inquire 
recv from player 8888: fold 


---flop round bet---
valid player: 2, all in player: 0, fold player: 2

---turn round bet---
valid player: 2, all in player: 0, fold player: 2

---river round bet---
valid player: 2, all in player: 0, fold player: 2

----- notify msg last round -----
send notify msg to player 4444 
notify/ 
8888 70950 2000 50 fold 
4444 1900 4100 0 fold 
total pot: 50 
/notify 
send notify msg to player 8888 
notify/ 
4444 1900 4100 0 fold 
8888 70950 2000 50 fold 
total pot: 50 
/notify 

--- 0 players not fold, don't need show down---

---Allocate pot---
pot-win/ 
/pot-win 
it is player 8888's turn to be button

-----91 Hand-----

----- clean player data in socket -----
seat/ 
button: 8888 70950 2000 
small blind: 4444 1900 4100 
/seat 
blind/ 
4444: 50 
/blind 
player 4444:hold/ 
HEARTS J 
DIAMONDS 8 
/hold 
player 8888:hold/ 
CLUBS 4 
SPADES A 
/hold 

---pre flop round bet---
valid player: 2, all in player: 0, fold player: 0
send inquire msg to player 8888 
inquire/ 
4444 1850 4100 50 blind 
total pot: 50 
/inquire 
recv from player 8888: call 

send inquire msg to player 4444 
inquire/ 
8888 70900 2000 50 call 
4444 1850 4100 50 blind 
total pot: 100 
/inquire 
recv from player 4444: fold 


---flop round bet---
valid player: 2, all in player: 0, fold player: 1

---turn round bet---
valid player: 2, all in player: 0, fold player: 1

---river round bet---
valid player: 2, all in player: 0, fold player: 1

----- notify msg last round -----
send notify msg to player 8888 
notify/ 
4444 1850 4100 50 fold 
8888 70900 2000 50 call 
total pot: 100 
/notify 
send notify msg to player 4444 
notify/ 
8888 70900 2000 50 call 
4444 1850 4100 50 fold 
total pot: 100 
/notify 

--- 1 players not fold, don't need show down---

---Allocate pot---
Only player at seat 7 not fold, win all the pot 100
pot-win/ 
8888: 100 
/pot-win 
it is player 4444's turn to be button

-----92 Hand-----

----- clean player data in socket -----
seat/ 
button: 4444 1850 4100 
small blind: 8888 71000 2000 
/seat 
blind/ 
8888: 50 
/blind 
player 8888:hold/ 
CLUBS 4 
DIAMONDS A 
/hold 
player 4444:hold/ 
SPADES J 
CLUBS 6 
/hold 

---pre flop round bet---
valid player: 2, all in player: 0, fold player: 0
send inquire msg to player 4444 
inquire/ 
8888 70950 2000 50 blind 
total pot: 50 
/inquire 
recv from player 4444: fold 

send inquire msg to player 8888 
inquire/ 
4444 1850 4100 0 fold 
8888 70950 2000 50 blind 
total pot: 50 
/inquire 
recv from player 8888: call 


---flop round bet---
valid player: 2, all in player: 0, fold player: 1

---turn round bet---
valid player: 2, all in player: 0, fold player: 1

---river round bet---
valid player: 2, all in player: 0, fold player: 1

----- notify msg last round -----
send notify msg to player 4444 
notify/ 
8888 70950 2000 50 check 
4444 1850 4100 0 fold 
total pot: 50 
/notify 
send notify msg to player 8888 
notify/ 
4444 1850 4100 0 fold 
8888 70950 2000 50 check 
total pot: 50 
/notify 

--- 1 players not fold, don't need show down---

---Allocate pot---
Only player at seat 0 not fold, win all the pot 50
pot-win/ 
8888: 50 
/pot-win 
it is player 8888's turn to be button

-----93 Hand-----

----- clean player data in socket -----
seat/ 
button: 8888 71000 2000 
small blind: 4444 1850 4100 
/seat 
blind/ 
4444: 50 
/blind 
player 4444:hold/ 
HEARTS 5 
CLUBS Q 
/hold 
player 8888:hold/ 
DIAMONDS 5 
HEARTS 4 
/hold 

---pre flop round bet---
valid player: 2, all in player: 0, fold player: 0
send inquire msg to player 8888 
inquire/ 
4444 1800 4100 50 blind 
total pot: 50 
/inquire 
recv from player 8888: fold 

send inquire msg to player 4444 
inquire/ 
8888 71000 2000 0 fold 
4444 1800 4100 50 blind 
total pot: 50 
/inquire 
recv from player 4444: fold 


---flop round bet---
valid player: 2, all in player: 0, fold player: 2

---turn round bet---
valid player: 2, all in player: 0, fold player: 2

---river round bet---
valid player: 2, all in player: 0, fold player: 2

----- notify msg last round -----
send notify msg to player 8888 
notify/ 
4444 1800 4100 50 fold 
8888 71000 2000 0 fold 
total pot: 50 
/notify 
send notify msg to player 4444 
notify/ 
8888 71000 2000 0 fold 
4444 1800 4100 50 fold 
total pot: 50 
/notify 

--- 0 players not fold, don't need show down---

---Allocate pot---
pot-win/ 
/pot-win 
it is player 4444's turn to be button

-----94 Hand-----

----- clean player data in socket -----
seat/ 
button: 4444 1800 4100 
small blind: 8888 71000 2000 
/seat 
blind/ 
8888: 50 
/blind 
player 8888:hold/ 
HEARTS K 
CLUBS A 
/hold 
player 4444:hold/ 
HEARTS A 
DIAMONDS 7 
/hold 

---pre flop round bet---
valid player: 2, all in player: 0, fold player: 0
send inquire msg to player 4444 
inquire/ 
8888 70950 2000 50 blind 
total pot: 50 
/inquire 
recv from player 4444: fold 

send inquire msg to player 8888 
inquire/ 
4444 1800 4100 0 fold 
8888 70950 2000 50 blind 
total pot: 50 
/inquire 
recv from player 8888: raise 200 


---flop round bet---
valid player: 2, all in player: 0, fold player: 1

---turn round bet---
valid player: 2, all in player: 0, fold player: 1

---river round bet---
valid player: 2, all in player: 0, fold player: 1

----- notify msg last round -----
send notify msg to player 4444 
notify/ 
8888 70750 2000 250 raise 
4444 1800 4100 0 fold 
total pot: 250 
/notify 
send notify msg to player 8888 
notify/ 
4444 1800 4100 0 fold 
8888 70750 2000 250 raise 
total pot: 250 
/notify 

--- 1 players not fold, don't need show down---

---Allocate pot---
Only player at seat 0 not fold, win all the pot 250
pot-win/ 
8888: 250 
/pot-win 
it is player 8888's turn to be button

-----95 Hand-----

----- clean player data in socket -----
seat/ 
button: 8888 71000 2000 
small blind: 4444 1800 4100 
/seat 
blind/ 
4444: 50 
/blind 
player 4444:hold/ 
SPADES 10 
CLUBS A 
/hold 
player 8888:hold/ 
CLUBS 4 
CLUBS 8 
/hold 

---pre flop round bet---
valid player: 2, all in player: 0, fold player: 0
send inquire msg to player 8888 
inquire/ 
4444 1750 4100 50 blind 
total pot: 50 
/inquire 
recv from player 8888: fold 

send inquire msg to player 4444 
inquire/ 
8888 71000 2000 0 fold 
4444 1750 4100 50 blind 
total pot: 50 
/inquire 
recv from player 4444: fold 


---flop round bet---
valid player: 2, all in player: 0, fold player: 2

---turn round bet---
valid player: 2, all in player: 0, fold player: 2

---river round bet---
valid player: 2, all in player: 0, fold player: 2

----- notify msg last round -----
send notify msg to player 8888 
notify/ 
4444 1750 4100 50 fold 
8888 71000 2000 0 fold 
total pot: 50 
/notify 
send notify msg to player 4444 
notify/ 
8888 71000 2000 0 fold 
4444 1750 4100 50 fold 
total pot: 50 
/notify 

--- 0 players not fold, don't need show down---

---Allocate pot---
pot-win/ 
/pot-win 
it is player 4444's turn to be button

-----96 Hand-----

----- clean player data in socket -----
seat/ 
button: 4444 1750 4100 
small blind: 8888 71000 2000 
/seat 
blind/ 
8888: 50 
/blind 
player 8888:hold/ 
CLUBS Q 
HEARTS 3 
/hold 
player 4444:hold/ 
CLUBS 2 
DIAMONDS 3 
/hold 

---pre flop round bet---
valid player: 2, all in player: 0, fold player: 0
send inquire msg to player 4444 
inquire/ 
8888 70950 2000 50 blind 
total pot: 50 
/inquire 
recv from player 4444: fold 

send inquire msg to player 8888 
inquire/ 
4444 1750 4100 0 fold 
8888 70950 2000 50 blind 
total pot: 50 
/inquire 
recv from player 8888: fold 


---flop round bet---
valid player: 2, all in player: 0, fold player: 2

---turn round bet---
valid player: 2, all in player: 0, fold player: 2

---river round bet---
valid player: 2, all in player: 0, fold player: 2

----- notify msg last round -----
send notify msg to player 4444 
notify/ 
8888 70950 2000 50 fold 
4444 1750 4100 0 fold 
total pot: 50 
/notify 
send notify msg to player 8888 
notify/ 
4444 1750 4100 0 fold 
8888 70950 2000 50 fold 
total pot: 50 
/notify 

--- 0 players not fold, don't need show down---

---Allocate pot---
pot-win/ 
/pot-win 
it is player 8888's turn to be button

-----97 Hand-----

----- clean player data in socket -----
seat/ 
button: 8888 70950 2000 
small blind: 4444 1750 4100 
/seat 
blind/ 
4444: 50 
/blind 
player 4444:hold/ 
SPADES 5 
DIAMONDS Q 
/hold 
player 8888:hold/ 
HEARTS A 
DIAMONDS 3 
/hold 

---pre flop round bet---
valid player: 2, all in player: 0, fold player: 0
send inquire msg to player 8888 
inquire/ 
4444 1700 4100 50 blind 
total pot: 50 
/inquire 
recv from player 8888: fold 

send inquire msg to player 4444 
inquire/ 
8888 70950 2000 0 fold 
4444 1700 4100 50 blind 
total pot: 50 
/inquire 
recv from player 4444: fold 


---flop round bet---
valid player: 2, all in player: 0, fold player: 2

---turn round bet---
valid player: 2, all in player: 0, fold player: 2

---river round bet---
valid player: 2, all in player: 0, fold player: 2

----- notify msg last round -----
send notify msg to player 8888 
notify/ 
4444 1700 4100 50 fold 
8888 70950 2000 0 fold 
total pot: 50 
/notify 
send notify msg to player 4444 
notify/ 
8888 70950 2000 0 fold 
4444 1700 4100 50 fold 
total pot: 50 
/notify 

--- 0 players not fold, don't need show down---

---Allocate pot---
pot-win/ 
/pot-win 
it is player 4444's turn to be button

-----98 Hand-----

----- clean player data in socket -----
seat/ 
button: 4444 1700 4100 
small blind: 8888 70950 2000 
/seat 
blind/ 
8888: 50 
/blind 
player 8888:hold/ 
SPADES K 
CLUBS A 
/hold 
player 4444:hold/ 
DIAMONDS 7 
SPADES A 
/hold 

---pre flop round bet---
valid player: 2, all in player: 0, fold player: 0
send inquire msg to player 4444 
inquire/ 
8888 70900 2000 50 blind 
total pot: 50 
/inquire 
recv from player 4444: fold 

send inquire msg to player 8888 
inquire/ 
4444 1700 4100 0 fold 
8888 70900 2000 50 blind 
total pot: 50 
/inquire 
recv from player 8888: raise 200 


---flop round bet---
valid player: 2, all in player: 0, fold player: 1

---turn round bet---
valid player: 2, all in player: 0, fold player: 1

---river round bet---
valid player: 2, all in player: 0, fold player: 1

----- notify msg last round -----
send notify msg to player 4444 
notify/ 
8888 70700 2000 250 raise 
4444 1700 4100 0 fold 
total pot: 250 
/notify 
send notify msg to player 8888 
notify/ 
4444 1700 4100 0 fold 
8888 70700 2000 250 raise 
total pot: 250 
/notify 

--- 1 players not fold, don't need show down---

---Allocate pot---
Only player at seat 0 not fold, win all the pot 250
pot-win/ 
8888: 250 
/pot-win 
it is player 8888's turn to be button

-----99 Hand-----

----- clean player data in socket -----
seat/ 
button: 8888 70950 2000 
small blind: 4444 1700 4100 
/seat 
blind/ 
4444: 50 
/blind 
player 4444:hold/ 
DIAMONDS 10 
SPADES 9 
/hold 
player 8888:hold/ 
HEARTS 2 
DIAMONDS 9 
/hold 

---pre flop round bet---
valid player: 2, all in player: 0, fold player: 0
send inquire msg to player 8888 
inquire/ 
4444 1650 4100 50 blind 
total pot: 50 
/inquire 
recv from player 8888: fold 

send inquire msg to player 4444 
inquire/ 
8888 70950 2000 0 fold 
4444 1650 4100 50 blind 
total pot: 50 
/inquire 
recv from player 4444: fold 


---flop round bet---
valid player: 2, all in player: 0, fold player: 2

---turn round bet---
valid player: 2, all in player: 0, fold player: 2

---river round bet---
valid player: 2, all in player: 0, fold player: 2

----- notify msg last round -----
send notify msg to player 8888 
notify/ 
4444 1650 4100 50 fold 
8888 70950 2000 0 fold 
total pot: 50 
/notify 
send notify msg to player 4444 
notify/ 
8888 70950 2000 0 fold 
4444 1650 4100 50 fold 
total pot: 50 
/notify 

--- 0 players not fold, don't need show down---

---Allocate pot---
pot-win/ 
/pot-win 
it is player 4444's turn to be button

-----100 Hand-----

----- clean player data in socket -----
seat/ 
button: 4444 1650 4100 
small blind: 8888 70950 2000 
/seat 
blind/ 
8888: 50 
/blind 
player 8888:hold/ 
DIAMONDS 4 
DIAMONDS 6 
/hold 
player 4444:hold/ 
DIAMONDS 2 
DIAMONDS 7 
/hold 

---pre flop round bet---
valid player: 2, all in player: 0, fold player: 0
send inquire msg to player 4444 
inquire/ 
8888 70900 2000 50 blind 
total pot: 50 
/inquire 
recv from player 4444: fold 

send inquire msg to player 8888 
inquire/ 
4444 1650 4100 0 fold 
8888 70900 2000 50 blind 
total pot: 50 
/inquire 
recv from player 8888: fold 


---flop round bet---
valid player: 2, all in player: 0, fold player: 2

---turn round bet---
valid player: 2, all in player: 0, fold player: 2

---river round bet---
valid player: 2, all in player: 0, fold player: 2

----- notify msg last round -----
send notify msg to player 4444 
notify/ 
8888 70900 2000 50 fold 
4444 1650 4100 0 fold 
total pot: 50 
/notify 
send notify msg to player 8888 
notify/ 
4444 1650 4100 0 fold 
8888 70900 2000 50 fold 
total pot: 50 
/notify 

--- 0 players not fold, don't need show down---

---Allocate pot---
pot-win/ 
/pot-win 
it is player 8888's turn to be button

-----101 Hand-----

----- clean player data in socket -----
seat/ 
button: 8888 70900 2000 
small blind: 4444 1650 4100 
/seat 
blind/ 
4444: 50 
/blind 
player 4444:hold/ 
DIAMONDS 2 
DIAMONDS 8 
/hold 
player 8888:hold/ 
CLUBS 7 
DIAMONDS 5 
/hold 

---pre flop round bet---
valid player: 2, all in player: 0, fold player: 0
send inquire msg to player 8888 
inquire/ 
4444 1600 4100 50 blind 
total pot: 50 
/inquire 
recv from player 8888: fold 

send inquire msg to player 4444 
inquire/ 
8888 70900 2000 0 fold 
4444 1600 4100 50 blind 
total pot: 50 
/inquire 
recv from player 4444: fold 


---flop round bet---
valid player: 2, all in player: 0, fold player: 2

---turn round bet---
valid player: 2, all in player: 0, fold player: 2

---river round bet---
valid player: 2, all in player: 0, fold player: 2

----- notify msg last round -----
send notify msg to player 8888 
notify/ 
4444 1600 4100 50 fold 
8888 70900 2000 0 fold 
total pot: 50 
/notify 
send notify msg to player 4444 
notify/ 
8888 70900 2000 0 fold 
4444 1600 4100 50 fold 
total pot: 50 
/notify 

--- 0 players not fold, don't need show down---

---Allocate pot---
pot-win/ 
/pot-win 
it is player 4444's turn to be button

-----102 Hand-----

----- clean player data in socket -----
seat/ 
button: 4444 1600 4100 
small blind: 8888 70900 2000 
/seat 
blind/ 
8888: 50 
/blind 
player 8888:hold/ 
SPADES K 
DIAMONDS 6 
/hold 
player 4444:hold/ 
HEARTS K 
HEARTS 8 
/hold 

---pre flop round bet---
valid player: 2, all in player: 0, fold player: 0
send inquire msg to player 4444 
inquire/ 
8888 70850 2000 50 blind 
total pot: 50 
/inquire 
recv from player 4444: fold 

send inquire msg to player 8888 
inquire/ 
4444 1600 4100 0 fold 
8888 70850 2000 50 blind 
total pot: 50 
/inquire 
recv from player 8888: call 


---flop round bet---
valid player: 2, all in player: 0, fold player: 1

---turn round bet---
valid player: 2, all in player: 0, fold player: 1

---river round bet---
valid player: 2, all in player: 0, fold player: 1

----- notify msg last round -----
send notify msg to player 4444 
notify/ 
8888 70850 2000 50 check 
4444 1600 4100 0 fold 
total pot: 50 
/notify 
send notify msg to player 8888 
notify/ 
4444 1600 4100 0 fold 
8888 70850 2000 50 check 
total pot: 50 
/notify 

--- 1 players not fold, don't need show down---

---Allocate pot---
Only player at seat 0 not fold, win all the pot 50
pot-win/ 
8888: 50 
/pot-win 
it is player 8888's turn to be button

-----103 Hand-----

----- clean player data in socket -----
seat/ 
button: 8888 70900 2000 
small blind: 4444 1600 4100 
/seat 
blind/ 
4444: 50 
/blind 
player 4444:hold/ 
HEARTS 4 
SPADES Q 
/hold 
player 8888:hold/ 
HEARTS 9 
HEARTS K 
/hold 

---pre flop round bet---
valid player: 2, all in player: 0, fold player: 0
send inquire msg to player 8888 
inquire/ 
4444 1550 4100 50 blind 
total pot: 50 
/inquire 
recv from player 8888: call 

send inquire msg to player 4444 
inquire/ 
8888 70850 2000 50 call 
4444 1550 4100 50 blind 
total pot: 100 
/inquire 
recv from player 4444: fold 


---flop round bet---
valid player: 2, all in player: 0, fold player: 1

---turn round bet---
valid player: 2, all in player: 0, fold player: 1

---river round bet---
valid player: 2, all in player: 0, fold player: 1

----- notify msg last round -----
send notify msg to player 8888 
notify/ 
4444 1550 4100 50 fold 
8888 70850 2000 50 call 
total pot: 100 
/notify 
send notify msg to player 4444 
notify/ 
8888 70850 2000 50 call 
4444 1550 4100 50 fold 
total pot: 100 
/notify 

--- 1 players not fold, don't need show down---

---Allocate pot---
Only player at seat 7 not fold, win all the pot 100
pot-win/ 
8888: 100 
/pot-win 
it is player 4444's turn to be button

-----104 Hand-----

----- clean player data in socket -----
seat/ 
button: 4444 1550 4100 
small blind: 8888 70950 2000 
/seat 
blind/ 
8888: 50 
/blind 
player 8888:hold/ 
DIAMONDS 4 
SPADES 4 
/hold 
player 4444:hold/ 
HEARTS 2 
SPADES 7 
/hold 

---pre flop round bet---
valid player: 2, all in player: 0, fold player: 0
send inquire msg to player 4444 
inquire/ 
8888 70900 2000 50 blind 
total pot: 50 
/inquire 
recv from player 4444: fold 

send inquire msg to player 8888 
inquire/ 
4444 1550 4100 0 fold 
8888 70900 2000 50 blind 
total pot: 50 
/inquire 
recv from player 8888: call 


---flop round bet---
valid player: 2, all in player: 0, fold player: 1

---turn round bet---
valid player: 2, all in player: 0, fold player: 1

---river round bet---
valid player: 2, all in player: 0, fold player: 1

----- notify msg last round -----
send notify msg to player 4444 
notify/ 
8888 70900 2000 50 check 
4444 1550 4100 0 fold 
total pot: 50 
/notify 
send notify msg to player 8888 
notify/ 
4444 1550 4100 0 fold 
8888 70900 2000 50 check 
total pot: 50 
/notify 

--- 1 players not fold, don't need show down---

---Allocate pot---
Only player at seat 0 not fold, win all the pot 50
pot-win/ 
8888: 50 
/pot-win 
it is player 8888's turn to be button

-----105 Hand-----

----- clean player data in socket -----
seat/ 
button: 8888 70950 2000 
small blind: 4444 1550 4100 
/seat 
blind/ 
4444: 50 
/blind 
player 4444:hold/ 
DIAMONDS 5 
CLUBS 4 
/hold 
player 8888:hold/ 
HEARTS J 
SPADES J 
/hold 

---pre flop round bet---
valid player: 2, all in player: 0, fold player: 0
send inquire msg to player 8888 
inquire/ 
4444 1500 4100 50 blind 
total pot: 50 
/inquire 
recv from player 8888: raise 200 

send inquire msg to player 4444 
inquire/ 
8888 70700 2000 250 raise 
4444 1500 4100 50 blind 
total pot: 300 
/inquire 
recv from player 4444: fold 


---flop round bet---
valid player: 2, all in player: 0, fold player: 1

---turn round bet---
valid player: 2, all in player: 0, fold player: 1

---river round bet---
valid player: 2, all in player: 0, fold player: 1

----- notify msg last round -----
send notify msg to player 8888 
notify/ 
4444 1500 4100 50 fold 
8888 70700 2000 250 raise 
total pot: 300 
/notify 
send notify msg to player 4444 
notify/ 
8888 70700 2000 250 raise 
4444 1500 4100 50 fold 
total pot: 300 
/notify 

--- 1 players not fold, don't need show down---

---Allocate pot---
Only player at seat 7 not fold, win all the pot 300
pot-win/ 
8888: 300 
/pot-win 
it is player 4444's turn to be button

-----106 Hand-----

----- clean player data in socket -----
seat/ 
button: 4444 1500 4100 
small blind: 8888 71000 2000 
/seat 
blind/ 
8888: 50 
/blind 
player 8888:hold/ 
DIAMONDS K 
DIAMONDS A 
/hold 
player 4444:hold/ 
SPADES Q 
HEARTS 4 
/hold 

---pre flop round bet---
valid player: 2, all in player: 0, fold player: 0
send inquire msg to player 4444 
inquire/ 
8888 70950 2000 50 blind 
total pot: 50 
/inquire 
recv from player 4444: fold 

send inquire msg to player 8888 
inquire/ 
4444 1500 4100 0 fold 
8888 70950 2000 50 blind 
total pot: 50 
/inquire 
recv from player 8888: raise 200 


---flop round bet---
valid player: 2, all in player: 0, fold player: 1

---turn round bet---
valid player: 2, all in player: 0, fold player: 1

---river round bet---
valid player: 2, all in player: 0, fold player: 1

----- notify msg last round -----
send notify msg to player 4444 
notify/ 
8888 70750 2000 250 raise 
4444 1500 4100 0 fold 
total pot: 250 
/notify 
send notify msg to player 8888 
notify/ 
4444 1500 4100 0 fold 
8888 70750 2000 250 raise 
total pot: 250 
/notify 

--- 1 players not fold, don't need show down---

---Allocate pot---
Only player at seat 0 not fold, win all the pot 250
pot-win/ 
8888: 250 
/pot-win 
it is player 8888's turn to be button

-----107 Hand-----

----- clean player data in socket -----
seat/ 
button: 8888 71000 2000 
small blind: 4444 1500 4100 
/seat 
blind/ 
4444: 50 
/blind 
player 4444:hold/ 
SPADES Q 
CLUBS K 
/hold 
player 8888:hold/ 
DIAMONDS 10 
HEARTS A 
/hold 

---pre flop round bet---
valid player: 2, all in player: 0, fold player: 0
send inquire msg to player 8888 
inquire/ 
4444 1450 4100 50 blind 
total pot: 50 
/inquire 
recv from player 8888: call 

send inquire msg to player 4444 
inquire/ 
8888 70950 2000 50 call 
4444 1450 4100 50 blind 
total pot: 100 
/inquire 
recv from player 4444: fold 


---flop round bet---
valid player: 2, all in player: 0, fold player: 1

---turn round bet---
valid player: 2, all in player: 0, fold player: 1

---river round bet---
valid player: 2, all in player: 0, fold player: 1

----- notify msg last round -----
send notify msg to player 8888 
notify/ 
4444 1450 4100 50 fold 
8888 70950 2000 50 call 
total pot: 100 
/notify 
send notify msg to player 4444 
notify/ 
8888 70950 2000 50 call 
4444 1450 4100 50 fold 
total pot: 100 
/notify 

--- 1 players not fold, don't need show down---

---Allocate pot---
Only player at seat 7 not fold, win all the pot 100
pot-win/ 
8888: 100 
/pot-win 
it is player 4444's turn to be button

-----108 Hand-----

----- clean player data in socket -----
seat/ 
button: 4444 1450 4100 
small blind: 8888 71050 2000 
/seat 
blind/ 
8888: 50 
/blind 
player 8888:hold/ 
HEARTS 8 
SPADES Q 
/hold 
player 4444:hold/ 
HEARTS A 
DIAMONDS 2 
/hold 

---pre flop round bet---
valid player: 2, all in player: 0, fold player: 0
send inquire msg to player 4444 
inquire/ 
8888 71000 2000 50 blind 
total pot: 50 
/inquire 
recv from player 4444: fold 

send inquire msg to player 8888 
inquire/ 
4444 1450 4100 0 fold 
8888 71000 2000 50 blind 
total pot: 50 
/inquire 
recv from player 8888: call 


---flop round bet---
valid player: 2, all in player: 0, fold player: 1

---turn round bet---
valid player: 2, all in player: 0, fold player: 1

---river round bet---
valid player: 2, all in player: 0, fold player: 1

----- notify msg last round -----
send notify msg to player 4444 
notify/ 
8888 71000 2000 50 check 
4444 1450 4100 0 fold 
total pot: 50 
/notify 
send notify msg to player 8888 
notify/ 
4444 1450 4100 0 fold 
8888 71000 2000 50 check 
total pot: 50 
/notify 

--- 1 players not fold, don't need show down---

---Allocate pot---
Only player at seat 0 not fold, win all the pot 50
pot-win/ 
8888: 50 
/pot-win 
it is player 8888's turn to be button

-----109 Hand-----

----- clean player data in socket -----
seat/ 
button: 8888 71050 2000 
small blind: 4444 1450 4100 
/seat 
blind/ 
4444: 50 
/blind 
player 4444:hold/ 
HEARTS 2 
HEARTS J 
/hold 
player 8888:hold/ 
DIAMONDS 5 
HEARTS 4 
/hold 

---pre flop round bet---
valid player: 2, all in player: 0, fold player: 0
send inquire msg to player 8888 
inquire/ 
4444 1400 4100 50 blind 
total pot: 50 
/inquire 
recv from player 8888: fold 

send inquire msg to player 4444 
inquire/ 
8888 71050 2000 0 fold 
4444 1400 4100 50 blind 
total pot: 50 
/inquire 
recv from player 4444: fold 


---flop round bet---
valid player: 2, all in player: 0, fold player: 2

---turn round bet---
valid player: 2, all in player: 0, fold player: 2

---river round bet---
valid player: 2, all in player: 0, fold player: 2

----- notify msg last round -----
send notify msg to player 8888 
notify/ 
4444 1400 4100 50 fold 
8888 71050 2000 0 fold 
total pot: 50 
/notify 
send notify msg to player 4444 
notify/ 
8888 71050 2000 0 fold 
4444 1400 4100 50 fold 
total pot: 50 
/notify 

--- 0 players not fold, don't need show down---

---Allocate pot---
pot-win/ 
/pot-win 
it is player 4444's turn to be button

-----110 Hand-----

----- clean player data in socket -----
seat/ 
button: 4444 1400 4100 
small blind: 8888 71050 2000 
/seat 
blind/ 
8888: 50 
/blind 
player 8888:hold/ 
CLUBS A 
CLUBS 8 
/hold 
player 4444:hold/ 
DIAMONDS 9 
CLUBS 9 
/hold 

---pre flop round bet---
valid player: 2, all in player: 0, fold player: 0
send inquire msg to player 4444 
inquire/ 
8888 71000 2000 50 blind 
total pot: 50 
/inquire 
recv from player 4444: fold 

send inquire msg to player 8888 
inquire/ 
4444 1400 4100 0 fold 
8888 71000 2000 50 blind 
total pot: 50 
/inquire 
recv from player 8888: call 


---flop round bet---
valid player: 2, all in player: 0, fold player: 1

---turn round bet---
valid player: 2, all in player: 0, fold player: 1

---river round bet---
valid player: 2, all in player: 0, fold player: 1

----- notify msg last round -----
send notify msg to player 4444 
notify/ 
8888 71000 2000 50 check 
4444 1400 4100 0 fold 
total pot: 50 
/notify 
send notify msg to player 8888 
notify/ 
4444 1400 4100 0 fold 
8888 71000 2000 50 check 
total pot: 50 
/notify 

--- 1 players not fold, don't need show down---

---Allocate pot---
Only player at seat 0 not fold, win all the pot 50
pot-win/ 
8888: 50 
/pot-win 
it is player 8888's turn to be button

-----111 Hand-----

----- clean player data in socket -----
seat/ 
button: 8888 71050 2000 
small blind: 4444 1400 4100 
/seat 
blind/ 
4444: 50 
/blind 
player 4444:hold/ 
CLUBS 5 
DIAMONDS K 
/hold 
player 8888:hold/ 
CLUBS J 
SPADES 8 
/hold 

---pre flop round bet---
valid player: 2, all in player: 0, fold player: 0
send inquire msg to player 8888 
inquire/ 
4444 1350 4100 50 blind 
total pot: 50 
/inquire 
recv from player 8888: call 

send inquire msg to player 4444 
inquire/ 
8888 71000 2000 50 call 
4444 1350 4100 50 blind 
total pot: 100 
/inquire 
recv from player 4444: fold 


---flop round bet---
valid player: 2, all in player: 0, fold player: 1

---turn round bet---
valid player: 2, all in player: 0, fold player: 1

---river round bet---
valid player: 2, all in player: 0, fold player: 1

----- notify msg last round -----
send notify msg to player 8888 
notify/ 
4444 1350 4100 50 fold 
8888 71000 2000 50 call 
total pot: 100 
/notify 
send notify msg to player 4444 
notify/ 
8888 71000 2000 50 call 
4444 1350 4100 50 fold 
total pot: 100 
/notify 

--- 1 players not fold, don't need show down---

---Allocate pot---
Only player at seat 7 not fold, win all the pot 100
pot-win/ 
8888: 100 
/pot-win 
it is player 4444's turn to be button

-----112 Hand-----

----- clean player data in socket -----
seat/ 
button: 4444 1350 4100 
small blind: 8888 71100 2000 
/seat 
blind/ 
8888: 50 
/blind 
player 8888:hold/ 
DIAMONDS 5 
HEARTS 3 
/hold 
player 4444:hold/ 
DIAMONDS 3 
DIAMONDS J 
/hold 

---pre flop round bet---
valid player: 2, all in player: 0, fold player: 0
send inquire msg to player 4444 
inquire/ 
8888 71050 2000 50 blind 
total pot: 50 
/inquire 
recv from player 4444: fold 

send inquire msg to player 8888 
inquire/ 
4444 1350 4100 0 fold 
8888 71050 2000 50 blind 
total pot: 50 
/inquire 
recv from player 8888: fold 


---flop round bet---
valid player: 2, all in player: 0, fold player: 2

---turn round bet---
valid player: 2, all in player: 0, fold player: 2

---river round bet---
valid player: 2, all in player: 0, fold player: 2

----- notify msg last round -----
send notify msg to player 4444 
notify/ 
8888 71050 2000 50 fold 
4444 1350 4100 0 fold 
total pot: 50 
/notify 
send notify msg to player 8888 
notify/ 
4444 1350 4100 0 fold 
8888 71050 2000 50 fold 
total pot: 50 
/notify 

--- 0 players not fold, don't need show down---

---Allocate pot---
pot-win/ 
/pot-win 
it is player 8888's turn to be button

-----113 Hand-----

----- clean player data in socket -----
seat/ 
button: 8888 71050 2000 
small blind: 4444 1350 4100 
/seat 
blind/ 
4444: 50 
/blind 
player 4444:hold/ 
SPADES 4 
DIAMONDS K 
/hold 
player 8888:hold/ 
CLUBS 7 
HEARTS A 
/hold 

---pre flop round bet---
valid player: 2, all in player: 0, fold player: 0
send inquire msg to player 8888 
inquire/ 
4444 1300 4100 50 blind 
total pot: 50 
/inquire 
recv from player 8888: call 

send inquire msg to player 4444 
inquire/ 
8888 71000 2000 50 call 
4444 1300 4100 50 blind 
total pot: 100 
/inquire 
recv from player 4444: fold 


---flop round bet---
valid player: 2, all in player: 0, fold player: 1

---turn round bet---
valid player: 2, all in player: 0, fold player: 1

---river round bet---
valid player: 2, all in player: 0, fold player: 1

----- notify msg last round -----
send notify msg to player 8888 
notify/ 
4444 1300 4100 50 fold 
8888 71000 2000 50 call 
total pot: 100 
/notify 
send notify msg to player 4444 
notify/ 
8888 71000 2000 50 call 
4444 1300 4100 50 fold 
total pot: 100 
/notify 

--- 1 players not fold, don't need show down---

---Allocate pot---
Only player at seat 7 not fold, win all the pot 100
pot-win/ 
8888: 100 
/pot-win 
it is player 4444's turn to be button

-----114 Hand-----

----- clean player data in socket -----
seat/ 
button: 4444 1300 4100 
small blind: 8888 71100 2000 
/seat 
blind/ 
8888: 50 
/blind 
player 8888:hold/ 
CLUBS 10 
SPADES A 
/hold 
player 4444:hold/ 
SPADES Q 
DIAMONDS 2 
/hold 

---pre flop round bet---
valid player: 2, all in player: 0, fold player: 0
send inquire msg to player 4444 
inquire/ 
8888 71050 2000 50 blind 
total pot: 50 
/inquire 
recv from player 4444: fold 

send inquire msg to player 8888 
inquire/ 
4444 1300 4100 0 fold 
8888 71050 2000 50 blind 
total pot: 50 
/inquire 
recv from player 8888: call 


---flop round bet---
valid player: 2, all in player: 0, fold player: 1

---turn round bet---
valid player: 2, all in player: 0, fold player: 1

---river round bet---
valid player: 2, all in player: 0, fold player: 1

----- notify msg last round -----
send notify msg to player 4444 
notify/ 
8888 71050 2000 50 check 
4444 1300 4100 0 fold 
total pot: 50 
/notify 
send notify msg to player 8888 
notify/ 
4444 1300 4100 0 fold 
8888 71050 2000 50 check 
total pot: 50 
/notify 

--- 1 players not fold, don't need show down---

---Allocate pot---
Only player at seat 0 not fold, win all the pot 50
pot-win/ 
8888: 50 
/pot-win 
it is player 8888's turn to be button

-----115 Hand-----

----- clean player data in socket -----
seat/ 
button: 8888 71100 2000 
small blind: 4444 1300 4100 
/seat 
blind/ 
4444: 50 
/blind 
player 4444:hold/ 
SPADES 7 
DIAMONDS J 
/hold 
player 8888:hold/ 
SPADES 3 
SPADES 8 
/hold 

---pre flop round bet---
valid player: 2, all in player: 0, fold player: 0
send inquire msg to player 8888 
inquire/ 
4444 1250 4100 50 blind 
total pot: 50 
/inquire 
recv from player 8888: fold 

send inquire msg to player 4444 
inquire/ 
8888 71100 2000 0 fold 
4444 1250 4100 50 blind 
total pot: 50 
/inquire 
recv from player 4444: fold 


---flop round bet---
valid player: 2, all in player: 0, fold player: 2

---turn round bet---
valid player: 2, all in player: 0, fold player: 2

---river round bet---
valid player: 2, all in player: 0, fold player: 2

----- notify msg last round -----
send notify msg to player 8888 
notify/ 
4444 1250 4100 50 fold 
8888 71100 2000 0 fold 
total pot: 50 
/notify 
send notify msg to player 4444 
notify/ 
8888 71100 2000 0 fold 
4444 1250 4100 50 fold 
total pot: 50 
/notify 

--- 0 players not fold, don't need show down---

---Allocate pot---
pot-win/ 
/pot-win 
it is player 4444's turn to be button

-----116 Hand-----

----- clean player data in socket -----
seat/ 
button: 4444 1250 4100 
small blind: 8888 71100 2000 
/seat 
blind/ 
8888: 50 
/blind 
player 8888:hold/ 
HEARTS 3 
HEARTS 5 
/hold 
player 4444:hold/ 
SPADES J 
SPADES K 
/hold 

---pre flop round bet---
valid player: 2, all in player: 0, fold player: 0
send inquire msg to player 4444 
inquire/ 
8888 71050 2000 50 blind 
total pot: 50 
/inquire 
recv from player 4444: fold 

send inquire msg to player 8888 
inquire/ 
4444 1250 4100 0 fold 
8888 71050 2000 50 blind 
total pot: 50 
/inquire 
recv from player 8888: fold 


---flop round bet---
valid player: 2, all in player: 0, fold player: 2

---turn round bet---
valid player: 2, all in player: 0, fold player: 2

---river round bet---
valid player: 2, all in player: 0, fold player: 2

----- notify msg last round -----
send notify msg to player 4444 
notify/ 
8888 71050 2000 50 fold 
4444 1250 4100 0 fold 
total pot: 50 
/notify 
send notify msg to player 8888 
notify/ 
4444 1250 4100 0 fold 
8888 71050 2000 50 fold 
total pot: 50 
/notify 

--- 0 players not fold, don't need show down---

---Allocate pot---
pot-win/ 
/pot-win 
it is player 8888's turn to be button

-----117 Hand-----

----- clean player data in socket -----
seat/ 
button: 8888 71050 2000 
small blind: 4444 1250 4100 
/seat 
blind/ 
4444: 50 
/blind 
player 4444:hold/ 
DIAMONDS 8 
SPADES 7 
/hold 
player 8888:hold/ 
SPADES K 
DIAMONDS 7 
/hold 

---pre flop round bet---
valid player: 2, all in player: 0, fold player: 0
send inquire msg to player 8888 
inquire/ 
4444 1200 4100 50 blind 
total pot: 50 
/inquire 
recv from player 8888: call 

send inquire msg to player 4444 
inquire/ 
8888 71000 2000 50 call 
4444 1200 4100 50 blind 
total pot: 100 
/inquire 
recv from player 4444: fold 


---flop round bet---
valid player: 2, all in player: 0, fold player: 1

---turn round bet---
valid player: 2, all in player: 0, fold player: 1

---river round bet---
valid player: 2, all in player: 0, fold player: 1

----- notify msg last round -----
send notify msg to player 8888 
notify/ 
4444 1200 4100 50 fold 
8888 71000 2000 50 call 
total pot: 100 
/notify 
send notify msg to player 4444 
notify/ 
8888 71000 2000 50 call 
4444 1200 4100 50 fold 
total pot: 100 
/notify 

--- 1 players not fold, don't need show down---

---Allocate pot---
Only player at seat 7 not fold, win all the pot 100
pot-win/ 
8888: 100 
/pot-win 
it is player 4444's turn to be button

-----118 Hand-----

----- clean player data in socket -----
seat/ 
button: 4444 1200 4100 
small blind: 8888 71100 2000 
/seat 
blind/ 
8888: 50 
/blind 
player 8888:hold/ 
SPADES 3 
SPADES 9 
/hold 
player 4444:hold/ 
DIAMONDS 7 
HEARTS 7 
/hold 

---pre flop round bet---
valid player: 2, all in player: 0, fold player: 0
send inquire msg to player 4444 
inquire/ 
8888 71050 2000 50 blind 
total pot: 50 
/inquire 
recv from player 4444: fold 

send inquire msg to player 8888 
inquire/ 
4444 1200 4100 0 fold 
8888 71050 2000 50 blind 
total pot: 50 
/inquire 
recv from player 8888: fold 


---flop round bet---
valid player: 2, all in player: 0, fold player: 2

---turn round bet---
valid player: 2, all in player: 0, fold player: 2

---river round bet---
valid player: 2, all in player: 0, fold player: 2

----- notify msg last round -----
send notify msg to player 4444 
notify/ 
8888 71050 2000 50 fold 
4444 1200 4100 0 fold 
total pot: 50 
/notify 
send notify msg to player 8888 
notify/ 
4444 1200 4100 0 fold 
8888 71050 2000 50 fold 
total pot: 50 
/notify 

--- 0 players not fold, don't need show down---

---Allocate pot---
pot-win/ 
/pot-win 
it is player 8888's turn to be button

-----119 Hand-----

----- clean player data in socket -----
seat/ 
button: 8888 71050 2000 
small blind: 4444 1200 4100 
/seat 
blind/ 
4444: 50 
/blind 
player 4444:hold/ 
SPADES Q 
HEARTS 4 
/hold 
player 8888:hold/ 
DIAMONDS 3 
DIAMONDS 7 
/hold 

---pre flop round bet---
valid player: 2, all in player: 0, fold player: 0
send inquire msg to player 8888 
inquire/ 
4444 1150 4100 50 blind 
total pot: 50 
/inquire 
recv from player 8888: fold 

send inquire msg to player 4444 
inquire/ 
8888 71050 2000 0 fold 
4444 1150 4100 50 blind 
total pot: 50 
/inquire 
recv from player 4444: fold 


---flop round bet---
valid player: 2, all in player: 0, fold player: 2

---turn round bet---
valid player: 2, all in player: 0, fold player: 2

---river round bet---
valid player: 2, all in player: 0, fold player: 2

----- notify msg last round -----
send notify msg to player 8888 
notify/ 
4444 1150 4100 50 fold 
8888 71050 2000 0 fold 
total pot: 50 
/notify 
send notify msg to player 4444 
notify/ 
8888 71050 2000 0 fold 
4444 1150 4100 50 fold 
total pot: 50 
/notify 

--- 0 players not fold, don't need show down---

---Allocate pot---
pot-win/ 
/pot-win 
it is player 4444's turn to be button

-----120 Hand-----

----- clean player data in socket -----
seat/ 
button: 4444 1150 4100 
small blind: 8888 71050 2000 
/seat 
blind/ 
8888: 50 
/blind 
player 8888:hold/ 
HEARTS 3 
HEARTS K 
/hold 
player 4444:hold/ 
CLUBS 4 
HEARTS 8 
/hold 

---pre flop round bet---
valid player: 2, all in player: 0, fold player: 0
send inquire msg to player 4444 
inquire/ 
8888 71000 2000 50 blind 
total pot: 50 
/inquire 
recv from player 4444: fold 

send inquire msg to player 8888 
inquire/ 
4444 1150 4100 0 fold 
8888 71000 2000 50 blind 
total pot: 50 
/inquire 
recv from player 8888: fold 


---flop round bet---
valid player: 2, all in player: 0, fold player: 2

---turn round bet---
valid player: 2, all in player: 0, fold player: 2

---river round bet---
valid player: 2, all in player: 0, fold player: 2

----- notify msg last round -----
send notify msg to player 4444 
notify/ 
8888 71000 2000 50 fold 
4444 1150 4100 0 fold 
total pot: 50 
/notify 
send notify msg to player 8888 
notify/ 
4444 1150 4100 0 fold 
8888 71000 2000 50 fold 
total pot: 50 
/notify 

--- 0 players not fold, don't need show down---

---Allocate pot---
pot-win/ 
/pot-win 
it is player 8888's turn to be button

-----121 Hand-----

----- clean player data in socket -----
seat/ 
button: 8888 71000 2000 
small blind: 4444 1150 4100 
/seat 
blind/ 
4444: 50 
/blind 
player 4444:hold/ 
DIAMONDS 5 
SPADES K 
/hold 
player 8888:hold/ 
SPADES A 
HEARTS 4 
/hold 

---pre flop round bet---
valid player: 2, all in player: 0, fold player: 0
send inquire msg to player 8888 
inquire/ 
4444 1100 4100 50 blind 
total pot: 50 
/inquire 
recv from player 8888: call 

send inquire msg to player 4444 
inquire/ 
8888 70950 2000 50 call 
4444 1100 4100 50 blind 
total pot: 100 
/inquire 
recv from player 4444: fold 


---flop round bet---
valid player: 2, all in player: 0, fold player: 1

---turn round bet---
valid player: 2, all in player: 0, fold player: 1

---river round bet---
valid player: 2, all in player: 0, fold player: 1

----- notify msg last round -----
send notify msg to player 8888 
notify/ 
4444 1100 4100 50 fold 
8888 70950 2000 50 call 
total pot: 100 
/notify 
send notify msg to player 4444 
notify/ 
8888 70950 2000 50 call 
4444 1100 4100 50 fold 
total pot: 100 
/notify 

--- 1 players not fold, don't need show down---

---Allocate pot---
Only player at seat 7 not fold, win all the pot 100
pot-win/ 
8888: 100 
/pot-win 
it is player 4444's turn to be button

-----122 Hand-----

----- clean player data in socket -----
seat/ 
button: 4444 1100 4100 
small blind: 8888 71050 2000 
/seat 
blind/ 
8888: 50 
/blind 
player 8888:hold/ 
SPADES 7 
DIAMONDS 5 
/hold 
player 4444:hold/ 
CLUBS 5 
HEARTS K 
/hold 

---pre flop round bet---
valid player: 2, all in player: 0, fold player: 0
send inquire msg to player 4444 
inquire/ 
8888 71000 2000 50 blind 
total pot: 50 
/inquire 
recv from player 4444: fold 

send inquire msg to player 8888 
inquire/ 
4444 1100 4100 0 fold 
8888 71000 2000 50 blind 
total pot: 50 
/inquire 
recv from player 8888: fold 


---flop round bet---
valid player: 2, all in player: 0, fold player: 2

---turn round bet---
valid player: 2, all in player: 0, fold player: 2

---river round bet---
valid player: 2, all in player: 0, fold player: 2

----- notify msg last round -----
send notify msg to player 4444 
notify/ 
8888 71000 2000 50 fold 
4444 1100 4100 0 fold 
total pot: 50 
/notify 
send notify msg to player 8888 
notify/ 
4444 1100 4100 0 fold 
8888 71000 2000 50 fold 
total pot: 50 
/notify 

--- 0 players not fold, don't need show down---

---Allocate pot---
pot-win/ 
/pot-win 
it is player 8888's turn to be button

-----123 Hand-----

----- clean player data in socket -----
seat/ 
button: 8888 71000 2000 
small blind: 4444 1100 4100 
/seat 
blind/ 
4444: 50 
/blind 
player 4444:hold/ 
DIAMONDS 3 
HEARTS 7 
/hold 
player 8888:hold/ 
CLUBS 3 
HEARTS J 
/hold 

---pre flop round bet---
valid player: 2, all in player: 0, fold player: 0
send inquire msg to player 8888 
inquire/ 
4444 1050 4100 50 blind 
total pot: 50 
/inquire 
recv from player 8888: fold 

send inquire msg to player 4444 
inquire/ 
8888 71000 2000 0 fold 
4444 1050 4100 50 blind 
total pot: 50 
/inquire 
recv from player 4444: fold 


---flop round bet---
valid player: 2, all in player: 0, fold player: 2

---turn round bet---
valid player: 2, all in player: 0, fold player: 2

---river round bet---
valid player: 2, all in player: 0, fold player: 2

----- notify msg last round -----
send notify msg to player 8888 
notify/ 
4444 1050 4100 50 fold 
8888 71000 2000 0 fold 
total pot: 50 
/notify 
send notify msg to player 4444 
notify/ 
8888 71000 2000 0 fold 
4444 1050 4100 50 fold 
total pot: 50 
/notify 

--- 0 players not fold, don't need show down---

---Allocate pot---
pot-win/ 
/pot-win 
it is player 4444's turn to be button

-----124 Hand-----

----- clean player data in socket -----
seat/ 
button: 4444 1050 4100 
small blind: 8888 71000 2000 
/seat 
blind/ 
8888: 50 
/blind 
player 8888:hold/ 
SPADES 9 
CLUBS 2 
/hold 
player 4444:hold/ 
DIAMONDS 10 
HEARTS J 
/hold 

---pre flop round bet---
valid player: 2, all in player: 0, fold player: 0
send inquire msg to player 4444 
inquire/ 
8888 70950 2000 50 blind 
total pot: 50 
/inquire 
recv from player 4444: fold 

send inquire msg to player 8888 
inquire/ 
4444 1050 4100 0 fold 
8888 70950 2000 50 blind 
total pot: 50 
/inquire 
recv from player 8888: fold 


---flop round bet---
valid player: 2, all in player: 0, fold player: 2

---turn round bet---
valid player: 2, all in player: 0, fold player: 2

---river round bet---
valid player: 2, all in player: 0, fold player: 2

----- notify msg last round -----
send notify msg to player 4444 
notify/ 
8888 70950 2000 50 fold 
4444 1050 4100 0 fold 
total pot: 50 
/notify 
send notify msg to player 8888 
notify/ 
4444 1050 4100 0 fold 
8888 70950 2000 50 fold 
total pot: 50 
/notify 

--- 0 players not fold, don't need show down---

---Allocate pot---
pot-win/ 
/pot-win 
it is player 8888's turn to be button

-----125 Hand-----

----- clean player data in socket -----
seat/ 
button: 8888 70950 2000 
small blind: 4444 1050 4100 
/seat 
blind/ 
4444: 50 
/blind 
player 4444:hold/ 
HEARTS 7 
SPADES 4 
/hold 
player 8888:hold/ 
SPADES 3 
DIAMONDS 4 
/hold 

---pre flop round bet---
valid player: 2, all in player: 0, fold player: 0
send inquire msg to player 8888 
inquire/ 
4444 1000 4100 50 blind 
total pot: 50 
/inquire 
recv from player 8888: fold 

send inquire msg to player 4444 
inquire/ 
8888 70950 2000 0 fold 
4444 1000 4100 50 blind 
total pot: 50 
/inquire 
recv from player 4444: fold 


---flop round bet---
valid player: 2, all in player: 0, fold player: 2

---turn round bet---
valid player: 2, all in player: 0, fold player: 2

---river round bet---
valid player: 2, all in player: 0, fold player: 2

----- notify msg last round -----
send notify msg to player 8888 
notify/ 
4444 1000 4100 50 fold 
8888 70950 2000 0 fold 
total pot: 50 
/notify 
send notify msg to player 4444 
notify/ 
8888 70950 2000 0 fold 
4444 1000 4100 50 fold 
total pot: 50 
/notify 

--- 0 players not fold, don't need show down---

---Allocate pot---
pot-win/ 
/pot-win 
it is player 4444's turn to be button

-----126 Hand-----

----- clean player data in socket -----
seat/ 
button: 4444 1000 4100 
small blind: 8888 70950 2000 
/seat 
blind/ 
8888: 50 
/blind 
player 8888:hold/ 
HEARTS 2 
SPADES J 
/hold 
player 4444:hold/ 
CLUBS K 
HEARTS 8 
/hold 

---pre flop round bet---
valid player: 2, all in player: 0, fold player: 0
send inquire msg to player 4444 
inquire/ 
8888 70900 2000 50 blind 
total pot: 50 
/inquire 
recv from player 4444: fold 

send inquire msg to player 8888 
inquire/ 
4444 1000 4100 0 fold 
8888 70900 2000 50 blind 
total pot: 50 
/inquire 
recv from player 8888: fold 


---flop round bet---
valid player: 2, all in player: 0, fold player: 2

---turn round bet---
valid player: 2, all in player: 0, fold player: 2

---river round bet---
valid player: 2, all in player: 0, fold player: 2

----- notify msg last round -----
send notify msg to player 4444 
notify/ 
8888 70900 2000 50 fold 
4444 1000 4100 0 fold 
total pot: 50 
/notify 
send notify msg to player 8888 
notify/ 
4444 1000 4100 0 fold 
8888 70900 2000 50 fold 
total pot: 50 
/notify 

--- 0 players not fold, don't need show down---

---Allocate pot---
pot-win/ 
/pot-win 
it is player 8888's turn to be button

-----127 Hand-----

----- clean player data in socket -----
seat/ 
button: 8888 70900 2000 
small blind: 4444 1000 4100 
/seat 
blind/ 
4444: 50 
/blind 
player 4444:hold/ 
DIAMONDS K 
CLUBS 8 
/hold 
player 8888:hold/ 
CLUBS 7 
SPADES 8 
/hold 

---pre flop round bet---
valid player: 2, all in player: 0, fold player: 0
send inquire msg to player 8888 
inquire/ 
4444 950 4100 50 blind 
total pot: 50 
/inquire 
recv from player 8888: fold 

send inquire msg to player 4444 
inquire/ 
8888 70900 2000 0 fold 
4444 950 4100 50 blind 
total pot: 50 
/inquire 
recv from player 4444: fold 


---flop round bet---
valid player: 2, all in player: 0, fold player: 2

---turn round bet---
valid player: 2, all in player: 0, fold player: 2

---river round bet---
valid player: 2, all in player: 0, fold player: 2

----- notify msg last round -----
send notify msg to player 8888 
notify/ 
4444 950 4100 50 fold 
8888 70900 2000 0 fold 
total pot: 50 
/notify 
send notify msg to player 4444 
notify/ 
8888 70900 2000 0 fold 
4444 950 4100 50 fold 
total pot: 50 
/notify 

--- 0 players not fold, don't need show down---

---Allocate pot---
pot-win/ 
/pot-win 
it is player 4444's turn to be button

-----128 Hand-----

----- clean player data in socket -----
seat/ 
button: 4444 950 4100 
small blind: 8888 70900 2000 
/seat 
blind/ 
8888: 50 
/blind 
player 8888:hold/ 
HEARTS A 
SPADES K 
/hold 
player 4444:hold/ 
SPADES J 
CLUBS 2 
/hold 

---pre flop round bet---
valid player: 2, all in player: 0, fold player: 0
send inquire msg to player 4444 
inquire/ 
8888 70850 2000 50 blind 
total pot: 50 
/inquire 
recv from player 4444: fold 

send inquire msg to player 8888 
inquire/ 
4444 950 4100 0 fold 
8888 70850 2000 50 blind 
total pot: 50 
/inquire 
recv from player 8888: raise 200 


---flop round bet---
valid player: 2, all in player: 0, fold player: 1

---turn round bet---
valid player: 2, all in player: 0, fold player: 1

---river round bet---
valid player: 2, all in player: 0, fold player: 1

----- notify msg last round -----
send notify msg to player 4444 
notify/ 
8888 70650 2000 250 raise 
4444 950 4100 0 fold 
total pot: 250 
/notify 
send notify msg to player 8888 
notify/ 
4444 950 4100 0 fold 
8888 70650 2000 250 raise 
total pot: 250 
/notify 

--- 1 players not fold, don't need show down---

---Allocate pot---
Only player at seat 0 not fold, win all the pot 250
pot-win/ 
8888: 250 
/pot-win 
it is player 8888's turn to be button

-----129 Hand-----

----- clean player data in socket -----
seat/ 
button: 8888 70900 2000 
small blind: 4444 950 4100 
/seat 
blind/ 
4444: 50 
/blind 
player 4444:hold/ 
SPADES 5 
SPADES 9 
/hold 
player 8888:hold/ 
CLUBS 9 
CLUBS 7 
/hold 

---pre flop round bet---
valid player: 2, all in player: 0, fold player: 0
send inquire msg to player 8888 
inquire/ 
4444 900 4100 50 blind 
total pot: 50 
/inquire 
recv from player 8888: call 

send inquire msg to player 4444 
inquire/ 
8888 70850 2000 50 call 
4444 900 4100 50 blind 
total pot: 100 
/inquire 
recv from player 4444: fold 


---flop round bet---
valid player: 2, all in player: 0, fold player: 1

---turn round bet---
valid player: 2, all in player: 0, fold player: 1

---river round bet---
valid player: 2, all in player: 0, fold player: 1

----- notify msg last round -----
send notify msg to player 8888 
notify/ 
4444 900 4100 50 fold 
8888 70850 2000 50 call 
total pot: 100 
/notify 
send notify msg to player 4444 
notify/ 
8888 70850 2000 50 call 
4444 900 4100 50 fold 
total pot: 100 
/notify 

--- 1 players not fold, don't need show down---

---Allocate pot---
Only player at seat 7 not fold, win all the pot 100
pot-win/ 
8888: 100 
/pot-win 
it is player 4444's turn to be button

-----130 Hand-----

----- clean player data in socket -----
seat/ 
button: 4444 900 4100 
small blind: 8888 70950 2000 
/seat 
blind/ 
8888: 50 
/blind 
player 8888:hold/ 
HEARTS J 
CLUBS 5 
/hold 
player 4444:hold/ 
SPADES 9 
DIAMONDS 5 
/hold 

---pre flop round bet---
valid player: 2, all in player: 0, fold player: 0
send inquire msg to player 4444 
inquire/ 
8888 70900 2000 50 blind 
total pot: 50 
/inquire 
recv from player 4444: fold 

send inquire msg to player 8888 
inquire/ 
4444 900 4100 0 fold 
8888 70900 2000 50 blind 
total pot: 50 
/inquire 
recv from player 8888: fold 


---flop round bet---
valid player: 2, all in player: 0, fold player: 2

---turn round bet---
valid player: 2, all in player: 0, fold player: 2

---river round bet---
valid player: 2, all in player: 0, fold player: 2

----- notify msg last round -----
send notify msg to player 4444 
notify/ 
8888 70900 2000 50 fold 
4444 900 4100 0 fold 
total pot: 50 
/notify 
send notify msg to player 8888 
notify/ 
4444 900 4100 0 fold 
8888 70900 2000 50 fold 
total pot: 50 
/notify 

--- 0 players not fold, don't need show down---

---Allocate pot---
pot-win/ 
/pot-win 
it is player 8888's turn to be button

-----131 Hand-----

----- clean player data in socket -----
seat/ 
button: 8888 70900 2000 
small blind: 4444 900 4100 
/seat 
blind/ 
4444: 50 
/blind 
player 4444:hold/ 
SPADES Q 
DIAMONDS 4 
/hold 
player 8888:hold/ 
DIAMONDS 5 
SPADES 9 
/hold 

---pre flop round bet---
valid player: 2, all in player: 0, fold player: 0
send inquire msg to player 8888 
inquire/ 
4444 850 4100 50 blind 
total pot: 50 
/inquire 
recv from player 8888: fold 

send inquire msg to player 4444 
inquire/ 
8888 70900 2000 0 fold 
4444 850 4100 50 blind 
total pot: 50 
/inquire 
recv from player 4444: fold 


---flop round bet---
valid player: 2, all in player: 0, fold player: 2

---turn round bet---
valid player: 2, all in player: 0, fold player: 2

---river round bet---
valid player: 2, all in player: 0, fold player: 2

----- notify msg last round -----
send notify msg to player 8888 
notify/ 
4444 850 4100 50 fold 
8888 70900 2000 0 fold 
total pot: 50 
/notify 
send notify msg to player 4444 
notify/ 
8888 70900 2000 0 fold 
4444 850 4100 50 fold 
total pot: 50 
/notify 

--- 0 players not fold, don't need show down---

---Allocate pot---
pot-win/ 
/pot-win 
it is player 4444's turn to be button

-----132 Hand-----

----- clean player data in socket -----
seat/ 
button: 4444 850 4100 
small blind: 8888 70900 2000 
/seat 
blind/ 
8888: 50 
/blind 
player 8888:hold/ 
SPADES 6 
DIAMONDS K 
/hold 
player 4444:hold/ 
HEARTS J 
HEARTS K 
/hold 

---pre flop round bet---
valid player: 2, all in player: 0, fold player: 0
send inquire msg to player 4444 
inquire/ 
8888 70850 2000 50 blind 
total pot: 50 
/inquire 
recv from player 4444: fold 

send inquire msg to player 8888 
inquire/ 
4444 850 4100 0 fold 
8888 70850 2000 50 blind 
total pot: 50 
/inquire 
recv from player 8888: call 


---flop round bet---
valid player: 2, all in player: 0, fold player: 1

---turn round bet---
valid player: 2, all in player: 0, fold player: 1

---river round bet---
valid player: 2, all in player: 0, fold player: 1

----- notify msg last round -----
send notify msg to player 4444 
notify/ 
8888 70850 2000 50 check 
4444 850 4100 0 fold 
total pot: 50 
/notify 
send notify msg to player 8888 
notify/ 
4444 850 4100 0 fold 
8888 70850 2000 50 check 
total pot: 50 
/notify 

--- 1 players not fold, don't need show down---

---Allocate pot---
Only player at seat 0 not fold, win all the pot 50
pot-win/ 
8888: 50 
/pot-win 
it is player 8888's turn to be button

-----133 Hand-----

----- clean player data in socket -----
seat/ 
button: 8888 70900 2000 
small blind: 4444 850 4100 
/seat 
blind/ 
4444: 50 
/blind 
player 4444:hold/ 
CLUBS 3 
DIAMONDS 10 
/hold 
player 8888:hold/ 
DIAMONDS 5 
DIAMONDS 2 
/hold 

---pre flop round bet---
valid player: 2, all in player: 0, fold player: 0
send inquire msg to player 8888 
inquire/ 
4444 800 4100 50 blind 
total pot: 50 
/inquire 
recv from player 8888: fold 

send inquire msg to player 4444 
inquire/ 
8888 70900 2000 0 fold 
4444 800 4100 50 blind 
total pot: 50 
/inquire 
recv from player 4444: fold 


---flop round bet---
valid player: 2, all in player: 0, fold player: 2

---turn round bet---
valid player: 2, all in player: 0, fold player: 2

---river round bet---
valid player: 2, all in player: 0, fold player: 2

----- notify msg last round -----
send notify msg to player 8888 
notify/ 
4444 800 4100 50 fold 
8888 70900 2000 0 fold 
total pot: 50 
/notify 
send notify msg to player 4444 
notify/ 
8888 70900 2000 0 fold 
4444 800 4100 50 fold 
total pot: 50 
/notify 

--- 0 players not fold, don't need show down---

---Allocate pot---
pot-win/ 
/pot-win 
it is player 4444's turn to be button

-----134 Hand-----

----- clean player data in socket -----
seat/ 
button: 4444 800 4100 
small blind: 8888 70900 2000 
/seat 
blind/ 
8888: 50 
/blind 
player 8888:hold/ 
SPADES K 
CLUBS 2 
/hold 
player 4444:hold/ 
DIAMONDS K 
DIAMONDS 5 
/hold 

---pre flop round bet---
valid player: 2, all in player: 0, fold player: 0
send inquire msg to player 4444 
inquire/ 
8888 70850 2000 50 blind 
total pot: 50 
/inquire 
recv from player 4444: fold 

send inquire msg to player 8888 
inquire/ 
4444 800 4100 0 fold 
8888 70850 2000 50 blind 
total pot: 50 
/inquire 
recv from player 8888: fold 


---flop round bet---
valid player: 2, all in player: 0, fold player: 2

---turn round bet---
valid player: 2, all in player: 0, fold player: 2

---river round bet---
valid player: 2, all in player: 0, fold player: 2

----- notify msg last round -----
send notify msg to player 4444 
notify/ 
8888 70850 2000 50 fold 
4444 800 4100 0 fold 
total pot: 50 
/notify 
send notify msg to player 8888 
notify/ 
4444 800 4100 0 fold 
8888 70850 2000 50 fold 
total pot: 50 
/notify 

--- 0 players not fold, don't need show down---

---Allocate pot---
pot-win/ 
/pot-win 
it is player 8888's turn to be button

-----135 Hand-----

----- clean player data in socket -----
seat/ 
button: 8888 70850 2000 
small blind: 4444 800 4100 
/seat 
blind/ 
4444: 50 
/blind 
player 4444:hold/ 
DIAMONDS 9 
HEARTS 2 
/hold 
player 8888:hold/ 
DIAMONDS 10 
HEARTS J 
/hold 

---pre flop round bet---
valid player: 2, all in player: 0, fold player: 0
send inquire msg to player 8888 
inquire/ 
4444 750 4100 50 blind 
total pot: 50 
/inquire 
recv from player 8888: call 

send inquire msg to player 4444 
inquire/ 
8888 70800 2000 50 call 
4444 750 4100 50 blind 
total pot: 100 
/inquire 
recv from player 4444: fold 


---flop round bet---
valid player: 2, all in player: 0, fold player: 1

---turn round bet---
valid player: 2, all in player: 0, fold player: 1

---river round bet---
valid player: 2, all in player: 0, fold player: 1

----- notify msg last round -----
send notify msg to player 8888 
notify/ 
4444 750 4100 50 fold 
8888 70800 2000 50 call 
total pot: 100 
/notify 
send notify msg to player 4444 
notify/ 
8888 70800 2000 50 call 
4444 750 4100 50 fold 
total pot: 100 
/notify 

--- 1 players not fold, don't need show down---

---Allocate pot---
Only player at seat 7 not fold, win all the pot 100
pot-win/ 
8888: 100 
/pot-win 
it is player 4444's turn to be button

-----136 Hand-----

----- clean player data in socket -----
seat/ 
button: 4444 750 4100 
small blind: 8888 70900 2000 
/seat 
blind/ 
8888: 50 
/blind 
player 8888:hold/ 
CLUBS A 
DIAMONDS 9 
/hold 
player 4444:hold/ 
CLUBS 3 
HEARTS 7 
/hold 

---pre flop round bet---
valid player: 2, all in player: 0, fold player: 0
send inquire msg to player 4444 
inquire/ 
8888 70850 2000 50 blind 
total pot: 50 
/inquire 
recv from player 4444: fold 

send inquire msg to player 8888 
inquire/ 
4444 750 4100 0 fold 
8888 70850 2000 50 blind 
total pot: 50 
/inquire 
recv from player 8888: call 


---flop round bet---
valid player: 2, all in player: 0, fold player: 1

---turn round bet---
valid player: 2, all in player: 0, fold player: 1

---river round bet---
valid player: 2, all in player: 0, fold player: 1

----- notify msg last round -----
send notify msg to player 4444 
notify/ 
8888 70850 2000 50 check 
4444 750 4100 0 fold 
total pot: 50 
/notify 
send notify msg to player 8888 
notify/ 
4444 750 4100 0 fold 
8888 70850 2000 50 check 
total pot: 50 
/notify 

--- 1 players not fold, don't need show down---

---Allocate pot---
Only player at seat 0 not fold, win all the pot 50
pot-win/ 
8888: 50 
/pot-win 
it is player 8888's turn to be button

-----137 Hand-----

----- clean player data in socket -----
seat/ 
button: 8888 70900 2000 
small blind: 4444 750 4100 
/seat 
blind/ 
4444: 50 
/blind 
player 4444:hold/ 
HEARTS Q 
HEARTS 10 
/hold 
player 8888:hold/ 
SPADES 5 
DIAMONDS J 
/hold 

---pre flop round bet---
valid player: 2, all in player: 0, fold player: 0
send inquire msg to player 8888 
inquire/ 
4444 700 4100 50 blind 
total pot: 50 
/inquire 
recv from player 8888: fold 

send inquire msg to player 4444 
inquire/ 
8888 70900 2000 0 fold 
4444 700 4100 50 blind 
total pot: 50 
/inquire 
recv from player 4444: fold 


---flop round bet---
valid player: 2, all in player: 0, fold player: 2

---turn round bet---
valid player: 2, all in player: 0, fold player: 2

---river round bet---
valid player: 2, all in player: 0, fold player: 2

----- notify msg last round -----
send notify msg to player 8888 
notify/ 
4444 700 4100 50 fold 
8888 70900 2000 0 fold 
total pot: 50 
/notify 
send notify msg to player 4444 
notify/ 
8888 70900 2000 0 fold 
4444 700 4100 50 fold 
total pot: 50 
/notify 

--- 0 players not fold, don't need show down---

---Allocate pot---
pot-win/ 
/pot-win 
it is player 4444's turn to be button

-----138 Hand-----

----- clean player data in socket -----
seat/ 
button: 4444 700 4100 
small blind: 8888 70900 2000 
/seat 
blind/ 
8888: 50 
/blind 
player 8888:hold/ 
HEARTS 3 
SPADES 7 
/hold 
player 4444:hold/ 
DIAMONDS 5 
SPADES J 
/hold 

---pre flop round bet---
valid player: 2, all in player: 0, fold player: 0
send inquire msg to player 4444 
inquire/ 
8888 70850 2000 50 blind 
total pot: 50 
/inquire 
recv from player 4444: fold 

send inquire msg to player 8888 
inquire/ 
4444 700 4100 0 fold 
8888 70850 2000 50 blind 
total pot: 50 
/inquire 
recv from player 8888: fold 


---flop round bet---
valid player: 2, all in player: 0, fold player: 2

---turn round bet---
valid player: 2, all in player: 0, fold player: 2

---river round bet---
valid player: 2, all in player: 0, fold player: 2

----- notify msg last round -----
send notify msg to player 4444 
notify/ 
8888 70850 2000 50 fold 
4444 700 4100 0 fold 
total pot: 50 
/notify 
send notify msg to player 8888 
notify/ 
4444 700 4100 0 fold 
8888 70850 2000 50 fold 
total pot: 50 
/notify 

--- 0 players not fold, don't need show down---

---Allocate pot---
pot-win/ 
/pot-win 
it is player 8888's turn to be button

-----139 Hand-----

----- clean player data in socket -----
seat/ 
button: 8888 70850 2000 
small blind: 4444 700 4100 
/seat 
blind/ 
4444: 50 
/blind 
player 4444:hold/ 
SPADES 9 
HEARTS 9 
/hold 
player 8888:hold/ 
HEARTS A 
CLUBS K 
/hold 

---pre flop round bet---
valid player: 2, all in player: 0, fold player: 0
send inquire msg to player 8888 
inquire/ 
4444 650 4100 50 blind 
total pot: 50 
/inquire 
recv from player 8888: raise 200 

send inquire msg to player 4444 
inquire/ 
8888 70600 2000 250 raise 
4444 650 4100 50 blind 
total pot: 300 
/inquire 
recv from player 4444: fold 


---flop round bet---
valid player: 2, all in player: 0, fold player: 1

---turn round bet---
valid player: 2, all in player: 0, fold player: 1

---river round bet---
valid player: 2, all in player: 0, fold player: 1

----- notify msg last round -----
send notify msg to player 8888 
notify/ 
4444 650 4100 50 fold 
8888 70600 2000 250 raise 
total pot: 300 
/notify 
send notify msg to player 4444 
notify/ 
8888 70600 2000 250 raise 
4444 650 4100 50 fold 
total pot: 300 
/notify 

--- 1 players not fold, don't need show down---

---Allocate pot---
Only player at seat 7 not fold, win all the pot 300
pot-win/ 
8888: 300 
/pot-win 
it is player 4444's turn to be button

-----140 Hand-----

----- clean player data in socket -----
seat/ 
button: 4444 650 4100 
small blind: 8888 70900 2000 
/seat 
blind/ 
8888: 50 
/blind 
player 8888:hold/ 
HEARTS 10 
DIAMONDS K 
/hold 
player 4444:hold/ 
HEARTS J 
CLUBS J 
/hold 

---pre flop round bet---
valid player: 2, all in player: 0, fold player: 0
send inquire msg to player 4444 
inquire/ 
8888 70850 2000 50 blind 
total pot: 50 
/inquire 
recv from player 4444: fold 

send inquire msg to player 8888 
inquire/ 
4444 650 4100 0 fold 
8888 70850 2000 50 blind 
total pot: 50 
/inquire 
recv from player 8888: call 


---flop round bet---
valid player: 2, all in player: 0, fold player: 1

---turn round bet---
valid player: 2, all in player: 0, fold player: 1

---river round bet---
valid player: 2, all in player: 0, fold player: 1

----- notify msg last round -----
send notify msg to player 4444 
notify/ 
8888 70850 2000 50 check 
4444 650 4100 0 fold 
total pot: 50 
/notify 
send notify msg to player 8888 
notify/ 
4444 650 4100 0 fold 
8888 70850 2000 50 check 
total pot: 50 
/notify 

--- 1 players not fold, don't need show down---

---Allocate pot---
Only player at seat 0 not fold, win all the pot 50
pot-win/ 
8888: 50 
/pot-win 
it is player 8888's turn to be button

-----141 Hand-----

----- clean player data in socket -----
seat/ 
button: 8888 70900 2000 
small blind: 4444 650 4100 
/seat 
blind/ 
4444: 50 
/blind 
player 4444:hold/ 
CLUBS 6 
CLUBS 4 
/hold 
player 8888:hold/ 
DIAMONDS 2 
HEARTS 3 
/hold 

---pre flop round bet---
valid player: 2, all in player: 0, fold player: 0
send inquire msg to player 8888 
inquire/ 
4444 600 4100 50 blind 
total pot: 50 
/inquire 
recv from player 8888: fold 

send inquire msg to player 4444 
inquire/ 
8888 70900 2000 0 fold 
4444 600 4100 50 blind 
total pot: 50 
/inquire 
recv from player 4444: fold 


---flop round bet---
valid player: 2, all in player: 0, fold player: 2

---turn round bet---
valid player: 2, all in player: 0, fold player: 2

---river round bet---
valid player: 2, all in player: 0, fold player: 2

----- notify msg last round -----
send notify msg to player 8888 
notify/ 
4444 600 4100 50 fold 
8888 70900 2000 0 fold 
total pot: 50 
/notify 
send notify msg to player 4444 
notify/ 
8888 70900 2000 0 fold 
4444 600 4100 50 fold 
total pot: 50 
/notify 

--- 0 players not fold, don't need show down---

---Allocate pot---
pot-win/ 
/pot-win 
it is player 4444's turn to be button

-----142 Hand-----

----- clean player data in socket -----
seat/ 
button: 4444 600 4100 
small blind: 8888 70900 2000 
/seat 
blind/ 
8888: 50 
/blind 
player 8888:hold/ 
SPADES 7 
HEARTS 3 
/hold 
player 4444:hold/ 
DIAMONDS 9 
DIAMONDS 6 
/hold 

---pre flop round bet---
valid player: 2, all in player: 0, fold player: 0
send inquire msg to player 4444 
inquire/ 
8888 70850 2000 50 blind 
total pot: 50 
/inquire 
recv from player 4444: fold 

send inquire msg to player 8888 
inquire/ 
4444 600 4100 0 fold 
8888 70850 2000 50 blind 
total pot: 50 
/inquire 
recv from player 8888: fold 


---flop round bet---
valid player: 2, all in player: 0, fold player: 2

---turn round bet---
valid player: 2, all in player: 0, fold player: 2

---river round bet---
valid player: 2, all in player: 0, fold player: 2

----- notify msg last round -----
send notify msg to player 4444 
notify/ 
8888 70850 2000 50 fold 
4444 600 4100 0 fold 
total pot: 50 
/notify 
send notify msg to player 8888 
notify/ 
4444 600 4100 0 fold 
8888 70850 2000 50 fold 
total pot: 50 
/notify 

--- 0 players not fold, don't need show down---

---Allocate pot---
pot-win/ 
/pot-win 
it is player 8888's turn to be button

-----143 Hand-----

----- clean player data in socket -----
seat/ 
button: 8888 70850 2000 
small blind: 4444 600 4100 
/seat 
blind/ 
4444: 50 
/blind 
player 4444:hold/ 
HEARTS 8 
CLUBS 4 
/hold 
player 8888:hold/ 
CLUBS 7 
SPADES 9 
/hold 

---pre flop round bet---
valid player: 2, all in player: 0, fold player: 0
send inquire msg to player 8888 
inquire/ 
4444 550 4100 50 blind 
total pot: 50 
/inquire 
recv from player 8888: fold 

send inquire msg to player 4444 
inquire/ 
8888 70850 2000 0 fold 
4444 550 4100 50 blind 
total pot: 50 
/inquire 
recv from player 4444: fold 


---flop round bet---
valid player: 2, all in player: 0, fold player: 2

---turn round bet---
valid player: 2, all in player: 0, fold player: 2

---river round bet---
valid player: 2, all in player: 0, fold player: 2

----- notify msg last round -----
send notify msg to player 8888 
notify/ 
4444 550 4100 50 fold 
8888 70850 2000 0 fold 
total pot: 50 
/notify 
send notify msg to player 4444 
notify/ 
8888 70850 2000 0 fold 
4444 550 4100 50 fold 
total pot: 50 
/notify 

--- 0 players not fold, don't need show down---

---Allocate pot---
pot-win/ 
/pot-win 
it is player 4444's turn to be button

-----144 Hand-----

----- clean player data in socket -----
seat/ 
button: 4444 550 4100 
small blind: 8888 70850 2000 
/seat 
blind/ 
8888: 50 
/blind 
player 8888:hold/ 
CLUBS 6 
HEARTS Q 
/hold 
player 4444:hold/ 
SPADES 8 
SPADES 9 
/hold 

---pre flop round bet---
valid player: 2, all in player: 0, fold player: 0
send inquire msg to player 4444 
inquire/ 
8888 70800 2000 50 blind 
total pot: 50 
/inquire 
recv from player 4444: fold 

send inquire msg to player 8888 
inquire/ 
4444 550 4100 0 fold 
8888 70800 2000 50 blind 
total pot: 50 
/inquire 
recv from player 8888: call 


---flop round bet---
valid player: 2, all in player: 0, fold player: 1

---turn round bet---
valid player: 2, all in player: 0, fold player: 1

---river round bet---
valid player: 2, all in player: 0, fold player: 1

----- notify msg last round -----
send notify msg to player 4444 
notify/ 
8888 70800 2000 50 check 
4444 550 4100 0 fold 
total pot: 50 
/notify 
send notify msg to player 8888 
notify/ 
4444 550 4100 0 fold 
8888 70800 2000 50 check 
total pot: 50 
/notify 

--- 1 players not fold, don't need show down---

---Allocate pot---
Only player at seat 0 not fold, win all the pot 50
pot-win/ 
8888: 50 
/pot-win 
it is player 8888's turn to be button

-----145 Hand-----

----- clean player data in socket -----
seat/ 
button: 8888 70850 2000 
small blind: 4444 550 4100 
/seat 
blind/ 
4444: 50 
/blind 
player 4444:hold/ 
CLUBS 8 
CLUBS 2 
/hold 
player 8888:hold/ 
SPADES K 
CLUBS 3 
/hold 

---pre flop round bet---
valid player: 2, all in player: 0, fold player: 0
send inquire msg to player 8888 
inquire/ 
4444 500 4100 50 blind 
total pot: 50 
/inquire 
recv from player 8888: fold 

send inquire msg to player 4444 
inquire/ 
8888 70850 2000 0 fold 
4444 500 4100 50 blind 
total pot: 50 
/inquire 
recv from player 4444: fold 


---flop round bet---
valid player: 2, all in player: 0, fold player: 2

---turn round bet---
valid player: 2, all in player: 0, fold player: 2

---river round bet---
valid player: 2, all in player: 0, fold player: 2

----- notify msg last round -----
send notify msg to player 8888 
notify/ 
4444 500 4100 50 fold 
8888 70850 2000 0 fold 
total pot: 50 
/notify 
send notify msg to player 4444 
notify/ 
8888 70850 2000 0 fold 
4444 500 4100 50 fold 
total pot: 50 
/notify 

--- 0 players not fold, don't need show down---

---Allocate pot---
pot-win/ 
/pot-win 
it is player 4444's turn to be button

-----146 Hand-----

----- clean player data in socket -----
seat/ 
button: 4444 500 4100 
small blind: 8888 70850 2000 
/seat 
blind/ 
8888: 50 
/blind 
player 8888:hold/ 
SPADES 9 
DIAMONDS 10 
/hold 
player 4444:hold/ 
SPADES Q 
DIAMONDS 7 
/hold 

---pre flop round bet---
valid player: 2, all in player: 0, fold player: 0
send inquire msg to player 4444 
inquire/ 
8888 70800 2000 50 blind 
total pot: 50 
/inquire 
recv from player 4444: fold 

send inquire msg to player 8888 
inquire/ 
4444 500 4100 0 fold 
8888 70800 2000 50 blind 
total pot: 50 
/inquire 
recv from player 8888: call 


---flop round bet---
valid player: 2, all in player: 0, fold player: 1

---turn round bet---
valid player: 2, all in player: 0, fold player: 1

---river round bet---
valid player: 2, all in player: 0, fold player: 1

----- notify msg last round -----
send notify msg to player 4444 
notify/ 
8888 70800 2000 50 check 
4444 500 4100 0 fold 
total pot: 50 
/notify 
send notify msg to player 8888 
notify/ 
4444 500 4100 0 fold 
8888 70800 2000 50 check 
total pot: 50 
/notify 

--- 1 players not fold, don't need show down---

---Allocate pot---
Only player at seat 0 not fold, win all the pot 50
pot-win/ 
8888: 50 
/pot-win 
it is player 8888's turn to be button

-----147 Hand-----

----- clean player data in socket -----
seat/ 
button: 8888 70850 2000 
small blind: 4444 500 4100 
/seat 
blind/ 
4444: 50 
/blind 
player 4444:hold/ 
HEARTS 2 
CLUBS 8 
/hold 
player 8888:hold/ 
HEARTS J 
HEARTS K 
/hold 

---pre flop round bet---
valid player: 2, all in player: 0, fold player: 0
send inquire msg to player 8888 
inquire/ 
4444 450 4100 50 blind 
total pot: 50 
/inquire 
recv from player 8888: call 

send inquire msg to player 4444 
inquire/ 
8888 70800 2000 50 call 
4444 450 4100 50 blind 
total pot: 100 
/inquire 
recv from player 4444: fold 


---flop round bet---
valid player: 2, all in player: 0, fold player: 1

---turn round bet---
valid player: 2, all in player: 0, fold player: 1

---river round bet---
valid player: 2, all in player: 0, fold player: 1

----- notify msg last round -----
send notify msg to player 8888 
notify/ 
4444 450 4100 50 fold 
8888 70800 2000 50 call 
total pot: 100 
/notify 
send notify msg to player 4444 
notify/ 
8888 70800 2000 50 call 
4444 450 4100 50 fold 
total pot: 100 
/notify 

--- 1 players not fold, don't need show down---

---Allocate pot---
Only player at seat 7 not fold, win all the pot 100
pot-win/ 
8888: 100 
/pot-win 
it is player 4444's turn to be button

-----148 Hand-----

----- clean player data in socket -----
seat/ 
button: 4444 450 4100 
small blind: 8888 70900 2000 
/seat 
blind/ 
8888: 50 
/blind 
player 8888:hold/ 
CLUBS 9 
DIAMONDS 2 
/hold 
player 4444:hold/ 
HEARTS 6 
HEARTS K 
/hold 

---pre flop round bet---
valid player: 2, all in player: 0, fold player: 0
send inquire msg to player 4444 
inquire/ 
8888 70850 2000 50 blind 
total pot: 50 
/inquire 
recv from player 4444: fold 

send inquire msg to player 8888 
inquire/ 
4444 450 4100 0 fold 
8888 70850 2000 50 blind 
total pot: 50 
/inquire 
recv from player 8888: fold 


---flop round bet---
valid player: 2, all in player: 0, fold player: 2

---turn round bet---
valid player: 2, all in player: 0, fold player: 2

---river round bet---
valid player: 2, all in player: 0, fold player: 2

----- notify msg last round -----
send notify msg to player 4444 
notify/ 
8888 70850 2000 50 fold 
4444 450 4100 0 fold 
total pot: 50 
/notify 
send notify msg to player 8888 
notify/ 
4444 450 4100 0 fold 
8888 70850 2000 50 fold 
total pot: 50 
/notify 

--- 0 players not fold, don't need show down---

---Allocate pot---
pot-win/ 
/pot-win 
it is player 8888's turn to be button

-----149 Hand-----

----- clean player data in socket -----
seat/ 
button: 8888 70850 2000 
small blind: 4444 450 4100 
/seat 
blind/ 
4444: 50 
/blind 
player 4444:hold/ 
CLUBS 6 
SPADES 10 
/hold 
player 8888:hold/ 
HEARTS 4 
HEARTS Q 
/hold 

---pre flop round bet---
valid player: 2, all in player: 0, fold player: 0
send inquire msg to player 8888 
inquire/ 
4444 400 4100 50 blind 
total pot: 50 
/inquire 
recv from player 8888: fold 

send inquire msg to player 4444 
inquire/ 
8888 70850 2000 0 fold 
4444 400 4100 50 blind 
total pot: 50 
/inquire 
recv from player 4444: fold 


---flop round bet---
valid player: 2, all in player: 0, fold player: 2

---turn round bet---
valid player: 2, all in player: 0, fold player: 2

---river round bet---
valid player: 2, all in player: 0, fold player: 2

----- notify msg last round -----
send notify msg to player 8888 
notify/ 
4444 400 4100 50 fold 
8888 70850 2000 0 fold 
total pot: 50 
/notify 
send notify msg to player 4444 
notify/ 
8888 70850 2000 0 fold 
4444 400 4100 50 fold 
total pot: 50 
/notify 

--- 0 players not fold, don't need show down---

---Allocate pot---
pot-win/ 
/pot-win 
it is player 4444's turn to be button

-----150 Hand-----

----- clean player data in socket -----
seat/ 
button: 4444 400 4100 
small blind: 8888 70850 2000 
/seat 
blind/ 
8888: 50 
/blind 
player 8888:hold/ 
SPADES 6 
DIAMONDS 8 
/hold 
player 4444:hold/ 
SPADES Q 
HEARTS Q 
/hold 

---pre flop round bet---
valid player: 2, all in player: 0, fold player: 0
send inquire msg to player 4444 
inquire/ 
8888 70800 2000 50 blind 
total pot: 50 
/inquire 
recv from player 4444: fold 

send inquire msg to player 8888 
inquire/ 
4444 400 4100 0 fold 
8888 70800 2000 50 blind 
total pot: 50 
/inquire 
recv from player 8888: fold 


---flop round bet---
valid player: 2, all in player: 0, fold player: 2

---turn round bet---
valid player: 2, all in player: 0, fold player: 2

---river round bet---
valid player: 2, all in player: 0, fold player: 2

----- notify msg last round -----
send notify msg to player 4444 
notify/ 
8888 70800 2000 50 fold 
4444 400 4100 0 fold 
total pot: 50 
/notify 
send notify msg to player 8888 
notify/ 
4444 400 4100 0 fold 
8888 70800 2000 50 fold 
total pot: 50 
/notify 

--- 0 players not fold, don't need show down---

---Allocate pot---
pot-win/ 
/pot-win 
it is player 8888's turn to be button

-----151 Hand-----

----- clean player data in socket -----
seat/ 
button: 8888 70800 2000 
small blind: 4444 400 4100 
/seat 
blind/ 
4444: 50 
/blind 
player 4444:hold/ 
DIAMONDS 4 
DIAMONDS 8 
/hold 
player 8888:hold/ 
HEARTS J 
SPADES 10 
/hold 

---pre flop round bet---
valid player: 2, all in player: 0, fold player: 0
send inquire msg to player 8888 
inquire/ 
4444 350 4100 50 blind 
total pot: 50 
/inquire 
recv from player 8888: call 

send inquire msg to player 4444 
inquire/ 
8888 70750 2000 50 call 
4444 350 4100 50 blind 
total pot: 100 
/inquire 
recv from player 4444: fold 


---flop round bet---
valid player: 2, all in player: 0, fold player: 1

---turn round bet---
valid player: 2, all in player: 0, fold player: 1

---river round bet---
valid player: 2, all in player: 0, fold player: 1

----- notify msg last round -----
send notify msg to player 8888 
notify/ 
4444 350 4100 50 fold 
8888 70750 2000 50 call 
total pot: 100 
/notify 
send notify msg to player 4444 
notify/ 
8888 70750 2000 50 call 
4444 350 4100 50 fold 
total pot: 100 
/notify 

--- 1 players not fold, don't need show down---

---Allocate pot---
Only player at seat 7 not fold, win all the pot 100
pot-win/ 
8888: 100 
/pot-win 
it is player 4444's turn to be button

-----152 Hand-----

----- clean player data in socket -----
seat/ 
button: 4444 350 4100 
small blind: 8888 70850 2000 
/seat 
blind/ 
8888: 50 
/blind 
player 8888:hold/ 
CLUBS K 
SPADES 7 
/hold 
player 4444:hold/ 
SPADES 6 
DIAMONDS 3 
/hold 

---pre flop round bet---
valid player: 2, all in player: 0, fold player: 0
send inquire msg to player 4444 
inquire/ 
8888 70800 2000 50 blind 
total pot: 50 
/inquire 
recv from player 4444: fold 

send inquire msg to player 8888 
inquire/ 
4444 350 4100 0 fold 
8888 70800 2000 50 blind 
total pot: 50 
/inquire 
recv from player 8888: call 


---flop round bet---
valid player: 2, all in player: 0, fold player: 1

---turn round bet---
valid player: 2, all in player: 0, fold player: 1

---river round bet---
valid player: 2, all in player: 0, fold player: 1

----- notify msg last round -----
send notify msg to player 4444 
notify/ 
8888 70800 2000 50 check 
4444 350 4100 0 fold 
total pot: 50 
/notify 
send notify msg to player 8888 
notify/ 
4444 350 4100 0 fold 
8888 70800 2000 50 check 
total pot: 50 
/notify 

--- 1 players not fold, don't need show down---

---Allocate pot---
Only player at seat 0 not fold, win all the pot 50
pot-win/ 
8888: 50 
/pot-win 
it is player 8888's turn to be button

-----153 Hand-----

----- clean player data in socket -----
seat/ 
button: 8888 70850 2000 
small blind: 4444 350 4100 
/seat 
blind/ 
4444: 50 
/blind 
player 4444:hold/ 
DIAMONDS J 
HEARTS 4 
/hold 
player 8888:hold/ 
SPADES 7 
SPADES J 
/hold 

---pre flop round bet---
valid player: 2, all in player: 0, fold player: 0
send inquire msg to player 8888 
inquire/ 
4444 300 4100 50 blind 
total pot: 50 
/inquire 
recv from player 8888: call 

send inquire msg to player 4444 
inquire/ 
8888 70800 2000 50 call 
4444 300 4100 50 blind 
total pot: 100 
/inquire 
recv from player 4444: fold 


---flop round bet---
valid player: 2, all in player: 0, fold player: 1

---turn round bet---
valid player: 2, all in player: 0, fold player: 1

---river round bet---
valid player: 2, all in player: 0, fold player: 1

----- notify msg last round -----
send notify msg to player 8888 
notify/ 
4444 300 4100 50 fold 
8888 70800 2000 50 call 
total pot: 100 
/notify 
send notify msg to player 4444 
notify/ 
8888 70800 2000 50 call 
4444 300 4100 50 fold 
total pot: 100 
/notify 

--- 1 players not fold, don't need show down---

---Allocate pot---
Only player at seat 7 not fold, win all the pot 100
pot-win/ 
8888: 100 
/pot-win 
it is player 4444's turn to be button

-----154 Hand-----

----- clean player data in socket -----
seat/ 
button: 4444 300 4100 
small blind: 8888 70900 2000 
/seat 
blind/ 
8888: 50 
/blind 
player 8888:hold/ 
HEARTS 9 
DIAMONDS A 
/hold 
player 4444:hold/ 
HEARTS K 
HEARTS Q 
/hold 

---pre flop round bet---
valid player: 2, all in player: 0, fold player: 0
send inquire msg to player 4444 
inquire/ 
8888 70850 2000 50 blind 
total pot: 50 
/inquire 
recv from player 4444: fold 

send inquire msg to player 8888 
inquire/ 
4444 300 4100 0 fold 
8888 70850 2000 50 blind 
total pot: 50 
/inquire 
recv from player 8888: call 


---flop round bet---
valid player: 2, all in player: 0, fold player: 1

---turn round bet---
valid player: 2, all in player: 0, fold player: 1

---river round bet---
valid player: 2, all in player: 0, fold player: 1

----- notify msg last round -----
send notify msg to player 4444 
notify/ 
8888 70850 2000 50 check 
4444 300 4100 0 fold 
total pot: 50 
/notify 
send notify msg to player 8888 
notify/ 
4444 300 4100 0 fold 
8888 70850 2000 50 check 
total pot: 50 
/notify 

--- 1 players not fold, don't need show down---

---Allocate pot---
Only player at seat 0 not fold, win all the pot 50
pot-win/ 
8888: 50 
/pot-win 
it is player 8888's turn to be button

-----155 Hand-----

----- clean player data in socket -----
seat/ 
button: 8888 70900 2000 
small blind: 4444 300 4100 
/seat 
blind/ 
4444: 50 
/blind 
player 4444:hold/ 
DIAMONDS 6 
SPADES K 
/hold 
player 8888:hold/ 
SPADES Q 
HEARTS 9 
/hold 

---pre flop round bet---
valid player: 2, all in player: 0, fold player: 0
send inquire msg to player 8888 
inquire/ 
4444 250 4100 50 blind 
total pot: 50 
/inquire 
recv from player 8888: call 

send inquire msg to player 4444 
inquire/ 
8888 70850 2000 50 call 
4444 250 4100 50 blind 
total pot: 100 
/inquire 
recv from player 4444: fold 


---flop round bet---
valid player: 2, all in player: 0, fold player: 1

---turn round bet---
valid player: 2, all in player: 0, fold player: 1

---river round bet---
valid player: 2, all in player: 0, fold player: 1

----- notify msg last round -----
send notify msg to player 8888 
notify/ 
4444 250 4100 50 fold 
8888 70850 2000 50 call 
total pot: 100 
/notify 
send notify msg to player 4444 
notify/ 
8888 70850 2000 50 call 
4444 250 4100 50 fold 
total pot: 100 
/notify 

--- 1 players not fold, don't need show down---

---Allocate pot---
Only player at seat 7 not fold, win all the pot 100
pot-win/ 
8888: 100 
/pot-win 
it is player 4444's turn to be button

-----156 Hand-----

----- clean player data in socket -----
seat/ 
button: 4444 250 4100 
small blind: 8888 70950 2000 
/seat 
blind/ 
8888: 50 
/blind 
player 8888:hold/ 
HEARTS 4 
CLUBS K 
/hold 
player 4444:hold/ 
HEARTS 2 
CLUBS 3 
/hold 

---pre flop round bet---
valid player: 2, all in player: 0, fold player: 0
send inquire msg to player 4444 
inquire/ 
8888 70900 2000 50 blind 
total pot: 50 
/inquire 
recv from player 4444: fold 

send inquire msg to player 8888 
inquire/ 
4444 250 4100 0 fold 
8888 70900 2000 50 blind 
total pot: 50 
/inquire 
recv from player 8888: fold 


---flop round bet---
valid player: 2, all in player: 0, fold player: 2

---turn round bet---
valid player: 2, all in player: 0, fold player: 2

---river round bet---
valid player: 2, all in player: 0, fold player: 2

----- notify msg last round -----
send notify msg to player 4444 
notify/ 
8888 70900 2000 50 fold 
4444 250 4100 0 fold 
total pot: 50 
/notify 
send notify msg to player 8888 
notify/ 
4444 250 4100 0 fold 
8888 70900 2000 50 fold 
total pot: 50 
/notify 

--- 0 players not fold, don't need show down---

---Allocate pot---
pot-win/ 
/pot-win 
it is player 8888's turn to be button

-----157 Hand-----

----- clean player data in socket -----
seat/ 
button: 8888 70900 2000 
small blind: 4444 250 4100 
/seat 
blind/ 
4444: 50 
/blind 
player 4444:hold/ 
SPADES A 
SPADES 3 
/hold 
player 8888:hold/ 
SPADES 2 
CLUBS K 
/hold 

---pre flop round bet---
valid player: 2, all in player: 0, fold player: 0
send inquire msg to player 8888 
inquire/ 
4444 200 4100 50 blind 
total pot: 50 
/inquire 
recv from player 8888: fold 

send inquire msg to player 4444 
inquire/ 
8888 70900 2000 0 fold 
4444 200 4100 50 blind 
total pot: 50 
/inquire 
recv from player 4444: fold 


---flop round bet---
valid player: 2, all in player: 0, fold player: 2

---turn round bet---
valid player: 2, all in player: 0, fold player: 2

---river round bet---
valid player: 2, all in player: 0, fold player: 2

----- notify msg last round -----
send notify msg to player 8888 
notify/ 
4444 200 4100 50 fold 
8888 70900 2000 0 fold 
total pot: 50 
/notify 
send notify msg to player 4444 
notify/ 
8888 70900 2000 0 fold 
4444 200 4100 50 fold 
total pot: 50 
/notify 

--- 0 players not fold, don't need show down---

---Allocate pot---
pot-win/ 
/pot-win 
it is player 4444's turn to be button

-----158 Hand-----

----- clean player data in socket -----
seat/ 
button: 4444 200 4100 
small blind: 8888 70900 2000 
/seat 
blind/ 
8888: 50 
/blind 
player 8888:hold/ 
DIAMONDS Q 
SPADES 2 
/hold 
player 4444:hold/ 
SPADES 6 
DIAMONDS 3 
/hold 

---pre flop round bet---
valid player: 2, all in player: 0, fold player: 0
send inquire msg to player 4444 
inquire/ 
8888 70850 2000 50 blind 
total pot: 50 
/inquire 
recv from player 4444: fold 

send inquire msg to player 8888 
inquire/ 
4444 200 4100 0 fold 
8888 70850 2000 50 blind 
total pot: 50 
/inquire 
recv from player 8888: fold 


---flop round bet---
valid player: 2, all in player: 0, fold player: 2

---turn round bet---
valid player: 2, all in player: 0, fold player: 2

---river round bet---
valid player: 2, all in player: 0, fold player: 2

----- notify msg last round -----
send notify msg to player 4444 
notify/ 
8888 70850 2000 50 fold 
4444 200 4100 0 fold 
total pot: 50 
/notify 
send notify msg to player 8888 
notify/ 
4444 200 4100 0 fold 
8888 70850 2000 50 fold 
total pot: 50 
/notify 

--- 0 players not fold, don't need show down---

---Allocate pot---
pot-win/ 
/pot-win 
it is player 8888's turn to be button

-----159 Hand-----

----- clean player data in socket -----
seat/ 
button: 8888 70850 2000 
small blind: 4444 200 4100 
/seat 
blind/ 
4444: 50 
/blind 
player 4444:hold/ 
SPADES 4 
SPADES A 
/hold 
player 8888:hold/ 
SPADES 8 
HEARTS Q 
/hold 

---pre flop round bet---
valid player: 2, all in player: 0, fold player: 0
send inquire msg to player 8888 
inquire/ 
4444 150 4100 50 blind 
total pot: 50 
/inquire 
recv from player 8888: call 

send inquire msg to player 4444 
inquire/ 
8888 70800 2000 50 call 
4444 150 4100 50 blind 
total pot: 100 
/inquire 
recv from player 4444: fold 


---flop round bet---
valid player: 2, all in player: 0, fold player: 1

---turn round bet---
valid player: 2, all in player: 0, fold player: 1

---river round bet---
valid player: 2, all in player: 0, fold player: 1

----- notify msg last round -----
send notify msg to player 8888 
notify/ 
4444 150 4100 50 fold 
8888 70800 2000 50 call 
total pot: 100 
/notify 
send notify msg to player 4444 
notify/ 
8888 70800 2000 50 call 
4444 150 4100 50 fold 
total pot: 100 
/notify 

--- 1 players not fold, don't need show down---

---Allocate pot---
Only player at seat 7 not fold, win all the pot 100
pot-win/ 
8888: 100 
/pot-win 
it is player 4444's turn to be button

-----160 Hand-----

----- clean player data in socket -----
seat/ 
button: 4444 150 4100 
small blind: 8888 70900 2000 
/seat 
blind/ 
8888: 50 
/blind 
player 8888:hold/ 
HEARTS 9 
DIAMONDS K 
/hold 
player 4444:hold/ 
HEARTS Q 
SPADES 5 
/hold 

---pre flop round bet---
valid player: 2, all in player: 0, fold player: 0
send inquire msg to player 4444 
inquire/ 
8888 70850 2000 50 blind 
total pot: 50 
/inquire 
recv from player 4444: fold 

send inquire msg to player 8888 
inquire/ 
4444 150 4100 0 fold 
8888 70850 2000 50 blind 
total pot: 50 
/inquire 
recv from player 8888: call 


---flop round bet---
valid player: 2, all in player: 0, fold player: 1

---turn round bet---
valid player: 2, all in player: 0, fold player: 1

---river round bet---
valid player: 2, all in player: 0, fold player: 1

----- notify msg last round -----
send notify msg to player 4444 
notify/ 
8888 70850 2000 50 check 
4444 150 4100 0 fold 
total pot: 50 
/notify 
send notify msg to player 8888 
notify/ 
4444 150 4100 0 fold 
8888 70850 2000 50 check 
total pot: 50 
/notify 

--- 1 players not fold, don't need show down---

---Allocate pot---
Only player at seat 0 not fold, win all the pot 50
pot-win/ 
8888: 50 
/pot-win 
it is player 8888's turn to be button

-----161 Hand-----

----- clean player data in socket -----
seat/ 
button: 8888 70900 2000 
small blind: 4444 150 4100 
/seat 
blind/ 
4444: 50 
/blind 
player 4444:hold/ 
SPADES 8 
DIAMONDS 5 
/hold 
player 8888:hold/ 
DIAMONDS K 
CLUBS 4 
/hold 

---pre flop round bet---
valid player: 2, all in player: 0, fold player: 0
send inquire msg to player 8888 
inquire/ 
4444 100 4100 50 blind 
total pot: 50 
/inquire 
recv from player 8888: fold 

send inquire msg to player 4444 
inquire/ 
8888 70900 2000 0 fold 
4444 100 4100 50 blind 
total pot: 50 
/inquire 
recv from player 4444: fold 


---flop round bet---
valid player: 2, all in player: 0, fold player: 2

---turn round bet---
valid player: 2, all in player: 0, fold player: 2

---river round bet---
valid player: 2, all in player: 0, fold player: 2

----- notify msg last round -----
send notify msg to player 8888 
notify/ 
4444 100 4100 50 fold 
8888 70900 2000 0 fold 
total pot: 50 
/notify 
send notify msg to player 4444 
notify/ 
8888 70900 2000 0 fold 
4444 100 4100 50 fold 
total pot: 50 
/notify 

--- 0 players not fold, don't need show down---

---Allocate pot---
pot-win/ 
/pot-win 
it is player 4444's turn to be button

-----162 Hand-----

----- clean player data in socket -----
seat/ 
button: 4444 100 4100 
small blind: 8888 70900 2000 
/seat 
blind/ 
8888: 50 
/blind 
player 8888:hold/ 
SPADES 6 
CLUBS 4 
/hold 
player 4444:hold/ 
HEARTS A 
HEARTS 8 
/hold 

---pre flop round bet---
valid player: 2, all in player: 0, fold player: 0
send inquire msg to player 4444 
inquire/ 
8888 70850 2000 50 blind 
total pot: 50 
/inquire 
recv from player 4444: fold 

send inquire msg to player 8888 
inquire/ 
4444 100 4100 0 fold 
8888 70850 2000 50 blind 
total pot: 50 
/inquire 
recv from player 8888: fold 


---flop round bet---
valid player: 2, all in player: 0, fold player: 2

---turn round bet---
valid player: 2, all in player: 0, fold player: 2

---river round bet---
valid player: 2, all in player: 0, fold player: 2

----- notify msg last round -----
send notify msg to player 4444 
notify/ 
8888 70850 2000 50 fold 
4444 100 4100 0 fold 
total pot: 50 
/notify 
send notify msg to player 8888 
notify/ 
4444 100 4100 0 fold 
8888 70850 2000 50 fold 
total pot: 50 
/notify 

--- 0 players not fold, don't need show down---

---Allocate pot---
pot-win/ 
/pot-win 
it is player 8888's turn to be button

-----163 Hand-----

----- clean player data in socket -----
seat/ 
button: 8888 70850 2000 
small blind: 4444 100 4100 
/seat 
blind/ 
4444: 50 
/blind 
player 4444:hold/ 
CLUBS 5 
CLUBS Q 
/hold 
player 8888:hold/ 
CLUBS 4 
CLUBS 2 
/hold 

---pre flop round bet---
valid player: 2, all in player: 0, fold player: 0
send inquire msg to player 8888 
inquire/ 
4444 50 4100 50 blind 
total pot: 50 
/inquire 
recv from player 8888: fold 

send inquire msg to player 4444 
inquire/ 
8888 70850 2000 0 fold 
4444 50 4100 50 blind 
total pot: 50 
/inquire 
recv from player 4444: fold 


---flop round bet---
valid player: 2, all in player: 0, fold player: 2

---turn round bet---
valid player: 2, all in player: 0, fold player: 2

---river round bet---
valid player: 2, all in player: 0, fold player: 2

----- notify msg last round -----
send notify msg to player 8888 
notify/ 
4444 50 4100 50 fold 
8888 70850 2000 0 fold 
total pot: 50 
/notify 
send notify msg to player 4444 
notify/ 
8888 70850 2000 0 fold 
4444 50 4100 50 fold 
total pot: 50 
/notify 

--- 0 players not fold, don't need show down---

---Allocate pot---
pot-win/ 
/pot-win 
it is player 4444's turn to be button

-----164 Hand-----

----- clean player data in socket -----
seat/ 
button: 4444 2000 2150 
small blind: 8888 70850 2000 
/seat 
blind/ 
8888: 50 
/blind 
player 8888:hold/ 
SPADES 9 
SPADES 2 
/hold 
player 4444:hold/ 
DIAMONDS 8 
SPADES Q 
/hold 

---pre flop round bet---
valid player: 2, all in player: 0, fold player: 0
send inquire msg to player 4444 
inquire/ 
8888 70800 2000 50 blind 
total pot: 50 
/inquire 
recv from player 4444: fold 

send inquire msg to player 8888 
inquire/ 
4444 2000 2150 0 fold 
8888 70800 2000 50 blind 
total pot: 50 
/inquire 
recv from player 8888: fold 


---flop round bet---
valid player: 2, all in player: 0, fold player: 2

---turn round bet---
valid player: 2, all in player: 0, fold player: 2

---river round bet---
valid player: 2, all in player: 0, fold player: 2

----- notify msg last round -----
send notify msg to player 4444 
notify/ 
8888 70800 2000 50 fold 
4444 2000 2150 0 fold 
total pot: 50 
/notify 
send notify msg to player 8888 
notify/ 
4444 2000 2150 0 fold 
8888 70800 2000 50 fold 
total pot: 50 
/notify 

--- 0 players not fold, don't need show down---

---Allocate pot---
pot-win/ 
/pot-win 
it is player 8888's turn to be button

-----165 Hand-----

----- clean player data in socket -----
seat/ 
button: 8888 70800 2000 
small blind: 4444 2000 2150 
/seat 
blind/ 
4444: 50 
/blind 
player 4444:hold/ 
CLUBS 4 
SPADES Q 
/hold 
player 8888:hold/ 
DIAMONDS 9 
HEARTS A 
/hold 

---pre flop round bet---
valid player: 2, all in player: 0, fold player: 0
send inquire msg to player 8888 
inquire/ 
4444 1950 2150 50 blind 
total pot: 50 
/inquire 
recv from player 8888: call 

send inquire msg to player 4444 
inquire/ 
8888 70750 2000 50 call 
4444 1950 2150 50 blind 
total pot: 100 
/inquire 
recv from player 4444: fold 


---flop round bet---
valid player: 2, all in player: 0, fold player: 1

---turn round bet---
valid player: 2, all in player: 0, fold player: 1

---river round bet---
valid player: 2, all in player: 0, fold player: 1

----- notify msg last round -----
send notify msg to player 8888 
notify/ 
4444 1950 2150 50 fold 
8888 70750 2000 50 call 
total pot: 100 
/notify 
send notify msg to player 4444 
notify/ 
8888 70750 2000 50 call 
4444 1950 2150 50 fold 
total pot: 100 
/notify 

--- 1 players not fold, don't need show down---

---Allocate pot---
Only player at seat 7 not fold, win all the pot 100
pot-win/ 
8888: 100 
/pot-win 
it is player 4444's turn to be button

-----166 Hand-----

----- clean player data in socket -----
seat/ 
button: 4444 1950 2150 
small blind: 8888 70850 2000 
/seat 
blind/ 
8888: 50 
/blind 
player 8888:hold/ 
CLUBS 10 
HEARTS J 
/hold 
player 4444:hold/ 
DIAMONDS 5 
HEARTS A 
/hold 

---pre flop round bet---
valid player: 2, all in player: 0, fold player: 0
send inquire msg to player 4444 
inquire/ 
8888 70800 2000 50 blind 
total pot: 50 
/inquire 
recv from player 4444: fold 

send inquire msg to player 8888 
inquire/ 
4444 1950 2150 0 fold 
8888 70800 2000 50 blind 
total pot: 50 
/inquire 
recv from player 8888: call 


---flop round bet---
valid player: 2, all in player: 0, fold player: 1

---turn round bet---
valid player: 2, all in player: 0, fold player: 1

---river round bet---
valid player: 2, all in player: 0, fold player: 1

----- notify msg last round -----
send notify msg to player 4444 
notify/ 
8888 70800 2000 50 check 
4444 1950 2150 0 fold 
total pot: 50 
/notify 
send notify msg to player 8888 
notify/ 
4444 1950 2150 0 fold 
8888 70800 2000 50 check 
total pot: 50 
/notify 

--- 1 players not fold, don't need show down---

---Allocate pot---
Only player at seat 0 not fold, win all the pot 50
pot-win/ 
8888: 50 
/pot-win 
it is player 8888's turn to be button

-----167 Hand-----

----- clean player data in socket -----
seat/ 
button: 8888 70850 2000 
small blind: 4444 1950 2150 
/seat 
blind/ 
4444: 50 
/blind 
player 4444:hold/ 
HEARTS 2 
SPADES 10 
/hold 
player 8888:hold/ 
SPADES A 
DIAMONDS 8 
/hold 

---pre flop round bet---
valid player: 2, all in player: 0, fold player: 0
send inquire msg to player 8888 
inquire/ 
4444 1900 2150 50 blind 
total pot: 50 
/inquire 
recv from player 8888: call 

send inquire msg to player 4444 
inquire/ 
8888 70800 2000 50 call 
4444 1900 2150 50 blind 
total pot: 100 
/inquire 
recv from player 4444: fold 


---flop round bet---
valid player: 2, all in player: 0, fold player: 1

---turn round bet---
valid player: 2, all in player: 0, fold player: 1

---river round bet---
valid player: 2, all in player: 0, fold player: 1

----- notify msg last round -----
send notify msg to player 8888 
notify/ 
4444 1900 2150 50 fold 
8888 70800 2000 50 call 
total pot: 100 
/notify 
send notify msg to player 4444 
notify/ 
8888 70800 2000 50 call 
4444 1900 2150 50 fold 
total pot: 100 
/notify 

--- 1 players not fold, don't need show down---

---Allocate pot---
Only player at seat 7 not fold, win all the pot 100
pot-win/ 
8888: 100 
/pot-win 
it is player 4444's turn to be button

-----168 Hand-----

----- clean player data in socket -----
seat/ 
button: 4444 1900 2150 
small blind: 8888 70900 2000 
/seat 
blind/ 
8888: 50 
/blind 
player 8888:hold/ 
CLUBS 2 
SPADES 2 
/hold 
player 4444:hold/ 
DIAMONDS 7 
DIAMONDS 10 
/hold 

---pre flop round bet---
valid player: 2, all in player: 0, fold player: 0
send inquire msg to player 4444 
inquire/ 
8888 70850 2000 50 blind 
total pot: 50 
/inquire 
recv from player 4444: fold 

send inquire msg to player 8888 
inquire/ 
4444 1900 2150 0 fold 
8888 70850 2000 50 blind 
total pot: 50 
/inquire 
recv from player 8888: call 


---flop round bet---
valid player: 2, all in player: 0, fold player: 1

---turn round bet---
valid player: 2, all in player: 0, fold player: 1

---river round bet---
valid player: 2, all in player: 0, fold player: 1

----- notify msg last round -----
send notify msg to player 4444 
notify/ 
8888 70850 2000 50 check 
4444 1900 2150 0 fold 
total pot: 50 
/notify 
send notify msg to player 8888 
notify/ 
4444 1900 2150 0 fold 
8888 70850 2000 50 check 
total pot: 50 
/notify 

--- 1 players not fold, don't need show down---

---Allocate pot---
Only player at seat 0 not fold, win all the pot 50
pot-win/ 
8888: 50 
/pot-win 
it is player 8888's turn to be button

-----169 Hand-----

----- clean player data in socket -----
seat/ 
button: 8888 70900 2000 
small blind: 4444 1900 2150 
/seat 
blind/ 
4444: 50 
/blind 
player 4444:hold/ 
HEARTS 6 
HEARTS Q 
/hold 
player 8888:hold/ 
CLUBS 6 
DIAMONDS Q 
/hold 

---pre flop round bet---
valid player: 2, all in player: 0, fold player: 0
send inquire msg to player 8888 
inquire/ 
4444 1850 2150 50 blind 
total pot: 50 
/inquire 
recv from player 8888: call 

send inquire msg to player 4444 
inquire/ 
8888 70850 2000 50 call 
4444 1850 2150 50 blind 
total pot: 100 
/inquire 
recv from player 4444: fold 


---flop round bet---
valid player: 2, all in player: 0, fold player: 1

---turn round bet---
valid player: 2, all in player: 0, fold player: 1

---river round bet---
valid player: 2, all in player: 0, fold player: 1

----- notify msg last round -----
send notify msg to player 8888 
notify/ 
4444 1850 2150 50 fold 
8888 70850 2000 50 call 
total pot: 100 
/notify 
send notify msg to player 4444 
notify/ 
8888 70850 2000 50 call 
4444 1850 2150 50 fold 
total pot: 100 
/notify 

--- 1 players not fold, don't need show down---

---Allocate pot---
Only player at seat 7 not fold, win all the pot 100
pot-win/ 
8888: 100 
/pot-win 
it is player 4444's turn to be button

-----170 Hand-----

----- clean player data in socket -----
seat/ 
button: 4444 1850 2150 
small blind: 8888 70950 2000 
/seat 
blind/ 
8888: 50 
/blind 
player 8888:hold/ 
DIAMONDS 9 
HEARTS A 
/hold 
player 4444:hold/ 
CLUBS 4 
CLUBS 8 
/hold 

---pre flop round bet---
valid player: 2, all in player: 0, fold player: 0
send inquire msg to player 4444 
inquire/ 
8888 70900 2000 50 blind 
total pot: 50 
/inquire 
recv from player 4444: fold 

send inquire msg to player 8888 
inquire/ 
4444 1850 2150 0 fold 
8888 70900 2000 50 blind 
total pot: 50 
/inquire 
recv from player 8888: call 


---flop round bet---
valid player: 2, all in player: 0, fold player: 1

---turn round bet---
valid player: 2, all in player: 0, fold player: 1

---river round bet---
valid player: 2, all in player: 0, fold player: 1

----- notify msg last round -----
send notify msg to player 4444 
notify/ 
8888 70900 2000 50 check 
4444 1850 2150 0 fold 
total pot: 50 
/notify 
send notify msg to player 8888 
notify/ 
4444 1850 2150 0 fold 
8888 70900 2000 50 check 
total pot: 50 
/notify 

--- 1 players not fold, don't need show down---

---Allocate pot---
Only player at seat 0 not fold, win all the pot 50
pot-win/ 
8888: 50 
/pot-win 
it is player 8888's turn to be button

-----171 Hand-----

----- clean player data in socket -----
seat/ 
button: 8888 70950 2000 
small blind: 4444 1850 2150 
/seat 
blind/ 
4444: 50 
/blind 
player 4444:hold/ 
CLUBS 9 
SPADES 5 
/hold 
player 8888:hold/ 
DIAMONDS Q 
DIAMONDS 2 
/hold 

---pre flop round bet---
valid player: 2, all in player: 0, fold player: 0
send inquire msg to player 8888 
inquire/ 
4444 1800 2150 50 blind 
total pot: 50 
/inquire 
recv from player 8888: fold 

send inquire msg to player 4444 
inquire/ 
8888 70950 2000 0 fold 
4444 1800 2150 50 blind 
total pot: 50 
/inquire 
recv from player 4444: fold 


---flop round bet---
valid player: 2, all in player: 0, fold player: 2

---turn round bet---
valid player: 2, all in player: 0, fold player: 2

---river round bet---
valid player: 2, all in player: 0, fold player: 2

----- notify msg last round -----
send notify msg to player 8888 
notify/ 
4444 1800 2150 50 fold 
8888 70950 2000 0 fold 
total pot: 50 
/notify 
send notify msg to player 4444 
notify/ 
8888 70950 2000 0 fold 
4444 1800 2150 50 fold 
total pot: 50 
/notify 

--- 0 players not fold, don't need show down---

---Allocate pot---
pot-win/ 
/pot-win 
it is player 4444's turn to be button

-----172 Hand-----

----- clean player data in socket -----
seat/ 
button: 4444 1800 2150 
small blind: 8888 70950 2000 
/seat 
blind/ 
8888: 50 
/blind 
player 8888:hold/ 
SPADES 9 
HEARTS 8 
/hold 
player 4444:hold/ 
CLUBS 4 
CLUBS 7 
/hold 

---pre flop round bet---
valid player: 2, all in player: 0, fold player: 0
send inquire msg to player 4444 
inquire/ 
8888 70900 2000 50 blind 
total pot: 50 
/inquire 
recv from player 4444: fold 

send inquire msg to player 8888 
inquire/ 
4444 1800 2150 0 fold 
8888 70900 2000 50 blind 
total pot: 50 
/inquire 
recv from player 8888: fold 


---flop round bet---
valid player: 2, all in player: 0, fold player: 2

---turn round bet---
valid player: 2, all in player: 0, fold player: 2

---river round bet---
valid player: 2, all in player: 0, fold player: 2

----- notify msg last round -----
send notify msg to player 4444 
notify/ 
8888 70900 2000 50 fold 
4444 1800 2150 0 fold 
total pot: 50 
/notify 
send notify msg to player 8888 
notify/ 
4444 1800 2150 0 fold 
8888 70900 2000 50 fold 
total pot: 50 
/notify 

--- 0 players not fold, don't need show down---

---Allocate pot---
pot-win/ 
/pot-win 
it is player 8888's turn to be button

-----173 Hand-----

----- clean player data in socket -----
seat/ 
button: 8888 70900 2000 
small blind: 4444 1800 2150 
/seat 
blind/ 
4444: 50 
/blind 
player 4444:hold/ 
CLUBS 4 
DIAMONDS A 
/hold 
player 8888:hold/ 
DIAMONDS 10 
SPADES Q 
/hold 

---pre flop round bet---
valid player: 2, all in player: 0, fold player: 0
send inquire msg to player 8888 
inquire/ 
4444 1750 2150 50 blind 
total pot: 50 
/inquire 
recv from player 8888: call 

send inquire msg to player 4444 
inquire/ 
8888 70850 2000 50 call 
4444 1750 2150 50 blind 
total pot: 100 
/inquire 
recv from player 4444: fold 


---flop round bet---
valid player: 2, all in player: 0, fold player: 1

---turn round bet---
valid player: 2, all in player: 0, fold player: 1

---river round bet---
valid player: 2, all in player: 0, fold player: 1

----- notify msg last round -----
send notify msg to player 8888 
notify/ 
4444 1750 2150 50 fold 
8888 70850 2000 50 call 
total pot: 100 
/notify 
send notify msg to player 4444 
notify/ 
8888 70850 2000 50 call 
4444 1750 2150 50 fold 
total pot: 100 
/notify 

--- 1 players not fold, don't need show down---

---Allocate pot---
Only player at seat 7 not fold, win all the pot 100
pot-win/ 
8888: 100 
/pot-win 
it is player 4444's turn to be button

-----174 Hand-----

----- clean player data in socket -----
seat/ 
button: 4444 1750 2150 
small blind: 8888 70950 2000 
/seat 
blind/ 
8888: 50 
/blind 
player 8888:hold/ 
HEARTS 6 
HEARTS K 
/hold 
player 4444:hold/ 
CLUBS Q 
SPADES 8 
/hold 

---pre flop round bet---
valid player: 2, all in player: 0, fold player: 0
send inquire msg to player 4444 
inquire/ 
8888 70900 2000 50 blind 
total pot: 50 
/inquire 
recv from player 4444: fold 

send inquire msg to player 8888 
inquire/ 
4444 1750 2150 0 fold 
8888 70900 2000 50 blind 
total pot: 50 
/inquire 
recv from player 8888: call 


---flop round bet---
valid player: 2, all in player: 0, fold player: 1

---turn round bet---
valid player: 2, all in player: 0, fold player: 1

---river round bet---
valid player: 2, all in player: 0, fold player: 1

----- notify msg last round -----
send notify msg to player 4444 
notify/ 
8888 70900 2000 50 check 
4444 1750 2150 0 fold 
total pot: 50 
/notify 
send notify msg to player 8888 
notify/ 
4444 1750 2150 0 fold 
8888 70900 2000 50 check 
total pot: 50 
/notify 

--- 1 players not fold, don't need show down---

---Allocate pot---
Only player at seat 0 not fold, win all the pot 50
pot-win/ 
8888: 50 
/pot-win 
it is player 8888's turn to be button

-----175 Hand-----

----- clean player data in socket -----
seat/ 
button: 8888 70950 2000 
small blind: 4444 1750 2150 
/seat 
blind/ 
4444: 50 
/blind 
player 4444:hold/ 
CLUBS 9 
SPADES 6 
/hold 
player 8888:hold/ 
SPADES 5 
CLUBS 2 
/hold 

---pre flop round bet---
valid player: 2, all in player: 0, fold player: 0
send inquire msg to player 8888 
inquire/ 
4444 1700 2150 50 blind 
total pot: 50 
/inquire 
recv from player 8888: fold 

send inquire msg to player 4444 
inquire/ 
8888 70950 2000 0 fold 
4444 1700 2150 50 blind 
total pot: 50 
/inquire 
recv from player 4444: fold 


---flop round bet---
valid player: 2, all in player: 0, fold player: 2

---turn round bet---
valid player: 2, all in player: 0, fold player: 2

---river round bet---
valid player: 2, all in player: 0, fold player: 2

----- notify msg last round -----
send notify msg to player 8888 
notify/ 
4444 1700 2150 50 fold 
8888 70950 2000 0 fold 
total pot: 50 
/notify 
send notify msg to player 4444 
notify/ 
8888 70950 2000 0 fold 
4444 1700 2150 50 fold 
total pot: 50 
/notify 

--- 0 players not fold, don't need show down---

---Allocate pot---
pot-win/ 
/pot-win 
it is player 4444's turn to be button

-----176 Hand-----

----- clean player data in socket -----
seat/ 
button: 4444 1700 2150 
small blind: 8888 70950 2000 
/seat 
blind/ 
8888: 50 
/blind 
player 8888:hold/ 
DIAMONDS 10 
CLUBS 8 
/hold 
player 4444:hold/ 
DIAMONDS 5 
CLUBS Q 
/hold 

---pre flop round bet---
valid player: 2, all in player: 0, fold player: 0
send inquire msg to player 4444 
inquire/ 
8888 70900 2000 50 blind 
total pot: 50 
/inquire 
recv from player 4444: fold 

send inquire msg to player 8888 
inquire/ 
4444 1700 2150 0 fold 
8888 70900 2000 50 blind 
total pot: 50 
/inquire 
recv from player 8888: call 


---flop round bet---
valid player: 2, all in player: 0, fold player: 1

---turn round bet---
valid player: 2, all in player: 0, fold player: 1

---river round bet---
valid player: 2, all in player: 0, fold player: 1

----- notify msg last round -----
send notify msg to player 4444 
notify/ 
8888 70900 2000 50 check 
4444 1700 2150 0 fold 
total pot: 50 
/notify 
send notify msg to player 8888 
notify/ 
4444 1700 2150 0 fold 
8888 70900 2000 50 check 
total pot: 50 
/notify 

--- 1 players not fold, don't need show down---

---Allocate pot---
Only player at seat 0 not fold, win all the pot 50
pot-win/ 
8888: 50 
/pot-win 
it is player 8888's turn to be button

-----177 Hand-----

----- clean player data in socket -----
seat/ 
button: 8888 70950 2000 
small blind: 4444 1700 2150 
/seat 
blind/ 
4444: 50 
/blind 
player 4444:hold/ 
HEARTS J 
HEARTS Q 
/hold 
player 8888:hold/ 
DIAMONDS 9 
SPADES 9 
/hold 

---pre flop round bet---
valid player: 2, all in player: 0, fold player: 0
send inquire msg to player 8888 
inquire/ 
4444 1650 2150 50 blind 
total pot: 50 
/inquire 
recv from player 8888: call 

send inquire msg to player 4444 
inquire/ 
8888 70900 2000 50 call 
4444 1650 2150 50 blind 
total pot: 100 
/inquire 
recv from player 4444: fold 


---flop round bet---
valid player: 2, all in player: 0, fold player: 1

---turn round bet---
valid player: 2, all in player: 0, fold player: 1

---river round bet---
valid player: 2, all in player: 0, fold player: 1

----- notify msg last round -----
send notify msg to player 8888 
notify/ 
4444 1650 2150 50 fold 
8888 70900 2000 50 call 
total pot: 100 
/notify 
send notify msg to player 4444 
notify/ 
8888 70900 2000 50 call 
4444 1650 2150 50 fold 
total pot: 100 
/notify 

--- 1 players not fold, don't need show down---

---Allocate pot---
Only player at seat 7 not fold, win all the pot 100
pot-win/ 
8888: 100 
/pot-win 
it is player 4444's turn to be button

-----178 Hand-----

----- clean player data in socket -----
seat/ 
button: 4444 1650 2150 
small blind: 8888 71000 2000 
/seat 
blind/ 
8888: 50 
/blind 
player 8888:hold/ 
CLUBS 6 
SPADES 9 
/hold 
player 4444:hold/ 
DIAMONDS 2 
CLUBS A 
/hold 

---pre flop round bet---
valid player: 2, all in player: 0, fold player: 0
send inquire msg to player 4444 
inquire/ 
8888 70950 2000 50 blind 
total pot: 50 
/inquire 
recv from player 4444: fold 

send inquire msg to player 8888 
inquire/ 
4444 1650 2150 0 fold 
8888 70950 2000 50 blind 
total pot: 50 
/inquire 
recv from player 8888: fold 


---flop round bet---
valid player: 2, all in player: 0, fold player: 2

---turn round bet---
valid player: 2, all in player: 0, fold player: 2

---river round bet---
valid player: 2, all in player: 0, fold player: 2

----- notify msg last round -----
send notify msg to player 4444 
notify/ 
8888 70950 2000 50 fold 
4444 1650 2150 0 fold 
total pot: 50 
/notify 
send notify msg to player 8888 
notify/ 
4444 1650 2150 0 fold 
8888 70950 2000 50 fold 
total pot: 50 
/notify 

--- 0 players not fold, don't need show down---

---Allocate pot---
pot-win/ 
/pot-win 
it is player 8888's turn to be button

-----179 Hand-----

----- clean player data in socket -----
seat/ 
button: 8888 70950 2000 
small blind: 4444 1650 2150 
/seat 
blind/ 
4444: 50 
/blind 
player 4444:hold/ 
HEARTS K 
CLUBS K 
/hold 
player 8888:hold/ 
HEARTS 9 
DIAMONDS K 
/hold 

---pre flop round bet---
valid player: 2, all in player: 0, fold player: 0
send inquire msg to player 8888 
inquire/ 
4444 1600 2150 50 blind 
total pot: 50 
/inquire 
recv from player 8888: call 

send inquire msg to player 4444 
inquire/ 
8888 70900 2000 50 call 
4444 1600 2150 50 blind 
total pot: 100 
/inquire 
recv from player 4444: fold 


---flop round bet---
valid player: 2, all in player: 0, fold player: 1

---turn round bet---
valid player: 2, all in player: 0, fold player: 1

---river round bet---
valid player: 2, all in player: 0, fold player: 1

----- notify msg last round -----
send notify msg to player 8888 
notify/ 
4444 1600 2150 50 fold 
8888 70900 2000 50 call 
total pot: 100 
/notify 
send notify msg to player 4444 
notify/ 
8888 70900 2000 50 call 
4444 1600 2150 50 fold 
total pot: 100 
/notify 

--- 1 players not fold, don't need show down---

---Allocate pot---
Only player at seat 7 not fold, win all the pot 100
pot-win/ 
8888: 100 
/pot-win 
it is player 4444's turn to be button

-----180 Hand-----

----- clean player data in socket -----
seat/ 
button: 4444 1600 2150 
small blind: 8888 71000 2000 
/seat 
blind/ 
8888: 50 
/blind 
player 8888:hold/ 
SPADES K 
SPADES J 
/hold 
player 4444:hold/ 
DIAMONDS 5 
HEARTS 7 
/hold 

---pre flop round bet---
valid player: 2, all in player: 0, fold player: 0
send inquire msg to player 4444 
inquire/ 
8888 70950 2000 50 blind 
total pot: 50 
/inquire 
recv from player 4444: fold 

send inquire msg to player 8888 
inquire/ 
4444 1600 2150 0 fold 
8888 70950 2000 50 blind 
total pot: 50 
/inquire 
recv from player 8888: call 


---flop round bet---
valid player: 2, all in player: 0, fold player: 1

---turn round bet---
valid player: 2, all in player: 0, fold player: 1

---river round bet---
valid player: 2, all in player: 0, fold player: 1

----- notify msg last round -----
send notify msg to player 4444 
notify/ 
8888 70950 2000 50 check 
4444 1600 2150 0 fold 
total pot: 50 
/notify 
send notify msg to player 8888 
notify/ 
4444 1600 2150 0 fold 
8888 70950 2000 50 check 
total pot: 50 
/notify 

--- 1 players not fold, don't need show down---

---Allocate pot---
Only player at seat 0 not fold, win all the pot 50
pot-win/ 
8888: 50 
/pot-win 
it is player 8888's turn to be button

-----181 Hand-----

----- clean player data in socket -----
seat/ 
button: 8888 71000 2000 
small blind: 4444 1600 2150 
/seat 
blind/ 
4444: 50 
/blind 
player 4444:hold/ 
DIAMONDS 7 
CLUBS 3 
/hold 
player 8888:hold/ 
DIAMONDS 9 
SPADES J 
/hold 

---pre flop round bet---
valid player: 2, all in player: 0, fold player: 0
send inquire msg to player 8888 
inquire/ 
4444 1550 2150 50 blind 
total pot: 50 
/inquire 
recv from player 8888: call 

send inquire msg to player 4444 
inquire/ 
8888 70950 2000 50 call 
4444 1550 2150 50 blind 
total pot: 100 
/inquire 
recv from player 4444: fold 


---flop round bet---
valid player: 2, all in player: 0, fold player: 1

---turn round bet---
valid player: 2, all in player: 0, fold player: 1

---river round bet---
valid player: 2, all in player: 0, fold player: 1

----- notify msg last round -----
send notify msg to player 8888 
notify/ 
4444 1550 2150 50 fold 
8888 70950 2000 50 call 
total pot: 100 
/notify 
send notify msg to player 4444 
notify/ 
8888 70950 2000 50 call 
4444 1550 2150 50 fold 
total pot: 100 
/notify 

--- 1 players not fold, don't need show down---

---Allocate pot---
Only player at seat 7 not fold, win all the pot 100
pot-win/ 
8888: 100 
/pot-win 
it is player 4444's turn to be button

-----182 Hand-----

----- clean player data in socket -----
seat/ 
button: 4444 1550 2150 
small blind: 8888 71050 2000 
/seat 
blind/ 
8888: 50 
/blind 
player 8888:hold/ 
DIAMONDS 9 
SPADES Q 
/hold 
player 4444:hold/ 
HEARTS A 
CLUBS 9 
/hold 

---pre flop round bet---
valid player: 2, all in player: 0, fold player: 0
send inquire msg to player 4444 
inquire/ 
8888 71000 2000 50 blind 
total pot: 50 
/inquire 
recv from player 4444: fold 

send inquire msg to player 8888 
inquire/ 
4444 1550 2150 0 fold 
8888 71000 2000 50 blind 
total pot: 50 
/inquire 
recv from player 8888: call 


---flop round bet---
valid player: 2, all in player: 0, fold player: 1

---turn round bet---
valid player: 2, all in player: 0, fold player: 1

---river round bet---
valid player: 2, all in player: 0, fold player: 1

----- notify msg last round -----
send notify msg to player 4444 
notify/ 
8888 71000 2000 50 check 
4444 1550 2150 0 fold 
total pot: 50 
/notify 
send notify msg to player 8888 
notify/ 
4444 1550 2150 0 fold 
8888 71000 2000 50 check 
total pot: 50 
/notify 

--- 1 players not fold, don't need show down---

---Allocate pot---
Only player at seat 0 not fold, win all the pot 50
pot-win/ 
8888: 50 
/pot-win 
it is player 8888's turn to be button

-----183 Hand-----

----- clean player data in socket -----
seat/ 
button: 8888 71050 2000 
small blind: 4444 1550 2150 
/seat 
blind/ 
4444: 50 
/blind 
player 4444:hold/ 
DIAMONDS 9 
CLUBS J 
/hold 
player 8888:hold/ 
CLUBS K 
DIAMONDS J 
/hold 

---pre flop round bet---
valid player: 2, all in player: 0, fold player: 0
send inquire msg to player 8888 
inquire/ 
4444 1500 2150 50 blind 
total pot: 50 
/inquire 
recv from player 8888: call 

send inquire msg to player 4444 
inquire/ 
8888 71000 2000 50 call 
4444 1500 2150 50 blind 
total pot: 100 
/inquire 
recv from player 4444: fold 


---flop round bet---
valid player: 2, all in player: 0, fold player: 1

---turn round bet---
valid player: 2, all in player: 0, fold player: 1

---river round bet---
valid player: 2, all in player: 0, fold player: 1

----- notify msg last round -----
send notify msg to player 8888 
notify/ 
4444 1500 2150 50 fold 
8888 71000 2000 50 call 
total pot: 100 
/notify 
send notify msg to player 4444 
notify/ 
8888 71000 2000 50 call 
4444 1500 2150 50 fold 
total pot: 100 
/notify 

--- 1 players not fold, don't need show down---

---Allocate pot---
Only player at seat 7 not fold, win all the pot 100
pot-win/ 
8888: 100 
/pot-win 
it is player 4444's turn to be button

-----184 Hand-----

----- clean player data in socket -----
seat/ 
button: 4444 1500 2150 
small blind: 8888 71100 2000 
/seat 
blind/ 
8888: 50 
/blind 
player 8888:hold/ 
CLUBS 4 
DIAMONDS 9 
/hold 
player 4444:hold/ 
CLUBS K 
DIAMONDS Q 
/hold 

---pre flop round bet---
valid player: 2, all in player: 0, fold player: 0
send inquire msg to player 4444 
inquire/ 
8888 71050 2000 50 blind 
total pot: 50 
/inquire 
recv from player 4444: fold 

send inquire msg to player 8888 
inquire/ 
4444 1500 2150 0 fold 
8888 71050 2000 50 blind 
total pot: 50 
/inquire 
recv from player 8888: fold 


---flop round bet---
valid player: 2, all in player: 0, fold player: 2

---turn round bet---
valid player: 2, all in player: 0, fold player: 2

---river round bet---
valid player: 2, all in player: 0, fold player: 2

----- notify msg last round -----
send notify msg to player 4444 
notify/ 
8888 71050 2000 50 fold 
4444 1500 2150 0 fold 
total pot: 50 
/notify 
send notify msg to player 8888 
notify/ 
4444 1500 2150 0 fold 
8888 71050 2000 50 fold 
total pot: 50 
/notify 

--- 0 players not fold, don't need show down---

---Allocate pot---
pot-win/ 
/pot-win 
it is player 8888's turn to be button

-----185 Hand-----

----- clean player data in socket -----
seat/ 
button: 8888 71050 2000 
small blind: 4444 1500 2150 
/seat 
blind/ 
4444: 50 
/blind 
player 4444:hold/ 
SPADES 5 
HEARTS 6 
/hold 
player 8888:hold/ 
CLUBS 6 
CLUBS 4 
/hold 

---pre flop round bet---
valid player: 2, all in player: 0, fold player: 0
send inquire msg to player 8888 
inquire/ 
4444 1450 2150 50 blind 
total pot: 50 
/inquire 
recv from player 8888: fold 

send inquire msg to player 4444 
inquire/ 
8888 71050 2000 0 fold 
4444 1450 2150 50 blind 
total pot: 50 
/inquire 
recv from player 4444: fold 


---flop round bet---
valid player: 2, all in player: 0, fold player: 2

---turn round bet---
valid player: 2, all in player: 0, fold player: 2

---river round bet---
valid player: 2, all in player: 0, fold player: 2

----- notify msg last round -----
send notify msg to player 8888 
notify/ 
4444 1450 2150 50 fold 
8888 71050 2000 0 fold 
total pot: 50 
/notify 
send notify msg to player 4444 
notify/ 
8888 71050 2000 0 fold 
4444 1450 2150 50 fold 
total pot: 50 
/notify 

--- 0 players not fold, don't need show down---

---Allocate pot---
pot-win/ 
/pot-win 
it is player 4444's turn to be button

-----186 Hand-----

----- clean player data in socket -----
seat/ 
button: 4444 1450 2150 
small blind: 8888 71050 2000 
/seat 
blind/ 
8888: 50 
/blind 
player 8888:hold/ 
SPADES 3 
SPADES 2 
/hold 
player 4444:hold/ 
CLUBS 9 
CLUBS Q 
/hold 

---pre flop round bet---
valid player: 2, all in player: 0, fold player: 0
send inquire msg to player 4444 
inquire/ 
8888 71000 2000 50 blind 
total pot: 50 
/inquire 
recv from player 4444: fold 

send inquire msg to player 8888 
inquire/ 
4444 1450 2150 0 fold 
8888 71000 2000 50 blind 
total pot: 50 
/inquire 
recv from player 8888: fold 


---flop round bet---
valid player: 2, all in player: 0, fold player: 2

---turn round bet---
valid player: 2, all in player: 0, fold player: 2

---river round bet---
valid player: 2, all in player: 0, fold player: 2

----- notify msg last round -----
send notify msg to player 4444 
notify/ 
8888 71000 2000 50 fold 
4444 1450 2150 0 fold 
total pot: 50 
/notify 
send notify msg to player 8888 
notify/ 
4444 1450 2150 0 fold 
8888 71000 2000 50 fold 
total pot: 50 
/notify 

--- 0 players not fold, don't need show down---

---Allocate pot---
pot-win/ 
/pot-win 
it is player 8888's turn to be button

-----187 Hand-----

----- clean player data in socket -----
seat/ 
button: 8888 71000 2000 
small blind: 4444 1450 2150 
/seat 
blind/ 
4444: 50 
/blind 
player 4444:hold/ 
CLUBS Q 
CLUBS 6 
/hold 
player 8888:hold/ 
CLUBS 7 
SPADES Q 
/hold 

---pre flop round bet---
valid player: 2, all in player: 0, fold player: 0
send inquire msg to player 8888 
inquire/ 
4444 1400 2150 50 blind 
total pot: 50 
/inquire 
recv from player 8888: call 

send inquire msg to player 4444 
inquire/ 
8888 70950 2000 50 call 
4444 1400 2150 50 blind 
total pot: 100 
/inquire 
recv from player 4444: fold 


---flop round bet---
valid player: 2, all in player: 0, fold player: 1

---turn round bet---
valid player: 2, all in player: 0, fold player: 1

---river round bet---
valid player: 2, all in player: 0, fold player: 1

----- notify msg last round -----
send notify msg to player 8888 
notify/ 
4444 1400 2150 50 fold 
8888 70950 2000 50 call 
total pot: 100 
/notify 
send notify msg to player 4444 
notify/ 
8888 70950 2000 50 call 
4444 1400 2150 50 fold 
total pot: 100 
/notify 

--- 1 players not fold, don't need show down---

---Allocate pot---
Only player at seat 7 not fold, win all the pot 100
pot-win/ 
8888: 100 
/pot-win 
it is player 4444's turn to be button

-----188 Hand-----

----- clean player data in socket -----
seat/ 
button: 4444 1400 2150 
small blind: 8888 71050 2000 
/seat 
blind/ 
8888: 50 
/blind 
player 8888:hold/ 
SPADES 4 
HEARTS Q 
/hold 
player 4444:hold/ 
HEARTS 7 
SPADES Q 
/hold 

---pre flop round bet---
valid player: 2, all in player: 0, fold player: 0
send inquire msg to player 4444 
inquire/ 
8888 71000 2000 50 blind 
total pot: 50 
/inquire 
recv from player 4444: fold 

send inquire msg to player 8888 
inquire/ 
4444 1400 2150 0 fold 
8888 71000 2000 50 blind 
total pot: 50 
/inquire 
recv from player 8888: fold 


---flop round bet---
valid player: 2, all in player: 0, fold player: 2

---turn round bet---
valid player: 2, all in player: 0, fold player: 2

---river round bet---
valid player: 2, all in player: 0, fold player: 2

----- notify msg last round -----
send notify msg to player 4444 
notify/ 
8888 71000 2000 50 fold 
4444 1400 2150 0 fold 
total pot: 50 
/notify 
send notify msg to player 8888 
notify/ 
4444 1400 2150 0 fold 
8888 71000 2000 50 fold 
total pot: 50 
/notify 

--- 0 players not fold, don't need show down---

---Allocate pot---
pot-win/ 
/pot-win 
it is player 8888's turn to be button

-----189 Hand-----

----- clean player data in socket -----
seat/ 
button: 8888 71000 2000 
small blind: 4444 1400 2150 
/seat 
blind/ 
4444: 50 
/blind 
player 4444:hold/ 
CLUBS 8 
DIAMONDS A 
/hold 
player 8888:hold/ 
CLUBS 6 
HEARTS 9 
/hold 

---pre flop round bet---
valid player: 2, all in player: 0, fold player: 0
send inquire msg to player 8888 
inquire/ 
4444 1350 2150 50 blind 
total pot: 50 
/inquire 
recv from player 8888: fold 

send inquire msg to player 4444 
inquire/ 
8888 71000 2000 0 fold 
4444 1350 2150 50 blind 
total pot: 50 
/inquire 
recv from player 4444: fold 


---flop round bet---
valid player: 2, all in player: 0, fold player: 2

---turn round bet---
valid player: 2, all in player: 0, fold player: 2

---river round bet---
valid player: 2, all in player: 0, fold player: 2

----- notify msg last round -----
send notify msg to player 8888 
notify/ 
4444 1350 2150 50 fold 
8888 71000 2000 0 fold 
total pot: 50 
/notify 
send notify msg to player 4444 
notify/ 
8888 71000 2000 0 fold 
4444 1350 2150 50 fold 
total pot: 50 
/notify 

--- 0 players not fold, don't need show down---

---Allocate pot---
pot-win/ 
/pot-win 
it is player 4444's turn to be button

-----190 Hand-----

----- clean player data in socket -----
seat/ 
button: 4444 1350 2150 
small blind: 8888 71000 2000 
/seat 
blind/ 
8888: 50 
/blind 
player 8888:hold/ 
CLUBS 7 
SPADES 4 
/hold 
player 4444:hold/ 
SPADES A 
DIAMONDS 2 
/hold 

---pre flop round bet---
valid player: 2, all in player: 0, fold player: 0
send inquire msg to player 4444 
inquire/ 
8888 70950 2000 50 blind 
total pot: 50 
/inquire 
recv from player 4444: fold 

send inquire msg to player 8888 
inquire/ 
4444 1350 2150 0 fold 
8888 70950 2000 50 blind 
total pot: 50 
/inquire 
recv from player 8888: fold 


---flop round bet---
valid player: 2, all in player: 0, fold player: 2

---turn round bet---
valid player: 2, all in player: 0, fold player: 2

---river round bet---
valid player: 2, all in player: 0, fold player: 2

----- notify msg last round -----
send notify msg to player 4444 
notify/ 
8888 70950 2000 50 fold 
4444 1350 2150 0 fold 
total pot: 50 
/notify 
send notify msg to player 8888 
notify/ 
4444 1350 2150 0 fold 
8888 70950 2000 50 fold 
total pot: 50 
/notify 

--- 0 players not fold, don't need show down---

---Allocate pot---
pot-win/ 
/pot-win 
it is player 8888's turn to be button

-----191 Hand-----

----- clean player data in socket -----
seat/ 
button: 8888 70950 2000 
small blind: 4444 1350 2150 
/seat 
blind/ 
4444: 50 
/blind 
player 4444:hold/ 
CLUBS A 
HEARTS Q 
/hold 
player 8888:hold/ 
DIAMONDS 6 
HEARTS 6 
/hold 

---pre flop round bet---
valid player: 2, all in player: 0, fold player: 0
send inquire msg to player 8888 
inquire/ 
4444 1300 2150 50 blind 
total pot: 50 
/inquire 
recv from player 8888: call 

send inquire msg to player 4444 
inquire/ 
8888 70900 2000 50 call 
4444 1300 2150 50 blind 
total pot: 100 
/inquire 
recv from player 4444: fold 


---flop round bet---
valid player: 2, all in player: 0, fold player: 1

---turn round bet---
valid player: 2, all in player: 0, fold player: 1

---river round bet---
valid player: 2, all in player: 0, fold player: 1

----- notify msg last round -----
send notify msg to player 8888 
notify/ 
4444 1300 2150 50 fold 
8888 70900 2000 50 call 
total pot: 100 
/notify 
send notify msg to player 4444 
notify/ 
8888 70900 2000 50 call 
4444 1300 2150 50 fold 
total pot: 100 
/notify 

--- 1 players not fold, don't need show down---

---Allocate pot---
Only player at seat 7 not fold, win all the pot 100
pot-win/ 
8888: 100 
/pot-win 
it is player 4444's turn to be button

-----192 Hand-----

----- clean player data in socket -----
seat/ 
button: 4444 1300 2150 
small blind: 8888 71000 2000 
/seat 
blind/ 
8888: 50 
/blind 
player 8888:hold/ 
SPADES A 
CLUBS 4 
/hold 
player 4444:hold/ 
SPADES J 
HEARTS 3 
/hold 

---pre flop round bet---
valid player: 2, all in player: 0, fold player: 0
send inquire msg to player 4444 
inquire/ 
8888 70950 2000 50 blind 
total pot: 50 
/inquire 
recv from player 4444: fold 

send inquire msg to player 8888 
inquire/ 
4444 1300 2150 0 fold 
8888 70950 2000 50 blind 
total pot: 50 
/inquire 
recv from player 8888: call 


---flop round bet---
valid player: 2, all in player: 0, fold player: 1

---turn round bet---
valid player: 2, all in player: 0, fold player: 1

---river round bet---
valid player: 2, all in player: 0, fold player: 1

----- notify msg last round -----
send notify msg to player 4444 
notify/ 
8888 70950 2000 50 check 
4444 1300 2150 0 fold 
total pot: 50 
/notify 
send notify msg to player 8888 
notify/ 
4444 1300 2150 0 fold 
8888 70950 2000 50 check 
total pot: 50 
/notify 

--- 1 players not fold, don't need show down---

---Allocate pot---
Only player at seat 0 not fold, win all the pot 50
pot-win/ 
8888: 50 
/pot-win 
it is player 8888's turn to be button

-----193 Hand-----

----- clean player data in socket -----
seat/ 
button: 8888 71000 2000 
small blind: 4444 1300 2150 
/seat 
blind/ 
4444: 50 
/blind 
player 4444:hold/ 
SPADES 8 
HEARTS 8 
/hold 
player 8888:hold/ 
HEARTS 3 
HEARTS 4 
/hold 

---pre flop round bet---
valid player: 2, all in player: 0, fold player: 0
send inquire msg to player 8888 
inquire/ 
4444 1250 2150 50 blind 
total pot: 50 
/inquire 
recv from player 8888: fold 

send inquire msg to player 4444 
inquire/ 
8888 71000 2000 0 fold 
4444 1250 2150 50 blind 
total pot: 50 
/inquire 
recv from player 4444: fold 


---flop round bet---
valid player: 2, all in player: 0, fold player: 2

---turn round bet---
valid player: 2, all in player: 0, fold player: 2

---river round bet---
valid player: 2, all in player: 0, fold player: 2

----- notify msg last round -----
send notify msg to player 8888 
notify/ 
4444 1250 2150 50 fold 
8888 71000 2000 0 fold 
total pot: 50 
/notify 
send notify msg to player 4444 
notify/ 
8888 71000 2000 0 fold 
4444 1250 2150 50 fold 
total pot: 50 
/notify 

--- 0 players not fold, don't need show down---

---Allocate pot---
pot-win/ 
/pot-win 
it is player 4444's turn to be button

-----194 Hand-----

----- clean player data in socket -----
seat/ 
button: 4444 1250 2150 
small blind: 8888 71000 2000 
/seat 
blind/ 
8888: 50 
/blind 
player 8888:hold/ 
SPADES 5 
DIAMONDS J 
/hold 
player 4444:hold/ 
CLUBS Q 
DIAMONDS Q 
/hold 

---pre flop round bet---
valid player: 2, all in player: 0, fold player: 0
send inquire msg to player 4444 
inquire/ 
8888 70950 2000 50 blind 
total pot: 50 
/inquire 
recv from player 4444: fold 

send inquire msg to player 8888 
inquire/ 
4444 1250 2150 0 fold 
8888 70950 2000 50 blind 
total pot: 50 
/inquire 
recv from player 8888: fold 


---flop round bet---
valid player: 2, all in player: 0, fold player: 2

---turn round bet---
valid player: 2, all in player: 0, fold player: 2

---river round bet---
valid player: 2, all in player: 0, fold player: 2

----- notify msg last round -----
send notify msg to player 4444 
notify/ 
8888 70950 2000 50 fold 
4444 1250 2150 0 fold 
total pot: 50 
/notify 
send notify msg to player 8888 
notify/ 
4444 1250 2150 0 fold 
8888 70950 2000 50 fold 
total pot: 50 
/notify 

--- 0 players not fold, don't need show down---

---Allocate pot---
pot-win/ 
/pot-win 
it is player 8888's turn to be button

-----195 Hand-----

----- clean player data in socket -----
seat/ 
button: 8888 70950 2000 
small blind: 4444 1250 2150 
/seat 
blind/ 
4444: 50 
/blind 
player 4444:hold/ 
CLUBS 10 
HEARTS J 
/hold 
player 8888:hold/ 
HEARTS 5 
CLUBS 5 
/hold 

---pre flop round bet---
valid player: 2, all in player: 0, fold player: 0
send inquire msg to player 8888 
inquire/ 
4444 1200 2150 50 blind 
total pot: 50 
/inquire 
recv from player 8888: call 

send inquire msg to player 4444 
inquire/ 
8888 70900 2000 50 call 
4444 1200 2150 50 blind 
total pot: 100 
/inquire 
recv from player 4444: fold 


---flop round bet---
valid player: 2, all in player: 0, fold player: 1

---turn round bet---
valid player: 2, all in player: 0, fold player: 1

---river round bet---
valid player: 2, all in player: 0, fold player: 1

----- notify msg last round -----
send notify msg to player 8888 
notify/ 
4444 1200 2150 50 fold 
8888 70900 2000 50 call 
total pot: 100 
/notify 
send notify msg to player 4444 
notify/ 
8888 70900 2000 50 call 
4444 1200 2150 50 fold 
total pot: 100 
/notify 

--- 1 players not fold, don't need show down---

---Allocate pot---
Only player at seat 7 not fold, win all the pot 100
pot-win/ 
8888: 100 
/pot-win 
it is player 4444's turn to be button

-----196 Hand-----

----- clean player data in socket -----
seat/ 
button: 4444 1200 2150 
small blind: 8888 71000 2000 
/seat 
blind/ 
8888: 50 
/blind 
player 8888:hold/ 
HEARTS K 
HEARTS 4 
/hold 
player 4444:hold/ 
HEARTS A 
CLUBS 9 
/hold 

---pre flop round bet---
valid player: 2, all in player: 0, fold player: 0
send inquire msg to player 4444 
inquire/ 
8888 70950 2000 50 blind 
total pot: 50 
/inquire 
recv from player 4444: fold 

send inquire msg to player 8888 
inquire/ 
4444 1200 2150 0 fold 
8888 70950 2000 50 blind 
total pot: 50 
/inquire 
recv from player 8888: fold 


---flop round bet---
valid player: 2, all in player: 0, fold player: 2

---turn round bet---
valid player: 2, all in player: 0, fold player: 2

---river round bet---
valid player: 2, all in player: 0, fold player: 2

----- notify msg last round -----
send notify msg to player 4444 
notify/ 
8888 70950 2000 50 fold 
4444 1200 2150 0 fold 
total pot: 50 
/notify 
send notify msg to player 8888 
notify/ 
4444 1200 2150 0 fold 
8888 70950 2000 50 fold 
total pot: 50 
/notify 

--- 0 players not fold, don't need show down---

---Allocate pot---
pot-win/ 
/pot-win 
it is player 8888's turn to be button

-----197 Hand-----

----- clean player data in socket -----
seat/ 
button: 8888 70950 2000 
small blind: 4444 1200 2150 
/seat 
blind/ 
4444: 50 
/blind 
player 4444:hold/ 
HEARTS 3 
SPADES 8 
/hold 
player 8888:hold/ 
DIAMONDS 5 
DIAMONDS 4 
/hold 

---pre flop round bet---
valid player: 2, all in player: 0, fold player: 0
send inquire msg to player 8888 
inquire/ 
4444 1150 2150 50 blind 
total pot: 50 
/inquire 
recv from player 8888: fold 

send inquire msg to player 4444 
inquire/ 
8888 70950 2000 0 fold 
4444 1150 2150 50 blind 
total pot: 50 
/inquire 
recv from player 4444: fold 


---flop round bet---
valid player: 2, all in player: 0, fold player: 2

---turn round bet---
valid player: 2, all in player: 0, fold player: 2

---river round bet---
valid player: 2, all in player: 0, fold player: 2

----- notify msg last round -----
send notify msg to player 8888 
notify/ 
4444 1150 2150 50 fold 
8888 70950 2000 0 fold 
total pot: 50 
/notify 
send notify msg to player 4444 
notify/ 
8888 70950 2000 0 fold 
4444 1150 2150 50 fold 
total pot: 50 
/notify 

--- 0 players not fold, don't need show down---

---Allocate pot---
pot-win/ 
/pot-win 
it is player 4444's turn to be button

-----198 Hand-----

----- clean player data in socket -----
seat/ 
button: 4444 1150 2150 
small blind: 8888 70950 2000 
/seat 
blind/ 
8888: 50 
/blind 
player 8888:hold/ 
CLUBS 9 
CLUBS 2 
/hold 
player 4444:hold/ 
HEARTS A 
DIAMONDS A 
/hold 

---pre flop round bet---
valid player: 2, all in player: 0, fold player: 0
send inquire msg to player 4444 
inquire/ 
8888 70900 2000 50 blind 
total pot: 50 
/inquire 
recv from player 4444: fold 

send inquire msg to player 8888 
inquire/ 
4444 1150 2150 0 fold 
8888 70900 2000 50 blind 
total pot: 50 
/inquire 
recv from player 8888: fold 


---flop round bet---
valid player: 2, all in player: 0, fold player: 2

---turn round bet---
valid player: 2, all in player: 0, fold player: 2

---river round bet---
valid player: 2, all in player: 0, fold player: 2

----- notify msg last round -----
send notify msg to player 4444 
notify/ 
8888 70900 2000 50 fold 
4444 1150 2150 0 fold 
total pot: 50 
/notify 
send notify msg to player 8888 
notify/ 
4444 1150 2150 0 fold 
8888 70900 2000 50 fold 
total pot: 50 
/notify 

--- 0 players not fold, don't need show down---

---Allocate pot---
pot-win/ 
/pot-win 
it is player 8888's turn to be button

-----199 Hand-----

----- clean player data in socket -----
seat/ 
button: 8888 70900 2000 
small blind: 4444 1150 2150 
/seat 
blind/ 
4444: 50 
/blind 
player 4444:hold/ 
SPADES 5 
CLUBS 2 
/hold 
player 8888:hold/ 
CLUBS A 
DIAMONDS 6 
/hold 

---pre flop round bet---
valid player: 2, all in player: 0, fold player: 0
send inquire msg to player 8888 
inquire/ 
4444 1100 2150 50 blind 
total pot: 50 
/inquire 
recv from player 8888: call 

send inquire msg to player 4444 
inquire/ 
8888 70850 2000 50 call 
4444 1100 2150 50 blind 
total pot: 100 
/inquire 
recv from player 4444: fold 


---flop round bet---
valid player: 2, all in player: 0, fold player: 1

---turn round bet---
valid player: 2, all in player: 0, fold player: 1

---river round bet---
valid player: 2, all in player: 0, fold player: 1

----- notify msg last round -----
send notify msg to player 8888 
notify/ 
4444 1100 2150 50 fold 
8888 70850 2000 50 call 
total pot: 100 
/notify 
send notify msg to player 4444 
notify/ 
8888 70850 2000 50 call 
4444 1100 2150 50 fold 
total pot: 100 
/notify 

--- 1 players not fold, don't need show down---

---Allocate pot---
Only player at seat 7 not fold, win all the pot 100
pot-win/ 
8888: 100 
/pot-win 
it is player 4444's turn to be button

-----200 Hand-----

----- clean player data in socket -----
seat/ 
button: 4444 1100 2150 
small blind: 8888 70950 2000 
/seat 
blind/ 
8888: 50 
/blind 
player 8888:hold/ 
SPADES 9 
SPADES 4 
/hold 
player 4444:hold/ 
CLUBS Q 
SPADES 7 
/hold 

---pre flop round bet---
valid player: 2, all in player: 0, fold player: 0
send inquire msg to player 4444 
inquire/ 
8888 70900 2000 50 blind 
total pot: 50 
/inquire 
recv from player 4444: fold 

send inquire msg to player 8888 
inquire/ 
4444 1100 2150 0 fold 
8888 70900 2000 50 blind 
total pot: 50 
/inquire 
recv from player 8888: fold 


---flop round bet---
valid player: 2, all in player: 0, fold player: 2

---turn round bet---
valid player: 2, all in player: 0, fold player: 2

---river round bet---
valid player: 2, all in player: 0, fold player: 2

----- notify msg last round -----
send notify msg to player 4444 
notify/ 
8888 70900 2000 50 fold 
4444 1100 2150 0 fold 
total pot: 50 
/notify 
send notify msg to player 8888 
notify/ 
4444 1100 2150 0 fold 
8888 70900 2000 50 fold 
total pot: 50 
/notify 

--- 0 players not fold, don't need show down---

---Allocate pot---
pot-win/ 
/pot-win 
it is player 8888's turn to be button

-----201 Hand-----

----- clean player data in socket -----
seat/ 
button: 8888 70900 2000 
small blind: 4444 1100 2150 
/seat 
blind/ 
4444: 50 
/blind 
player 4444:hold/ 
CLUBS 5 
HEARTS K 
/hold 
player 8888:hold/ 
SPADES 2 
DIAMONDS 8 
/hold 

---pre flop round bet---
valid player: 2, all in player: 0, fold player: 0
send inquire msg to player 8888 
inquire/ 
4444 1050 2150 50 blind 
total pot: 50 
/inquire 
recv from player 8888: fold 

send inquire msg to player 4444 
inquire/ 
8888 70900 2000 0 fold 
4444 1050 2150 50 blind 
total pot: 50 
/inquire 
recv from player 4444: fold 


---flop round bet---
valid player: 2, all in player: 0, fold player: 2

---turn round bet---
valid player: 2, all in player: 0, fold player: 2

---river round bet---
valid player: 2, all in player: 0, fold player: 2

----- notify msg last round -----
send notify msg to player 8888 
notify/ 
4444 1050 2150 50 fold 
8888 70900 2000 0 fold 
total pot: 50 
/notify 
send notify msg to player 4444 
notify/ 
8888 70900 2000 0 fold 
4444 1050 2150 50 fold 
total pot: 50 
/notify 

--- 0 players not fold, don't need show down---

---Allocate pot---
pot-win/ 
/pot-win 
it is player 4444's turn to be button

-----202 Hand-----

----- clean player data in socket -----
seat/ 
button: 4444 1050 2150 
small blind: 8888 70900 2000 
/seat 
blind/ 
8888: 50 
/blind 
player 8888:hold/ 
CLUBS J 
HEARTS 2 
/hold 
player 4444:hold/ 
SPADES 3 
SPADES 5 
/hold 

---pre flop round bet---
valid player: 2, all in player: 0, fold player: 0
send inquire msg to player 4444 
inquire/ 
8888 70850 2000 50 blind 
total pot: 50 
/inquire 
recv from player 4444: fold 

send inquire msg to player 8888 
inquire/ 
4444 1050 2150 0 fold 
8888 70850 2000 50 blind 
total pot: 50 
/inquire 
recv from player 8888: fold 


---flop round bet---
valid player: 2, all in player: 0, fold player: 2

---turn round bet---
valid player: 2, all in player: 0, fold player: 2

---river round bet---
valid player: 2, all in player: 0, fold player: 2

----- notify msg last round -----
send notify msg to player 4444 
notify/ 
8888 70850 2000 50 fold 
4444 1050 2150 0 fold 
total pot: 50 
/notify 
send notify msg to player 8888 
notify/ 
4444 1050 2150 0 fold 
8888 70850 2000 50 fold 
total pot: 50 
/notify 

--- 0 players not fold, don't need show down---

---Allocate pot---
pot-win/ 
/pot-win 
it is player 8888's turn to be button

-----203 Hand-----

----- clean player data in socket -----
seat/ 
button: 8888 70850 2000 
small blind: 4444 1050 2150 
/seat 
blind/ 
4444: 50 
/blind 
player 4444:hold/ 
HEARTS 7 
DIAMONDS 5 
/hold 
player 8888:hold/ 
SPADES 5 
CLUBS 3 
/hold 

---pre flop round bet---
valid player: 2, all in player: 0, fold player: 0
send inquire msg to player 8888 
inquire/ 
4444 1000 2150 50 blind 
total pot: 50 
/inquire 
recv from player 8888: fold 

send inquire msg to player 4444 
inquire/ 
8888 70850 2000 0 fold 
4444 1000 2150 50 blind 
total pot: 50 
/inquire 
recv from player 4444: fold 


---flop round bet---
valid player: 2, all in player: 0, fold player: 2

---turn round bet---
valid player: 2, all in player: 0, fold player: 2

---river round bet---
valid player: 2, all in player: 0, fold player: 2

----- notify msg last round -----
send notify msg to player 8888 
notify/ 
4444 1000 2150 50 fold 
8888 70850 2000 0 fold 
total pot: 50 
/notify 
send notify msg to player 4444 
notify/ 
8888 70850 2000 0 fold 
4444 1000 2150 50 fold 
total pot: 50 
/notify 

--- 0 players not fold, don't need show down---

---Allocate pot---
pot-win/ 
/pot-win 
it is player 4444's turn to be button

-----204 Hand-----

----- clean player data in socket -----
seat/ 
button: 4444 1000 2150 
small blind: 8888 70850 2000 
/seat 
blind/ 
8888: 50 
/blind 
player 8888:hold/ 
HEARTS 10 
SPADES 9 
/hold 
player 4444:hold/ 
CLUBS Q 
SPADES Q 
/hold 

---pre flop round bet---
valid player: 2, all in player: 0, fold player: 0
send inquire msg to player 4444 
inquire/ 
8888 70800 2000 50 blind 
total pot: 50 
/inquire 
recv from player 4444: fold 

send inquire msg to player 8888 
inquire/ 
4444 1000 2150 0 fold 
8888 70800 2000 50 blind 
total pot: 50 
/inquire 
recv from player 8888: call 


---flop round bet---
valid player: 2, all in player: 0, fold player: 1

---turn round bet---
valid player: 2, all in player: 0, fold player: 1

---river round bet---
valid player: 2, all in player: 0, fold player: 1

----- notify msg last round -----
send notify msg to player 4444 
notify/ 
8888 70800 2000 50 check 
4444 1000 2150 0 fold 
total pot: 50 
/notify 
send notify msg to player 8888 
notify/ 
4444 1000 2150 0 fold 
8888 70800 2000 50 check 
total pot: 50 
/notify 

--- 1 players not fold, don't need show down---

---Allocate pot---
Only player at seat 0 not fold, win all the pot 50
pot-win/ 
8888: 50 
/pot-win 
it is player 8888's turn to be button

-----205 Hand-----

----- clean player data in socket -----
seat/ 
button: 8888 70850 2000 
small blind: 4444 1000 2150 
/seat 
blind/ 
4444: 50 
/blind 
player 4444:hold/ 
DIAMONDS 5 
CLUBS 7 
/hold 
player 8888:hold/ 
HEARTS 6 
HEARTS 4 
/hold 

---pre flop round bet---
valid player: 2, all in player: 0, fold player: 0
send inquire msg to player 8888 
inquire/ 
4444 950 2150 50 blind 
total pot: 50 
/inquire 
recv from player 8888: fold 

send inquire msg to player 4444 
inquire/ 
8888 70850 2000 0 fold 
4444 950 2150 50 blind 
total pot: 50 
/inquire 
recv from player 4444: fold 


---flop round bet---
valid player: 2, all in player: 0, fold player: 2

---turn round bet---
valid player: 2, all in player: 0, fold player: 2

---river round bet---
valid player: 2, all in player: 0, fold player: 2

----- notify msg last round -----
send notify msg to player 8888 
notify/ 
4444 950 2150 50 fold 
8888 70850 2000 0 fold 
total pot: 50 
/notify 
send notify msg to player 4444 
notify/ 
8888 70850 2000 0 fold 
4444 950 2150 50 fold 
total pot: 50 
/notify 

--- 0 players not fold, don't need show down---

---Allocate pot---
pot-win/ 
/pot-win 
it is player 4444's turn to be button

-----206 Hand-----

----- clean player data in socket -----
seat/ 
button: 4444 950 2150 
small blind: 8888 70850 2000 
/seat 
blind/ 
8888: 50 
/blind 
player 8888:hold/ 
DIAMONDS 2 
DIAMONDS 5 
/hold 
player 4444:hold/ 
CLUBS 5 
HEARTS 10 
/hold 

---pre flop round bet---
valid player: 2, all in player: 0, fold player: 0
send inquire msg to player 4444 
inquire/ 
8888 70800 2000 50 blind 
total pot: 50 
/inquire 
recv from player 4444: fold 

send inquire msg to player 8888 
inquire/ 
4444 950 2150 0 fold 
8888 70800 2000 50 blind 
total pot: 50 
/inquire 
recv from player 8888: fold 


---flop round bet---
valid player: 2, all in player: 0, fold player: 2

---turn round bet---
valid player: 2, all in player: 0, fold player: 2

---river round bet---
valid player: 2, all in player: 0, fold player: 2

----- notify msg last round -----
send notify msg to player 4444 
notify/ 
8888 70800 2000 50 fold 
4444 950 2150 0 fold 
total pot: 50 
/notify 
send notify msg to player 8888 
notify/ 
4444 950 2150 0 fold 
8888 70800 2000 50 fold 
total pot: 50 
/notify 

--- 0 players not fold, don't need show down---

---Allocate pot---
pot-win/ 
/pot-win 
it is player 8888's turn to be button

-----207 Hand-----

----- clean player data in socket -----
seat/ 
button: 8888 70800 2000 
small blind: 4444 950 2150 
/seat 
blind/ 
4444: 50 
/blind 
player 4444:hold/ 
SPADES 5 
SPADES J 
/hold 
player 8888:hold/ 
HEARTS J 
CLUBS 8 
/hold 

---pre flop round bet---
valid player: 2, all in player: 0, fold player: 0
send inquire msg to player 8888 
inquire/ 
4444 900 2150 50 blind 
total pot: 50 
/inquire 
recv from player 8888: call 

send inquire msg to player 4444 
inquire/ 
8888 70750 2000 50 call 
4444 900 2150 50 blind 
total pot: 100 
/inquire 
recv from player 4444: fold 


---flop round bet---
valid player: 2, all in player: 0, fold player: 1

---turn round bet---
valid player: 2, all in player: 0, fold player: 1

---river round bet---
valid player: 2, all in player: 0, fold player: 1

----- notify msg last round -----
send notify msg to player 8888 
notify/ 
4444 900 2150 50 fold 
8888 70750 2000 50 call 
total pot: 100 
/notify 
send notify msg to player 4444 
notify/ 
8888 70750 2000 50 call 
4444 900 2150 50 fold 
total pot: 100 
/notify 

--- 1 players not fold, don't need show down---

---Allocate pot---
Only player at seat 7 not fold, win all the pot 100
pot-win/ 
8888: 100 
/pot-win 
it is player 4444's turn to be button

-----208 Hand-----

----- clean player data in socket -----
seat/ 
button: 4444 900 2150 
small blind: 8888 70850 2000 
/seat 
blind/ 
8888: 50 
/blind 
player 8888:hold/ 
CLUBS 7 
SPADES 5 
/hold 
player 4444:hold/ 
HEARTS 3 
HEARTS J 
/hold 

---pre flop round bet---
valid player: 2, all in player: 0, fold player: 0
send inquire msg to player 4444 
inquire/ 
8888 70800 2000 50 blind 
total pot: 50 
/inquire 
recv from player 4444: fold 

send inquire msg to player 8888 
inquire/ 
4444 900 2150 0 fold 
8888 70800 2000 50 blind 
total pot: 50 
/inquire 
recv from player 8888: fold 


---flop round bet---
valid player: 2, all in player: 0, fold player: 2

---turn round bet---
valid player: 2, all in player: 0, fold player: 2

---river round bet---
valid player: 2, all in player: 0, fold player: 2

----- notify msg last round -----
send notify msg to player 4444 
notify/ 
8888 70800 2000 50 fold 
4444 900 2150 0 fold 
total pot: 50 
/notify 
send notify msg to player 8888 
notify/ 
4444 900 2150 0 fold 
8888 70800 2000 50 fold 
total pot: 50 
/notify 

--- 0 players not fold, don't need show down---

---Allocate pot---
pot-win/ 
/pot-win 
it is player 8888's turn to be button

-----209 Hand-----

----- clean player data in socket -----
seat/ 
button: 8888 70800 2000 
small blind: 4444 900 2150 
/seat 
blind/ 
4444: 50 
/blind 
player 4444:hold/ 
HEARTS K 
SPADES Q 
/hold 
player 8888:hold/ 
SPADES J 
CLUBS 9 
/hold 

---pre flop round bet---
valid player: 2, all in player: 0, fold player: 0
send inquire msg to player 8888 
inquire/ 
4444 850 2150 50 blind 
total pot: 50 
/inquire 
recv from player 8888: call 

send inquire msg to player 4444 
inquire/ 
8888 70750 2000 50 call 
4444 850 2150 50 blind 
total pot: 100 
/inquire 
recv from player 4444: fold 


---flop round bet---
valid player: 2, all in player: 0, fold player: 1

---turn round bet---
valid player: 2, all in player: 0, fold player: 1

---river round bet---
valid player: 2, all in player: 0, fold player: 1

----- notify msg last round -----
send notify msg to player 8888 
notify/ 
4444 850 2150 50 fold 
8888 70750 2000 50 call 
total pot: 100 
/notify 
send notify msg to player 4444 
notify/ 
8888 70750 2000 50 call 
4444 850 2150 50 fold 
total pot: 100 
/notify 

--- 1 players not fold, don't need show down---

---Allocate pot---
Only player at seat 7 not fold, win all the pot 100
pot-win/ 
8888: 100 
/pot-win 
it is player 4444's turn to be button

-----210 Hand-----

----- clean player data in socket -----
seat/ 
button: 4444 850 2150 
small blind: 8888 70850 2000 
/seat 
blind/ 
8888: 50 
/blind 
player 8888:hold/ 
DIAMONDS J 
DIAMONDS 4 
/hold 
player 4444:hold/ 
SPADES 3 
SPADES 6 
/hold 

---pre flop round bet---
valid player: 2, all in player: 0, fold player: 0
send inquire msg to player 4444 
inquire/ 
8888 70800 2000 50 blind 
total pot: 50 
/inquire 
recv from player 4444: fold 

send inquire msg to player 8888 
inquire/ 
4444 850 2150 0 fold 
8888 70800 2000 50 blind 
total pot: 50 
/inquire 
recv from player 8888: fold 


---flop round bet---
valid player: 2, all in player: 0, fold player: 2

---turn round bet---
valid player: 2, all in player: 0, fold player: 2

---river round bet---
valid player: 2, all in player: 0, fold player: 2

----- notify msg last round -----
send notify msg to player 4444 
notify/ 
8888 70800 2000 50 fold 
4444 850 2150 0 fold 
total pot: 50 
/notify 
send notify msg to player 8888 
notify/ 
4444 850 2150 0 fold 
8888 70800 2000 50 fold 
total pot: 50 
/notify 

--- 0 players not fold, don't need show down---

---Allocate pot---
pot-win/ 
/pot-win 
it is player 8888's turn to be button

-----211 Hand-----

----- clean player data in socket -----
seat/ 
button: 8888 70800 2000 
small blind: 4444 850 2150 
/seat 
blind/ 
4444: 50 
/blind 
player 4444:hold/ 
SPADES 8 
CLUBS 5 
/hold 
player 8888:hold/ 
DIAMONDS 7 
HEARTS 5 
/hold 

---pre flop round bet---
valid player: 2, all in player: 0, fold player: 0
send inquire msg to player 8888 
inquire/ 
4444 800 2150 50 blind 
total pot: 50 
/inquire 
recv from player 8888: fold 

send inquire msg to player 4444 
inquire/ 
8888 70800 2000 0 fold 
4444 800 2150 50 blind 
total pot: 50 
/inquire 
recv from player 4444: fold 


---flop round bet---
valid player: 2, all in player: 0, fold player: 2

---turn round bet---
valid player: 2, all in player: 0, fold player: 2

---river round bet---
valid player: 2, all in player: 0, fold player: 2

----- notify msg last round -----
send notify msg to player 8888 
notify/ 
4444 800 2150 50 fold 
8888 70800 2000 0 fold 
total pot: 50 
/notify 
send notify msg to player 4444 
notify/ 
8888 70800 2000 0 fold 
4444 800 2150 50 fold 
total pot: 50 
/notify 

--- 0 players not fold, don't need show down---

---Allocate pot---
pot-win/ 
/pot-win 
it is player 4444's turn to be button

-----212 Hand-----

----- clean player data in socket -----
seat/ 
button: 4444 800 2150 
small blind: 8888 70800 2000 
/seat 
blind/ 
8888: 50 
/blind 
player 8888:hold/ 
DIAMONDS 9 
CLUBS Q 
/hold 
player 4444:hold/ 
CLUBS 4 
HEARTS Q 
/hold 

---pre flop round bet---
valid player: 2, all in player: 0, fold player: 0
send inquire msg to player 4444 
inquire/ 
8888 70750 2000 50 blind 
total pot: 50 
/inquire 
recv from player 4444: fold 

send inquire msg to player 8888 
inquire/ 
4444 800 2150 0 fold 
8888 70750 2000 50 blind 
total pot: 50 
/inquire 
recv from player 8888: call 


---flop round bet---
valid player: 2, all in player: 0, fold player: 1

---turn round bet---
valid player: 2, all in player: 0, fold player: 1

---river round bet---
valid player: 2, all in player: 0, fold player: 1

----- notify msg last round -----
send notify msg to player 4444 
notify/ 
8888 70750 2000 50 check 
4444 800 2150 0 fold 
total pot: 50 
/notify 
send notify msg to player 8888 
notify/ 
4444 800 2150 0 fold 
8888 70750 2000 50 check 
total pot: 50 
/notify 

--- 1 players not fold, don't need show down---

---Allocate pot---
Only player at seat 0 not fold, win all the pot 50
pot-win/ 
8888: 50 
/pot-win 
it is player 8888's turn to be button

-----213 Hand-----

----- clean player data in socket -----
seat/ 
button: 8888 70800 2000 
small blind: 4444 800 2150 
/seat 
blind/ 
4444: 50 
/blind 
player 4444:hold/ 
SPADES 3 
CLUBS K 
/hold 
player 8888:hold/ 
CLUBS 8 
DIAMONDS 8 
/hold 

---pre flop round bet---
valid player: 2, all in player: 0, fold player: 0
send inquire msg to player 8888 
inquire/ 
4444 750 2150 50 blind 
total pot: 50 
/inquire 
recv from player 8888: call 

send inquire msg to player 4444 
inquire/ 
8888 70750 2000 50 call 
4444 750 2150 50 blind 
total pot: 100 
/inquire 
recv from player 4444: fold 


---flop round bet---
valid player: 2, all in player: 0, fold player: 1

---turn round bet---
valid player: 2, all in player: 0, fold player: 1

---river round bet---
valid player: 2, all in player: 0, fold player: 1

----- notify msg last round -----
send notify msg to player 8888 
notify/ 
4444 750 2150 50 fold 
8888 70750 2000 50 call 
total pot: 100 
/notify 
send notify msg to player 4444 
notify/ 
8888 70750 2000 50 call 
4444 750 2150 50 fold 
total pot: 100 
/notify 

--- 1 players not fold, don't need show down---

---Allocate pot---
Only player at seat 7 not fold, win all the pot 100
pot-win/ 
8888: 100 
/pot-win 
it is player 4444's turn to be button

-----214 Hand-----

----- clean player data in socket -----
seat/ 
button: 4444 750 2150 
small blind: 8888 70850 2000 
/seat 
blind/ 
8888: 50 
/blind 
player 8888:hold/ 
HEARTS 3 
SPADES A 
/hold 
player 4444:hold/ 
DIAMONDS K 
HEARTS Q 
/hold 

---pre flop round bet---
valid player: 2, all in player: 0, fold player: 0
send inquire msg to player 4444 
inquire/ 
8888 70800 2000 50 blind 
total pot: 50 
/inquire 
recv from player 4444: fold 

send inquire msg to player 8888 
inquire/ 
4444 750 2150 0 fold 
8888 70800 2000 50 blind 
total pot: 50 
/inquire 
recv from player 8888: fold 


---flop round bet---
valid player: 2, all in player: 0, fold player: 2

---turn round bet---
valid player: 2, all in player: 0, fold player: 2

---river round bet---
valid player: 2, all in player: 0, fold player: 2

----- notify msg last round -----
send notify msg to player 4444 
notify/ 
8888 70800 2000 50 fold 
4444 750 2150 0 fold 
total pot: 50 
/notify 
send notify msg to player 8888 
notify/ 
4444 750 2150 0 fold 
8888 70800 2000 50 fold 
total pot: 50 
/notify 

--- 0 players not fold, don't need show down---

---Allocate pot---
pot-win/ 
/pot-win 
it is player 8888's turn to be button

-----215 Hand-----

----- clean player data in socket -----
seat/ 
button: 8888 70800 2000 
small blind: 4444 750 2150 
/seat 
blind/ 
4444: 50 
/blind 
player 4444:hold/ 
DIAMONDS 3 
HEARTS 3 
/hold 
player 8888:hold/ 
SPADES 8 
HEARTS 8 
/hold 

---pre flop round bet---
valid player: 2, all in player: 0, fold player: 0
send inquire msg to player 8888 
inquire/ 
4444 700 2150 50 blind 
total pot: 50 
/inquire 
recv from player 8888: call 

send inquire msg to player 4444 
inquire/ 
8888 70750 2000 50 call 
4444 700 2150 50 blind 
total pot: 100 
/inquire 
recv from player 4444: fold 


---flop round bet---
valid player: 2, all in player: 0, fold player: 1

---turn round bet---
valid player: 2, all in player: 0, fold player: 1

---river round bet---
valid player: 2, all in player: 0, fold player: 1

----- notify msg last round -----
send notify msg to player 8888 
notify/ 
4444 700 2150 50 fold 
8888 70750 2000 50 call 
total pot: 100 
/notify 
send notify msg to player 4444 
notify/ 
8888 70750 2000 50 call 
4444 700 2150 50 fold 
total pot: 100 
/notify 

--- 1 players not fold, don't need show down---

---Allocate pot---
Only player at seat 7 not fold, win all the pot 100
pot-win/ 
8888: 100 
/pot-win 
it is player 4444's turn to be button

-----216 Hand-----

----- clean player data in socket -----
seat/ 
button: 4444 700 2150 
small blind: 8888 70850 2000 
/seat 
blind/ 
8888: 50 
/blind 
player 8888:hold/ 
CLUBS 5 
SPADES A 
/hold 
player 4444:hold/ 
HEARTS 3 
HEARTS 7 
/hold 

---pre flop round bet---
valid player: 2, all in player: 0, fold player: 0
send inquire msg to player 4444 
inquire/ 
8888 70800 2000 50 blind 
total pot: 50 
/inquire 
recv from player 4444: fold 

send inquire msg to player 8888 
inquire/ 
4444 700 2150 0 fold 
8888 70800 2000 50 blind 
total pot: 50 
/inquire 
recv from player 8888: call 


---flop round bet---
valid player: 2, all in player: 0, fold player: 1

---turn round bet---
valid player: 2, all in player: 0, fold player: 1

---river round bet---
valid player: 2, all in player: 0, fold player: 1

----- notify msg last round -----
send notify msg to player 4444 
notify/ 
8888 70800 2000 50 check 
4444 700 2150 0 fold 
total pot: 50 
/notify 
send notify msg to player 8888 
notify/ 
4444 700 2150 0 fold 
8888 70800 2000 50 check 
total pot: 50 
/notify 

--- 1 players not fold, don't need show down---

---Allocate pot---
Only player at seat 0 not fold, win all the pot 50
pot-win/ 
8888: 50 
/pot-win 
it is player 8888's turn to be button

-----217 Hand-----

----- clean player data in socket -----
seat/ 
button: 8888 70850 2000 
small blind: 4444 700 2150 
/seat 
blind/ 
4444: 50 
/blind 
player 4444:hold/ 
DIAMONDS A 
HEARTS 8 
/hold 
player 8888:hold/ 
SPADES 2 
DIAMONDS 9 
/hold 

---pre flop round bet---
valid player: 2, all in player: 0, fold player: 0
send inquire msg to player 8888 
inquire/ 
4444 650 2150 50 blind 
total pot: 50 
/inquire 
recv from player 8888: fold 

send inquire msg to player 4444 
inquire/ 
8888 70850 2000 0 fold 
4444 650 2150 50 blind 
total pot: 50 
/inquire 
recv from player 4444: fold 


---flop round bet---
valid player: 2, all in player: 0, fold player: 2

---turn round bet---
valid player: 2, all in player: 0, fold player: 2

---river round bet---
valid player: 2, all in player: 0, fold player: 2

----- notify msg last round -----
send notify msg to player 8888 
notify/ 
4444 650 2150 50 fold 
8888 70850 2000 0 fold 
total pot: 50 
/notify 
send notify msg to player 4444 
notify/ 
8888 70850 2000 0 fold 
4444 650 2150 50 fold 
total pot: 50 
/notify 

--- 0 players not fold, don't need show down---

---Allocate pot---
pot-win/ 
/pot-win 
it is player 4444's turn to be button

-----218 Hand-----

----- clean player data in socket -----
seat/ 
button: 4444 650 2150 
small blind: 8888 70850 2000 
/seat 
blind/ 
8888: 50 
/blind 
player 8888:hold/ 
DIAMONDS 7 
SPADES A 
/hold 
player 4444:hold/ 
SPADES 4 
SPADES 9 
/hold 

---pre flop round bet---
valid player: 2, all in player: 0, fold player: 0
send inquire msg to player 4444 
inquire/ 
8888 70800 2000 50 blind 
total pot: 50 
/inquire 
recv from player 4444: fold 

send inquire msg to player 8888 
inquire/ 
4444 650 2150 0 fold 
8888 70800 2000 50 blind 
total pot: 50 
/inquire 
recv from player 8888: call 


---flop round bet---
valid player: 2, all in player: 0, fold player: 1

---turn round bet---
valid player: 2, all in player: 0, fold player: 1

---river round bet---
valid player: 2, all in player: 0, fold player: 1

----- notify msg last round -----
send notify msg to player 4444 
notify/ 
8888 70800 2000 50 check 
4444 650 2150 0 fold 
total pot: 50 
/notify 
send notify msg to player 8888 
notify/ 
4444 650 2150 0 fold 
8888 70800 2000 50 check 
total pot: 50 
/notify 

--- 1 players not fold, don't need show down---

---Allocate pot---
Only player at seat 0 not fold, win all the pot 50
pot-win/ 
8888: 50 
/pot-win 
it is player 8888's turn to be button

-----219 Hand-----

----- clean player data in socket -----
seat/ 
button: 8888 70850 2000 
small blind: 4444 650 2150 
/seat 
blind/ 
4444: 50 
/blind 
player 4444:hold/ 
CLUBS 9 
SPADES 4 
/hold 
player 8888:hold/ 
HEARTS 7 
HEARTS 4 
/hold 

---pre flop round bet---
valid player: 2, all in player: 0, fold player: 0
send inquire msg to player 8888 
inquire/ 
4444 600 2150 50 blind 
total pot: 50 
/inquire 
recv from player 8888: fold 

send inquire msg to player 4444 
inquire/ 
8888 70850 2000 0 fold 
4444 600 2150 50 blind 
total pot: 50 
/inquire 
recv from player 4444: fold 


---flop round bet---
valid player: 2, all in player: 0, fold player: 2

---turn round bet---
valid player: 2, all in player: 0, fold player: 2

---river round bet---
valid player: 2, all in player: 0, fold player: 2

----- notify msg last round -----
send notify msg to player 8888 
notify/ 
4444 600 2150 50 fold 
8888 70850 2000 0 fold 
total pot: 50 
/notify 
send notify msg to player 4444 
notify/ 
8888 70850 2000 0 fold 
4444 600 2150 50 fold 
total pot: 50 
/notify 

--- 0 players not fold, don't need show down---

---Allocate pot---
pot-win/ 
/pot-win 
it is player 4444's turn to be button

-----220 Hand-----

----- clean player data in socket -----
seat/ 
button: 4444 600 2150 
small blind: 8888 70850 2000 
/seat 
blind/ 
8888: 50 
/blind 
player 8888:hold/ 
HEARTS 4 
CLUBS 4 
/hold 
player 4444:hold/ 
DIAMONDS K 
DIAMONDS 5 
/hold 

---pre flop round bet---
valid player: 2, all in player: 0, fold player: 0
send inquire msg to player 4444 
inquire/ 
8888 70800 2000 50 blind 
total pot: 50 
/inquire 
recv from player 4444: fold 

send inquire msg to player 8888 
inquire/ 
4444 600 2150 0 fold 
8888 70800 2000 50 blind 
total pot: 50 
/inquire 
recv from player 8888: call 


---flop round bet---
valid player: 2, all in player: 0, fold player: 1

---turn round bet---
valid player: 2, all in player: 0, fold player: 1

---river round bet---
valid player: 2, all in player: 0, fold player: 1

----- notify msg last round -----
send notify msg to player 4444 
notify/ 
8888 70800 2000 50 check 
4444 600 2150 0 fold 
total pot: 50 
/notify 
send notify msg to player 8888 
notify/ 
4444 600 2150 0 fold 
8888 70800 2000 50 check 
total pot: 50 
/notify 

--- 1 players not fold, don't need show down---

---Allocate pot---
Only player at seat 0 not fold, win all the pot 50
pot-win/ 
8888: 50 
/pot-win 
it is player 8888's turn to be button

-----221 Hand-----

----- clean player data in socket -----
seat/ 
button: 8888 70850 2000 
small blind: 4444 600 2150 
/seat 
blind/ 
4444: 50 
/blind 
player 4444:hold/ 
CLUBS 6 
SPADES 5 
/hold 
player 8888:hold/ 
CLUBS 7 
CLUBS J 
/hold 

---pre flop round bet---
valid player: 2, all in player: 0, fold player: 0
send inquire msg to player 8888 
inquire/ 
4444 550 2150 50 blind 
total pot: 50 
/inquire 
recv from player 8888: call 

send inquire msg to player 4444 
inquire/ 
8888 70800 2000 50 call 
4444 550 2150 50 blind 
total pot: 100 
/inquire 
recv from player 4444: fold 


---flop round bet---
valid player: 2, all in player: 0, fold player: 1

---turn round bet---
valid player: 2, all in player: 0, fold player: 1

---river round bet---
valid player: 2, all in player: 0, fold player: 1

----- notify msg last round -----
send notify msg to player 8888 
notify/ 
4444 550 2150 50 fold 
8888 70800 2000 50 call 
total pot: 100 
/notify 
send notify msg to player 4444 
notify/ 
8888 70800 2000 50 call 
4444 550 2150 50 fold 
total pot: 100 
/notify 

--- 1 players not fold, don't need show down---

---Allocate pot---
Only player at seat 7 not fold, win all the pot 100
pot-win/ 
8888: 100 
/pot-win 
it is player 4444's turn to be button

-----222 Hand-----

----- clean player data in socket -----
seat/ 
button: 4444 550 2150 
small blind: 8888 70900 2000 
/seat 
blind/ 
8888: 50 
/blind 
player 8888:hold/ 
DIAMONDS 3 
HEARTS Q 
/hold 
player 4444:hold/ 
SPADES 2 
HEARTS K 
/hold 

---pre flop round bet---
valid player: 2, all in player: 0, fold player: 0
send inquire msg to player 4444 
inquire/ 
8888 70850 2000 50 blind 
total pot: 50 
/inquire 
recv from player 4444: fold 

send inquire msg to player 8888 
inquire/ 
4444 550 2150 0 fold 
8888 70850 2000 50 blind 
total pot: 50 
/inquire 
recv from player 8888: fold 


---flop round bet---
valid player: 2, all in player: 0, fold player: 2

---turn round bet---
valid player: 2, all in player: 0, fold player: 2

---river round bet---
valid player: 2, all in player: 0, fold player: 2

----- notify msg last round -----
send notify msg to player 4444 
notify/ 
8888 70850 2000 50 fold 
4444 550 2150 0 fold 
total pot: 50 
/notify 
send notify msg to player 8888 
notify/ 
4444 550 2150 0 fold 
8888 70850 2000 50 fold 
total pot: 50 
/notify 

--- 0 players not fold, don't need show down---

---Allocate pot---
pot-win/ 
/pot-win 
it is player 8888's turn to be button

-----223 Hand-----

----- clean player data in socket -----
seat/ 
button: 8888 70850 2000 
small blind: 4444 550 2150 
/seat 
blind/ 
4444: 50 
/blind 
player 4444:hold/ 
HEARTS J 
HEARTS 3 
/hold 
player 8888:hold/ 
HEARTS 5 
SPADES 10 
/hold 

---pre flop round bet---
valid player: 2, all in player: 0, fold player: 0
send inquire msg to player 8888 
inquire/ 
4444 500 2150 50 blind 
total pot: 50 
/inquire 
recv from player 8888: fold 

send inquire msg to player 4444 
inquire/ 
8888 70850 2000 0 fold 
4444 500 2150 50 blind 
total pot: 50 
/inquire 
recv from player 4444: fold 


---flop round bet---
valid player: 2, all in player: 0, fold player: 2

---turn round bet---
valid player: 2, all in player: 0, fold player: 2

---river round bet---
valid player: 2, all in player: 0, fold player: 2

----- notify msg last round -----
send notify msg to player 8888 
notify/ 
4444 500 2150 50 fold 
8888 70850 2000 0 fold 
total pot: 50 
/notify 
send notify msg to player 4444 
notify/ 
8888 70850 2000 0 fold 
4444 500 2150 50 fold 
total pot: 50 
/notify 

--- 0 players not fold, don't need show down---

---Allocate pot---
pot-win/ 
/pot-win 
it is player 4444's turn to be button

-----224 Hand-----

----- clean player data in socket -----
seat/ 
button: 4444 500 2150 
small blind: 8888 70850 2000 
/seat 
blind/ 
8888: 50 
/blind 
player 8888:hold/ 
HEARTS Q 
HEARTS 5 
/hold 
player 4444:hold/ 
CLUBS K 
DIAMONDS A 
/hold 

---pre flop round bet---
valid player: 2, all in player: 0, fold player: 0
send inquire msg to player 4444 
inquire/ 
8888 70800 2000 50 blind 
total pot: 50 
/inquire 
recv from player 4444: fold 

send inquire msg to player 8888 
inquire/ 
4444 500 2150 0 fold 
8888 70800 2000 50 blind 
total pot: 50 
/inquire 
recv from player 8888: fold 


---flop round bet---
valid player: 2, all in player: 0, fold player: 2

---turn round bet---
valid player: 2, all in player: 0, fold player: 2

---river round bet---
valid player: 2, all in player: 0, fold player: 2

----- notify msg last round -----
send notify msg to player 4444 
notify/ 
8888 70800 2000 50 fold 
4444 500 2150 0 fold 
total pot: 50 
/notify 
send notify msg to player 8888 
notify/ 
4444 500 2150 0 fold 
8888 70800 2000 50 fold 
total pot: 50 
/notify 

--- 0 players not fold, don't need show down---

---Allocate pot---
pot-win/ 
/pot-win 
it is player 8888's turn to be button

-----225 Hand-----

----- clean player data in socket -----
seat/ 
button: 8888 70800 2000 
small blind: 4444 500 2150 
/seat 
blind/ 
4444: 50 
/blind 
player 4444:hold/ 
HEARTS 6 
SPADES 5 
/hold 
player 8888:hold/ 
CLUBS K 
SPADES Q 
/hold 

---pre flop round bet---
valid player: 2, all in player: 0, fold player: 0
send inquire msg to player 8888 
inquire/ 
4444 450 2150 50 blind 
total pot: 50 
/inquire 
recv from player 8888: call 

send inquire msg to player 4444 
inquire/ 
8888 70750 2000 50 call 
4444 450 2150 50 blind 
total pot: 100 
/inquire 
recv from player 4444: fold 


---flop round bet---
valid player: 2, all in player: 0, fold player: 1

---turn round bet---
valid player: 2, all in player: 0, fold player: 1

---river round bet---
valid player: 2, all in player: 0, fold player: 1

----- notify msg last round -----
send notify msg to player 8888 
notify/ 
4444 450 2150 50 fold 
8888 70750 2000 50 call 
total pot: 100 
/notify 
send notify msg to player 4444 
notify/ 
8888 70750 2000 50 call 
4444 450 2150 50 fold 
total pot: 100 
/notify 

--- 1 players not fold, don't need show down---

---Allocate pot---
Only player at seat 7 not fold, win all the pot 100
pot-win/ 
8888: 100 
/pot-win 
it is player 4444's turn to be button

-----226 Hand-----

----- clean player data in socket -----
seat/ 
button: 4444 450 2150 
small blind: 8888 70850 2000 
/seat 
blind/ 
8888: 50 
/blind 
player 8888:hold/ 
SPADES 6 
HEARTS 5 
/hold 
player 4444:hold/ 
DIAMONDS 8 
DIAMONDS 10 
/hold 

---pre flop round bet---
valid player: 2, all in player: 0, fold player: 0
send inquire msg to player 4444 
inquire/ 
8888 70800 2000 50 blind 
total pot: 50 
/inquire 
recv from player 4444: fold 

send inquire msg to player 8888 
inquire/ 
4444 450 2150 0 fold 
8888 70800 2000 50 blind 
total pot: 50 
/inquire 
recv from player 8888: fold 


---flop round bet---
valid player: 2, all in player: 0, fold player: 2

---turn round bet---
valid player: 2, all in player: 0, fold player: 2

---river round bet---
valid player: 2, all in player: 0, fold player: 2

----- notify msg last round -----
send notify msg to player 4444 
notify/ 
8888 70800 2000 50 fold 
4444 450 2150 0 fold 
total pot: 50 
/notify 
send notify msg to player 8888 
notify/ 
4444 450 2150 0 fold 
8888 70800 2000 50 fold 
total pot: 50 
/notify 

--- 0 players not fold, don't need show down---

---Allocate pot---
pot-win/ 
/pot-win 
it is player 8888's turn to be button

-----227 Hand-----

----- clean player data in socket -----
seat/ 
button: 8888 70800 2000 
small blind: 4444 450 2150 
/seat 
blind/ 
4444: 50 
/blind 
player 4444:hold/ 
CLUBS 8 
SPADES 6 
/hold 
player 8888:hold/ 
SPADES 4 
CLUBS A 
/hold 

---pre flop round bet---
valid player: 2, all in player: 0, fold player: 0
send inquire msg to player 8888 
inquire/ 
4444 400 2150 50 blind 
total pot: 50 
/inquire 
recv from player 8888: call 

send inquire msg to player 4444 
inquire/ 
8888 70750 2000 50 call 
4444 400 2150 50 blind 
total pot: 100 
/inquire 
recv from player 4444: fold 


---flop round bet---
valid player: 2, all in player: 0, fold player: 1

---turn round bet---
valid player: 2, all in player: 0, fold player: 1

---river round bet---
valid player: 2, all in player: 0, fold player: 1

----- notify msg last round -----
send notify msg to player 8888 
notify/ 
4444 400 2150 50 fold 
8888 70750 2000 50 call 
total pot: 100 
/notify 
send notify msg to player 4444 
notify/ 
8888 70750 2000 50 call 
4444 400 2150 50 fold 
total pot: 100 
/notify 

--- 1 players not fold, don't need show down---

---Allocate pot---
Only player at seat 7 not fold, win all the pot 100
pot-win/ 
8888: 100 
/pot-win 
it is player 4444's turn to be button

-----228 Hand-----

----- clean player data in socket -----
seat/ 
button: 4444 400 2150 
small blind: 8888 70850 2000 
/seat 
blind/ 
8888: 50 
/blind 
player 8888:hold/ 
HEARTS Q 
SPADES 2 
/hold 
player 4444:hold/ 
DIAMONDS 7 
HEARTS 8 
/hold 

---pre flop round bet---
valid player: 2, all in player: 0, fold player: 0
send inquire msg to player 4444 
inquire/ 
8888 70800 2000 50 blind 
total pot: 50 
/inquire 
recv from player 4444: fold 

send inquire msg to player 8888 
inquire/ 
4444 400 2150 0 fold 
8888 70800 2000 50 blind 
total pot: 50 
/inquire 
recv from player 8888: fold 


---flop round bet---
valid player: 2, all in player: 0, fold player: 2

---turn round bet---
valid player: 2, all in player: 0, fold player: 2

---river round bet---
valid player: 2, all in player: 0, fold player: 2

----- notify msg last round -----
send notify msg to player 4444 
notify/ 
8888 70800 2000 50 fold 
4444 400 2150 0 fold 
total pot: 50 
/notify 
send notify msg to player 8888 
notify/ 
4444 400 2150 0 fold 
8888 70800 2000 50 fold 
total pot: 50 
/notify 

--- 0 players not fold, don't need show down---

---Allocate pot---
pot-win/ 
/pot-win 
it is player 8888's turn to be button

-----229 Hand-----

----- clean player data in socket -----
seat/ 
button: 8888 70800 2000 
small blind: 4444 400 2150 
/seat 
blind/ 
4444: 50 
/blind 
player 4444:hold/ 
DIAMONDS J 
SPADES Q 
/hold 
player 8888:hold/ 
CLUBS 8 
CLUBS J 
/hold 

---pre flop round bet---
valid player: 2, all in player: 0, fold player: 0
send inquire msg to player 8888 
inquire/ 
4444 350 2150 50 blind 
total pot: 50 
/inquire 
recv from player 8888: call 

send inquire msg to player 4444 
inquire/ 
8888 70750 2000 50 call 
4444 350 2150 50 blind 
total pot: 100 
/inquire 
recv from player 4444: fold 


---flop round bet---
valid player: 2, all in player: 0, fold player: 1

---turn round bet---
valid player: 2, all in player: 0, fold player: 1

---river round bet---
valid player: 2, all in player: 0, fold player: 1

----- notify msg last round -----
send notify msg to player 8888 
notify/ 
4444 350 2150 50 fold 
8888 70750 2000 50 call 
total pot: 100 
/notify 
send notify msg to player 4444 
notify/ 
8888 70750 2000 50 call 
4444 350 2150 50 fold 
total pot: 100 
/notify 

--- 1 players not fold, don't need show down---

---Allocate pot---
Only player at seat 7 not fold, win all the pot 100
pot-win/ 
8888: 100 
/pot-win 
it is player 4444's turn to be button

-----230 Hand-----

----- clean player data in socket -----
seat/ 
button: 4444 350 2150 
small blind: 8888 70850 2000 
/seat 
blind/ 
8888: 50 
/blind 
player 8888:hold/ 
SPADES 10 
CLUBS 7 
/hold 
player 4444:hold/ 
HEARTS 4 
DIAMONDS J 
/hold 

---pre flop round bet---
valid player: 2, all in player: 0, fold player: 0
send inquire msg to player 4444 
inquire/ 
8888 70800 2000 50 blind 
total pot: 50 
/inquire 
recv from player 4444: fold 

send inquire msg to player 8888 
inquire/ 
4444 350 2150 0 fold 
8888 70800 2000 50 blind 
total pot: 50 
/inquire 
recv from player 8888: fold 


---flop round bet---
valid player: 2, all in player: 0, fold player: 2

---turn round bet---
valid player: 2, all in player: 0, fold player: 2

---river round bet---
valid player: 2, all in player: 0, fold player: 2

----- notify msg last round -----
send notify msg to player 4444 
notify/ 
8888 70800 2000 50 fold 
4444 350 2150 0 fold 
total pot: 50 
/notify 
send notify msg to player 8888 
notify/ 
4444 350 2150 0 fold 
8888 70800 2000 50 fold 
total pot: 50 
/notify 

--- 0 players not fold, don't need show down---

---Allocate pot---
pot-win/ 
/pot-win 
it is player 8888's turn to be button

-----231 Hand-----

----- clean player data in socket -----
seat/ 
button: 8888 70800 2000 
small blind: 4444 350 2150 
/seat 
blind/ 
4444: 50 
/blind 
player 4444:hold/ 
DIAMONDS 4 
SPADES Q 
/hold 
player 8888:hold/ 
CLUBS A 
CLUBS J 
/hold 

---pre flop round bet---
valid player: 2, all in player: 0, fold player: 0
send inquire msg to player 8888 
inquire/ 
4444 300 2150 50 blind 
total pot: 50 
/inquire 
recv from player 8888: raise 200 

send inquire msg to player 4444 
inquire/ 
8888 70550 2000 250 raise 
4444 300 2150 50 blind 
total pot: 300 
/inquire 
recv from player 4444: fold 


---flop round bet---
valid player: 2, all in player: 0, fold player: 1

---turn round bet---
valid player: 2, all in player: 0, fold player: 1

---river round bet---
valid player: 2, all in player: 0, fold player: 1

----- notify msg last round -----
send notify msg to player 8888 
notify/ 
4444 300 2150 50 fold 
8888 70550 2000 250 raise 
total pot: 300 
/notify 
send notify msg to player 4444 
notify/ 
8888 70550 2000 250 raise 
4444 300 2150 50 fold 
total pot: 300 
/notify 

--- 1 players not fold, don't need show down---

---Allocate pot---
Only player at seat 7 not fold, win all the pot 300
pot-win/ 
8888: 300 
/pot-win 
it is player 4444's turn to be button

-----232 Hand-----

----- clean player data in socket -----
seat/ 
button: 4444 300 2150 
small blind: 8888 70850 2000 
/seat 
blind/ 
8888: 50 
/blind 
player 8888:hold/ 
CLUBS 4 
CLUBS 3 
/hold 
player 4444:hold/ 
CLUBS 9 
DIAMONDS K 
/hold 

---pre flop round bet---
valid player: 2, all in player: 0, fold player: 0
send inquire msg to player 4444 
inquire/ 
8888 70800 2000 50 blind 
total pot: 50 
/inquire 
recv from player 4444: fold 

send inquire msg to player 8888 
inquire/ 
4444 300 2150 0 fold 
8888 70800 2000 50 blind 
total pot: 50 
/inquire 
recv from player 8888: fold 


---flop round bet---
valid player: 2, all in player: 0, fold player: 2

---turn round bet---
valid player: 2, all in player: 0, fold player: 2

---river round bet---
valid player: 2, all in player: 0, fold player: 2

----- notify msg last round -----
send notify msg to player 4444 
notify/ 
8888 70800 2000 50 fold 
4444 300 2150 0 fold 
total pot: 50 
/notify 
send notify msg to player 8888 
notify/ 
4444 300 2150 0 fold 
8888 70800 2000 50 fold 
total pot: 50 
/notify 

--- 0 players not fold, don't need show down---

---Allocate pot---
pot-win/ 
/pot-win 
it is player 8888's turn to be button

-----233 Hand-----

----- clean player data in socket -----
seat/ 
button: 8888 70800 2000 
small blind: 4444 300 2150 
/seat 
blind/ 
4444: 50 
/blind 
player 4444:hold/ 
SPADES 4 
HEARTS 9 
/hold 
player 8888:hold/ 
CLUBS 9 
DIAMONDS A 
/hold 

---pre flop round bet---
valid player: 2, all in player: 0, fold player: 0
send inquire msg to player 8888 
inquire/ 
4444 250 2150 50 blind 
total pot: 50 
/inquire 
recv from player 8888: call 

send inquire msg to player 4444 
inquire/ 
8888 70750 2000 50 call 
4444 250 2150 50 blind 
total pot: 100 
/inquire 
recv from player 4444: fold 


---flop round bet---
valid player: 2, all in player: 0, fold player: 1

---turn round bet---
valid player: 2, all in player: 0, fold player: 1

---river round bet---
valid player: 2, all in player: 0, fold player: 1

----- notify msg last round -----
send notify msg to player 8888 
notify/ 
4444 250 2150 50 fold 
8888 70750 2000 50 call 
total pot: 100 
/notify 
send notify msg to player 4444 
notify/ 
8888 70750 2000 50 call 
4444 250 2150 50 fold 
total pot: 100 
/notify 

--- 1 players not fold, don't need show down---

---Allocate pot---
Only player at seat 7 not fold, win all the pot 100
pot-win/ 
8888: 100 
/pot-win 
it is player 4444's turn to be button

-----234 Hand-----

----- clean player data in socket -----
seat/ 
button: 4444 250 2150 
small blind: 8888 70850 2000 
/seat 
blind/ 
8888: 50 
/blind 
player 8888:hold/ 
DIAMONDS K 
HEARTS A 
/hold 
player 4444:hold/ 
SPADES Q 
CLUBS 8 
/hold 

---pre flop round bet---
valid player: 2, all in player: 0, fold player: 0
send inquire msg to player 4444 
inquire/ 
8888 70800 2000 50 blind 
total pot: 50 
/inquire 
recv from player 4444: fold 

send inquire msg to player 8888 
inquire/ 
4444 250 2150 0 fold 
8888 70800 2000 50 blind 
total pot: 50 
/inquire 
recv from player 8888: raise 200 


---flop round bet---
valid player: 2, all in player: 0, fold player: 1

---turn round bet---
valid player: 2, all in player: 0, fold player: 1

---river round bet---
valid player: 2, all in player: 0, fold player: 1

----- notify msg last round -----
send notify msg to player 4444 
notify/ 
8888 70600 2000 250 raise 
4444 250 2150 0 fold 
total pot: 250 
/notify 
send notify msg to player 8888 
notify/ 
4444 250 2150 0 fold 
8888 70600 2000 250 raise 
total pot: 250 
/notify 

--- 1 players not fold, don't need show down---

---Allocate pot---
Only player at seat 0 not fold, win all the pot 250
pot-win/ 
8888: 250 
/pot-win 
it is player 8888's turn to be button

-----235 Hand-----

----- clean player data in socket -----
seat/ 
button: 8888 70850 2000 
small blind: 4444 250 2150 
/seat 
blind/ 
4444: 50 
/blind 
player 4444:hold/ 
DIAMONDS K 
DIAMONDS 10 
/hold 
player 8888:hold/ 
CLUBS K 
HEARTS 4 
/hold 

---pre flop round bet---
valid player: 2, all in player: 0, fold player: 0
send inquire msg to player 8888 
inquire/ 
4444 200 2150 50 blind 
total pot: 50 
/inquire 
recv from player 8888: fold 

send inquire msg to player 4444 
inquire/ 
8888 70850 2000 0 fold 
4444 200 2150 50 blind 
total pot: 50 
/inquire 
recv from player 4444: fold 


---flop round bet---
valid player: 2, all in player: 0, fold player: 2

---turn round bet---
valid player: 2, all in player: 0, fold player: 2

---river round bet---
valid player: 2, all in player: 0, fold player: 2

----- notify msg last round -----
send notify msg to player 8888 
notify/ 
4444 200 2150 50 fold 
8888 70850 2000 0 fold 
total pot: 50 
/notify 
send notify msg to player 4444 
notify/ 
8888 70850 2000 0 fold 
4444 200 2150 50 fold 
total pot: 50 
/notify 

--- 0 players not fold, don't need show down---

---Allocate pot---
pot-win/ 
/pot-win 
it is player 4444's turn to be button

-----236 Hand-----

----- clean player data in socket -----
seat/ 
button: 4444 200 2150 
small blind: 8888 70850 2000 
/seat 
blind/ 
8888: 50 
/blind 
player 8888:hold/ 
DIAMONDS 7 
CLUBS K 
/hold 
player 4444:hold/ 
CLUBS Q 
CLUBS 7 
/hold 

---pre flop round bet---
valid player: 2, all in player: 0, fold player: 0
send inquire msg to player 4444 
inquire/ 
8888 70800 2000 50 blind 
total pot: 50 
/inquire 
recv from player 4444: fold 

send inquire msg to player 8888 
inquire/ 
4444 200 2150 0 fold 
8888 70800 2000 50 blind 
total pot: 50 
/inquire 
recv from player 8888: call 


---flop round bet---
valid player: 2, all in player: 0, fold player: 1

---turn round bet---
valid player: 2, all in player: 0, fold player: 1

---river round bet---
valid player: 2, all in player: 0, fold player: 1

----- notify msg last round -----
send notify msg to player 4444 
notify/ 
8888 70800 2000 50 check 
4444 200 2150 0 fold 
total pot: 50 
/notify 
send notify msg to player 8888 
notify/ 
4444 200 2150 0 fold 
8888 70800 2000 50 check 
total pot: 50 
/notify 

--- 1 players not fold, don't need show down---

---Allocate pot---
Only player at seat 0 not fold, win all the pot 50
pot-win/ 
8888: 50 
/pot-win 
it is player 8888's turn to be button

-----237 Hand-----

----- clean player data in socket -----
seat/ 
button: 8888 70850 2000 
small blind: 4444 200 2150 
/seat 
blind/ 
4444: 50 
/blind 
player 4444:hold/ 
CLUBS 10 
HEARTS 4 
/hold 
player 8888:hold/ 
SPADES J 
CLUBS Q 
/hold 

---pre flop round bet---
valid player: 2, all in player: 0, fold player: 0
send inquire msg to player 8888 
inquire/ 
4444 150 2150 50 blind 
total pot: 50 
/inquire 
recv from player 8888: call 

send inquire msg to player 4444 
inquire/ 
8888 70800 2000 50 call 
4444 150 2150 50 blind 
total pot: 100 
/inquire 
recv from player 4444: fold 


---flop round bet---
valid player: 2, all in player: 0, fold player: 1

---turn round bet---
valid player: 2, all in player: 0, fold player: 1

---river round bet---
valid player: 2, all in player: 0, fold player: 1

----- notify msg last round -----
send notify msg to player 8888 
notify/ 
4444 150 2150 50 fold 
8888 70800 2000 50 call 
total pot: 100 
/notify 
send notify msg to player 4444 
notify/ 
8888 70800 2000 50 call 
4444 150 2150 50 fold 
total pot: 100 
/notify 

--- 1 players not fold, don't need show down---

---Allocate pot---
Only player at seat 7 not fold, win all the pot 100
pot-win/ 
8888: 100 
/pot-win 
it is player 4444's turn to be button

-----238 Hand-----

----- clean player data in socket -----
seat/ 
button: 4444 150 2150 
small blind: 8888 70900 2000 
/seat 
blind/ 
8888: 50 
/blind 
player 8888:hold/ 
CLUBS J 
SPADES 2 
/hold 
player 4444:hold/ 
DIAMONDS 7 
DIAMONDS 3 
/hold 

---pre flop round bet---
valid player: 2, all in player: 0, fold player: 0
send inquire msg to player 4444 
inquire/ 
8888 70850 2000 50 blind 
total pot: 50 
/inquire 
recv from player 4444: fold 

send inquire msg to player 8888 
inquire/ 
4444 150 2150 0 fold 
8888 70850 2000 50 blind 
total pot: 50 
/inquire 
recv from player 8888: fold 


---flop round bet---
valid player: 2, all in player: 0, fold player: 2

---turn round bet---
valid player: 2, all in player: 0, fold player: 2

---river round bet---
valid player: 2, all in player: 0, fold player: 2

----- notify msg last round -----
send notify msg to player 4444 
notify/ 
8888 70850 2000 50 fold 
4444 150 2150 0 fold 
total pot: 50 
/notify 
send notify msg to player 8888 
notify/ 
4444 150 2150 0 fold 
8888 70850 2000 50 fold 
total pot: 50 
/notify 

--- 0 players not fold, don't need show down---

---Allocate pot---
pot-win/ 
/pot-win 
it is player 8888's turn to be button

-----239 Hand-----

----- clean player data in socket -----
seat/ 
button: 8888 70850 2000 
small blind: 4444 150 2150 
/seat 
blind/ 
4444: 50 
/blind 
player 4444:hold/ 
CLUBS 9 
HEARTS 4 
/hold 
player 8888:hold/ 
DIAMONDS 2 
HEARTS 5 
/hold 

---pre flop round bet---
valid player: 2, all in player: 0, fold player: 0
send inquire msg to player 8888 
inquire/ 
4444 100 2150 50 blind 
total pot: 50 
/inquire 
recv from player 8888: fold 

send inquire msg to player 4444 
inquire/ 
8888 70850 2000 0 fold 
4444 100 2150 50 blind 
total pot: 50 
/inquire 
recv from player 4444: fold 


---flop round bet---
valid player: 2, all in player: 0, fold player: 2

---turn round bet---
valid player: 2, all in player: 0, fold player: 2

---river round bet---
valid player: 2, all in player: 0, fold player: 2

----- notify msg last round -----
send notify msg to player 8888 
notify/ 
4444 100 2150 50 fold 
8888 70850 2000 0 fold 
total pot: 50 
/notify 
send notify msg to player 4444 
notify/ 
8888 70850 2000 0 fold 
4444 100 2150 50 fold 
total pot: 50 
/notify 

--- 0 players not fold, don't need show down---

---Allocate pot---
pot-win/ 
/pot-win 
it is player 4444's turn to be button

-----240 Hand-----

----- clean player data in socket -----
seat/ 
button: 4444 100 2150 
small blind: 8888 70850 2000 
/seat 
blind/ 
8888: 50 
/blind 
player 8888:hold/ 
CLUBS Q 
HEARTS A 
/hold 
player 4444:hold/ 
HEARTS 10 
SPADES A 
/hold 

---pre flop round bet---
valid player: 2, all in player: 0, fold player: 0
send inquire msg to player 4444 
inquire/ 
8888 70800 2000 50 blind 
total pot: 50 
/inquire 
recv from player 4444: fold 

send inquire msg to player 8888 
inquire/ 
4444 100 2150 0 fold 
8888 70800 2000 50 blind 
total pot: 50 
/inquire 
recv from player 8888: raise 200 


---flop round bet---
valid player: 2, all in player: 0, fold player: 1

---turn round bet---
valid player: 2, all in player: 0, fold player: 1

---river round bet---
valid player: 2, all in player: 0, fold player: 1

----- notify msg last round -----
send notify msg to player 4444 
notify/ 
8888 70600 2000 250 raise 
4444 100 2150 0 fold 
total pot: 250 
/notify 
send notify msg to player 8888 
notify/ 
4444 100 2150 0 fold 
8888 70600 2000 250 raise 
total pot: 250 
/notify 

--- 1 players not fold, don't need show down---

---Allocate pot---
Only player at seat 0 not fold, win all the pot 250
pot-win/ 
8888: 250 
/pot-win 
it is player 8888's turn to be button

-----241 Hand-----

----- clean player data in socket -----
seat/ 
button: 8888 70850 2000 
small blind: 4444 100 2150 
/seat 
blind/ 
4444: 50 
/blind 
player 4444:hold/ 
DIAMONDS 8 
SPADES Q 
/hold 
player 8888:hold/ 
DIAMONDS 9 
CLUBS 3 
/hold 

---pre flop round bet---
valid player: 2, all in player: 0, fold player: 0
send inquire msg to player 8888 
inquire/ 
4444 50 2150 50 blind 
total pot: 50 
/inquire 
recv from player 8888: fold 

send inquire msg to player 4444 
inquire/ 
8888 70850 2000 0 fold 
4444 50 2150 50 blind 
total pot: 50 
/inquire 
recv from player 4444: fold 


---flop round bet---
valid player: 2, all in player: 0, fold player: 2

---turn round bet---
valid player: 2, all in player: 0, fold player: 2

---river round bet---
valid player: 2, all in player: 0, fold player: 2

----- notify msg last round -----
send notify msg to player 8888 
notify/ 
4444 50 2150 50 fold 
8888 70850 2000 0 fold 
total pot: 50 
/notify 
send notify msg to player 4444 
notify/ 
8888 70850 2000 0 fold 
4444 50 2150 50 fold 
total pot: 50 
/notify 

--- 0 players not fold, don't need show down---

---Allocate pot---
pot-win/ 
/pot-win 
it is player 4444's turn to be button

-----242 Hand-----

----- clean player data in socket -----
seat/ 
button: 4444 2000 200 
small blind: 8888 70850 2000 
/seat 
blind/ 
8888: 50 
/blind 
player 8888:hold/ 
CLUBS 3 
DIAMONDS 2 
/hold 
player 4444:hold/ 
DIAMONDS J 
HEARTS J 
/hold 

---pre flop round bet---
valid player: 2, all in player: 0, fold player: 0
send inquire msg to player 4444 
inquire/ 
8888 70800 2000 50 blind 
total pot: 50 
/inquire 
recv from player 4444: fold 

send inquire msg to player 8888 
inquire/ 
4444 2000 200 0 fold 
8888 70800 2000 50 blind 
total pot: 50 
/inquire 
recv from player 8888: fold 


---flop round bet---
valid player: 2, all in player: 0, fold player: 2

---turn round bet---
valid player: 2, all in player: 0, fold player: 2

---river round bet---
valid player: 2, all in player: 0, fold player: 2

----- notify msg last round -----
send notify msg to player 4444 
notify/ 
8888 70800 2000 50 fold 
4444 2000 200 0 fold 
total pot: 50 
/notify 
send notify msg to player 8888 
notify/ 
4444 2000 200 0 fold 
8888 70800 2000 50 fold 
total pot: 50 
/notify 

--- 0 players not fold, don't need show down---

---Allocate pot---
pot-win/ 
/pot-win 
it is player 8888's turn to be button

-----243 Hand-----

----- clean player data in socket -----
seat/ 
button: 8888 70800 2000 
small blind: 4444 2000 200 
/seat 
blind/ 
4444: 50 
/blind 
player 4444:hold/ 
CLUBS 2 
HEARTS J 
/hold 
player 8888:hold/ 
CLUBS 4 
DIAMONDS 4 
/hold 

---pre flop round bet---
valid player: 2, all in player: 0, fold player: 0
send inquire msg to player 8888 
inquire/ 
4444 1950 200 50 blind 
total pot: 50 
/inquire 
recv from player 8888: call 

send inquire msg to player 4444 
inquire/ 
8888 70750 2000 50 call 
4444 1950 200 50 blind 
total pot: 100 
/inquire 
recv from player 4444: fold 


---flop round bet---
valid player: 2, all in player: 0, fold player: 1

---turn round bet---
valid player: 2, all in player: 0, fold player: 1

---river round bet---
valid player: 2, all in player: 0, fold player: 1

----- notify msg last round -----
send notify msg to player 8888 
notify/ 
4444 1950 200 50 fold 
8888 70750 2000 50 call 
total pot: 100 
/notify 
send notify msg to player 4444 
notify/ 
8888 70750 2000 50 call 
4444 1950 200 50 fold 
total pot: 100 
/notify 

--- 1 players not fold, don't need show down---

---Allocate pot---
Only player at seat 7 not fold, win all the pot 100
pot-win/ 
8888: 100 
/pot-win 
it is player 4444's turn to be button

-----244 Hand-----

----- clean player data in socket -----
seat/ 
button: 4444 1950 200 
small blind: 8888 70850 2000 
/seat 
blind/ 
8888: 50 
/blind 
player 8888:hold/ 
CLUBS 10 
CLUBS Q 
/hold 
player 4444:hold/ 
SPADES 6 
HEARTS A 
/hold 

---pre flop round bet---
valid player: 2, all in player: 0, fold player: 0
send inquire msg to player 4444 
inquire/ 
8888 70800 2000 50 blind 
total pot: 50 
/inquire 
recv from player 4444: fold 

send inquire msg to player 8888 
inquire/ 
4444 1950 200 0 fold 
8888 70800 2000 50 blind 
total pot: 50 
/inquire 
recv from player 8888: call 


---flop round bet---
valid player: 2, all in player: 0, fold player: 1

---turn round bet---
valid player: 2, all in player: 0, fold player: 1

---river round bet---
valid player: 2, all in player: 0, fold player: 1

----- notify msg last round -----
send notify msg to player 4444 
notify/ 
8888 70800 2000 50 check 
4444 1950 200 0 fold 
total pot: 50 
/notify 
send notify msg to player 8888 
notify/ 
4444 1950 200 0 fold 
8888 70800 2000 50 check 
total pot: 50 
/notify 

--- 1 players not fold, don't need show down---

---Allocate pot---
Only player at seat 0 not fold, win all the pot 50
pot-win/ 
8888: 50 
/pot-win 
it is player 8888's turn to be button

-----245 Hand-----

----- clean player data in socket -----
seat/ 
button: 8888 70850 2000 
small blind: 4444 1950 200 
/seat 
blind/ 
4444: 50 
/blind 
player 4444:hold/ 
HEARTS 3 
DIAMONDS 4 
/hold 
player 8888:hold/ 
DIAMONDS Q 
DIAMONDS 8 
/hold 

---pre flop round bet---
valid player: 2, all in player: 0, fold player: 0
send inquire msg to player 8888 
inquire/ 
4444 1900 200 50 blind 
total pot: 50 
/inquire 
recv from player 8888: call 

send inquire msg to player 4444 
inquire/ 
8888 70800 2000 50 call 
4444 1900 200 50 blind 
total pot: 100 
/inquire 
recv from player 4444: fold 


---flop round bet---
valid player: 2, all in player: 0, fold player: 1

---turn round bet---
valid player: 2, all in player: 0, fold player: 1

---river round bet---
valid player: 2, all in player: 0, fold player: 1

----- notify msg last round -----
send notify msg to player 8888 
notify/ 
4444 1900 200 50 fold 
8888 70800 2000 50 call 
total pot: 100 
/notify 
send notify msg to player 4444 
notify/ 
8888 70800 2000 50 call 
4444 1900 200 50 fold 
total pot: 100 
/notify 

--- 1 players not fold, don't need show down---

---Allocate pot---
Only player at seat 7 not fold, win all the pot 100
pot-win/ 
8888: 100 
/pot-win 
it is player 4444's turn to be button

-----246 Hand-----

----- clean player data in socket -----
seat/ 
button: 4444 1900 200 
small blind: 8888 70900 2000 
/seat 
blind/ 
8888: 50 
/blind 
player 8888:hold/ 
CLUBS 8 
DIAMONDS 3 
/hold 
player 4444:hold/ 
HEARTS 6 
SPADES 9 
/hold 

---pre flop round bet---
valid player: 2, all in player: 0, fold player: 0
send inquire msg to player 4444 
inquire/ 
8888 70850 2000 50 blind 
total pot: 50 
/inquire 
recv from player 4444: fold 

send inquire msg to player 8888 
inquire/ 
4444 1900 200 0 fold 
8888 70850 2000 50 blind 
total pot: 50 
/inquire 
recv from player 8888: fold 


---flop round bet---
valid player: 2, all in player: 0, fold player: 2

---turn round bet---
valid player: 2, all in player: 0, fold player: 2

---river round bet---
valid player: 2, all in player: 0, fold player: 2

----- notify msg last round -----
send notify msg to player 4444 
notify/ 
8888 70850 2000 50 fold 
4444 1900 200 0 fold 
total pot: 50 
/notify 
send notify msg to player 8888 
notify/ 
4444 1900 200 0 fold 
8888 70850 2000 50 fold 
total pot: 50 
/notify 

--- 0 players not fold, don't need show down---

---Allocate pot---
pot-win/ 
/pot-win 
it is player 8888's turn to be button

-----247 Hand-----

----- clean player data in socket -----
seat/ 
button: 8888 70850 2000 
small blind: 4444 1900 200 
/seat 
blind/ 
4444: 50 
/blind 
player 4444:hold/ 
DIAMONDS 8 
SPADES A 
/hold 
player 8888:hold/ 
SPADES 3 
CLUBS K 
/hold 

---pre flop round bet---
valid player: 2, all in player: 0, fold player: 0
send inquire msg to player 8888 
inquire/ 
4444 1850 200 50 blind 
total pot: 50 
/inquire 
recv from player 8888: fold 

send inquire msg to player 4444 
inquire/ 
8888 70850 2000 0 fold 
4444 1850 200 50 blind 
total pot: 50 
/inquire 
recv from player 4444: fold 


---flop round bet---
valid player: 2, all in player: 0, fold player: 2

---turn round bet---
valid player: 2, all in player: 0, fold player: 2

---river round bet---
valid player: 2, all in player: 0, fold player: 2

----- notify msg last round -----
send notify msg to player 8888 
notify/ 
4444 1850 200 50 fold 
8888 70850 2000 0 fold 
total pot: 50 
/notify 
send notify msg to player 4444 
notify/ 
8888 70850 2000 0 fold 
4444 1850 200 50 fold 
total pot: 50 
/notify 

--- 0 players not fold, don't need show down---

---Allocate pot---
pot-win/ 
/pot-win 
it is player 4444's turn to be button

-----248 Hand-----

----- clean player data in socket -----
seat/ 
button: 4444 1850 200 
small blind: 8888 70850 2000 
/seat 
blind/ 
8888: 50 
/blind 
player 8888:hold/ 
DIAMONDS 10 
HEARTS 5 
/hold 
player 4444:hold/ 
DIAMONDS 4 
HEARTS 9 
/hold 

---pre flop round bet---
valid player: 2, all in player: 0, fold player: 0
send inquire msg to player 4444 
inquire/ 
8888 70800 2000 50 blind 
total pot: 50 
/inquire 
recv from player 4444: fold 

send inquire msg to player 8888 
inquire/ 
4444 1850 200 0 fold 
8888 70800 2000 50 blind 
total pot: 50 
/inquire 
recv from player 8888: fold 


---flop round bet---
valid player: 2, all in player: 0, fold player: 2

---turn round bet---
valid player: 2, all in player: 0, fold player: 2

---river round bet---
valid player: 2, all in player: 0, fold player: 2

----- notify msg last round -----
send notify msg to player 4444 
notify/ 
8888 70800 2000 50 fold 
4444 1850 200 0 fold 
total pot: 50 
/notify 
send notify msg to player 8888 
notify/ 
4444 1850 200 0 fold 
8888 70800 2000 50 fold 
total pot: 50 
/notify 

--- 0 players not fold, don't need show down---

---Allocate pot---
pot-win/ 
/pot-win 
it is player 8888's turn to be button

-----249 Hand-----

----- clean player data in socket -----
seat/ 
button: 8888 70800 2000 
small blind: 4444 1850 200 
/seat 
blind/ 
4444: 50 
/blind 
player 4444:hold/ 
DIAMONDS 3 
SPADES 10 
/hold 
player 8888:hold/ 
HEARTS Q 
HEARTS 6 
/hold 

---pre flop round bet---
valid player: 2, all in player: 0, fold player: 0
send inquire msg to player 8888 
inquire/ 
4444 1800 200 50 blind 
total pot: 50 
/inquire 
recv from player 8888: call 

send inquire msg to player 4444 
inquire/ 
8888 70750 2000 50 call 
4444 1800 200 50 blind 
total pot: 100 
/inquire 
recv from player 4444: fold 


---flop round bet---
valid player: 2, all in player: 0, fold player: 1

---turn round bet---
valid player: 2, all in player: 0, fold player: 1

---river round bet---
valid player: 2, all in player: 0, fold player: 1

----- notify msg last round -----
send notify msg to player 8888 
notify/ 
4444 1800 200 50 fold 
8888 70750 2000 50 call 
total pot: 100 
/notify 
send notify msg to player 4444 
notify/ 
8888 70750 2000 50 call 
4444 1800 200 50 fold 
total pot: 100 
/notify 

--- 1 players not fold, don't need show down---

---Allocate pot---
Only player at seat 7 not fold, win all the pot 100
pot-win/ 
8888: 100 
/pot-win 
it is player 4444's turn to be button

-----250 Hand-----

----- clean player data in socket -----
seat/ 
button: 4444 1800 200 
small blind: 8888 70850 2000 
/seat 
blind/ 
8888: 50 
/blind 
player 8888:hold/ 
SPADES 3 
CLUBS 2 
/hold 
player 4444:hold/ 
HEARTS Q 
HEARTS K 
/hold 

---pre flop round bet---
valid player: 2, all in player: 0, fold player: 0
send inquire msg to player 4444 
inquire/ 
8888 70800 2000 50 blind 
total pot: 50 
/inquire 
recv from player 4444: fold 

send inquire msg to player 8888 
inquire/ 
4444 1800 200 0 fold 
8888 70800 2000 50 blind 
total pot: 50 
/inquire 
recv from player 8888: fold 


---flop round bet---
valid player: 2, all in player: 0, fold player: 2

---turn round bet---
valid player: 2, all in player: 0, fold player: 2

---river round bet---
valid player: 2, all in player: 0, fold player: 2

----- notify msg last round -----
send notify msg to player 4444 
notify/ 
8888 70800 2000 50 fold 
4444 1800 200 0 fold 
total pot: 50 
/notify 
send notify msg to player 8888 
notify/ 
4444 1800 200 0 fold 
8888 70800 2000 50 fold 
total pot: 50 
/notify 

--- 0 players not fold, don't need show down---

---Allocate pot---
pot-win/ 
/pot-win 
it is player 8888's turn to be button

-----251 Hand-----

----- clean player data in socket -----
seat/ 
button: 8888 70800 2000 
small blind: 4444 1800 200 
/seat 
blind/ 
4444: 50 
/blind 
player 4444:hold/ 
HEARTS 4 
DIAMONDS 4 
/hold 
player 8888:hold/ 
SPADES 10 
SPADES K 
/hold 

---pre flop round bet---
valid player: 2, all in player: 0, fold player: 0
send inquire msg to player 8888 
inquire/ 
4444 1750 200 50 blind 
total pot: 50 
/inquire 
recv from player 8888: call 

send inquire msg to player 4444 
inquire/ 
8888 70750 2000 50 call 
4444 1750 200 50 blind 
total pot: 100 
/inquire 
recv from player 4444: fold 


---flop round bet---
valid player: 2, all in player: 0, fold player: 1

---turn round bet---
valid player: 2, all in player: 0, fold player: 1

---river round bet---
valid player: 2, all in player: 0, fold player: 1

----- notify msg last round -----
send notify msg to player 8888 
notify/ 
4444 1750 200 50 fold 
8888 70750 2000 50 call 
total pot: 100 
/notify 
send notify msg to player 4444 
notify/ 
8888 70750 2000 50 call 
4444 1750 200 50 fold 
total pot: 100 
/notify 

--- 1 players not fold, don't need show down---

---Allocate pot---
Only player at seat 7 not fold, win all the pot 100
pot-win/ 
8888: 100 
/pot-win 
it is player 4444's turn to be button

-----252 Hand-----

----- clean player data in socket -----
seat/ 
button: 4444 1750 200 
small blind: 8888 70850 2000 
/seat 
blind/ 
8888: 50 
/blind 
player 8888:hold/ 
DIAMONDS 5 
CLUBS 7 
/hold 
player 4444:hold/ 
DIAMONDS J 
CLUBS A 
/hold 

---pre flop round bet---
valid player: 2, all in player: 0, fold player: 0
send inquire msg to player 4444 
inquire/ 
8888 70800 2000 50 blind 
total pot: 50 
/inquire 
recv from player 4444: fold 

send inquire msg to player 8888 
inquire/ 
4444 1750 200 0 fold 
8888 70800 2000 50 blind 
total pot: 50 
/inquire 
recv from player 8888: fold 


---flop round bet---
valid player: 2, all in player: 0, fold player: 2

---turn round bet---
valid player: 2, all in player: 0, fold player: 2

---river round bet---
valid player: 2, all in player: 0, fold player: 2

----- notify msg last round -----
send notify msg to player 4444 
notify/ 
8888 70800 2000 50 fold 
4444 1750 200 0 fold 
total pot: 50 
/notify 
send notify msg to player 8888 
notify/ 
4444 1750 200 0 fold 
8888 70800 2000 50 fold 
total pot: 50 
/notify 

--- 0 players not fold, don't need show down---

---Allocate pot---
pot-win/ 
/pot-win 
it is player 8888's turn to be button

-----253 Hand-----

----- clean player data in socket -----
seat/ 
button: 8888 70800 2000 
small blind: 4444 1750 200 
/seat 
blind/ 
4444: 50 
/blind 
player 4444:hold/ 
SPADES 4 
DIAMONDS 3 
/hold 
player 8888:hold/ 
DIAMONDS 8 
DIAMONDS 6 
/hold 

---pre flop round bet---
valid player: 2, all in player: 0, fold player: 0
send inquire msg to player 8888 
inquire/ 
4444 1700 200 50 blind 
total pot: 50 
/inquire 
recv from player 8888: call 

send inquire msg to player 4444 
inquire/ 
8888 70750 2000 50 call 
4444 1700 200 50 blind 
total pot: 100 
/inquire 
recv from player 4444: fold 


---flop round bet---
valid player: 2, all in player: 0, fold player: 1

---turn round bet---
valid player: 2, all in player: 0, fold player: 1

---river round bet---
valid player: 2, all in player: 0, fold player: 1

----- notify msg last round -----
send notify msg to player 8888 
notify/ 
4444 1700 200 50 fold 
8888 70750 2000 50 call 
total pot: 100 
/notify 
send notify msg to player 4444 
notify/ 
8888 70750 2000 50 call 
4444 1700 200 50 fold 
total pot: 100 
/notify 

--- 1 players not fold, don't need show down---

---Allocate pot---
Only player at seat 7 not fold, win all the pot 100
pot-win/ 
8888: 100 
/pot-win 
it is player 4444's turn to be button

-----254 Hand-----

----- clean player data in socket -----
seat/ 
button: 4444 1700 200 
small blind: 8888 70850 2000 
/seat 
blind/ 
8888: 50 
/blind 
player 8888:hold/ 
CLUBS J 
DIAMONDS 5 
/hold 
player 4444:hold/ 
SPADES K 
DIAMONDS 7 
/hold 

---pre flop round bet---
valid player: 2, all in player: 0, fold player: 0
send inquire msg to player 4444 
inquire/ 
8888 70800 2000 50 blind 
total pot: 50 
/inquire 
recv from player 4444: fold 

send inquire msg to player 8888 
inquire/ 
4444 1700 200 0 fold 
8888 70800 2000 50 blind 
total pot: 50 
/inquire 
recv from player 8888: fold 


---flop round bet---
valid player: 2, all in player: 0, fold player: 2

---turn round bet---
valid player: 2, all in player: 0, fold player: 2

---river round bet---
valid player: 2, all in player: 0, fold player: 2

----- notify msg last round -----
send notify msg to player 4444 
notify/ 
8888 70800 2000 50 fold 
4444 1700 200 0 fold 
total pot: 50 
/notify 
send notify msg to player 8888 
notify/ 
4444 1700 200 0 fold 
8888 70800 2000 50 fold 
total pot: 50 
/notify 

--- 0 players not fold, don't need show down---

---Allocate pot---
pot-win/ 
/pot-win 
it is player 8888's turn to be button

-----255 Hand-----

----- clean player data in socket -----
seat/ 
button: 8888 70800 2000 
small blind: 4444 1700 200 
/seat 
blind/ 
4444: 50 
/blind 
player 4444:hold/ 
DIAMONDS 6 
CLUBS 3 
/hold 
player 8888:hold/ 
HEARTS 9 
CLUBS Q 
/hold 

---pre flop round bet---
valid player: 2, all in player: 0, fold player: 0
send inquire msg to player 8888 
inquire/ 
4444 1650 200 50 blind 
total pot: 50 
/inquire 
recv from player 8888: call 

send inquire msg to player 4444 
inquire/ 
8888 70750 2000 50 call 
4444 1650 200 50 blind 
total pot: 100 
/inquire 
recv from player 4444: fold 


---flop round bet---
valid player: 2, all in player: 0, fold player: 1

---turn round bet---
valid player: 2, all in player: 0, fold player: 1

---river round bet---
valid player: 2, all in player: 0, fold player: 1

----- notify msg last round -----
send notify msg to player 8888 
notify/ 
4444 1650 200 50 fold 
8888 70750 2000 50 call 
total pot: 100 
/notify 
send notify msg to player 4444 
notify/ 
8888 70750 2000 50 call 
4444 1650 200 50 fold 
total pot: 100 
/notify 

--- 1 players not fold, don't need show down---

---Allocate pot---
Only player at seat 7 not fold, win all the pot 100
pot-win/ 
8888: 100 
/pot-win 
it is player 4444's turn to be button

-----256 Hand-----

----- clean player data in socket -----
seat/ 
button: 4444 1650 200 
small blind: 8888 70850 2000 
/seat 
blind/ 
8888: 50 
/blind 
player 8888:hold/ 
CLUBS 10 
SPADES A 
/hold 
player 4444:hold/ 
CLUBS Q 
CLUBS 9 
/hold 

---pre flop round bet---
valid player: 2, all in player: 0, fold player: 0
send inquire msg to player 4444 
inquire/ 
8888 70800 2000 50 blind 
total pot: 50 
/inquire 
recv from player 4444: fold 

send inquire msg to player 8888 
inquire/ 
4444 1650 200 0 fold 
8888 70800 2000 50 blind 
total pot: 50 
/inquire 
recv from player 8888: call 


---flop round bet---
valid player: 2, all in player: 0, fold player: 1

---turn round bet---
valid player: 2, all in player: 0, fold player: 1

---river round bet---
valid player: 2, all in player: 0, fold player: 1

----- notify msg last round -----
send notify msg to player 4444 
notify/ 
8888 70800 2000 50 check 
4444 1650 200 0 fold 
total pot: 50 
/notify 
send notify msg to player 8888 
notify/ 
4444 1650 200 0 fold 
8888 70800 2000 50 check 
total pot: 50 
/notify 

--- 1 players not fold, don't need show down---

---Allocate pot---
Only player at seat 0 not fold, win all the pot 50
pot-win/ 
8888: 50 
/pot-win 
it is player 8888's turn to be button

-----257 Hand-----

----- clean player data in socket -----
seat/ 
button: 8888 70850 2000 
small blind: 4444 1650 200 
/seat 
blind/ 
4444: 50 
/blind 
player 4444:hold/ 
HEARTS K 
DIAMONDS 6 
/hold 
player 8888:hold/ 
HEARTS 6 
CLUBS 6 
/hold 

---pre flop round bet---
valid player: 2, all in player: 0, fold player: 0
send inquire msg to player 8888 
inquire/ 
4444 1600 200 50 blind 
total pot: 50 
/inquire 
recv from player 8888: call 

send inquire msg to player 4444 
inquire/ 
8888 70800 2000 50 call 
4444 1600 200 50 blind 
total pot: 100 
/inquire 
recv from player 4444: fold 


---flop round bet---
valid player: 2, all in player: 0, fold player: 1

---turn round bet---
valid player: 2, all in player: 0, fold player: 1

---river round bet---
valid player: 2, all in player: 0, fold player: 1

----- notify msg last round -----
send notify msg to player 8888 
notify/ 
4444 1600 200 50 fold 
8888 70800 2000 50 call 
total pot: 100 
/notify 
send notify msg to player 4444 
notify/ 
8888 70800 2000 50 call 
4444 1600 200 50 fold 
total pot: 100 
/notify 

--- 1 players not fold, don't need show down---

---Allocate pot---
Only player at seat 7 not fold, win all the pot 100
pot-win/ 
8888: 100 
/pot-win 
it is player 4444's turn to be button

-----258 Hand-----

----- clean player data in socket -----
seat/ 
button: 4444 1600 200 
small blind: 8888 70900 2000 
/seat 
blind/ 
8888: 50 
/blind 
player 8888:hold/ 
HEARTS 10 
HEARTS 4 
/hold 
player 4444:hold/ 
CLUBS 6 
SPADES A 
/hold 

---pre flop round bet---
valid player: 2, all in player: 0, fold player: 0
send inquire msg to player 4444 
inquire/ 
8888 70850 2000 50 blind 
total pot: 50 
/inquire 
recv from player 4444: fold 

send inquire msg to player 8888 
inquire/ 
4444 1600 200 0 fold 
8888 70850 2000 50 blind 
total pot: 50 
/inquire 
recv from player 8888: fold 


---flop round bet---
valid player: 2, all in player: 0, fold player: 2

---turn round bet---
valid player: 2, all in player: 0, fold player: 2

---river round bet---
valid player: 2, all in player: 0, fold player: 2

----- notify msg last round -----
send notify msg to player 4444 
notify/ 
8888 70850 2000 50 fold 
4444 1600 200 0 fold 
total pot: 50 
/notify 
send notify msg to player 8888 
notify/ 
4444 1600 200 0 fold 
8888 70850 2000 50 fold 
total pot: 50 
/notify 

--- 0 players not fold, don't need show down---

---Allocate pot---
pot-win/ 
/pot-win 
it is player 8888's turn to be button

-----259 Hand-----

----- clean player data in socket -----
seat/ 
button: 8888 70850 2000 
small blind: 4444 1600 200 
/seat 
blind/ 
4444: 50 
/blind 
player 4444:hold/ 
HEARTS 7 
CLUBS 4 
/hold 
player 8888:hold/ 
SPADES Q 
HEARTS 5 
/hold 

---pre flop round bet---
valid player: 2, all in player: 0, fold player: 0
send inquire msg to player 8888 
inquire/ 
4444 1550 200 50 blind 
total pot: 50 
/inquire 
recv from player 8888: fold 

send inquire msg to player 4444 
inquire/ 
8888 70850 2000 0 fold 
4444 1550 200 50 blind 
total pot: 50 
/inquire 
recv from player 4444: fold 


---flop round bet---
valid player: 2, all in player: 0, fold player: 2

---turn round bet---
valid player: 2, all in player: 0, fold player: 2

---river round bet---
valid player: 2, all in player: 0, fold player: 2

----- notify msg last round -----
send notify msg to player 8888 
notify/ 
4444 1550 200 50 fold 
8888 70850 2000 0 fold 
total pot: 50 
/notify 
send notify msg to player 4444 
notify/ 
8888 70850 2000 0 fold 
4444 1550 200 50 fold 
total pot: 50 
/notify 

--- 0 players not fold, don't need show down---

---Allocate pot---
pot-win/ 
/pot-win 
it is player 4444's turn to be button

-----260 Hand-----

----- clean player data in socket -----
seat/ 
button: 4444 1550 200 
small blind: 8888 70850 2000 
/seat 
blind/ 
8888: 50 
/blind 
player 8888:hold/ 
SPADES 8 
CLUBS 8 
/hold 
player 4444:hold/ 
DIAMONDS A 
HEARTS 2 
/hold 

---pre flop round bet---
valid player: 2, all in player: 0, fold player: 0
send inquire msg to player 4444 
inquire/ 
8888 70800 2000 50 blind 
total pot: 50 
/inquire 
recv from player 4444: fold 

send inquire msg to player 8888 
inquire/ 
4444 1550 200 0 fold 
8888 70800 2000 50 blind 
total pot: 50 
/inquire 
recv from player 8888: call 


---flop round bet---
valid player: 2, all in player: 0, fold player: 1

---turn round bet---
valid player: 2, all in player: 0, fold player: 1

---river round bet---
valid player: 2, all in player: 0, fold player: 1

----- notify msg last round -----
send notify msg to player 4444 
notify/ 
8888 70800 2000 50 check 
4444 1550 200 0 fold 
total pot: 50 
/notify 
send notify msg to player 8888 
notify/ 
4444 1550 200 0 fold 
8888 70800 2000 50 check 
total pot: 50 
/notify 

--- 1 players not fold, don't need show down---

---Allocate pot---
Only player at seat 0 not fold, win all the pot 50
pot-win/ 
8888: 50 
/pot-win 
it is player 8888's turn to be button

-----261 Hand-----

----- clean player data in socket -----
seat/ 
button: 8888 70850 2000 
small blind: 4444 1550 200 
/seat 
blind/ 
4444: 50 
/blind 
player 4444:hold/ 
DIAMONDS 9 
DIAMONDS 5 
/hold 
player 8888:hold/ 
CLUBS 5 
HEARTS 10 
/hold 

---pre flop round bet---
valid player: 2, all in player: 0, fold player: 0
send inquire msg to player 8888 
inquire/ 
4444 1500 200 50 blind 
total pot: 50 
/inquire 
recv from player 8888: fold 

send inquire msg to player 4444 
inquire/ 
8888 70850 2000 0 fold 
4444 1500 200 50 blind 
total pot: 50 
/inquire 
recv from player 4444: fold 


---flop round bet---
valid player: 2, all in player: 0, fold player: 2

---turn round bet---
valid player: 2, all in player: 0, fold player: 2

---river round bet---
valid player: 2, all in player: 0, fold player: 2

----- notify msg last round -----
send notify msg to player 8888 
notify/ 
4444 1500 200 50 fold 
8888 70850 2000 0 fold 
total pot: 50 
/notify 
send notify msg to player 4444 
notify/ 
8888 70850 2000 0 fold 
4444 1500 200 50 fold 
total pot: 50 
/notify 

--- 0 players not fold, don't need show down---

---Allocate pot---
pot-win/ 
/pot-win 
it is player 4444's turn to be button

-----262 Hand-----

----- clean player data in socket -----
seat/ 
button: 4444 1500 200 
small blind: 8888 70850 2000 
/seat 
blind/ 
8888: 50 
/blind 
player 8888:hold/ 
HEARTS A 
CLUBS 10 
/hold 
player 4444:hold/ 
SPADES 6 
HEARTS 8 
/hold 

---pre flop round bet---
valid player: 2, all in player: 0, fold player: 0
send inquire msg to player 4444 
inquire/ 
8888 70800 2000 50 blind 
total pot: 50 
/inquire 
recv from player 4444: fold 

send inquire msg to player 8888 
inquire/ 
4444 1500 200 0 fold 
8888 70800 2000 50 blind 
total pot: 50 
/inquire 
recv from player 8888: call 


---flop round bet---
valid player: 2, all in player: 0, fold player: 1

---turn round bet---
valid player: 2, all in player: 0, fold player: 1

---river round bet---
valid player: 2, all in player: 0, fold player: 1

----- notify msg last round -----
send notify msg to player 4444 
notify/ 
8888 70800 2000 50 check 
4444 1500 200 0 fold 
total pot: 50 
/notify 
send notify msg to player 8888 
notify/ 
4444 1500 200 0 fold 
8888 70800 2000 50 check 
total pot: 50 
/notify 

--- 1 players not fold, don't need show down---

---Allocate pot---
Only player at seat 0 not fold, win all the pot 50
pot-win/ 
8888: 50 
/pot-win 
it is player 8888's turn to be button

-----263 Hand-----

----- clean player data in socket -----
seat/ 
button: 8888 70850 2000 
small blind: 4444 1500 200 
/seat 
blind/ 
4444: 50 
/blind 
player 4444:hold/ 
CLUBS 10 
DIAMONDS K 
/hold 
player 8888:hold/ 
CLUBS Q 
DIAMONDS A 
/hold 

---pre flop round bet---
valid player: 2, all in player: 0, fold player: 0
send inquire msg to player 8888 
inquire/ 
4444 1450 200 50 blind 
total pot: 50 
/inquire 
recv from player 8888: raise 200 

send inquire msg to player 4444 
inquire/ 
8888 70600 2000 250 raise 
4444 1450 200 50 blind 
total pot: 300 
/inquire 
recv from player 4444: fold 


---flop round bet---
valid player: 2, all in player: 0, fold player: 1

---turn round bet---
valid player: 2, all in player: 0, fold player: 1

---river round bet---
valid player: 2, all in player: 0, fold player: 1

----- notify msg last round -----
send notify msg to player 8888 
notify/ 
4444 1450 200 50 fold 
8888 70600 2000 250 raise 
total pot: 300 
/notify 
send notify msg to player 4444 
notify/ 
8888 70600 2000 250 raise 
4444 1450 200 50 fold 
total pot: 300 
/notify 

--- 1 players not fold, don't need show down---

---Allocate pot---
Only player at seat 7 not fold, win all the pot 300
pot-win/ 
8888: 300 
/pot-win 
it is player 4444's turn to be button

-----264 Hand-----

----- clean player data in socket -----
seat/ 
button: 4444 1450 200 
small blind: 8888 70900 2000 
/seat 
blind/ 
8888: 50 
/blind 
player 8888:hold/ 
CLUBS 8 
DIAMONDS 4 
/hold 
player 4444:hold/ 
CLUBS 3 
HEARTS 10 
/hold 

---pre flop round bet---
valid player: 2, all in player: 0, fold player: 0
send inquire msg to player 4444 
inquire/ 
8888 70850 2000 50 blind 
total pot: 50 
/inquire 
recv from player 4444: fold 

send inquire msg to player 8888 
inquire/ 
4444 1450 200 0 fold 
8888 70850 2000 50 blind 
total pot: 50 
/inquire 
recv from player 8888: fold 


---flop round bet---
valid player: 2, all in player: 0, fold player: 2

---turn round bet---
valid player: 2, all in player: 0, fold player: 2

---river round bet---
valid player: 2, all in player: 0, fold player: 2

----- notify msg last round -----
send notify msg to player 4444 
notify/ 
8888 70850 2000 50 fold 
4444 1450 200 0 fold 
total pot: 50 
/notify 
send notify msg to player 8888 
notify/ 
4444 1450 200 0 fold 
8888 70850 2000 50 fold 
total pot: 50 
/notify 

--- 0 players not fold, don't need show down---

---Allocate pot---
pot-win/ 
/pot-win 
it is player 8888's turn to be button

-----265 Hand-----

----- clean player data in socket -----
seat/ 
button: 8888 70850 2000 
small blind: 4444 1450 200 
/seat 
blind/ 
4444: 50 
/blind 
player 4444:hold/ 
HEARTS 7 
SPADES 7 
/hold 
player 8888:hold/ 
HEARTS J 
DIAMONDS 4 
/hold 

---pre flop round bet---
valid player: 2, all in player: 0, fold player: 0
send inquire msg to player 8888 
inquire/ 
4444 1400 200 50 blind 
total pot: 50 
/inquire 
recv from player 8888: fold 

send inquire msg to player 4444 
inquire/ 
8888 70850 2000 0 fold 
4444 1400 200 50 blind 
total pot: 50 
/inquire 
recv from player 4444: fold 


---flop round bet---
valid player: 2, all in player: 0, fold player: 2

---turn round bet---
valid player: 2, all in player: 0, fold player: 2

---river round bet---
valid player: 2, all in player: 0, fold player: 2

----- notify msg last round -----
send notify msg to player 8888 
notify/ 
4444 1400 200 50 fold 
8888 70850 2000 0 fold 
total pot: 50 
/notify 
send notify msg to player 4444 
notify/ 
8888 70850 2000 0 fold 
4444 1400 200 50 fold 
total pot: 50 
/notify 

--- 0 players not fold, don't need show down---

---Allocate pot---
pot-win/ 
/pot-win 
it is player 4444's turn to be button

-----266 Hand-----

----- clean player data in socket -----
seat/ 
button: 4444 1400 200 
small blind: 8888 70850 2000 
/seat 
blind/ 
8888: 50 
/blind 
player 8888:hold/ 
HEARTS 8 
SPADES 2 
/hold 
player 4444:hold/ 
SPADES 5 
HEARTS 4 
/hold 

---pre flop round bet---
valid player: 2, all in player: 0, fold player: 0
send inquire msg to player 4444 
inquire/ 
8888 70800 2000 50 blind 
total pot: 50 
/inquire 
recv from player 4444: fold 

send inquire msg to player 8888 
inquire/ 
4444 1400 200 0 fold 
8888 70800 2000 50 blind 
total pot: 50 
/inquire 
recv from player 8888: fold 


---flop round bet---
valid player: 2, all in player: 0, fold player: 2

---turn round bet---
valid player: 2, all in player: 0, fold player: 2

---river round bet---
valid player: 2, all in player: 0, fold player: 2

----- notify msg last round -----
send notify msg to player 4444 
notify/ 
8888 70800 2000 50 fold 
4444 1400 200 0 fold 
total pot: 50 
/notify 
send notify msg to player 8888 
notify/ 
4444 1400 200 0 fold 
8888 70800 2000 50 fold 
total pot: 50 
/notify 

--- 0 players not fold, don't need show down---

---Allocate pot---
pot-win/ 
/pot-win 
it is player 8888's turn to be button

-----267 Hand-----

----- clean player data in socket -----
seat/ 
button: 8888 70800 2000 
small blind: 4444 1400 200 
/seat 
blind/ 
4444: 50 
/blind 
player 4444:hold/ 
SPADES 8 
HEARTS 4 
/hold 
player 8888:hold/ 
SPADES 2 
CLUBS 10 
/hold 

---pre flop round bet---
valid player: 2, all in player: 0, fold player: 0
send inquire msg to player 8888 
inquire/ 
4444 1350 200 50 blind 
total pot: 50 
/inquire 
recv from player 8888: fold 

send inquire msg to player 4444 
inquire/ 
8888 70800 2000 0 fold 
4444 1350 200 50 blind 
total pot: 50 
/inquire 
recv from player 4444: fold 


---flop round bet---
valid player: 2, all in player: 0, fold player: 2

---turn round bet---
valid player: 2, all in player: 0, fold player: 2

---river round bet---
valid player: 2, all in player: 0, fold player: 2

----- notify msg last round -----
send notify msg to player 8888 
notify/ 
4444 1350 200 50 fold 
8888 70800 2000 0 fold 
total pot: 50 
/notify 
send notify msg to player 4444 
notify/ 
8888 70800 2000 0 fold 
4444 1350 200 50 fold 
total pot: 50 
/notify 

--- 0 players not fold, don't need show down---

---Allocate pot---
pot-win/ 
/pot-win 
it is player 4444's turn to be button

-----268 Hand-----

----- clean player data in socket -----
seat/ 
button: 4444 1350 200 
small blind: 8888 70800 2000 
/seat 
blind/ 
8888: 50 
/blind 
player 8888:hold/ 
SPADES 4 
DIAMONDS 5 
/hold 
player 4444:hold/ 
SPADES Q 
CLUBS 4 
/hold 

---pre flop round bet---
valid player: 2, all in player: 0, fold player: 0
send inquire msg to player 4444 
inquire/ 
8888 70750 2000 50 blind 
total pot: 50 
/inquire 
recv from player 4444: fold 

send inquire msg to player 8888 
inquire/ 
4444 1350 200 0 fold 
8888 70750 2000 50 blind 
total pot: 50 
/inquire 
recv from player 8888: fold 


---flop round bet---
valid player: 2, all in player: 0, fold player: 2

---turn round bet---
valid player: 2, all in player: 0, fold player: 2

---river round bet---
valid player: 2, all in player: 0, fold player: 2

----- notify msg last round -----
send notify msg to player 4444 
notify/ 
8888 70750 2000 50 fold 
4444 1350 200 0 fold 
total pot: 50 
/notify 
send notify msg to player 8888 
notify/ 
4444 1350 200 0 fold 
8888 70750 2000 50 fold 
total pot: 50 
/notify 

--- 0 players not fold, don't need show down---

---Allocate pot---
pot-win/ 
/pot-win 
it is player 8888's turn to be button

-----269 Hand-----

----- clean player data in socket -----
seat/ 
button: 8888 70750 2000 
small blind: 4444 1350 200 
/seat 
blind/ 
4444: 50 
/blind 
player 4444:hold/ 
CLUBS K 
SPADES 7 
/hold 
player 8888:hold/ 
HEARTS 2 
CLUBS 5 
/hold 

---pre flop round bet---
valid player: 2, all in player: 0, fold player: 0
send inquire msg to player 8888 
inquire/ 
4444 1300 200 50 blind 
total pot: 50 
/inquire 
recv from player 8888: fold 

send inquire msg to player 4444 
inquire/ 
8888 70750 2000 0 fold 
4444 1300 200 50 blind 
total pot: 50 
/inquire 
recv from player 4444: fold 


---flop round bet---
valid player: 2, all in player: 0, fold player: 2

---turn round bet---
valid player: 2, all in player: 0, fold player: 2

---river round bet---
valid player: 2, all in player: 0, fold player: 2

----- notify msg last round -----
send notify msg to player 8888 
notify/ 
4444 1300 200 50 fold 
8888 70750 2000 0 fold 
total pot: 50 
/notify 
send notify msg to player 4444 
notify/ 
8888 70750 2000 0 fold 
4444 1300 200 50 fold 
total pot: 50 
/notify 

--- 0 players not fold, don't need show down---

---Allocate pot---
pot-win/ 
/pot-win 
it is player 4444's turn to be button

-----270 Hand-----

----- clean player data in socket -----
seat/ 
button: 4444 1300 200 
small blind: 8888 70750 2000 
/seat 
blind/ 
8888: 50 
/blind 
player 8888:hold/ 
DIAMONDS K 
SPADES J 
/hold 
player 4444:hold/ 
HEARTS J 
HEARTS 9 
/hold 

---pre flop round bet---
valid player: 2, all in player: 0, fold player: 0
send inquire msg to player 4444 
inquire/ 
8888 70700 2000 50 blind 
total pot: 50 
/inquire 
recv from player 4444: fold 

send inquire msg to player 8888 
inquire/ 
4444 1300 200 0 fold 
8888 70700 2000 50 blind 
total pot: 50 
/inquire 
recv from player 8888: call 


---flop round bet---
valid player: 2, all in player: 0, fold player: 1

---turn round bet---
valid player: 2, all in player: 0, fold player: 1

---river round bet---
valid player: 2, all in player: 0, fold player: 1

----- notify msg last round -----
send notify msg to player 4444 
notify/ 
8888 70700 2000 50 check 
4444 1300 200 0 fold 
total pot: 50 
/notify 
send notify msg to player 8888 
notify/ 
4444 1300 200 0 fold 
8888 70700 2000 50 check 
total pot: 50 
/notify 

--- 1 players not fold, don't need show down---

---Allocate pot---
Only player at seat 0 not fold, win all the pot 50
pot-win/ 
8888: 50 
/pot-win 
it is player 8888's turn to be button

-----271 Hand-----

----- clean player data in socket -----
seat/ 
button: 8888 70750 2000 
small blind: 4444 1300 200 
/seat 
blind/ 
4444: 50 
/blind 
player 4444:hold/ 
SPADES 5 
HEARTS 2 
/hold 
player 8888:hold/ 
HEARTS 4 
DIAMONDS 6 
/hold 

---pre flop round bet---
valid player: 2, all in player: 0, fold player: 0
send inquire msg to player 8888 
inquire/ 
4444 1250 200 50 blind 
total pot: 50 
/inquire 
recv from player 8888: fold 

send inquire msg to player 4444 
inquire/ 
8888 70750 2000 0 fold 
4444 1250 200 50 blind 
total pot: 50 
/inquire 
recv from player 4444: fold 


---flop round bet---
valid player: 2, all in player: 0, fold player: 2

---turn round bet---
valid player: 2, all in player: 0, fold player: 2

---river round bet---
valid player: 2, all in player: 0, fold player: 2

----- notify msg last round -----
send notify msg to player 8888 
notify/ 
4444 1250 200 50 fold 
8888 70750 2000 0 fold 
total pot: 50 
/notify 
send notify msg to player 4444 
notify/ 
8888 70750 2000 0 fold 
4444 1250 200 50 fold 
total pot: 50 
/notify 

--- 0 players not fold, don't need show down---

---Allocate pot---
pot-win/ 
/pot-win 
it is player 4444's turn to be button

-----272 Hand-----

----- clean player data in socket -----
seat/ 
button: 4444 1250 200 
small blind: 8888 70750 2000 
/seat 
blind/ 
8888: 50 
/blind 
player 8888:hold/ 
HEARTS 4 
HEARTS 10 
/hold 
player 4444:hold/ 
DIAMONDS K 
HEARTS 8 
/hold 

---pre flop round bet---
valid player: 2, all in player: 0, fold player: 0
send inquire msg to player 4444 
inquire/ 
8888 70700 2000 50 blind 
total pot: 50 
/inquire 
recv from player 4444: fold 

send inquire msg to player 8888 
inquire/ 
4444 1250 200 0 fold 
8888 70700 2000 50 blind 
total pot: 50 
/inquire 
recv from player 8888: fold 


---flop round bet---
valid player: 2, all in player: 0, fold player: 2

---turn round bet---
valid player: 2, all in player: 0, fold player: 2

---river round bet---
valid player: 2, all in player: 0, fold player: 2

----- notify msg last round -----
send notify msg to player 4444 
notify/ 
8888 70700 2000 50 fold 
4444 1250 200 0 fold 
total pot: 50 
/notify 
send notify msg to player 8888 
notify/ 
4444 1250 200 0 fold 
8888 70700 2000 50 fold 
total pot: 50 
/notify 

--- 0 players not fold, don't need show down---

---Allocate pot---
pot-win/ 
/pot-win 
it is player 8888's turn to be button

-----273 Hand-----

----- clean player data in socket -----
seat/ 
button: 8888 70700 2000 
small blind: 4444 1250 200 
/seat 
blind/ 
4444: 50 
/blind 
player 4444:hold/ 
DIAMONDS 5 
DIAMONDS 6 
/hold 
player 8888:hold/ 
SPADES K 
HEARTS 6 
/hold 

---pre flop round bet---
valid player: 2, all in player: 0, fold player: 0
send inquire msg to player 8888 
inquire/ 
4444 1200 200 50 blind 
total pot: 50 
/inquire 
recv from player 8888: call 

send inquire msg to player 4444 
inquire/ 
8888 70650 2000 50 call 
4444 1200 200 50 blind 
total pot: 100 
/inquire 
recv from player 4444: fold 


---flop round bet---
valid player: 2, all in player: 0, fold player: 1

---turn round bet---
valid player: 2, all in player: 0, fold player: 1

---river round bet---
valid player: 2, all in player: 0, fold player: 1

----- notify msg last round -----
send notify msg to player 8888 
notify/ 
4444 1200 200 50 fold 
8888 70650 2000 50 call 
total pot: 100 
/notify 
send notify msg to player 4444 
notify/ 
8888 70650 2000 50 call 
4444 1200 200 50 fold 
total pot: 100 
/notify 

--- 1 players not fold, don't need show down---

---Allocate pot---
Only player at seat 7 not fold, win all the pot 100
pot-win/ 
8888: 100 
/pot-win 
it is player 4444's turn to be button

-----274 Hand-----

----- clean player data in socket -----
seat/ 
button: 4444 1200 200 
small blind: 8888 70750 2000 
/seat 
blind/ 
8888: 50 
/blind 
player 8888:hold/ 
CLUBS K 
HEARTS Q 
/hold 
player 4444:hold/ 
SPADES 10 
DIAMONDS 6 
/hold 

---pre flop round bet---
valid player: 2, all in player: 0, fold player: 0
send inquire msg to player 4444 
inquire/ 
8888 70700 2000 50 blind 
total pot: 50 
/inquire 
recv from player 4444: fold 

send inquire msg to player 8888 
inquire/ 
4444 1200 200 0 fold 
8888 70700 2000 50 blind 
total pot: 50 
/inquire 
recv from player 8888: call 


---flop round bet---
valid player: 2, all in player: 0, fold player: 1

---turn round bet---
valid player: 2, all in player: 0, fold player: 1

---river round bet---
valid player: 2, all in player: 0, fold player: 1

----- notify msg last round -----
send notify msg to player 4444 
notify/ 
8888 70700 2000 50 check 
4444 1200 200 0 fold 
total pot: 50 
/notify 
send notify msg to player 8888 
notify/ 
4444 1200 200 0 fold 
8888 70700 2000 50 check 
total pot: 50 
/notify 

--- 1 players not fold, don't need show down---

---Allocate pot---
Only player at seat 0 not fold, win all the pot 50
pot-win/ 
8888: 50 
/pot-win 
it is player 8888's turn to be button

-----275 Hand-----

----- clean player data in socket -----
seat/ 
button: 8888 70750 2000 
small blind: 4444 1200 200 
/seat 
blind/ 
4444: 50 
/blind 
player 4444:hold/ 
DIAMONDS 5 
SPADES 9 
/hold 
player 8888:hold/ 
DIAMONDS Q 
SPADES A 
/hold 

---pre flop round bet---
valid player: 2, all in player: 0, fold player: 0
send inquire msg to player 8888 
inquire/ 
4444 1150 200 50 blind 
total pot: 50 
/inquire 
recv from player 8888: raise 200 

send inquire msg to player 4444 
inquire/ 
8888 70500 2000 250 raise 
4444 1150 200 50 blind 
total pot: 300 
/inquire 
recv from player 4444: fold 


---flop round bet---
valid player: 2, all in player: 0, fold player: 1

---turn round bet---
valid player: 2, all in player: 0, fold player: 1

---river round bet---
valid player: 2, all in player: 0, fold player: 1

----- notify msg last round -----
send notify msg to player 8888 
notify/ 
4444 1150 200 50 fold 
8888 70500 2000 250 raise 
total pot: 300 
/notify 
send notify msg to player 4444 
notify/ 
8888 70500 2000 250 raise 
4444 1150 200 50 fold 
total pot: 300 
/notify 

--- 1 players not fold, don't need show down---

---Allocate pot---
Only player at seat 7 not fold, win all the pot 300
pot-win/ 
8888: 300 
/pot-win 
it is player 4444's turn to be button

-----276 Hand-----

----- clean player data in socket -----
seat/ 
button: 4444 1150 200 
small blind: 8888 70800 2000 
/seat 
blind/ 
8888: 50 
/blind 
player 8888:hold/ 
HEARTS 4 
DIAMONDS K 
/hold 
player 4444:hold/ 
DIAMONDS 5 
DIAMONDS Q 
/hold 

---pre flop round bet---
valid player: 2, all in player: 0, fold player: 0
send inquire msg to player 4444 
inquire/ 
8888 70750 2000 50 blind 
total pot: 50 
/inquire 
recv from player 4444: fold 

send inquire msg to player 8888 
inquire/ 
4444 1150 200 0 fold 
8888 70750 2000 50 blind 
total pot: 50 
/inquire 
recv from player 8888: fold 


---flop round bet---
valid player: 2, all in player: 0, fold player: 2

---turn round bet---
valid player: 2, all in player: 0, fold player: 2

---river round bet---
valid player: 2, all in player: 0, fold player: 2

----- notify msg last round -----
send notify msg to player 4444 
notify/ 
8888 70750 2000 50 fold 
4444 1150 200 0 fold 
total pot: 50 
/notify 
send notify msg to player 8888 
notify/ 
4444 1150 200 0 fold 
8888 70750 2000 50 fold 
total pot: 50 
/notify 

--- 0 players not fold, don't need show down---

---Allocate pot---
pot-win/ 
/pot-win 
it is player 8888's turn to be button

-----277 Hand-----

----- clean player data in socket -----
seat/ 
button: 8888 70750 2000 
small blind: 4444 1150 200 
/seat 
blind/ 
4444: 50 
/blind 
player 4444:hold/ 
CLUBS 4 
HEARTS 5 
/hold 
player 8888:hold/ 
CLUBS 7 
CLUBS 6 
/hold 

---pre flop round bet---
valid player: 2, all in player: 0, fold player: 0
send inquire msg to player 8888 
inquire/ 
4444 1100 200 50 blind 
total pot: 50 
/inquire 
recv from player 8888: call 

send inquire msg to player 4444 
inquire/ 
8888 70700 2000 50 call 
4444 1100 200 50 blind 
total pot: 100 
/inquire 
recv from player 4444: fold 


---flop round bet---
valid player: 2, all in player: 0, fold player: 1

---turn round bet---
valid player: 2, all in player: 0, fold player: 1

---river round bet---
valid player: 2, all in player: 0, fold player: 1

----- notify msg last round -----
send notify msg to player 8888 
notify/ 
4444 1100 200 50 fold 
8888 70700 2000 50 call 
total pot: 100 
/notify 
send notify msg to player 4444 
notify/ 
8888 70700 2000 50 call 
4444 1100 200 50 fold 
total pot: 100 
/notify 

--- 1 players not fold, don't need show down---

---Allocate pot---
Only player at seat 7 not fold, win all the pot 100
pot-win/ 
8888: 100 
/pot-win 
it is player 4444's turn to be button

-----278 Hand-----

----- clean player data in socket -----
seat/ 
button: 4444 1100 200 
small blind: 8888 70800 2000 
/seat 
blind/ 
8888: 50 
/blind 
player 8888:hold/ 
CLUBS 5 
SPADES Q 
/hold 
player 4444:hold/ 
DIAMONDS K 
HEARTS Q 
/hold 

---pre flop round bet---
valid player: 2, all in player: 0, fold player: 0
send inquire msg to player 4444 
inquire/ 
8888 70750 2000 50 blind 
total pot: 50 
/inquire 
recv from player 4444: fold 

send inquire msg to player 8888 
inquire/ 
4444 1100 200 0 fold 
8888 70750 2000 50 blind 
total pot: 50 
/inquire 
recv from player 8888: fold 


---flop round bet---
valid player: 2, all in player: 0, fold player: 2

---turn round bet---
valid player: 2, all in player: 0, fold player: 2

---river round bet---
valid player: 2, all in player: 0, fold player: 2

----- notify msg last round -----
send notify msg to player 4444 
notify/ 
8888 70750 2000 50 fold 
4444 1100 200 0 fold 
total pot: 50 
/notify 
send notify msg to player 8888 
notify/ 
4444 1100 200 0 fold 
8888 70750 2000 50 fold 
total pot: 50 
/notify 

--- 0 players not fold, don't need show down---

---Allocate pot---
pot-win/ 
/pot-win 
it is player 8888's turn to be button

-----279 Hand-----

----- clean player data in socket -----
seat/ 
button: 8888 70750 2000 
small blind: 4444 1100 200 
/seat 
blind/ 
4444: 50 
/blind 
player 4444:hold/ 
HEARTS J 
CLUBS Q 
/hold 
player 8888:hold/ 
CLUBS J 
CLUBS 6 
/hold 

---pre flop round bet---
valid player: 2, all in player: 0, fold player: 0
send inquire msg to player 8888 
inquire/ 
4444 1050 200 50 blind 
total pot: 50 
/inquire 
recv from player 8888: call 

send inquire msg to player 4444 
inquire/ 
8888 70700 2000 50 call 
4444 1050 200 50 blind 
total pot: 100 
/inquire 
recv from player 4444: fold 


---flop round bet---
valid player: 2, all in player: 0, fold player: 1

---turn round bet---
valid player: 2, all in player: 0, fold player: 1

---river round bet---
valid player: 2, all in player: 0, fold player: 1

----- notify msg last round -----
send notify msg to player 8888 
notify/ 
4444 1050 200 50 fold 
8888 70700 2000 50 call 
total pot: 100 
/notify 
send notify msg to player 4444 
notify/ 
8888 70700 2000 50 call 
4444 1050 200 50 fold 
total pot: 100 
/notify 

--- 1 players not fold, don't need show down---

---Allocate pot---
Only player at seat 7 not fold, win all the pot 100
pot-win/ 
8888: 100 
/pot-win 
it is player 4444's turn to be button

-----280 Hand-----

----- clean player data in socket -----
seat/ 
button: 4444 1050 200 
small blind: 8888 70800 2000 
/seat 
blind/ 
8888: 50 
/blind 
player 8888:hold/ 
DIAMONDS K 
DIAMONDS 2 
/hold 
player 4444:hold/ 
SPADES 9 
HEARTS 6 
/hold 

---pre flop round bet---
valid player: 2, all in player: 0, fold player: 0
send inquire msg to player 4444 
inquire/ 
8888 70750 2000 50 blind 
total pot: 50 
/inquire 
recv from player 4444: fold 

send inquire msg to player 8888 
inquire/ 
4444 1050 200 0 fold 
8888 70750 2000 50 blind 
total pot: 50 
/inquire 
recv from player 8888: fold 


---flop round bet---
valid player: 2, all in player: 0, fold player: 2

---turn round bet---
valid player: 2, all in player: 0, fold player: 2

---river round bet---
valid player: 2, all in player: 0, fold player: 2

----- notify msg last round -----
send notify msg to player 4444 
notify/ 
8888 70750 2000 50 fold 
4444 1050 200 0 fold 
total pot: 50 
/notify 
send notify msg to player 8888 
notify/ 
4444 1050 200 0 fold 
8888 70750 2000 50 fold 
total pot: 50 
/notify 

--- 0 players not fold, don't need show down---

---Allocate pot---
pot-win/ 
/pot-win 
it is player 8888's turn to be button

-----281 Hand-----

----- clean player data in socket -----
seat/ 
button: 8888 70750 2000 
small blind: 4444 1050 200 
/seat 
blind/ 
4444: 50 
/blind 
player 4444:hold/ 
SPADES 7 
HEARTS 9 
/hold 
player 8888:hold/ 
HEARTS J 
CLUBS 7 
/hold 

---pre flop round bet---
valid player: 2, all in player: 0, fold player: 0
send inquire msg to player 8888 
inquire/ 
4444 1000 200 50 blind 
total pot: 50 
/inquire 
recv from player 8888: call 

send inquire msg to player 4444 
inquire/ 
8888 70700 2000 50 call 
4444 1000 200 50 blind 
total pot: 100 
/inquire 
recv from player 4444: fold 


---flop round bet---
valid player: 2, all in player: 0, fold player: 1

---turn round bet---
valid player: 2, all in player: 0, fold player: 1

---river round bet---
valid player: 2, all in player: 0, fold player: 1

----- notify msg last round -----
send notify msg to player 8888 
notify/ 
4444 1000 200 50 fold 
8888 70700 2000 50 call 
total pot: 100 
/notify 
send notify msg to player 4444 
notify/ 
8888 70700 2000 50 call 
4444 1000 200 50 fold 
total pot: 100 
/notify 

--- 1 players not fold, don't need show down---

---Allocate pot---
Only player at seat 7 not fold, win all the pot 100
pot-win/ 
8888: 100 
/pot-win 
it is player 4444's turn to be button

-----282 Hand-----

----- clean player data in socket -----
seat/ 
button: 4444 1000 200 
small blind: 8888 70800 2000 
/seat 
blind/ 
8888: 50 
/blind 
player 8888:hold/ 
DIAMONDS 4 
CLUBS 4 
/hold 
player 4444:hold/ 
CLUBS Q 
HEARTS 2 
/hold 

---pre flop round bet---
valid player: 2, all in player: 0, fold player: 0
send inquire msg to player 4444 
inquire/ 
8888 70750 2000 50 blind 
total pot: 50 
/inquire 
recv from player 4444: fold 

send inquire msg to player 8888 
inquire/ 
4444 1000 200 0 fold 
8888 70750 2000 50 blind 
total pot: 50 
/inquire 
recv from player 8888: call 


---flop round bet---
valid player: 2, all in player: 0, fold player: 1

---turn round bet---
valid player: 2, all in player: 0, fold player: 1

---river round bet---
valid player: 2, all in player: 0, fold player: 1

----- notify msg last round -----
send notify msg to player 4444 
notify/ 
8888 70750 2000 50 check 
4444 1000 200 0 fold 
total pot: 50 
/notify 
send notify msg to player 8888 
notify/ 
4444 1000 200 0 fold 
8888 70750 2000 50 check 
total pot: 50 
/notify 

--- 1 players not fold, don't need show down---

---Allocate pot---
Only player at seat 0 not fold, win all the pot 50
pot-win/ 
8888: 50 
/pot-win 
it is player 8888's turn to be button

-----283 Hand-----

----- clean player data in socket -----
seat/ 
button: 8888 70800 2000 
small blind: 4444 1000 200 
/seat 
blind/ 
4444: 50 
/blind 
player 4444:hold/ 
HEARTS 5 
CLUBS 6 
/hold 
player 8888:hold/ 
CLUBS Q 
HEARTS 7 
/hold 

---pre flop round bet---
valid player: 2, all in player: 0, fold player: 0
send inquire msg to player 8888 
inquire/ 
4444 950 200 50 blind 
total pot: 50 
/inquire 
recv from player 8888: call 

send inquire msg to player 4444 
inquire/ 
8888 70750 2000 50 call 
4444 950 200 50 blind 
total pot: 100 
/inquire 
recv from player 4444: fold 


---flop round bet---
valid player: 2, all in player: 0, fold player: 1

---turn round bet---
valid player: 2, all in player: 0, fold player: 1

---river round bet---
valid player: 2, all in player: 0, fold player: 1

----- notify msg last round -----
send notify msg to player 8888 
notify/ 
4444 950 200 50 fold 
8888 70750 2000 50 call 
total pot: 100 
/notify 
send notify msg to player 4444 
notify/ 
8888 70750 2000 50 call 
4444 950 200 50 fold 
total pot: 100 
/notify 

--- 1 players not fold, don't need show down---

---Allocate pot---
Only player at seat 7 not fold, win all the pot 100
pot-win/ 
8888: 100 
/pot-win 
it is player 4444's turn to be button

-----284 Hand-----

----- clean player data in socket -----
seat/ 
button: 4444 950 200 
small blind: 8888 70850 2000 
/seat 
blind/ 
8888: 50 
/blind 
player 8888:hold/ 
HEARTS J 
HEARTS 4 
/hold 
player 4444:hold/ 
HEARTS 2 
DIAMONDS J 
/hold 

---pre flop round bet---
valid player: 2, all in player: 0, fold player: 0
send inquire msg to player 4444 
inquire/ 
8888 70800 2000 50 blind 
total pot: 50 
/inquire 
recv from player 4444: fold 

send inquire msg to player 8888 
inquire/ 
4444 950 200 0 fold 
8888 70800 2000 50 blind 
total pot: 50 
/inquire 
recv from player 8888: fold 


---flop round bet---
valid player: 2, all in player: 0, fold player: 2

---turn round bet---
valid player: 2, all in player: 0, fold player: 2

---river round bet---
valid player: 2, all in player: 0, fold player: 2

----- notify msg last round -----
send notify msg to player 4444 
notify/ 
8888 70800 2000 50 fold 
4444 950 200 0 fold 
total pot: 50 
/notify 
send notify msg to player 8888 
notify/ 
4444 950 200 0 fold 
8888 70800 2000 50 fold 
total pot: 50 
/notify 

--- 0 players not fold, don't need show down---

---Allocate pot---
pot-win/ 
/pot-win 
it is player 8888's turn to be button

-----285 Hand-----

----- clean player data in socket -----
seat/ 
button: 8888 70800 2000 
small blind: 4444 950 200 
/seat 
blind/ 
4444: 50 
/blind 
player 4444:hold/ 
DIAMONDS 3 
HEARTS 7 
/hold 
player 8888:hold/ 
CLUBS Q 
CLUBS K 
/hold 

---pre flop round bet---
valid player: 2, all in player: 0, fold player: 0
send inquire msg to player 8888 
inquire/ 
4444 900 200 50 blind 
total pot: 50 
/inquire 
recv from player 8888: raise 200 

send inquire msg to player 4444 
inquire/ 
8888 70550 2000 250 raise 
4444 900 200 50 blind 
total pot: 300 
/inquire 
recv from player 4444: fold 


---flop round bet---
valid player: 2, all in player: 0, fold player: 1

---turn round bet---
valid player: 2, all in player: 0, fold player: 1

---river round bet---
valid player: 2, all in player: 0, fold player: 1

----- notify msg last round -----
send notify msg to player 8888 
notify/ 
4444 900 200 50 fold 
8888 70550 2000 250 raise 
total pot: 300 
/notify 
send notify msg to player 4444 
notify/ 
8888 70550 2000 250 raise 
4444 900 200 50 fold 
total pot: 300 
/notify 

--- 1 players not fold, don't need show down---

---Allocate pot---
Only player at seat 7 not fold, win all the pot 300
pot-win/ 
8888: 300 
/pot-win 
it is player 4444's turn to be button

-----286 Hand-----

----- clean player data in socket -----
seat/ 
button: 4444 900 200 
small blind: 8888 70850 2000 
/seat 
blind/ 
8888: 50 
/blind 
player 8888:hold/ 
SPADES K 
CLUBS 8 
/hold 
player 4444:hold/ 
SPADES J 
SPADES 4 
/hold 

---pre flop round bet---
valid player: 2, all in player: 0, fold player: 0
send inquire msg to player 4444 
inquire/ 
8888 70800 2000 50 blind 
total pot: 50 
/inquire 
recv from player 4444: fold 

send inquire msg to player 8888 
inquire/ 
4444 900 200 0 fold 
8888 70800 2000 50 blind 
total pot: 50 
/inquire 
recv from player 8888: call 


---flop round bet---
valid player: 2, all in player: 0, fold player: 1

---turn round bet---
valid player: 2, all in player: 0, fold player: 1

---river round bet---
valid player: 2, all in player: 0, fold player: 1

----- notify msg last round -----
send notify msg to player 4444 
notify/ 
8888 70800 2000 50 check 
4444 900 200 0 fold 
total pot: 50 
/notify 
send notify msg to player 8888 
notify/ 
4444 900 200 0 fold 
8888 70800 2000 50 check 
total pot: 50 
/notify 

--- 1 players not fold, don't need show down---

---Allocate pot---
Only player at seat 0 not fold, win all the pot 50
pot-win/ 
8888: 50 
/pot-win 
it is player 8888's turn to be button

-----287 Hand-----

----- clean player data in socket -----
seat/ 
button: 8888 70850 2000 
small blind: 4444 900 200 
/seat 
blind/ 
4444: 50 
/blind 
player 4444:hold/ 
SPADES Q 
DIAMONDS 7 
/hold 
player 8888:hold/ 
SPADES 6 
HEARTS A 
/hold 

---pre flop round bet---
valid player: 2, all in player: 0, fold player: 0
send inquire msg to player 8888 
inquire/ 
4444 850 200 50 blind 
total pot: 50 
/inquire 
recv from player 8888: call 

send inquire msg to player 4444 
inquire/ 
8888 70800 2000 50 call 
4444 850 200 50 blind 
total pot: 100 
/inquire 
recv from player 4444: fold 


---flop round bet---
valid player: 2, all in player: 0, fold player: 1

---turn round bet---
valid player: 2, all in player: 0, fold player: 1

---river round bet---
valid player: 2, all in player: 0, fold player: 1

----- notify msg last round -----
send notify msg to player 8888 
notify/ 
4444 850 200 50 fold 
8888 70800 2000 50 call 
total pot: 100 
/notify 
send notify msg to player 4444 
notify/ 
8888 70800 2000 50 call 
4444 850 200 50 fold 
total pot: 100 
/notify 

--- 1 players not fold, don't need show down---

---Allocate pot---
Only player at seat 7 not fold, win all the pot 100
pot-win/ 
8888: 100 
/pot-win 
it is player 4444's turn to be button

-----288 Hand-----

----- clean player data in socket -----
seat/ 
button: 4444 850 200 
small blind: 8888 70900 2000 
/seat 
blind/ 
8888: 50 
/blind 
player 8888:hold/ 
DIAMONDS 9 
DIAMONDS Q 
/hold 
player 4444:hold/ 
SPADES K 
DIAMONDS 6 
/hold 

---pre flop round bet---
valid player: 2, all in player: 0, fold player: 0
send inquire msg to player 4444 
inquire/ 
8888 70850 2000 50 blind 
total pot: 50 
/inquire 
recv from player 4444: fold 

send inquire msg to player 8888 
inquire/ 
4444 850 200 0 fold 
8888 70850 2000 50 blind 
total pot: 50 
/inquire 
recv from player 8888: call 


---flop round bet---
valid player: 2, all in player: 0, fold player: 1

---turn round bet---
valid player: 2, all in player: 0, fold player: 1

---river round bet---
valid player: 2, all in player: 0, fold player: 1

----- notify msg last round -----
send notify msg to player 4444 
notify/ 
8888 70850 2000 50 check 
4444 850 200 0 fold 
total pot: 50 
/notify 
send notify msg to player 8888 
notify/ 
4444 850 200 0 fold 
8888 70850 2000 50 check 
total pot: 50 
/notify 

--- 1 players not fold, don't need show down---

---Allocate pot---
Only player at seat 0 not fold, win all the pot 50
pot-win/ 
8888: 50 
/pot-win 
it is player 8888's turn to be button

-----289 Hand-----

----- clean player data in socket -----
seat/ 
button: 8888 70900 2000 
small blind: 4444 850 200 
/seat 
blind/ 
4444: 50 
/blind 
player 4444:hold/ 
DIAMONDS Q 
CLUBS 3 
/hold 
player 8888:hold/ 
CLUBS 9 
HEARTS 6 
/hold 

---pre flop round bet---
valid player: 2, all in player: 0, fold player: 0
send inquire msg to player 8888 
inquire/ 
4444 800 200 50 blind 
total pot: 50 
/inquire 
recv from player 8888: fold 

send inquire msg to player 4444 
inquire/ 
8888 70900 2000 0 fold 
4444 800 200 50 blind 
total pot: 50 
/inquire 
recv from player 4444: fold 


---flop round bet---
valid player: 2, all in player: 0, fold player: 2

---turn round bet---
valid player: 2, all in player: 0, fold player: 2

---river round bet---
valid player: 2, all in player: 0, fold player: 2

----- notify msg last round -----
send notify msg to player 8888 
notify/ 
4444 800 200 50 fold 
8888 70900 2000 0 fold 
total pot: 50 
/notify 
send notify msg to player 4444 
notify/ 
8888 70900 2000 0 fold 
4444 800 200 50 fold 
total pot: 50 
/notify 

--- 0 players not fold, don't need show down---

---Allocate pot---
pot-win/ 
/pot-win 
it is player 4444's turn to be button

-----290 Hand-----

----- clean player data in socket -----
seat/ 
button: 4444 800 200 
small blind: 8888 70900 2000 
/seat 
blind/ 
8888: 50 
/blind 
player 8888:hold/ 
DIAMONDS 10 
CLUBS 4 
/hold 
player 4444:hold/ 
HEARTS K 
HEARTS 8 
/hold 

---pre flop round bet---
valid player: 2, all in player: 0, fold player: 0
send inquire msg to player 4444 
inquire/ 
8888 70850 2000 50 blind 
total pot: 50 
/inquire 
recv from player 4444: fold 

send inquire msg to player 8888 
inquire/ 
4444 800 200 0 fold 
8888 70850 2000 50 blind 
total pot: 50 
/inquire 
recv from player 8888: fold 


---flop round bet---
valid player: 2, all in player: 0, fold player: 2

---turn round bet---
valid player: 2, all in player: 0, fold player: 2

---river round bet---
valid player: 2, all in player: 0, fold player: 2

----- notify msg last round -----
send notify msg to player 4444 
notify/ 
8888 70850 2000 50 fold 
4444 800 200 0 fold 
total pot: 50 
/notify 
send notify msg to player 8888 
notify/ 
4444 800 200 0 fold 
8888 70850 2000 50 fold 
total pot: 50 
/notify 

--- 0 players not fold, don't need show down---

---Allocate pot---
pot-win/ 
/pot-win 
it is player 8888's turn to be button

-----291 Hand-----

----- clean player data in socket -----
seat/ 
button: 8888 70850 2000 
small blind: 4444 800 200 
/seat 
blind/ 
4444: 50 
/blind 
player 4444:hold/ 
DIAMONDS 2 
HEARTS 3 
/hold 
player 8888:hold/ 
SPADES 4 
CLUBS 4 
/hold 

---pre flop round bet---
valid player: 2, all in player: 0, fold player: 0
send inquire msg to player 8888 
inquire/ 
4444 750 200 50 blind 
total pot: 50 
/inquire 
recv from player 8888: call 

send inquire msg to player 4444 
inquire/ 
8888 70800 2000 50 call 
4444 750 200 50 blind 
total pot: 100 
/inquire 
recv from player 4444: fold 


---flop round bet---
valid player: 2, all in player: 0, fold player: 1

---turn round bet---
valid player: 2, all in player: 0, fold player: 1

---river round bet---
valid player: 2, all in player: 0, fold player: 1

----- notify msg last round -----
send notify msg to player 8888 
notify/ 
4444 750 200 50 fold 
8888 70800 2000 50 call 
total pot: 100 
/notify 
send notify msg to player 4444 
notify/ 
8888 70800 2000 50 call 
4444 750 200 50 fold 
total pot: 100 
/notify 

--- 1 players not fold, don't need show down---

---Allocate pot---
Only player at seat 7 not fold, win all the pot 100
pot-win/ 
8888: 100 
/pot-win 
it is player 4444's turn to be button

-----292 Hand-----

----- clean player data in socket -----
seat/ 
button: 4444 750 200 
small blind: 8888 70900 2000 
/seat 
blind/ 
8888: 50 
/blind 
player 8888:hold/ 
CLUBS Q 
HEARTS Q 
/hold 
player 4444:hold/ 
SPADES 7 
CLUBS 10 
/hold 

---pre flop round bet---
valid player: 2, all in player: 0, fold player: 0
send inquire msg to player 4444 
inquire/ 
8888 70850 2000 50 blind 
total pot: 50 
/inquire 
recv from player 4444: fold 

send inquire msg to player 8888 
inquire/ 
4444 750 200 0 fold 
8888 70850 2000 50 blind 
total pot: 50 
/inquire 
recv from player 8888: raise 200 


---flop round bet---
valid player: 2, all in player: 0, fold player: 1

---turn round bet---
valid player: 2, all in player: 0, fold player: 1

---river round bet---
valid player: 2, all in player: 0, fold player: 1

----- notify msg last round -----
send notify msg to player 4444 
notify/ 
8888 70650 2000 250 raise 
4444 750 200 0 fold 
total pot: 250 
/notify 
send notify msg to player 8888 
notify/ 
4444 750 200 0 fold 
8888 70650 2000 250 raise 
total pot: 250 
/notify 

--- 1 players not fold, don't need show down---

---Allocate pot---
Only player at seat 0 not fold, win all the pot 250
pot-win/ 
8888: 250 
/pot-win 
it is player 8888's turn to be button

-----293 Hand-----

----- clean player data in socket -----
seat/ 
button: 8888 70900 2000 
small blind: 4444 750 200 
/seat 
blind/ 
4444: 50 
/blind 
player 4444:hold/ 
SPADES K 
CLUBS 9 
/hold 
player 8888:hold/ 
DIAMONDS 8 
SPADES 2 
/hold 

---pre flop round bet---
valid player: 2, all in player: 0, fold player: 0
send inquire msg to player 8888 
inquire/ 
4444 700 200 50 blind 
total pot: 50 
/inquire 
recv from player 8888: fold 

send inquire msg to player 4444 
inquire/ 
8888 70900 2000 0 fold 
4444 700 200 50 blind 
total pot: 50 
/inquire 
recv from player 4444: fold 


---flop round bet---
valid player: 2, all in player: 0, fold player: 2

---turn round bet---
valid player: 2, all in player: 0, fold player: 2

---river round bet---
valid player: 2, all in player: 0, fold player: 2

----- notify msg last round -----
send notify msg to player 8888 
notify/ 
4444 700 200 50 fold 
8888 70900 2000 0 fold 
total pot: 50 
/notify 
send notify msg to player 4444 
notify/ 
8888 70900 2000 0 fold 
4444 700 200 50 fold 
total pot: 50 
/notify 

--- 0 players not fold, don't need show down---

---Allocate pot---
pot-win/ 
/pot-win 
it is player 4444's turn to be button

-----294 Hand-----

----- clean player data in socket -----
seat/ 
button: 4444 700 200 
small blind: 8888 70900 2000 
/seat 
blind/ 
8888: 50 
/blind 
player 8888:hold/ 
DIAMONDS 8 
HEARTS 9 
/hold 
player 4444:hold/ 
SPADES Q 
SPADES 4 
/hold 

---pre flop round bet---
valid player: 2, all in player: 0, fold player: 0
send inquire msg to player 4444 
inquire/ 
8888 70850 2000 50 blind 
total pot: 50 
/inquire 
recv from player 4444: fold 

send inquire msg to player 8888 
inquire/ 
4444 700 200 0 fold 
8888 70850 2000 50 blind 
total pot: 50 
/inquire 
recv from player 8888: fold 


---flop round bet---
valid player: 2, all in player: 0, fold player: 2

---turn round bet---
valid player: 2, all in player: 0, fold player: 2

---river round bet---
valid player: 2, all in player: 0, fold player: 2

----- notify msg last round -----
send notify msg to player 4444 
notify/ 
8888 70850 2000 50 fold 
4444 700 200 0 fold 
total pot: 50 
/notify 
send notify msg to player 8888 
notify/ 
4444 700 200 0 fold 
8888 70850 2000 50 fold 
total pot: 50 
/notify 

--- 0 players not fold, don't need show down---

---Allocate pot---
pot-win/ 
/pot-win 
it is player 8888's turn to be button

-----295 Hand-----

----- clean player data in socket -----
seat/ 
button: 8888 70850 2000 
small blind: 4444 700 200 
/seat 
blind/ 
4444: 50 
/blind 
player 4444:hold/ 
CLUBS 5 
CLUBS 8 
/hold 
player 8888:hold/ 
HEARTS K 
CLUBS A 
/hold 

---pre flop round bet---
valid player: 2, all in player: 0, fold player: 0
send inquire msg to player 8888 
inquire/ 
4444 650 200 50 blind 
total pot: 50 
/inquire 
recv from player 8888: raise 200 

send inquire msg to player 4444 
inquire/ 
8888 70600 2000 250 raise 
4444 650 200 50 blind 
total pot: 300 
/inquire 
recv from player 4444: fold 


---flop round bet---
valid player: 2, all in player: 0, fold player: 1

---turn round bet---
valid player: 2, all in player: 0, fold player: 1

---river round bet---
valid player: 2, all in player: 0, fold player: 1

----- notify msg last round -----
send notify msg to player 8888 
notify/ 
4444 650 200 50 fold 
8888 70600 2000 250 raise 
total pot: 300 
/notify 
send notify msg to player 4444 
notify/ 
8888 70600 2000 250 raise 
4444 650 200 50 fold 
total pot: 300 
/notify 

--- 1 players not fold, don't need show down---

---Allocate pot---
Only player at seat 7 not fold, win all the pot 300
pot-win/ 
8888: 300 
/pot-win 
it is player 4444's turn to be button

-----296 Hand-----

----- clean player data in socket -----
seat/ 
button: 4444 650 200 
small blind: 8888 70900 2000 
/seat 
blind/ 
8888: 50 
/blind 
player 8888:hold/ 
SPADES 9 
DIAMONDS 7 
/hold 
player 4444:hold/ 
CLUBS K 
CLUBS 9 
/hold 

---pre flop round bet---
valid player: 2, all in player: 0, fold player: 0
send inquire msg to player 4444 
inquire/ 
8888 70850 2000 50 blind 
total pot: 50 
/inquire 
recv from player 4444: fold 

send inquire msg to player 8888 
inquire/ 
4444 650 200 0 fold 
8888 70850 2000 50 blind 
total pot: 50 
/inquire 
recv from player 8888: fold 


---flop round bet---
valid player: 2, all in player: 0, fold player: 2

---turn round bet---
valid player: 2, all in player: 0, fold player: 2

---river round bet---
valid player: 2, all in player: 0, fold player: 2

----- notify msg last round -----
send notify msg to player 4444 
notify/ 
8888 70850 2000 50 fold 
4444 650 200 0 fold 
total pot: 50 
/notify 
send notify msg to player 8888 
notify/ 
4444 650 200 0 fold 
8888 70850 2000 50 fold 
total pot: 50 
/notify 

--- 0 players not fold, don't need show down---

---Allocate pot---
pot-win/ 
/pot-win 
it is player 8888's turn to be button

-----297 Hand-----

----- clean player data in socket -----
seat/ 
button: 8888 70850 2000 
small blind: 4444 650 200 
/seat 
blind/ 
4444: 50 
/blind 
player 4444:hold/ 
DIAMONDS Q 
CLUBS 6 
/hold 
player 8888:hold/ 
CLUBS 2 
DIAMONDS 5 
/hold 

---pre flop round bet---
valid player: 2, all in player: 0, fold player: 0
send inquire msg to player 8888 
inquire/ 
4444 600 200 50 blind 
total pot: 50 
/inquire 
recv from player 8888: fold 

send inquire msg to player 4444 
inquire/ 
8888 70850 2000 0 fold 
4444 600 200 50 blind 
total pot: 50 
/inquire 
recv from player 4444: fold 


---flop round bet---
valid player: 2, all in player: 0, fold player: 2

---turn round bet---
valid player: 2, all in player: 0, fold player: 2

---river round bet---
valid player: 2, all in player: 0, fold player: 2

----- notify msg last round -----
send notify msg to player 8888 
notify/ 
4444 600 200 50 fold 
8888 70850 2000 0 fold 
total pot: 50 
/notify 
send notify msg to player 4444 
notify/ 
8888 70850 2000 0 fold 
4444 600 200 50 fold 
total pot: 50 
/notify 

--- 0 players not fold, don't need show down---

---Allocate pot---
pot-win/ 
/pot-win 
it is player 4444's turn to be button

-----298 Hand-----

----- clean player data in socket -----
seat/ 
button: 4444 600 200 
small blind: 8888 70850 2000 
/seat 
blind/ 
8888: 50 
/blind 
player 8888:hold/ 
DIAMONDS 10 
CLUBS 4 
/hold 
player 4444:hold/ 
HEARTS 3 
DIAMONDS Q 
/hold 

---pre flop round bet---
valid player: 2, all in player: 0, fold player: 0
send inquire msg to player 4444 
inquire/ 
8888 70800 2000 50 blind 
total pot: 50 
/inquire 
recv from player 4444: fold 

send inquire msg to player 8888 
inquire/ 
4444 600 200 0 fold 
8888 70800 2000 50 blind 
total pot: 50 
/inquire 
recv from player 8888: fold 


---flop round bet---
valid player: 2, all in player: 0, fold player: 2

---turn round bet---
valid player: 2, all in player: 0, fold player: 2

---river round bet---
valid player: 2, all in player: 0, fold player: 2

----- notify msg last round -----
send notify msg to player 4444 
notify/ 
8888 70800 2000 50 fold 
4444 600 200 0 fold 
total pot: 50 
/notify 
send notify msg to player 8888 
notify/ 
4444 600 200 0 fold 
8888 70800 2000 50 fold 
total pot: 50 
/notify 

--- 0 players not fold, don't need show down---

---Allocate pot---
pot-win/ 
/pot-win 
it is player 8888's turn to be button

-----299 Hand-----

----- clean player data in socket -----
seat/ 
button: 8888 70800 2000 
small blind: 4444 600 200 
/seat 
blind/ 
4444: 50 
/blind 
player 4444:hold/ 
SPADES 5 
CLUBS 3 
/hold 
player 8888:hold/ 
CLUBS 9 
HEARTS 5 
/hold 

---pre flop round bet---
valid player: 2, all in player: 0, fold player: 0
send inquire msg to player 8888 
inquire/ 
4444 550 200 50 blind 
total pot: 50 
/inquire 
recv from player 8888: fold 

send inquire msg to player 4444 
inquire/ 
8888 70800 2000 0 fold 
4444 550 200 50 blind 
total pot: 50 
/inquire 
recv from player 4444: fold 


---flop round bet---
valid player: 2, all in player: 0, fold player: 2

---turn round bet---
valid player: 2, all in player: 0, fold player: 2

---river round bet---
valid player: 2, all in player: 0, fold player: 2

----- notify msg last round -----
send notify msg to player 8888 
notify/ 
4444 550 200 50 fold 
8888 70800 2000 0 fold 
total pot: 50 
/notify 
send notify msg to player 4444 
notify/ 
8888 70800 2000 0 fold 
4444 550 200 50 fold 
total pot: 50 
/notify 

--- 0 players not fold, don't need show down---

---Allocate pot---
pot-win/ 
/pot-win 
it is player 4444's turn to be button

-----300 Hand-----

----- clean player data in socket -----
seat/ 
button: 4444 550 200 
small blind: 8888 70800 2000 
/seat 
blind/ 
8888: 50 
/blind 
player 8888:hold/ 
DIAMONDS K 
SPADES 4 
/hold 
player 4444:hold/ 
DIAMONDS 9 
SPADES 5 
/hold 

---pre flop round bet---
valid player: 2, all in player: 0, fold player: 0
send inquire msg to player 4444 
inquire/ 
8888 70750 2000 50 blind 
total pot: 50 
/inquire 
recv from player 4444: fold 

send inquire msg to player 8888 
inquire/ 
4444 550 200 0 fold 
8888 70750 2000 50 blind 
total pot: 50 
/inquire 
recv from player 8888: fold 


---flop round bet---
valid player: 2, all in player: 0, fold player: 2

---turn round bet---
valid player: 2, all in player: 0, fold player: 2

---river round bet---
valid player: 2, all in player: 0, fold player: 2

----- notify msg last round -----
send notify msg to player 4444 
notify/ 
8888 70750 2000 50 fold 
4444 550 200 0 fold 
total pot: 50 
/notify 
send notify msg to player 8888 
notify/ 
4444 550 200 0 fold 
8888 70750 2000 50 fold 
total pot: 50 
/notify 

--- 0 players not fold, don't need show down---

---Allocate pot---
pot-win/ 
/pot-win 
it is player 8888's turn to be button

-----301 Hand-----

----- clean player data in socket -----
seat/ 
button: 8888 70750 2000 
small blind: 4444 550 200 
/seat 
blind/ 
4444: 50 
/blind 
player 4444:hold/ 
SPADES 9 
CLUBS 7 
/hold 
player 8888:hold/ 
CLUBS 4 
SPADES 7 
/hold 

---pre flop round bet---
valid player: 2, all in player: 0, fold player: 0
send inquire msg to player 8888 
inquire/ 
4444 500 200 50 blind 
total pot: 50 
/inquire 
recv from player 8888: fold 

send inquire msg to player 4444 
inquire/ 
8888 70750 2000 0 fold 
4444 500 200 50 blind 
total pot: 50 
/inquire 
recv from player 4444: fold 


---flop round bet---
valid player: 2, all in player: 0, fold player: 2

---turn round bet---
valid player: 2, all in player: 0, fold player: 2

---river round bet---
valid player: 2, all in player: 0, fold player: 2

----- notify msg last round -----
send notify msg to player 8888 
notify/ 
4444 500 200 50 fold 
8888 70750 2000 0 fold 
total pot: 50 
/notify 
send notify msg to player 4444 
notify/ 
8888 70750 2000 0 fold 
4444 500 200 50 fold 
total pot: 50 
/notify 

--- 0 players not fold, don't need show down---

---Allocate pot---
pot-win/ 
/pot-win 
it is player 4444's turn to be button

-----302 Hand-----

----- clean player data in socket -----
seat/ 
button: 4444 500 200 
small blind: 8888 70750 2000 
/seat 
blind/ 
8888: 50 
/blind 
player 8888:hold/ 
HEARTS Q 
SPADES Q 
/hold 
player 4444:hold/ 
DIAMONDS Q 
HEARTS 9 
/hold 

---pre flop round bet---
valid player: 2, all in player: 0, fold player: 0
send inquire msg to player 4444 
inquire/ 
8888 70700 2000 50 blind 
total pot: 50 
/inquire 
recv from player 4444: fold 

send inquire msg to player 8888 
inquire/ 
4444 500 200 0 fold 
8888 70700 2000 50 blind 
total pot: 50 
/inquire 
recv from player 8888: raise 200 


---flop round bet---
valid player: 2, all in player: 0, fold player: 1

---turn round bet---
valid player: 2, all in player: 0, fold player: 1

---river round bet---
valid player: 2, all in player: 0, fold player: 1

----- notify msg last round -----
send notify msg to player 4444 
notify/ 
8888 70500 2000 250 raise 
4444 500 200 0 fold 
total pot: 250 
/notify 
send notify msg to player 8888 
notify/ 
4444 500 200 0 fold 
8888 70500 2000 250 raise 
total pot: 250 
/notify 

--- 1 players not fold, don't need show down---

---Allocate pot---
Only player at seat 0 not fold, win all the pot 250
pot-win/ 
8888: 250 
/pot-win 
it is player 8888's turn to be button

-----303 Hand-----

----- clean player data in socket -----
seat/ 
button: 8888 70750 2000 
small blind: 4444 500 200 
/seat 
blind/ 
4444: 50 
/blind 
player 4444:hold/ 
HEARTS Q 
DIAMONDS J 
/hold 
player 8888:hold/ 
SPADES 3 
SPADES Q 
/hold 

---pre flop round bet---
valid player: 2, all in player: 0, fold player: 0
send inquire msg to player 8888 
inquire/ 
4444 450 200 50 blind 
total pot: 50 
/inquire 
recv from player 8888: fold 

send inquire msg to player 4444 
inquire/ 
8888 70750 2000 0 fold 
4444 450 200 50 blind 
total pot: 50 
/inquire 
recv from player 4444: fold 


---flop round bet---
valid player: 2, all in player: 0, fold player: 2

---turn round bet---
valid player: 2, all in player: 0, fold player: 2

---river round bet---
valid player: 2, all in player: 0, fold player: 2

----- notify msg last round -----
send notify msg to player 8888 
notify/ 
4444 450 200 50 fold 
8888 70750 2000 0 fold 
total pot: 50 
/notify 
send notify msg to player 4444 
notify/ 
8888 70750 2000 0 fold 
4444 450 200 50 fold 
total pot: 50 
/notify 

--- 0 players not fold, don't need show down---

---Allocate pot---
pot-win/ 
/pot-win 
it is player 4444's turn to be button

-----304 Hand-----

----- clean player data in socket -----
seat/ 
button: 4444 450 200 
small blind: 8888 70750 2000 
/seat 
blind/ 
8888: 50 
/blind 
player 8888:hold/ 
DIAMONDS K 
DIAMONDS A 
/hold 
player 4444:hold/ 
SPADES A 
HEARTS J 
/hold 

---pre flop round bet---
valid player: 2, all in player: 0, fold player: 0
send inquire msg to player 4444 
inquire/ 
8888 70700 2000 50 blind 
total pot: 50 
/inquire 
recv from player 4444: fold 

send inquire msg to player 8888 
inquire/ 
4444 450 200 0 fold 
8888 70700 2000 50 blind 
total pot: 50 
/inquire 
recv from player 8888: raise 200 


---flop round bet---
valid player: 2, all in player: 0, fold player: 1

---turn round bet---
valid player: 2, all in player: 0, fold player: 1

---river round bet---
valid player: 2, all in player: 0, fold player: 1

----- notify msg last round -----
send notify msg to player 4444 
notify/ 
8888 70500 2000 250 raise 
4444 450 200 0 fold 
total pot: 250 
/notify 
send notify msg to player 8888 
notify/ 
4444 450 200 0 fold 
8888 70500 2000 250 raise 
total pot: 250 
/notify 

--- 1 players not fold, don't need show down---

---Allocate pot---
Only player at seat 0 not fold, win all the pot 250
pot-win/ 
8888: 250 
/pot-win 
it is player 8888's turn to be button

-----305 Hand-----

----- clean player data in socket -----
seat/ 
button: 8888 70750 2000 
small blind: 4444 450 200 
/seat 
blind/ 
4444: 50 
/blind 
player 4444:hold/ 
DIAMONDS K 
HEARTS 6 
/hold 
player 8888:hold/ 
SPADES K 
SPADES 9 
/hold 

---pre flop round bet---
valid player: 2, all in player: 0, fold player: 0
send inquire msg to player 8888 
inquire/ 
4444 400 200 50 blind 
total pot: 50 
/inquire 
recv from player 8888: call 

send inquire msg to player 4444 
inquire/ 
8888 70700 2000 50 call 
4444 400 200 50 blind 
total pot: 100 
/inquire 
recv from player 4444: fold 


---flop round bet---
valid player: 2, all in player: 0, fold player: 1

---turn round bet---
valid player: 2, all in player: 0, fold player: 1

---river round bet---
valid player: 2, all in player: 0, fold player: 1

----- notify msg last round -----
send notify msg to player 8888 
notify/ 
4444 400 200 50 fold 
8888 70700 2000 50 call 
total pot: 100 
/notify 
send notify msg to player 4444 
notify/ 
8888 70700 2000 50 call 
4444 400 200 50 fold 
total pot: 100 
/notify 

--- 1 players not fold, don't need show down---

---Allocate pot---
Only player at seat 7 not fold, win all the pot 100
pot-win/ 
8888: 100 
/pot-win 
it is player 4444's turn to be button

-----306 Hand-----

----- clean player data in socket -----
seat/ 
button: 4444 400 200 
small blind: 8888 70800 2000 
/seat 
blind/ 
8888: 50 
/blind 
player 8888:hold/ 
HEARTS 2 
HEARTS 9 
/hold 
player 4444:hold/ 
DIAMONDS 9 
CLUBS 4 
/hold 

---pre flop round bet---
valid player: 2, all in player: 0, fold player: 0
send inquire msg to player 4444 
inquire/ 
8888 70750 2000 50 blind 
total pot: 50 
/inquire 
recv from player 4444: fold 

send inquire msg to player 8888 
inquire/ 
4444 400 200 0 fold 
8888 70750 2000 50 blind 
total pot: 50 
/inquire 
recv from player 8888: fold 


---flop round bet---
valid player: 2, all in player: 0, fold player: 2

---turn round bet---
valid player: 2, all in player: 0, fold player: 2

---river round bet---
valid player: 2, all in player: 0, fold player: 2

----- notify msg last round -----
send notify msg to player 4444 
notify/ 
8888 70750 2000 50 fold 
4444 400 200 0 fold 
total pot: 50 
/notify 
send notify msg to player 8888 
notify/ 
4444 400 200 0 fold 
8888 70750 2000 50 fold 
total pot: 50 
/notify 

--- 0 players not fold, don't need show down---

---Allocate pot---
pot-win/ 
/pot-win 
it is player 8888's turn to be button

-----307 Hand-----

----- clean player data in socket -----
seat/ 
button: 8888 70750 2000 
small blind: 4444 400 200 
/seat 
blind/ 
4444: 50 
/blind 
player 4444:hold/ 
SPADES 2 
CLUBS 2 
/hold 
player 8888:hold/ 
CLUBS K 
CLUBS 7 
/hold 

---pre flop round bet---
valid player: 2, all in player: 0, fold player: 0
send inquire msg to player 8888 
inquire/ 
4444 350 200 50 blind 
total pot: 50 
/inquire 
recv from player 8888: call 

send inquire msg to player 4444 
inquire/ 
8888 70700 2000 50 call 
4444 350 200 50 blind 
total pot: 100 
/inquire 
recv from player 4444: fold 


---flop round bet---
valid player: 2, all in player: 0, fold player: 1

---turn round bet---
valid player: 2, all in player: 0, fold player: 1

---river round bet---
valid player: 2, all in player: 0, fold player: 1

----- notify msg last round -----
send notify msg to player 8888 
notify/ 
4444 350 200 50 fold 
8888 70700 2000 50 call 
total pot: 100 
/notify 
send notify msg to player 4444 
notify/ 
8888 70700 2000 50 call 
4444 350 200 50 fold 
total pot: 100 
/notify 

--- 1 players not fold, don't need show down---

---Allocate pot---
Only player at seat 7 not fold, win all the pot 100
pot-win/ 
8888: 100 
/pot-win 
it is player 4444's turn to be button

-----308 Hand-----

----- clean player data in socket -----
seat/ 
button: 4444 350 200 
small blind: 8888 70800 2000 
/seat 
blind/ 
8888: 50 
/blind 
player 8888:hold/ 
SPADES K 
CLUBS 4 
/hold 
player 4444:hold/ 
CLUBS 3 
HEARTS Q 
/hold 

---pre flop round bet---
valid player: 2, all in player: 0, fold player: 0
send inquire msg to player 4444 
inquire/ 
8888 70750 2000 50 blind 
total pot: 50 
/inquire 
recv from player 4444: fold 

send inquire msg to player 8888 
inquire/ 
4444 350 200 0 fold 
8888 70750 2000 50 blind 
total pot: 50 
/inquire 
recv from player 8888: fold 


---flop round bet---
valid player: 2, all in player: 0, fold player: 2

---turn round bet---
valid player: 2, all in player: 0, fold player: 2

---river round bet---
valid player: 2, all in player: 0, fold player: 2

----- notify msg last round -----
send notify msg to player 4444 
notify/ 
8888 70750 2000 50 fold 
4444 350 200 0 fold 
total pot: 50 
/notify 
send notify msg to player 8888 
notify/ 
4444 350 200 0 fold 
8888 70750 2000 50 fold 
total pot: 50 
/notify 

--- 0 players not fold, don't need show down---

---Allocate pot---
pot-win/ 
/pot-win 
it is player 8888's turn to be button

-----309 Hand-----

----- clean player data in socket -----
seat/ 
button: 8888 70750 2000 
small blind: 4444 350 200 
/seat 
blind/ 
4444: 50 
/blind 
player 4444:hold/ 
SPADES 5 
CLUBS 5 
/hold 
player 8888:hold/ 
DIAMONDS 7 
HEARTS K 
/hold 

---pre flop round bet---
valid player: 2, all in player: 0, fold player: 0
send inquire msg to player 8888 
inquire/ 
4444 300 200 50 blind 
total pot: 50 
/inquire 
recv from player 8888: call 

send inquire msg to player 4444 
inquire/ 
8888 70700 2000 50 call 
4444 300 200 50 blind 
total pot: 100 
/inquire 
recv from player 4444: fold 


---flop round bet---
valid player: 2, all in player: 0, fold player: 1

---turn round bet---
valid player: 2, all in player: 0, fold player: 1

---river round bet---
valid player: 2, all in player: 0, fold player: 1

----- notify msg last round -----
send notify msg to player 8888 
notify/ 
4444 300 200 50 fold 
8888 70700 2000 50 call 
total pot: 100 
/notify 
send notify msg to player 4444 
notify/ 
8888 70700 2000 50 call 
4444 300 200 50 fold 
total pot: 100 
/notify 

--- 1 players not fold, don't need show down---

---Allocate pot---
Only player at seat 7 not fold, win all the pot 100
pot-win/ 
8888: 100 
/pot-win 
it is player 4444's turn to be button

-----310 Hand-----

----- clean player data in socket -----
seat/ 
button: 4444 300 200 
small blind: 8888 70800 2000 
/seat 
blind/ 
8888: 50 
/blind 
player 8888:hold/ 
CLUBS Q 
HEARTS 5 
/hold 
player 4444:hold/ 
CLUBS K 
SPADES 6 
/hold 

---pre flop round bet---
valid player: 2, all in player: 0, fold player: 0
send inquire msg to player 4444 
inquire/ 
8888 70750 2000 50 blind 
total pot: 50 
/inquire 
recv from player 4444: fold 

send inquire msg to player 8888 
inquire/ 
4444 300 200 0 fold 
8888 70750 2000 50 blind 
total pot: 50 
/inquire 
recv from player 8888: fold 


---flop round bet---
valid player: 2, all in player: 0, fold player: 2

---turn round bet---
valid player: 2, all in player: 0, fold player: 2

---river round bet---
valid player: 2, all in player: 0, fold player: 2

----- notify msg last round -----
send notify msg to player 4444 
notify/ 
8888 70750 2000 50 fold 
4444 300 200 0 fold 
total pot: 50 
/notify 
send notify msg to player 8888 
notify/ 
4444 300 200 0 fold 
8888 70750 2000 50 fold 
total pot: 50 
/notify 

--- 0 players not fold, don't need show down---

---Allocate pot---
pot-win/ 
/pot-win 
it is player 8888's turn to be button

-----311 Hand-----

----- clean player data in socket -----
seat/ 
button: 8888 70750 2000 
small blind: 4444 300 200 
/seat 
blind/ 
4444: 50 
/blind 
player 4444:hold/ 
DIAMONDS J 
HEARTS J 
/hold 
player 8888:hold/ 
SPADES J 
DIAMONDS 9 
/hold 

---pre flop round bet---
valid player: 2, all in player: 0, fold player: 0
send inquire msg to player 8888 
inquire/ 
4444 250 200 50 blind 
total pot: 50 
/inquire 
recv from player 8888: call 

send inquire msg to player 4444 
inquire/ 
8888 70700 2000 50 call 
4444 250 200 50 blind 
total pot: 100 
/inquire 
recv from player 4444: fold 


---flop round bet---
valid player: 2, all in player: 0, fold player: 1

---turn round bet---
valid player: 2, all in player: 0, fold player: 1

---river round bet---
valid player: 2, all in player: 0, fold player: 1

----- notify msg last round -----
send notify msg to player 8888 
notify/ 
4444 250 200 50 fold 
8888 70700 2000 50 call 
total pot: 100 
/notify 
send notify msg to player 4444 
notify/ 
8888 70700 2000 50 call 
4444 250 200 50 fold 
total pot: 100 
/notify 

--- 1 players not fold, don't need show down---

---Allocate pot---
Only player at seat 7 not fold, win all the pot 100
pot-win/ 
8888: 100 
/pot-win 
it is player 4444's turn to be button

-----312 Hand-----

----- clean player data in socket -----
seat/ 
button: 4444 250 200 
small blind: 8888 70800 2000 
/seat 
blind/ 
8888: 50 
/blind 
player 8888:hold/ 
CLUBS 3 
SPADES 5 
/hold 
player 4444:hold/ 
SPADES 3 
CLUBS A 
/hold 

---pre flop round bet---
valid player: 2, all in player: 0, fold player: 0
send inquire msg to player 4444 
inquire/ 
8888 70750 2000 50 blind 
total pot: 50 
/inquire 
recv from player 4444: fold 

send inquire msg to player 8888 
inquire/ 
4444 250 200 0 fold 
8888 70750 2000 50 blind 
total pot: 50 
/inquire 
recv from player 8888: fold 


---flop round bet---
valid player: 2, all in player: 0, fold player: 2

---turn round bet---
valid player: 2, all in player: 0, fold player: 2

---river round bet---
valid player: 2, all in player: 0, fold player: 2

----- notify msg last round -----
send notify msg to player 4444 
notify/ 
8888 70750 2000 50 fold 
4444 250 200 0 fold 
total pot: 50 
/notify 
send notify msg to player 8888 
notify/ 
4444 250 200 0 fold 
8888 70750 2000 50 fold 
total pot: 50 
/notify 

--- 0 players not fold, don't need show down---

---Allocate pot---
pot-win/ 
/pot-win 
it is player 8888's turn to be button

-----313 Hand-----

----- clean player data in socket -----
seat/ 
button: 8888 70750 2000 
small blind: 4444 250 200 
/seat 
blind/ 
4444: 50 
/blind 
player 4444:hold/ 
HEARTS J 
DIAMONDS 6 
/hold 
player 8888:hold/ 
HEARTS A 
SPADES 9 
/hold 

---pre flop round bet---
valid player: 2, all in player: 0, fold player: 0
send inquire msg to player 8888 
inquire/ 
4444 200 200 50 blind 
total pot: 50 
/inquire 
recv from player 8888: call 

send inquire msg to player 4444 
inquire/ 
8888 70700 2000 50 call 
4444 200 200 50 blind 
total pot: 100 
/inquire 
recv from player 4444: fold 


---flop round bet---
valid player: 2, all in player: 0, fold player: 1

---turn round bet---
valid player: 2, all in player: 0, fold player: 1

---river round bet---
valid player: 2, all in player: 0, fold player: 1

----- notify msg last round -----
send notify msg to player 8888 
notify/ 
4444 200 200 50 fold 
8888 70700 2000 50 call 
total pot: 100 
/notify 
send notify msg to player 4444 
notify/ 
8888 70700 2000 50 call 
4444 200 200 50 fold 
total pot: 100 
/notify 

--- 1 players not fold, don't need show down---

---Allocate pot---
Only player at seat 7 not fold, win all the pot 100
pot-win/ 
8888: 100 
/pot-win 
it is player 4444's turn to be button

-----314 Hand-----

----- clean player data in socket -----
seat/ 
button: 4444 200 200 
small blind: 8888 70800 2000 
/seat 
blind/ 
8888: 50 
/blind 
player 8888:hold/ 
SPADES 6 
CLUBS 9 
/hold 
player 4444:hold/ 
SPADES A 
DIAMONDS 2 
/hold 

---pre flop round bet---
valid player: 2, all in player: 0, fold player: 0
send inquire msg to player 4444 
inquire/ 
8888 70750 2000 50 blind 
total pot: 50 
/inquire 
recv from player 4444: fold 

send inquire msg to player 8888 
inquire/ 
4444 200 200 0 fold 
8888 70750 2000 50 blind 
total pot: 50 
/inquire 
recv from player 8888: fold 


---flop round bet---
valid player: 2, all in player: 0, fold player: 2

---turn round bet---
valid player: 2, all in player: 0, fold player: 2

---river round bet---
valid player: 2, all in player: 0, fold player: 2

----- notify msg last round -----
send notify msg to player 4444 
notify/ 
8888 70750 2000 50 fold 
4444 200 200 0 fold 
total pot: 50 
/notify 
send notify msg to player 8888 
notify/ 
4444 200 200 0 fold 
8888 70750 2000 50 fold 
total pot: 50 
/notify 

--- 0 players not fold, don't need show down---

---Allocate pot---
pot-win/ 
/pot-win 
it is player 8888's turn to be button

-----315 Hand-----

----- clean player data in socket -----
seat/ 
button: 8888 70750 2000 
small blind: 4444 200 200 
/seat 
blind/ 
4444: 50 
/blind 
player 4444:hold/ 
CLUBS 5 
SPADES 9 
/hold 
player 8888:hold/ 
HEARTS 8 
HEARTS 3 
/hold 

---pre flop round bet---
valid player: 2, all in player: 0, fold player: 0
send inquire msg to player 8888 
inquire/ 
4444 150 200 50 blind 
total pot: 50 
/inquire 
recv from player 8888: fold 

send inquire msg to player 4444 
inquire/ 
8888 70750 2000 0 fold 
4444 150 200 50 blind 
total pot: 50 
/inquire 
recv from player 4444: fold 


---flop round bet---
valid player: 2, all in player: 0, fold player: 2

---turn round bet---
valid player: 2, all in player: 0, fold player: 2

---river round bet---
valid player: 2, all in player: 0, fold player: 2

----- notify msg last round -----
send notify msg to player 8888 
notify/ 
4444 150 200 50 fold 
8888 70750 2000 0 fold 
total pot: 50 
/notify 
send notify msg to player 4444 
notify/ 
8888 70750 2000 0 fold 
4444 150 200 50 fold 
total pot: 50 
/notify 

--- 0 players not fold, don't need show down---

---Allocate pot---
pot-win/ 
/pot-win 
it is player 4444's turn to be button

-----316 Hand-----

----- clean player data in socket -----
seat/ 
button: 4444 150 200 
small blind: 8888 70750 2000 
/seat 
blind/ 
8888: 50 
/blind 
player 8888:hold/ 
HEARTS 9 
SPADES 3 
/hold 
player 4444:hold/ 
SPADES 6 
HEARTS 7 
/hold 

---pre flop round bet---
valid player: 2, all in player: 0, fold player: 0
send inquire msg to player 4444 
inquire/ 
8888 70700 2000 50 blind 
total pot: 50 
/inquire 
recv from player 4444: fold 

send inquire msg to player 8888 
inquire/ 
4444 150 200 0 fold 
8888 70700 2000 50 blind 
total pot: 50 
/inquire 
recv from player 8888: fold 


---flop round bet---
valid player: 2, all in player: 0, fold player: 2

---turn round bet---
valid player: 2, all in player: 0, fold player: 2

---river round bet---
valid player: 2, all in player: 0, fold player: 2

----- notify msg last round -----
send notify msg to player 4444 
notify/ 
8888 70700 2000 50 fold 
4444 150 200 0 fold 
total pot: 50 
/notify 
send notify msg to player 8888 
notify/ 
4444 150 200 0 fold 
8888 70700 2000 50 fold 
total pot: 50 
/notify 

--- 0 players not fold, don't need show down---

---Allocate pot---
pot-win/ 
/pot-win 
it is player 8888's turn to be button

-----317 Hand-----

----- clean player data in socket -----
seat/ 
button: 8888 70700 2000 
small blind: 4444 150 200 
/seat 
blind/ 
4444: 50 
/blind 
player 4444:hold/ 
DIAMONDS 7 
HEARTS A 
/hold 
player 8888:hold/ 
CLUBS 2 
SPADES 9 
/hold 

---pre flop round bet---
valid player: 2, all in player: 0, fold player: 0
send inquire msg to player 8888 
inquire/ 
4444 100 200 50 blind 
total pot: 50 
/inquire 
recv from player 8888: fold 

send inquire msg to player 4444 
inquire/ 
8888 70700 2000 0 fold 
4444 100 200 50 blind 
total pot: 50 
/inquire 
recv from player 4444: fold 


---flop round bet---
valid player: 2, all in player: 0, fold player: 2

---turn round bet---
valid player: 2, all in player: 0, fold player: 2

---river round bet---
valid player: 2, all in player: 0, fold player: 2

----- notify msg last round -----
send notify msg to player 8888 
notify/ 
4444 100 200 50 fold 
8888 70700 2000 0 fold 
total pot: 50 
/notify 
send notify msg to player 4444 
notify/ 
8888 70700 2000 0 fold 
4444 100 200 50 fold 
total pot: 50 
/notify 

--- 0 players not fold, don't need show down---

---Allocate pot---
pot-win/ 
/pot-win 
it is player 4444's turn to be button

-----318 Hand-----

----- clean player data in socket -----
seat/ 
button: 4444 100 200 
small blind: 8888 70700 2000 
/seat 
blind/ 
8888: 50 
/blind 
player 8888:hold/ 
DIAMONDS 7 
CLUBS 10 
/hold 
player 4444:hold/ 
SPADES 6 
CLUBS 3 
/hold 

---pre flop round bet---
valid player: 2, all in player: 0, fold player: 0
send inquire msg to player 4444 
inquire/ 
8888 70650 2000 50 blind 
total pot: 50 
/inquire 
recv from player 4444: fold 

send inquire msg to player 8888 
inquire/ 
4444 100 200 0 fold 
8888 70650 2000 50 blind 
total pot: 50 
/inquire 
recv from player 8888: fold 


---flop round bet---
valid player: 2, all in player: 0, fold player: 2

---turn round bet---
valid player: 2, all in player: 0, fold player: 2

---river round bet---
valid player: 2, all in player: 0, fold player: 2

----- notify msg last round -----
send notify msg to player 4444 
notify/ 
8888 70650 2000 50 fold 
4444 100 200 0 fold 
total pot: 50 
/notify 
send notify msg to player 8888 
notify/ 
4444 100 200 0 fold 
8888 70650 2000 50 fold 
total pot: 50 
/notify 

--- 0 players not fold, don't need show down---

---Allocate pot---
pot-win/ 
/pot-win 
it is player 8888's turn to be button

-----319 Hand-----

----- clean player data in socket -----
seat/ 
button: 8888 70650 2000 
small blind: 4444 100 200 
/seat 
blind/ 
4444: 50 
/blind 
player 4444:hold/ 
HEARTS 4 
CLUBS 2 
/hold 
player 8888:hold/ 
CLUBS A 
HEARTS J 
/hold 

---pre flop round bet---
valid player: 2, all in player: 0, fold player: 0
send inquire msg to player 8888 
inquire/ 
4444 50 200 50 blind 
total pot: 50 
/inquire 
recv from player 8888: raise 200 

send inquire msg to player 4444 
inquire/ 
8888 70400 2000 250 raise 
4444 50 200 50 blind 
total pot: 300 
/inquire 
recv from player 4444: fold 


---flop round bet---
valid player: 2, all in player: 0, fold player: 1

---turn round bet---
valid player: 2, all in player: 0, fold player: 1

---river round bet---
valid player: 2, all in player: 0, fold player: 1

----- notify msg last round -----
send notify msg to player 8888 
notify/ 
4444 50 200 50 fold 
8888 70400 2000 250 raise 
total pot: 300 
/notify 
send notify msg to player 4444 
notify/ 
8888 70400 2000 250 raise 
4444 50 200 50 fold 
total pot: 300 
/notify 

--- 1 players not fold, don't need show down---

---Allocate pot---
Only player at seat 7 not fold, win all the pot 300
pot-win/ 
8888: 300 
/pot-win 
it is player 4444's turn to be button

-----320 Hand-----

----- clean player data in socket -----
seat/ 
button: 4444 250 0 
small blind: 8888 70700 2000 
/seat 
blind/ 
8888: 50 
/blind 
player 8888:hold/ 
CLUBS A 
SPADES 5 
/hold 
player 4444:hold/ 
CLUBS J 
SPADES 9 
/hold 

---pre flop round bet---
valid player: 2, all in player: 0, fold player: 0
send inquire msg to player 4444 
inquire/ 
8888 70650 2000 50 blind 
total pot: 50 
/inquire 
recv from player 4444: fold 

send inquire msg to player 8888 
inquire/ 
4444 250 0 0 fold 
8888 70650 2000 50 blind 
total pot: 50 
/inquire 
recv from player 8888: call 


---flop round bet---
valid player: 2, all in player: 0, fold player: 1

---turn round bet---
valid player: 2, all in player: 0, fold player: 1

---river round bet---
valid player: 2, all in player: 0, fold player: 1

----- notify msg last round -----
send notify msg to player 4444 
notify/ 
8888 70650 2000 50 check 
4444 250 0 0 fold 
total pot: 50 
/notify 
send notify msg to player 8888 
notify/ 
4444 250 0 0 fold 
8888 70650 2000 50 check 
total pot: 50 
/notify 

--- 1 players not fold, don't need show down---

---Allocate pot---
Only player at seat 0 not fold, win all the pot 50
pot-win/ 
8888: 50 
/pot-win 
it is player 8888's turn to be button

-----321 Hand-----

----- clean player data in socket -----
seat/ 
button: 8888 70700 2000 
small blind: 4444 250 0 
/seat 
blind/ 
4444: 50 
/blind 
player 4444:hold/ 
HEARTS 7 
DIAMONDS J 
/hold 
player 8888:hold/ 
DIAMONDS 3 
HEARTS A 
/hold 

---pre flop round bet---
valid player: 2, all in player: 0, fold player: 0
send inquire msg to player 8888 
inquire/ 
4444 200 0 50 blind 
total pot: 50 
/inquire 
recv from player 8888: fold 

send inquire msg to player 4444 
inquire/ 
8888 70700 2000 0 fold 
4444 200 0 50 blind 
total pot: 50 
/inquire 
recv from player 4444: fold 


---flop round bet---
valid player: 2, all in player: 0, fold player: 2

---turn round bet---
valid player: 2, all in player: 0, fold player: 2

---river round bet---
valid player: 2, all in player: 0, fold player: 2

----- notify msg last round -----
send notify msg to player 8888 
notify/ 
4444 200 0 50 fold 
8888 70700 2000 0 fold 
total pot: 50 
/notify 
send notify msg to player 4444 
notify/ 
8888 70700 2000 0 fold 
4444 200 0 50 fold 
total pot: 50 
/notify 

--- 0 players not fold, don't need show down---

---Allocate pot---
pot-win/ 
/pot-win 
it is player 4444's turn to be button

-----322 Hand-----

----- clean player data in socket -----
seat/ 
button: 4444 200 0 
small blind: 8888 70700 2000 
/seat 
blind/ 
8888: 50 
/blind 
player 8888:hold/ 
HEARTS Q 
HEARTS K 
/hold 
player 4444:hold/ 
SPADES Q 
DIAMONDS 6 
/hold 

---pre flop round bet---
valid player: 2, all in player: 0, fold player: 0
send inquire msg to player 4444 
inquire/ 
8888 70650 2000 50 blind 
total pot: 50 
/inquire 
recv from player 4444: fold 

send inquire msg to player 8888 
inquire/ 
4444 200 0 0 fold 
8888 70650 2000 50 blind 
total pot: 50 
/inquire 
recv from player 8888: raise 200 


---flop round bet---
valid player: 2, all in player: 0, fold player: 1

---turn round bet---
valid player: 2, all in player: 0, fold player: 1

---river round bet---
valid player: 2, all in player: 0, fold player: 1

----- notify msg last round -----
send notify msg to player 4444 
notify/ 
8888 70450 2000 250 raise 
4444 200 0 0 fold 
total pot: 250 
/notify 
send notify msg to player 8888 
notify/ 
4444 200 0 0 fold 
8888 70450 2000 250 raise 
total pot: 250 
/notify 

--- 1 players not fold, don't need show down---

---Allocate pot---
Only player at seat 0 not fold, win all the pot 250
pot-win/ 
8888: 250 
/pot-win 
it is player 8888's turn to be button

-----323 Hand-----

----- clean player data in socket -----
seat/ 
button: 8888 70700 2000 
small blind: 4444 200 0 
/seat 
blind/ 
4444: 50 
/blind 
player 4444:hold/ 
HEARTS 7 
HEARTS J 
/hold 
player 8888:hold/ 
SPADES 7 
DIAMONDS 10 
/hold 

---pre flop round bet---
valid player: 2, all in player: 0, fold player: 0
send inquire msg to player 8888 
inquire/ 
4444 150 0 50 blind 
total pot: 50 
/inquire 
recv from player 8888: fold 

send inquire msg to player 4444 
inquire/ 
8888 70700 2000 0 fold 
4444 150 0 50 blind 
total pot: 50 
/inquire 
recv from player 4444: fold 


---flop round bet---
valid player: 2, all in player: 0, fold player: 2

---turn round bet---
valid player: 2, all in player: 0, fold player: 2

---river round bet---
valid player: 2, all in player: 0, fold player: 2

----- notify msg last round -----
send notify msg to player 8888 
notify/ 
4444 150 0 50 fold 
8888 70700 2000 0 fold 
total pot: 50 
/notify 
send notify msg to player 4444 
notify/ 
8888 70700 2000 0 fold 
4444 150 0 50 fold 
total pot: 50 
/notify 

--- 0 players not fold, don't need show down---

---Allocate pot---
pot-win/ 
/pot-win 
it is player 4444's turn to be button

-----324 Hand-----

----- clean player data in socket -----
seat/ 
button: 4444 150 0 
small blind: 8888 70700 2000 
/seat 
blind/ 
8888: 50 
/blind 
player 8888:hold/ 
DIAMONDS J 
DIAMONDS 6 
/hold 
player 4444:hold/ 
HEARTS 7 
HEARTS Q 
/hold 

---pre flop round bet---
valid player: 2, all in player: 0, fold player: 0
send inquire msg to player 4444 
inquire/ 
8888 70650 2000 50 blind 
total pot: 50 
/inquire 
recv from player 4444: fold 

send inquire msg to player 8888 
inquire/ 
4444 150 0 0 fold 
8888 70650 2000 50 blind 
total pot: 50 
/inquire 
recv from player 8888: call 


---flop round bet---
valid player: 2, all in player: 0, fold player: 1

---turn round bet---
valid player: 2, all in player: 0, fold player: 1

---river round bet---
valid player: 2, all in player: 0, fold player: 1

----- notify msg last round -----
send notify msg to player 4444 
notify/ 
8888 70650 2000 50 check 
4444 150 0 0 fold 
total pot: 50 
/notify 
send notify msg to player 8888 
notify/ 
4444 150 0 0 fold 
8888 70650 2000 50 check 
total pot: 50 
/notify 

--- 1 players not fold, don't need show down---

---Allocate pot---
Only player at seat 0 not fold, win all the pot 50
pot-win/ 
8888: 50 
/pot-win 
it is player 8888's turn to be button

-----325 Hand-----

----- clean player data in socket -----
seat/ 
button: 8888 70700 2000 
small blind: 4444 150 0 
/seat 
blind/ 
4444: 50 
/blind 
player 4444:hold/ 
SPADES 6 
HEARTS 3 
/hold 
player 8888:hold/ 
CLUBS 9 
HEARTS 4 
/hold 

---pre flop round bet---
valid player: 2, all in player: 0, fold player: 0
send inquire msg to player 8888 
inquire/ 
4444 100 0 50 blind 
total pot: 50 
/inquire 
recv from player 8888: fold 

send inquire msg to player 4444 
inquire/ 
8888 70700 2000 0 fold 
4444 100 0 50 blind 
total pot: 50 
/inquire 
recv from player 4444: fold 


---flop round bet---
valid player: 2, all in player: 0, fold player: 2

---turn round bet---
valid player: 2, all in player: 0, fold player: 2

---river round bet---
valid player: 2, all in player: 0, fold player: 2

----- notify msg last round -----
send notify msg to player 8888 
notify/ 
4444 100 0 50 fold 
8888 70700 2000 0 fold 
total pot: 50 
/notify 
send notify msg to player 4444 
notify/ 
8888 70700 2000 0 fold 
4444 100 0 50 fold 
total pot: 50 
/notify 

--- 0 players not fold, don't need show down---

---Allocate pot---
pot-win/ 
/pot-win 
it is player 4444's turn to be button

-----326 Hand-----

----- clean player data in socket -----
seat/ 
button: 4444 100 0 
small blind: 8888 70700 2000 
/seat 
blind/ 
8888: 50 
/blind 
player 8888:hold/ 
SPADES 6 
HEARTS 4 
/hold 
player 4444:hold/ 
DIAMONDS 5 
CLUBS 4 
/hold 

---pre flop round bet---
valid player: 2, all in player: 0, fold player: 0
send inquire msg to player 4444 
inquire/ 
8888 70650 2000 50 blind 
total pot: 50 
/inquire 
recv from player 4444: fold 

send inquire msg to player 8888 
inquire/ 
4444 100 0 0 fold 
8888 70650 2000 50 blind 
total pot: 50 
/inquire 
recv from player 8888: fold 


---flop round bet---
valid player: 2, all in player: 0, fold player: 2

---turn round bet---
valid player: 2, all in player: 0, fold player: 2

---river round bet---
valid player: 2, all in player: 0, fold player: 2

----- notify msg last round -----
send notify msg to player 4444 
notify/ 
8888 70650 2000 50 fold 
4444 100 0 0 fold 
total pot: 50 
/notify 
send notify msg to player 8888 
notify/ 
4444 100 0 0 fold 
8888 70650 2000 50 fold 
total pot: 50 
/notify 

--- 0 players not fold, don't need show down---

---Allocate pot---
pot-win/ 
/pot-win 
it is player 8888's turn to be button

-----327 Hand-----

----- clean player data in socket -----
seat/ 
button: 8888 70650 2000 
small blind: 4444 100 0 
/seat 
blind/ 
4444: 50 
/blind 
player 4444:hold/ 
HEARTS 9 
CLUBS 6 
/hold 
player 8888:hold/ 
SPADES 8 
CLUBS J 
/hold 

---pre flop round bet---
valid player: 2, all in player: 0, fold player: 0
send inquire msg to player 8888 
inquire/ 
4444 50 0 50 blind 
total pot: 50 
/inquire 
recv from player 8888: call 

send inquire msg to player 4444 
inquire/ 
8888 70600 2000 50 call 
4444 50 0 50 blind 
total pot: 100 
/inquire 
recv from player 4444: fold 


---flop round bet---
valid player: 2, all in player: 0, fold player: 1

---turn round bet---
valid player: 2, all in player: 0, fold player: 1

---river round bet---
valid player: 2, all in player: 0, fold player: 1

----- notify msg last round -----
send notify msg to player 8888 
notify/ 
4444 50 0 50 fold 
8888 70600 2000 50 call 
total pot: 100 
/notify 
send notify msg to player 4444 
notify/ 
8888 70600 2000 50 call 
4444 50 0 50 fold 
total pot: 100 
/notify 

--- 1 players not fold, don't need show down---

---Allocate pot---
Only player at seat 7 not fold, win all the pot 100
pot-win/ 
8888: 100 
/pot-win 
only 1 player rest, others all quit
game-over